ARM GAS  C:\Users\PANXIA~1\AppData\Local\Temp\ccat6fhZ.s 			page 1


   1              		.cpu cortex-m0
   2              		.fpu softvfp
   3              		.eabi_attribute 20, 1
   4              		.eabi_attribute 21, 1
   5              		.eabi_attribute 23, 3
   6              		.eabi_attribute 24, 1
   7              		.eabi_attribute 25, 1
   8              		.eabi_attribute 26, 1
   9              		.eabi_attribute 30, 6
  10              		.eabi_attribute 34, 0
  11              		.eabi_attribute 18, 4
  12              		.code	16
  13              		.file	"CyLib.c"
  14              		.text
  15              	.Ltext0:
  16              		.cfi_sections	.debug_frame
  17              		.global	cydelayFreqHz
  18              		.data
  19              		.align	2
  20              		.type	cydelayFreqHz, %object
  21              		.size	cydelayFreqHz, 4
  22              	cydelayFreqHz:
  23 0000 00366E01 		.word	24000000
  24              		.global	cydelayFreqKhz
  25              		.align	2
  26              		.type	cydelayFreqKhz, %object
  27              		.size	cydelayFreqKhz, 4
  28              	cydelayFreqKhz:
  29 0004 C05D0000 		.word	24000
  30              		.global	cydelayFreqMhz
  31              		.type	cydelayFreqMhz, %object
  32              		.size	cydelayFreqMhz, 1
  33              	cydelayFreqMhz:
  34 0008 18       		.byte	24
  35              		.global	cydelay32kMs
  36 0009 000000   		.align	2
  37              		.type	cydelay32kMs, %object
  38              		.size	cydelay32kMs, 4
  39              	cydelay32kMs:
  40 000c 0000E02E 		.word	786432000
  41              		.bss
  42              		.align	2
  43              	CySysTickCallbacks:
  44 0000 00000000 		.space	20
  44      00000000 
  44      00000000 
  44      00000000 
  44      00000000 
  45              		.global	CySysTickInitVar
  46              		.align	2
  47              		.type	CySysTickInitVar, %object
  48              		.size	CySysTickInitVar, 4
  49              	CySysTickInitVar:
  50 0014 00000000 		.space	4
  51              		.global	cyImoFreqMhz2Reg
  52              		.section	.rodata
  53              		.align	2
ARM GAS  C:\Users\PANXIA~1\AppData\Local\Temp\ccat6fhZ.s 			page 2


  54              		.type	cyImoFreqMhz2Reg, %object
  55              		.size	cyImoFreqMhz2Reg, 46
  56              	cyImoFreqMhz2Reg:
  57 0000 03       		.byte	3
  58 0001 04       		.byte	4
  59 0002 05       		.byte	5
  60 0003 06       		.byte	6
  61 0004 07       		.byte	7
  62 0005 08       		.byte	8
  63 0006 09       		.byte	9
  64 0007 0A       		.byte	10
  65 0008 0B       		.byte	11
  66 0009 0C       		.byte	12
  67 000a 0E       		.byte	14
  68 000b 0F       		.byte	15
  69 000c 10       		.byte	16
  70 000d 11       		.byte	17
  71 000e 12       		.byte	18
  72 000f 13       		.byte	19
  73 0010 14       		.byte	20
  74 0011 15       		.byte	21
  75 0012 16       		.byte	22
  76 0013 17       		.byte	23
  77 0014 18       		.byte	24
  78 0015 19       		.byte	25
  79 0016 1B       		.byte	27
  80 0017 1C       		.byte	28
  81 0018 1D       		.byte	29
  82 0019 1E       		.byte	30
  83 001a 1F       		.byte	31
  84 001b 20       		.byte	32
  85 001c 21       		.byte	33
  86 001d 22       		.byte	34
  87 001e 23       		.byte	35
  88 001f 25       		.byte	37
  89 0020 26       		.byte	38
  90 0021 27       		.byte	39
  91 0022 28       		.byte	40
  92 0023 29       		.byte	41
  93 0024 2A       		.byte	42
  94 0025 2B       		.byte	43
  95 0026 2E       		.byte	46
  96 0027 2F       		.byte	47
  97 0028 30       		.byte	48
  98 0029 31       		.byte	49
  99 002a 32       		.byte	50
 100 002b 33       		.byte	51
 101 002c 34       		.byte	52
 102 002d 35       		.byte	53
 103 002e 0000     		.section	.text.CySysClkImoStart,"ax",%progbits
 104              		.align	2
 105              		.global	CySysClkImoStart
 106              		.code	16
 107              		.thumb_func
 108              		.type	CySysClkImoStart, %function
 109              	CySysClkImoStart:
 110              	.LFB0:
ARM GAS  C:\Users\PANXIA~1\AppData\Local\Temp\ccat6fhZ.s 			page 3


 111              		.file 1 ".\\Generated_Source\\PSoC4\\CyLib.c"
   1:.\Generated_Source\PSoC4/CyLib.c **** /*******************************************************************************
   2:.\Generated_Source\PSoC4/CyLib.c **** * File Name: CyLib.c
   3:.\Generated_Source\PSoC4/CyLib.c **** * Version 5.20
   4:.\Generated_Source\PSoC4/CyLib.c **** *
   5:.\Generated_Source\PSoC4/CyLib.c **** *  Description:
   6:.\Generated_Source\PSoC4/CyLib.c **** *   Provides a system API for the clocking, interrupts, and watchdog timer.
   7:.\Generated_Source\PSoC4/CyLib.c **** *
   8:.\Generated_Source\PSoC4/CyLib.c **** *  Note:
   9:.\Generated_Source\PSoC4/CyLib.c **** *   Documentation of the API's in this file is located in the
  10:.\Generated_Source\PSoC4/CyLib.c **** *   System Reference Guide provided with PSoC Creator.
  11:.\Generated_Source\PSoC4/CyLib.c **** *
  12:.\Generated_Source\PSoC4/CyLib.c **** ********************************************************************************
  13:.\Generated_Source\PSoC4/CyLib.c **** * Copyright 2010-2015, Cypress Semiconductor Corporation.  All rights reserved.
  14:.\Generated_Source\PSoC4/CyLib.c **** * You may use this file only in accordance with the license, terms, conditions,
  15:.\Generated_Source\PSoC4/CyLib.c **** * disclaimers, and limitations in the end user license agreement accompanying
  16:.\Generated_Source\PSoC4/CyLib.c **** * the software package with which this file was provided.
  17:.\Generated_Source\PSoC4/CyLib.c **** *******************************************************************************/
  18:.\Generated_Source\PSoC4/CyLib.c **** 
  19:.\Generated_Source\PSoC4/CyLib.c **** #include "CyLib.h"
  20:.\Generated_Source\PSoC4/CyLib.c **** 
  21:.\Generated_Source\PSoC4/CyLib.c **** #if(CY_IP_SRSSV2 && CY_IP_FMLT)
  22:.\Generated_Source\PSoC4/CyLib.c ****     #include "CyFlash.h"
  23:.\Generated_Source\PSoC4/CyLib.c **** #endif /* (CY_IP_SRSSV2 && CY_IP_FMLT) */
  24:.\Generated_Source\PSoC4/CyLib.c **** 
  25:.\Generated_Source\PSoC4/CyLib.c **** 
  26:.\Generated_Source\PSoC4/CyLib.c **** /* Do not use these definitions directly in your application */
  27:.\Generated_Source\PSoC4/CyLib.c **** uint32 cydelayFreqHz  = CYDEV_BCLK__SYSCLK__HZ;
  28:.\Generated_Source\PSoC4/CyLib.c **** uint32 cydelayFreqKhz = (CYDEV_BCLK__SYSCLK__HZ + CY_DELAY_1K_MINUS_1_THRESHOLD) / CY_DELAY_1K_THRE
  29:.\Generated_Source\PSoC4/CyLib.c **** uint8  cydelayFreqMhz = (uint8)((CYDEV_BCLK__SYSCLK__HZ + CY_DELAY_1M_MINUS_1_THRESHOLD) / CY_DELAY
  30:.\Generated_Source\PSoC4/CyLib.c **** uint32 cydelay32kMs   = CY_DELAY_MS_OVERFLOW * ((CYDEV_BCLK__SYSCLK__HZ + CY_DELAY_1K_MINUS_1_THRES
  31:.\Generated_Source\PSoC4/CyLib.c ****                         CY_DELAY_1K_THRESHOLD);
  32:.\Generated_Source\PSoC4/CyLib.c **** 
  33:.\Generated_Source\PSoC4/CyLib.c **** 
  34:.\Generated_Source\PSoC4/CyLib.c **** static cySysTickCallback CySysTickCallbacks[CY_SYS_SYST_NUM_OF_CALLBACKS];
  35:.\Generated_Source\PSoC4/CyLib.c **** static void CySysTickServiceCallbacks(void);
  36:.\Generated_Source\PSoC4/CyLib.c **** #if (CY_PSOC4_4100M || CY_PSOC4_4200M)
  37:.\Generated_Source\PSoC4/CyLib.c ****     static uint32 CySysClkImoGetWcoLock(void);
  38:.\Generated_Source\PSoC4/CyLib.c **** #endif  /* (CY_PSOC4_4100M || CY_PSOC4_4200M) */
  39:.\Generated_Source\PSoC4/CyLib.c **** 
  40:.\Generated_Source\PSoC4/CyLib.c **** 
  41:.\Generated_Source\PSoC4/CyLib.c **** /*******************************************************************************
  42:.\Generated_Source\PSoC4/CyLib.c **** * Indicates whether or not the SysTick has been initialized. The variable is
  43:.\Generated_Source\PSoC4/CyLib.c **** * initialized to 0 and set to 1 the first time CySysTickStart() is called.
  44:.\Generated_Source\PSoC4/CyLib.c **** *
  45:.\Generated_Source\PSoC4/CyLib.c **** * This allows the component to restart without reinitialization after the first
  46:.\Generated_Source\PSoC4/CyLib.c **** * call to the CySysTickStart() routine.
  47:.\Generated_Source\PSoC4/CyLib.c **** *
  48:.\Generated_Source\PSoC4/CyLib.c **** * If reinitialization of the SysTick is required, call CySysTickInit() before
  49:.\Generated_Source\PSoC4/CyLib.c **** * calling CySysTickStart(). Alternatively, the SysTick can be reinitialized by
  50:.\Generated_Source\PSoC4/CyLib.c **** * calling the CySysTickInit() and CySysTickEnable() functions.
  51:.\Generated_Source\PSoC4/CyLib.c **** *******************************************************************************/
  52:.\Generated_Source\PSoC4/CyLib.c **** uint32 CySysTickInitVar = 0u;
  53:.\Generated_Source\PSoC4/CyLib.c **** 
  54:.\Generated_Source\PSoC4/CyLib.c **** 
  55:.\Generated_Source\PSoC4/CyLib.c **** #if(CY_IP_SRSSV2)
  56:.\Generated_Source\PSoC4/CyLib.c ****         /* Conversion between CySysClkWriteImoFreq() parameter and register's value */
ARM GAS  C:\Users\PANXIA~1\AppData\Local\Temp\ccat6fhZ.s 			page 4


  57:.\Generated_Source\PSoC4/CyLib.c ****         const uint8 cyImoFreqMhz2Reg[CY_SYS_CLK_IMO_FREQ_TABLE_SIZE] = {
  58:.\Generated_Source\PSoC4/CyLib.c ****             /*  3 MHz */ 0x03u,  /*  4 MHz */ 0x04u,  /*  5 MHz */ 0x05u,  /*  6 MHz */ 0x06u,
  59:.\Generated_Source\PSoC4/CyLib.c ****             /*  7 MHz */ 0x07u,  /*  8 MHz */ 0x08u,  /*  9 MHz */ 0x09u,  /* 10 MHz */ 0x0Au,
  60:.\Generated_Source\PSoC4/CyLib.c ****             /* 11 MHz */ 0x0Bu,  /* 12 MHz */ 0x0Cu,  /* 13 MHz */ 0x0Eu,  /* 14 MHz */ 0x0Fu,
  61:.\Generated_Source\PSoC4/CyLib.c ****             /* 15 MHz */ 0x10u,  /* 16 MHz */ 0x11u,  /* 17 MHz */ 0x12u,  /* 18 MHz */ 0x13u,
  62:.\Generated_Source\PSoC4/CyLib.c ****             /* 19 MHz */ 0x14u,  /* 20 MHz */ 0x15u,  /* 21 MHz */ 0x16u,  /* 22 MHz */ 0x17u,
  63:.\Generated_Source\PSoC4/CyLib.c ****             /* 23 MHz */ 0x18u,  /* 24 MHz */ 0x19u,  /* 25 MHz */ 0x1Bu,  /* 26 MHz */ 0x1Cu,
  64:.\Generated_Source\PSoC4/CyLib.c ****             /* 27 MHz */ 0x1Du,  /* 28 MHz */ 0x1Eu,  /* 29 MHz */ 0x1Fu,  /* 30 MHz */ 0x20u,
  65:.\Generated_Source\PSoC4/CyLib.c ****             /* 31 MHz */ 0x21u,  /* 32 MHz */ 0x22u,  /* 33 MHz */ 0x23u,  /* 34 MHz */ 0x25u,
  66:.\Generated_Source\PSoC4/CyLib.c ****             /* 35 MHz */ 0x26u,  /* 36 MHz */ 0x27u,  /* 37 MHz */ 0x28u,  /* 38 MHz */ 0x29u,
  67:.\Generated_Source\PSoC4/CyLib.c ****             /* 39 MHz */ 0x2Au,  /* 40 MHz */ 0x2Bu,  /* 41 MHz */ 0x2Eu,  /* 42 MHz */ 0x2Fu,
  68:.\Generated_Source\PSoC4/CyLib.c ****             /* 43 MHz */ 0x30u,  /* 44 MHz */ 0x31u,  /* 45 MHz */ 0x32u,  /* 46 MHz */ 0x33u,
  69:.\Generated_Source\PSoC4/CyLib.c ****             /* 47 MHz */ 0x34u,  /* 48 MHz */ 0x35u };
  70:.\Generated_Source\PSoC4/CyLib.c **** #endif /* (CY_IP_SRSSV2) */
  71:.\Generated_Source\PSoC4/CyLib.c **** 
  72:.\Generated_Source\PSoC4/CyLib.c **** 
  73:.\Generated_Source\PSoC4/CyLib.c **** /*******************************************************************************
  74:.\Generated_Source\PSoC4/CyLib.c **** * Function Name: CySysClkImoStart
  75:.\Generated_Source\PSoC4/CyLib.c **** ********************************************************************************
  76:.\Generated_Source\PSoC4/CyLib.c **** *
  77:.\Generated_Source\PSoC4/CyLib.c **** * Summary:
  78:.\Generated_Source\PSoC4/CyLib.c **** *  Enables the IMO.
  79:.\Generated_Source\PSoC4/CyLib.c **** *
  80:.\Generated_Source\PSoC4/CyLib.c **** *  For PSoC 4100M / PSoC 4200M devices, this function will also enable WCO lock
  81:.\Generated_Source\PSoC4/CyLib.c **** *  if selected in the Design Wide Resources tab.
  82:.\Generated_Source\PSoC4/CyLib.c **** *
  83:.\Generated_Source\PSoC4/CyLib.c **** * Parameters:
  84:.\Generated_Source\PSoC4/CyLib.c **** *  None
  85:.\Generated_Source\PSoC4/CyLib.c **** *
  86:.\Generated_Source\PSoC4/CyLib.c **** * Return:
  87:.\Generated_Source\PSoC4/CyLib.c **** *  None
  88:.\Generated_Source\PSoC4/CyLib.c **** *
  89:.\Generated_Source\PSoC4/CyLib.c **** *******************************************************************************/
  90:.\Generated_Source\PSoC4/CyLib.c **** void CySysClkImoStart(void)
  91:.\Generated_Source\PSoC4/CyLib.c **** {
 112              		.loc 1 91 0
 113              		.cfi_startproc
 114 0000 80B5     		push	{r7, lr}
 115              		.cfi_def_cfa_offset 8
 116              		.cfi_offset 7, -8
 117              		.cfi_offset 14, -4
 118 0002 00AF     		add	r7, sp, #0
 119              		.cfi_def_cfa_register 7
  92:.\Generated_Source\PSoC4/CyLib.c ****     CY_SYS_CLK_IMO_CONFIG_REG |= CY_SYS_CLK_IMO_CONFIG_ENABLE;
 120              		.loc 1 92 0
 121 0004 044B     		ldr	r3, .L2
 122 0006 044A     		ldr	r2, .L2
 123 0008 1268     		ldr	r2, [r2]
 124 000a 8021     		mov	r1, #128
 125 000c 0906     		lsl	r1, r1, #24
 126 000e 0A43     		orr	r2, r1
 127 0010 1A60     		str	r2, [r3]
  93:.\Generated_Source\PSoC4/CyLib.c **** 
  94:.\Generated_Source\PSoC4/CyLib.c ****     #if (CY_PSOC4_4100M || CY_PSOC4_4200M)
  95:.\Generated_Source\PSoC4/CyLib.c ****         #if (CYDEV_IMO_TRIMMED_BY_WCO == 1u)
  96:.\Generated_Source\PSoC4/CyLib.c ****             CySysClkImoEnableWcoLock();
  97:.\Generated_Source\PSoC4/CyLib.c ****         #endif  /* (CYDEV_IMO_TRIMMED_BY_WCO == 1u) */
ARM GAS  C:\Users\PANXIA~1\AppData\Local\Temp\ccat6fhZ.s 			page 5


  98:.\Generated_Source\PSoC4/CyLib.c ****     #endif  /* (CY_PSOC4_4100M || CY_PSOC4_4200M) */
  99:.\Generated_Source\PSoC4/CyLib.c **** 
 100:.\Generated_Source\PSoC4/CyLib.c **** }
 128              		.loc 1 100 0
 129 0012 BD46     		mov	sp, r7
 130              		@ sp needed
 131 0014 80BD     		pop	{r7, pc}
 132              	.L3:
 133 0016 C046     		.align	2
 134              	.L2:
 135 0018 08010B40 		.word	1074462984
 136              		.cfi_endproc
 137              	.LFE0:
 138              		.size	CySysClkImoStart, .-CySysClkImoStart
 139              		.section	.text.CySysClkImoStop,"ax",%progbits
 140              		.align	2
 141              		.global	CySysClkImoStop
 142              		.code	16
 143              		.thumb_func
 144              		.type	CySysClkImoStop, %function
 145              	CySysClkImoStop:
 146              	.LFB1:
 101:.\Generated_Source\PSoC4/CyLib.c **** 
 102:.\Generated_Source\PSoC4/CyLib.c **** 
 103:.\Generated_Source\PSoC4/CyLib.c **** /*******************************************************************************
 104:.\Generated_Source\PSoC4/CyLib.c **** * Function Name: CySysClkImoStop
 105:.\Generated_Source\PSoC4/CyLib.c **** ********************************************************************************
 106:.\Generated_Source\PSoC4/CyLib.c **** *
 107:.\Generated_Source\PSoC4/CyLib.c **** * Summary:
 108:.\Generated_Source\PSoC4/CyLib.c **** *  Disables the IMO.
 109:.\Generated_Source\PSoC4/CyLib.c **** *
 110:.\Generated_Source\PSoC4/CyLib.c **** *  For PSoC 4100M/PSoC 4200M devices , this function will also disable WCO lock
 111:.\Generated_Source\PSoC4/CyLib.c **** *  if already enabled.
 112:.\Generated_Source\PSoC4/CyLib.c **** *
 113:.\Generated_Source\PSoC4/CyLib.c **** * Parameters:
 114:.\Generated_Source\PSoC4/CyLib.c **** *  None
 115:.\Generated_Source\PSoC4/CyLib.c **** *
 116:.\Generated_Source\PSoC4/CyLib.c **** * Return:
 117:.\Generated_Source\PSoC4/CyLib.c **** *  None
 118:.\Generated_Source\PSoC4/CyLib.c **** *
 119:.\Generated_Source\PSoC4/CyLib.c **** *******************************************************************************/
 120:.\Generated_Source\PSoC4/CyLib.c **** void CySysClkImoStop(void)
 121:.\Generated_Source\PSoC4/CyLib.c **** {
 147              		.loc 1 121 0
 148              		.cfi_startproc
 149 0000 80B5     		push	{r7, lr}
 150              		.cfi_def_cfa_offset 8
 151              		.cfi_offset 7, -8
 152              		.cfi_offset 14, -4
 153 0002 00AF     		add	r7, sp, #0
 154              		.cfi_def_cfa_register 7
 122:.\Generated_Source\PSoC4/CyLib.c ****     #if (CY_PSOC4_4100M || CY_PSOC4_4200M)
 123:.\Generated_Source\PSoC4/CyLib.c ****         CySysClkImoDisableWcoLock();
 124:.\Generated_Source\PSoC4/CyLib.c ****     #endif  /* #if (CY_PSOC4_4100M || CY_PSOC4_4200M) */
 125:.\Generated_Source\PSoC4/CyLib.c **** 
 126:.\Generated_Source\PSoC4/CyLib.c ****     CY_SYS_CLK_IMO_CONFIG_REG &= ( uint32 ) ( ~( uint32 )CY_SYS_CLK_IMO_CONFIG_ENABLE);
 155              		.loc 1 126 0
ARM GAS  C:\Users\PANXIA~1\AppData\Local\Temp\ccat6fhZ.s 			page 6


 156 0004 034B     		ldr	r3, .L5
 157 0006 034A     		ldr	r2, .L5
 158 0008 1268     		ldr	r2, [r2]
 159 000a 5200     		lsl	r2, r2, #1
 160 000c 5208     		lsr	r2, r2, #1
 161 000e 1A60     		str	r2, [r3]
 127:.\Generated_Source\PSoC4/CyLib.c **** }
 162              		.loc 1 127 0
 163 0010 BD46     		mov	sp, r7
 164              		@ sp needed
 165 0012 80BD     		pop	{r7, pc}
 166              	.L6:
 167              		.align	2
 168              	.L5:
 169 0014 08010B40 		.word	1074462984
 170              		.cfi_endproc
 171              	.LFE1:
 172              		.size	CySysClkImoStop, .-CySysClkImoStop
 173              		.section	.text.CySysClkWriteHfclkDirect,"ax",%progbits
 174              		.align	2
 175              		.global	CySysClkWriteHfclkDirect
 176              		.code	16
 177              		.thumb_func
 178              		.type	CySysClkWriteHfclkDirect, %function
 179              	CySysClkWriteHfclkDirect:
 180              	.LFB2:
 128:.\Generated_Source\PSoC4/CyLib.c **** 
 129:.\Generated_Source\PSoC4/CyLib.c **** #if (CY_PSOC4_4100M || CY_PSOC4_4200M)
 130:.\Generated_Source\PSoC4/CyLib.c **** 
 131:.\Generated_Source\PSoC4/CyLib.c ****     /*******************************************************************************
 132:.\Generated_Source\PSoC4/CyLib.c ****     * Function Name: CySysClkImoEnableWcoLock
 133:.\Generated_Source\PSoC4/CyLib.c ****     ********************************************************************************
 134:.\Generated_Source\PSoC4/CyLib.c ****     *
 135:.\Generated_Source\PSoC4/CyLib.c ****     * Summary:
 136:.\Generated_Source\PSoC4/CyLib.c ****     *  Enables the IMO to WCO lock feature. This function works only if the WCO is
 137:.\Generated_Source\PSoC4/CyLib.c ****     *  already enabled. If the WCO is not enabled then this function returns
 138:.\Generated_Source\PSoC4/CyLib.c ****     *  without enabling the lock feature.
 139:.\Generated_Source\PSoC4/CyLib.c ****     *
 140:.\Generated_Source\PSoC4/CyLib.c ****     *  This function is applicable for PSoC 4100M/PSoC 4200M devices only.
 141:.\Generated_Source\PSoC4/CyLib.c ****     *
 142:.\Generated_Source\PSoC4/CyLib.c ****     * Parameters:
 143:.\Generated_Source\PSoC4/CyLib.c ****     *  None
 144:.\Generated_Source\PSoC4/CyLib.c ****     *
 145:.\Generated_Source\PSoC4/CyLib.c ****     * Return:
 146:.\Generated_Source\PSoC4/CyLib.c ****     *  None
 147:.\Generated_Source\PSoC4/CyLib.c ****     *
 148:.\Generated_Source\PSoC4/CyLib.c ****     *******************************************************************************/
 149:.\Generated_Source\PSoC4/CyLib.c ****     void CySysClkImoEnableWcoLock(void)
 150:.\Generated_Source\PSoC4/CyLib.c ****     {
 151:.\Generated_Source\PSoC4/CyLib.c ****         uint32 i;
 152:.\Generated_Source\PSoC4/CyLib.c ****         uint32 freq = CY_SYS_CLK_IMO_MIN_FREQ_MHZ;
 153:.\Generated_Source\PSoC4/CyLib.c ****         uint8  interruptState;
 154:.\Generated_Source\PSoC4/CyLib.c ****         uint32 regTmp;
 155:.\Generated_Source\PSoC4/CyLib.c ****         volatile uint32 flashCtlReg;
 156:.\Generated_Source\PSoC4/CyLib.c **** 
 157:.\Generated_Source\PSoC4/CyLib.c ****         if (0u != CySysClkWcoEnabled())
 158:.\Generated_Source\PSoC4/CyLib.c ****         {
ARM GAS  C:\Users\PANXIA~1\AppData\Local\Temp\ccat6fhZ.s 			page 7


 159:.\Generated_Source\PSoC4/CyLib.c ****             interruptState = CyEnterCriticalSection();
 160:.\Generated_Source\PSoC4/CyLib.c **** 
 161:.\Generated_Source\PSoC4/CyLib.c ****             /* Get current IMO frequency based on the register value */
 162:.\Generated_Source\PSoC4/CyLib.c ****             for(i = 0u; i < CY_SYS_CLK_IMO_FREQ_TABLE_SIZE; i++)
 163:.\Generated_Source\PSoC4/CyLib.c ****             {
 164:.\Generated_Source\PSoC4/CyLib.c ****                 if ((uint8) (CY_SYS_CLK_IMO_TRIM2_REG & CY_SYS_CLK_IMO_FREQ_BITS_MASK) == cyImoFreq
 165:.\Generated_Source\PSoC4/CyLib.c ****                 {
 166:.\Generated_Source\PSoC4/CyLib.c ****                     freq = i + CY_SYS_CLK_IMO_FREQ_TABLE_OFFSET;
 167:.\Generated_Source\PSoC4/CyLib.c ****                     break;
 168:.\Generated_Source\PSoC4/CyLib.c ****                 }
 169:.\Generated_Source\PSoC4/CyLib.c ****             }
 170:.\Generated_Source\PSoC4/CyLib.c **** 
 171:.\Generated_Source\PSoC4/CyLib.c ****             if ((CY_SYS_CLK_IMO_TRIM4_REG & CY_SYS_CLK_IMO_TRIM4_GAIN_MASK) == 0u)
 172:.\Generated_Source\PSoC4/CyLib.c ****             {
 173:.\Generated_Source\PSoC4/CyLib.c **** 			    CY_SYS_CLK_IMO_TRIM4_REG = (CY_SYS_CLK_IMO_TRIM4_REG & (uint32) ~CY_SYS_CLK_IMO_TRIM4_GAIN_M
 174:.\Generated_Source\PSoC4/CyLib.c **** 			             				    CY_SYS_CLK_IMO_TRIM4_GAIN;
 175:.\Generated_Source\PSoC4/CyLib.c ****             }
 176:.\Generated_Source\PSoC4/CyLib.c **** 
 177:.\Generated_Source\PSoC4/CyLib.c ****             regTmp  = CY_SYS_CLK_WCO_DPLL_REG & ~(CY_SYS_CLK_WCO_DPLL_MULT_MASK |
 178:.\Generated_Source\PSoC4/CyLib.c ****                                                   CY_SYS_CLK_WCO_CONFIG_DPLL_LF_IGAIN_MASK |
 179:.\Generated_Source\PSoC4/CyLib.c ****                                                   CY_SYS_CLK_WCO_CONFIG_DPLL_LF_PGAIN_MASK);
 180:.\Generated_Source\PSoC4/CyLib.c **** 
 181:.\Generated_Source\PSoC4/CyLib.c ****             /* Set multiplier to determine IMO frequency in multiples of the WCO frequency */
 182:.\Generated_Source\PSoC4/CyLib.c ****             regTmp |= (CY_SYS_CLK_WCO_DPLL_MULT_VALUE(freq) & CY_SYS_CLK_WCO_DPLL_MULT_MASK);
 183:.\Generated_Source\PSoC4/CyLib.c **** 
 184:.\Generated_Source\PSoC4/CyLib.c ****             /* Set DPLL Loop Filter Integral and Proportional Gains Setting */
 185:.\Generated_Source\PSoC4/CyLib.c ****             regTmp |= (CY_SYS_CLK_WCO_CONFIG_DPLL_LF_IGAIN | CY_SYS_CLK_WCO_CONFIG_DPLL_LF_PGAIN);
 186:.\Generated_Source\PSoC4/CyLib.c **** 
 187:.\Generated_Source\PSoC4/CyLib.c ****             CY_SYS_CLK_WCO_DPLL_REG = regTmp;
 188:.\Generated_Source\PSoC4/CyLib.c **** 
 189:.\Generated_Source\PSoC4/CyLib.c ****             flashCtlReg = CY_FLASH_CTL_REG;
 190:.\Generated_Source\PSoC4/CyLib.c ****             CySysFlashSetWaitCycles(CY_SYS_CLK_IMO_MAX_FREQ_MHZ);
 191:.\Generated_Source\PSoC4/CyLib.c ****             CY_SYS_CLK_WCO_CONFIG_REG |= CY_SYS_CLK_WCO_CONFIG_DPLL_ENABLE;
 192:.\Generated_Source\PSoC4/CyLib.c ****             CyDelay(320u);
 193:.\Generated_Source\PSoC4/CyLib.c ****             CY_FLASH_CTL_REG = flashCtlReg;
 194:.\Generated_Source\PSoC4/CyLib.c **** 
 195:.\Generated_Source\PSoC4/CyLib.c ****             CyExitCriticalSection(interruptState);
 196:.\Generated_Source\PSoC4/CyLib.c ****         }
 197:.\Generated_Source\PSoC4/CyLib.c ****     }
 198:.\Generated_Source\PSoC4/CyLib.c **** 
 199:.\Generated_Source\PSoC4/CyLib.c **** 
 200:.\Generated_Source\PSoC4/CyLib.c ****     /*******************************************************************************
 201:.\Generated_Source\PSoC4/CyLib.c ****     * Function Name: CySysClkImoDisableWcoLock
 202:.\Generated_Source\PSoC4/CyLib.c ****     ********************************************************************************
 203:.\Generated_Source\PSoC4/CyLib.c ****     *
 204:.\Generated_Source\PSoC4/CyLib.c ****     * Summary:
 205:.\Generated_Source\PSoC4/CyLib.c ****     *  Disables the IMO to WCO lock feature.
 206:.\Generated_Source\PSoC4/CyLib.c ****     *
 207:.\Generated_Source\PSoC4/CyLib.c ****     *  This function is applicable for PSoC 4100M/PSoC 4200M devices only.
 208:.\Generated_Source\PSoC4/CyLib.c ****     *
 209:.\Generated_Source\PSoC4/CyLib.c ****     * Parameters:
 210:.\Generated_Source\PSoC4/CyLib.c ****     *  None
 211:.\Generated_Source\PSoC4/CyLib.c ****     *
 212:.\Generated_Source\PSoC4/CyLib.c ****     * Return:
 213:.\Generated_Source\PSoC4/CyLib.c ****     *  None
 214:.\Generated_Source\PSoC4/CyLib.c ****     *
 215:.\Generated_Source\PSoC4/CyLib.c ****     *******************************************************************************/
ARM GAS  C:\Users\PANXIA~1\AppData\Local\Temp\ccat6fhZ.s 			page 8


 216:.\Generated_Source\PSoC4/CyLib.c ****     void CySysClkImoDisableWcoLock(void)
 217:.\Generated_Source\PSoC4/CyLib.c ****     {
 218:.\Generated_Source\PSoC4/CyLib.c ****         CY_SYS_CLK_WCO_CONFIG_REG &= (uint32) ~CY_SYS_CLK_WCO_CONFIG_DPLL_ENABLE;
 219:.\Generated_Source\PSoC4/CyLib.c ****     }
 220:.\Generated_Source\PSoC4/CyLib.c **** 
 221:.\Generated_Source\PSoC4/CyLib.c **** 
 222:.\Generated_Source\PSoC4/CyLib.c ****     /*******************************************************************************
 223:.\Generated_Source\PSoC4/CyLib.c ****     * Function Name: CySysClkImoGetWcoLock
 224:.\Generated_Source\PSoC4/CyLib.c ****     ********************************************************************************
 225:.\Generated_Source\PSoC4/CyLib.c ****     *
 226:.\Generated_Source\PSoC4/CyLib.c ****     * Summary:
 227:.\Generated_Source\PSoC4/CyLib.c ****     *  Reports the IMO to WCO lock enable state.
 228:.\Generated_Source\PSoC4/CyLib.c ****     *
 229:.\Generated_Source\PSoC4/CyLib.c ****     *  This function is applicable for PSoC 4100M/PSoC 4200M devices only.
 230:.\Generated_Source\PSoC4/CyLib.c ****     *
 231:.\Generated_Source\PSoC4/CyLib.c ****     * Parameters:
 232:.\Generated_Source\PSoC4/CyLib.c ****     *  None
 233:.\Generated_Source\PSoC4/CyLib.c ****     *
 234:.\Generated_Source\PSoC4/CyLib.c ****     * Return:
 235:.\Generated_Source\PSoC4/CyLib.c ****     *  1 if IMO to WCO lock is enabled, and 0 if IMO to WCO lock is disabled.
 236:.\Generated_Source\PSoC4/CyLib.c ****     *
 237:.\Generated_Source\PSoC4/CyLib.c ****     *******************************************************************************/
 238:.\Generated_Source\PSoC4/CyLib.c ****     static uint32 CySysClkImoGetWcoLock(void)
 239:.\Generated_Source\PSoC4/CyLib.c ****     {
 240:.\Generated_Source\PSoC4/CyLib.c ****         return ((0u != (CY_SYS_CLK_WCO_CONFIG_REG & CY_SYS_CLK_WCO_CONFIG_DPLL_ENABLE)) ?
 241:.\Generated_Source\PSoC4/CyLib.c ****                 (uint32) 1u :
 242:.\Generated_Source\PSoC4/CyLib.c ****                 (uint32) 0u);
 243:.\Generated_Source\PSoC4/CyLib.c ****     }
 244:.\Generated_Source\PSoC4/CyLib.c **** 
 245:.\Generated_Source\PSoC4/CyLib.c **** #endif /* (CY_PSOC4_4100M || CY_PSOC4_4200M) */
 246:.\Generated_Source\PSoC4/CyLib.c **** 
 247:.\Generated_Source\PSoC4/CyLib.c **** 
 248:.\Generated_Source\PSoC4/CyLib.c **** /*******************************************************************************
 249:.\Generated_Source\PSoC4/CyLib.c **** * Function Name: CySysClkWriteHfclkDirect
 250:.\Generated_Source\PSoC4/CyLib.c **** ********************************************************************************
 251:.\Generated_Source\PSoC4/CyLib.c **** *
 252:.\Generated_Source\PSoC4/CyLib.c **** * Summary:
 253:.\Generated_Source\PSoC4/CyLib.c **** *  Selects the direct source for the HFCLK.
 254:.\Generated_Source\PSoC4/CyLib.c **** *
 255:.\Generated_Source\PSoC4/CyLib.c **** * Parameters:
 256:.\Generated_Source\PSoC4/CyLib.c **** *  clkSelect: One of the available HFCLK direct sources:
 257:.\Generated_Source\PSoC4/CyLib.c **** *   Define                    Source
 258:.\Generated_Source\PSoC4/CyLib.c **** *    CY_SYS_CLK_HFCLK_IMO     IMO
 259:.\Generated_Source\PSoC4/CyLib.c **** *    CY_SYS_CLK_HFCLK_EXTCLK  External clock pin
 260:.\Generated_Source\PSoC4/CyLib.c **** *    CY_SYS_CLK_HFCLK_ECO     External crystal oscillator
 261:.\Generated_Source\PSoC4/CyLib.c **** *                             (applicable only for PSoC 4100-BL / PSoC 4200-BL)
 262:.\Generated_Source\PSoC4/CyLib.c **** *
 263:.\Generated_Source\PSoC4/CyLib.c **** * Return:
 264:.\Generated_Source\PSoC4/CyLib.c **** *  None
 265:.\Generated_Source\PSoC4/CyLib.c **** *
 266:.\Generated_Source\PSoC4/CyLib.c **** * Side Effects:
 267:.\Generated_Source\PSoC4/CyLib.c **** *  The new source must be running and stable before calling this function.
 268:.\Generated_Source\PSoC4/CyLib.c **** *
 269:.\Generated_Source\PSoC4/CyLib.c **** *  PSoC 4000:
 270:.\Generated_Source\PSoC4/CyLib.c **** *  The SYSCLK has a maximum speed of 16 MHz, so HFCLK and SYSCLK dividers should
 271:.\Generated_Source\PSoC4/CyLib.c **** *  be selected in a way to not to exceed 16 MHz for the System clock.
 272:.\Generated_Source\PSoC4/CyLib.c **** *
ARM GAS  C:\Users\PANXIA~1\AppData\Local\Temp\ccat6fhZ.s 			page 9


 273:.\Generated_Source\PSoC4/CyLib.c **** *  If the SYSCLK clock frequency increases during device operation, call
 274:.\Generated_Source\PSoC4/CyLib.c **** *  CySysFlashSetWaitCycles() with the appropriate parameter to adjust the number
 275:.\Generated_Source\PSoC4/CyLib.c **** *  of clock cycles the cache will wait before sampling data comes back from
 276:.\Generated_Source\PSoC4/CyLib.c **** *  Flash. If the SYSCLK clock frequency decreases, you can call
 277:.\Generated_Source\PSoC4/CyLib.c **** *  CySysFlashSetWaitCycles() to improve the CPU performance. See
 278:.\Generated_Source\PSoC4/CyLib.c **** *  CySysFlashSetWaitCycles() description for more information.
 279:.\Generated_Source\PSoC4/CyLib.c **** *
 280:.\Generated_Source\PSoC4/CyLib.c **** *******************************************************************************/
 281:.\Generated_Source\PSoC4/CyLib.c **** void CySysClkWriteHfclkDirect(uint32 clkSelect)
 282:.\Generated_Source\PSoC4/CyLib.c **** {
 181              		.loc 1 282 0
 182              		.cfi_startproc
 183 0000 90B5     		push	{r4, r7, lr}
 184              		.cfi_def_cfa_offset 12
 185              		.cfi_offset 4, -12
 186              		.cfi_offset 7, -8
 187              		.cfi_offset 14, -4
 188 0002 85B0     		sub	sp, sp, #20
 189              		.cfi_def_cfa_offset 32
 190 0004 00AF     		add	r7, sp, #0
 191              		.cfi_def_cfa_register 7
 192 0006 7860     		str	r0, [r7, #4]
 283:.\Generated_Source\PSoC4/CyLib.c ****     uint8  interruptState;
 284:.\Generated_Source\PSoC4/CyLib.c **** 
 285:.\Generated_Source\PSoC4/CyLib.c ****     interruptState = CyEnterCriticalSection();
 193              		.loc 1 285 0
 194 0008 0F23     		mov	r3, #15
 195 000a FC18     		add	r4, r7, r3
 196 000c FFF7FEFF 		bl	CyEnterCriticalSection
 197 0010 031C     		mov	r3, r0
 198 0012 2370     		strb	r3, [r4]
 286:.\Generated_Source\PSoC4/CyLib.c **** 
 287:.\Generated_Source\PSoC4/CyLib.c ****     CY_SYS_CLK_SELECT_REG = ((CY_SYS_CLK_SELECT_REG & (( uint32 ) ~(( uint32 )CY_SYS_CLK_SELECT_DIR
 199              		.loc 1 287 0
 200 0014 094B     		ldr	r3, .L8
 201 0016 094A     		ldr	r2, .L8
 202 0018 1268     		ldr	r2, [r2]
 203 001a 0721     		mov	r1, #7
 204 001c 8A43     		bic	r2, r1
 205 001e 111C     		mov	r1, r2
 288:.\Generated_Source\PSoC4/CyLib.c ****                         (( uint32 ) (clkSelect & ( uint32 )CY_SYS_CLK_SELECT_DIRECT_SEL_PARAM_MASK)
 206              		.loc 1 288 0
 207 0020 7A68     		ldr	r2, [r7, #4]
 208 0022 0120     		mov	r0, #1
 209 0024 0240     		and	r2, r0
 287:.\Generated_Source\PSoC4/CyLib.c ****                         (( uint32 ) (clkSelect & ( uint32 )CY_SYS_CLK_SELECT_DIRECT_SEL_PARAM_MASK)
 210              		.loc 1 287 0
 211 0026 0A43     		orr	r2, r1
 212 0028 1A60     		str	r2, [r3]
 289:.\Generated_Source\PSoC4/CyLib.c **** 
 290:.\Generated_Source\PSoC4/CyLib.c ****     CyExitCriticalSection(interruptState);
 213              		.loc 1 290 0
 214 002a 0F23     		mov	r3, #15
 215 002c FB18     		add	r3, r7, r3
 216 002e 1B78     		ldrb	r3, [r3]
 217 0030 181C     		mov	r0, r3
 218 0032 FFF7FEFF 		bl	CyExitCriticalSection
ARM GAS  C:\Users\PANXIA~1\AppData\Local\Temp\ccat6fhZ.s 			page 10


 291:.\Generated_Source\PSoC4/CyLib.c **** }
 219              		.loc 1 291 0
 220 0036 BD46     		mov	sp, r7
 221 0038 05B0     		add	sp, sp, #20
 222              		@ sp needed
 223 003a 90BD     		pop	{r4, r7, pc}
 224              	.L9:
 225              		.align	2
 226              	.L8:
 227 003c 00010B40 		.word	1074462976
 228              		.cfi_endproc
 229              	.LFE2:
 230              		.size	CySysClkWriteHfclkDirect, .-CySysClkWriteHfclkDirect
 231              		.section	.text.CySysClkWriteSysclkDiv,"ax",%progbits
 232              		.align	2
 233              		.global	CySysClkWriteSysclkDiv
 234              		.code	16
 235              		.thumb_func
 236              		.type	CySysClkWriteSysclkDiv, %function
 237              	CySysClkWriteSysclkDiv:
 238              	.LFB3:
 292:.\Generated_Source\PSoC4/CyLib.c **** 
 293:.\Generated_Source\PSoC4/CyLib.c **** 
 294:.\Generated_Source\PSoC4/CyLib.c **** /*******************************************************************************
 295:.\Generated_Source\PSoC4/CyLib.c **** * Function Name: CySysClkWriteSysclkDiv
 296:.\Generated_Source\PSoC4/CyLib.c **** ********************************************************************************
 297:.\Generated_Source\PSoC4/CyLib.c **** *
 298:.\Generated_Source\PSoC4/CyLib.c **** * Summary:
 299:.\Generated_Source\PSoC4/CyLib.c **** *  Selects the prescaler divide amount for SYSCLK from HFCLK.
 300:.\Generated_Source\PSoC4/CyLib.c **** *
 301:.\Generated_Source\PSoC4/CyLib.c **** * Parameters:
 302:.\Generated_Source\PSoC4/CyLib.c **** *  divider: Power of 2 prescaler selection
 303:.\Generated_Source\PSoC4/CyLib.c **** *
 304:.\Generated_Source\PSoC4/CyLib.c **** *   Define                        Description
 305:.\Generated_Source\PSoC4/CyLib.c **** *   CY_SYS_CLK_SYSCLK_DIV1        SYSCLK = HFCLK / 1
 306:.\Generated_Source\PSoC4/CyLib.c **** *   CY_SYS_CLK_SYSCLK_DIV2        SYSCLK = HFCLK / 2
 307:.\Generated_Source\PSoC4/CyLib.c **** *   CY_SYS_CLK_SYSCLK_DIV4        SYSCLK = HFCLK / 4
 308:.\Generated_Source\PSoC4/CyLib.c **** *   CY_SYS_CLK_SYSCLK_DIV8        SYSCLK = HFCLK / 8
 309:.\Generated_Source\PSoC4/CyLib.c **** *   CY_SYS_CLK_SYSCLK_DIV16       SYSCLK = HFCLK / 16  (N/A for 4000 Family)
 310:.\Generated_Source\PSoC4/CyLib.c **** *   CY_SYS_CLK_SYSCLK_DIV32       SYSCLK = HFCLK / 32  (N/A for 4000 Family)
 311:.\Generated_Source\PSoC4/CyLib.c **** *   CY_SYS_CLK_SYSCLK_DIV64       SYSCLK = HFCLK / 64  (N/A for 4000 Family)
 312:.\Generated_Source\PSoC4/CyLib.c **** *   CY_SYS_CLK_SYSCLK_DIV128      SYSCLK = HFCLK / 128 (N/A for 4000 Family)
 313:.\Generated_Source\PSoC4/CyLib.c **** *
 314:.\Generated_Source\PSoC4/CyLib.c **** * Return:
 315:.\Generated_Source\PSoC4/CyLib.c **** *  None
 316:.\Generated_Source\PSoC4/CyLib.c **** *
 317:.\Generated_Source\PSoC4/CyLib.c **** * Side Effects:
 318:.\Generated_Source\PSoC4/CyLib.c **** *  4000 Family:
 319:.\Generated_Source\PSoC4/CyLib.c **** *  The SYS_CLK has the speed of 16 MHz, so dividers HF_CLK and SYS_CLK
 320:.\Generated_Source\PSoC4/CyLib.c **** *  dividers should be selected in a way, not to exceed 16 MHz for SYS_CLK.
 321:.\Generated_Source\PSoC4/CyLib.c **** *
 322:.\Generated_Source\PSoC4/CyLib.c **** *  If the SYSCLK clock frequency increases during the device operation, call
 323:.\Generated_Source\PSoC4/CyLib.c **** *  CySysFlashSetWaitCycles() with the appropriate parameter to adjust the number
 324:.\Generated_Source\PSoC4/CyLib.c **** *  of clock cycles the cache will wait before sampling data comes back from
 325:.\Generated_Source\PSoC4/CyLib.c **** *  Flash. If the SYSCLK clock frequency decreases, you can call
 326:.\Generated_Source\PSoC4/CyLib.c **** *  CySysFlashSetWaitCycles() to improve the CPU performance. See
 327:.\Generated_Source\PSoC4/CyLib.c **** *  CySysFlashSetWaitCycles() description for more information.
ARM GAS  C:\Users\PANXIA~1\AppData\Local\Temp\ccat6fhZ.s 			page 11


 328:.\Generated_Source\PSoC4/CyLib.c **** *
 329:.\Generated_Source\PSoC4/CyLib.c **** *******************************************************************************/
 330:.\Generated_Source\PSoC4/CyLib.c **** void CySysClkWriteSysclkDiv(uint32 divider)
 331:.\Generated_Source\PSoC4/CyLib.c **** {
 239              		.loc 1 331 0
 240              		.cfi_startproc
 241 0000 90B5     		push	{r4, r7, lr}
 242              		.cfi_def_cfa_offset 12
 243              		.cfi_offset 4, -12
 244              		.cfi_offset 7, -8
 245              		.cfi_offset 14, -4
 246 0002 85B0     		sub	sp, sp, #20
 247              		.cfi_def_cfa_offset 32
 248 0004 00AF     		add	r7, sp, #0
 249              		.cfi_def_cfa_register 7
 250 0006 7860     		str	r0, [r7, #4]
 332:.\Generated_Source\PSoC4/CyLib.c ****     uint8  interruptState;
 333:.\Generated_Source\PSoC4/CyLib.c **** 
 334:.\Generated_Source\PSoC4/CyLib.c ****     interruptState = CyEnterCriticalSection();
 251              		.loc 1 334 0
 252 0008 0F23     		mov	r3, #15
 253 000a FC18     		add	r4, r7, r3
 254 000c FFF7FEFF 		bl	CyEnterCriticalSection
 255 0010 031C     		mov	r3, r0
 256 0012 2370     		strb	r3, [r4]
 335:.\Generated_Source\PSoC4/CyLib.c **** 
 336:.\Generated_Source\PSoC4/CyLib.c ****     CY_SYS_CLK_SELECT_REG = ((uint32)(((uint32)divider & CY_SYS_CLK_SELECT_SYSCLK_DIV_MASK) <<
 257              		.loc 1 336 0
 258 0014 094B     		ldr	r3, .L11
 259 0016 7A68     		ldr	r2, [r7, #4]
 260 0018 0721     		mov	r1, #7
 261 001a 0A40     		and	r2, r1
 262 001c D104     		lsl	r1, r2, #19
 337:.\Generated_Source\PSoC4/CyLib.c ****                                     CY_SYS_CLK_SELECT_SYSCLK_DIV_SHIFT)) |
 338:.\Generated_Source\PSoC4/CyLib.c ****                             (CY_SYS_CLK_SELECT_REG & ((uint32)(~(uint32)(CY_SYS_CLK_SELECT_SYSCLK_D
 263              		.loc 1 338 0
 264 001e 074A     		ldr	r2, .L11
 265 0020 1268     		ldr	r2, [r2]
 266 0022 0748     		ldr	r0, .L11+4
 267 0024 0240     		and	r2, r0
 337:.\Generated_Source\PSoC4/CyLib.c ****                                     CY_SYS_CLK_SELECT_SYSCLK_DIV_SHIFT)) |
 268              		.loc 1 337 0
 269 0026 0A43     		orr	r2, r1
 336:.\Generated_Source\PSoC4/CyLib.c ****                                     CY_SYS_CLK_SELECT_SYSCLK_DIV_SHIFT)) |
 270              		.loc 1 336 0
 271 0028 1A60     		str	r2, [r3]
 339:.\Generated_Source\PSoC4/CyLib.c ****                                     CY_SYS_CLK_SELECT_SYSCLK_DIV_SHIFT))));
 340:.\Generated_Source\PSoC4/CyLib.c **** 
 341:.\Generated_Source\PSoC4/CyLib.c ****     CyExitCriticalSection(interruptState);
 272              		.loc 1 341 0
 273 002a 0F23     		mov	r3, #15
 274 002c FB18     		add	r3, r7, r3
 275 002e 1B78     		ldrb	r3, [r3]
 276 0030 181C     		mov	r0, r3
 277 0032 FFF7FEFF 		bl	CyExitCriticalSection
 342:.\Generated_Source\PSoC4/CyLib.c **** }
 278              		.loc 1 342 0
ARM GAS  C:\Users\PANXIA~1\AppData\Local\Temp\ccat6fhZ.s 			page 12


 279 0036 BD46     		mov	sp, r7
 280 0038 05B0     		add	sp, sp, #20
 281              		@ sp needed
 282 003a 90BD     		pop	{r4, r7, pc}
 283              	.L12:
 284              		.align	2
 285              	.L11:
 286 003c 00010B40 		.word	1074462976
 287 0040 FFFFC7FF 		.word	-3670017
 288              		.cfi_endproc
 289              	.LFE3:
 290              		.size	CySysClkWriteSysclkDiv, .-CySysClkWriteSysclkDiv
 291              		.section	.text.CySysClkWriteImoFreq,"ax",%progbits
 292              		.align	2
 293              		.global	CySysClkWriteImoFreq
 294              		.code	16
 295              		.thumb_func
 296              		.type	CySysClkWriteImoFreq, %function
 297              	CySysClkWriteImoFreq:
 298              	.LFB4:
 343:.\Generated_Source\PSoC4/CyLib.c **** 
 344:.\Generated_Source\PSoC4/CyLib.c **** 
 345:.\Generated_Source\PSoC4/CyLib.c **** /*******************************************************************************
 346:.\Generated_Source\PSoC4/CyLib.c **** * Function Name: CySysClkWriteImoFreq
 347:.\Generated_Source\PSoC4/CyLib.c **** ********************************************************************************
 348:.\Generated_Source\PSoC4/CyLib.c **** *
 349:.\Generated_Source\PSoC4/CyLib.c **** * Summary:
 350:.\Generated_Source\PSoC4/CyLib.c **** *  Sets the frequency of the IMO.
 351:.\Generated_Source\PSoC4/CyLib.c **** *
 352:.\Generated_Source\PSoC4/CyLib.c **** *  If IMO is currently driving the HFCLK, and if the HFCLK frequency decreases,
 353:.\Generated_Source\PSoC4/CyLib.c **** *  you can call CySysFlashSetWaitCycles () to improve CPU performance. See
 354:.\Generated_Source\PSoC4/CyLib.c **** *  CySysFlashSetWaitCycles () for more information.
 355:.\Generated_Source\PSoC4/CyLib.c **** *
 356:.\Generated_Source\PSoC4/CyLib.c **** *  For PSoC 4000 family of devices, maximum HFCLK frequency is 16 MHz. If IMO is
 357:.\Generated_Source\PSoC4/CyLib.c **** *  configured to frequencies above 16 MHz, ensure to set the appropriate HFCLK
 358:.\Generated_Source\PSoC4/CyLib.c **** *  predivider value first.
 359:.\Generated_Source\PSoC4/CyLib.c **** *
 360:.\Generated_Source\PSoC4/CyLib.c **** *  For PSoC 4100M/PSoC 4200M devices, if WCO lock feature is enabled then this
 361:.\Generated_Source\PSoC4/CyLib.c **** *  API will disable the lock, write the new IMO frequency and then re-enable the
 362:.\Generated_Source\PSoC4/CyLib.c **** *  lock.
 363:.\Generated_Source\PSoC4/CyLib.c **** *
 364:.\Generated_Source\PSoC4/CyLib.c **** * Parameters:
 365:.\Generated_Source\PSoC4/CyLib.c **** *  All PSoC 4 families excluding PSoC 4000: Valid range [3-48] with step size
 366:.\Generated_Source\PSoC4/CyLib.c **** *  equals 1.
 367:.\Generated_Source\PSoC4/CyLib.c **** *
 368:.\Generated_Source\PSoC4/CyLib.c **** *  PSoC 4000: Valid range [24-48] with step size equals 4.
 369:.\Generated_Source\PSoC4/CyLib.c **** *
 370:.\Generated_Source\PSoC4/CyLib.c **** *  Note: The CPU is halted if new frequency is invalid and project is
 371:.\Generated_Source\PSoC4/CyLib.c **** *  compiled in debug mode.
 372:.\Generated_Source\PSoC4/CyLib.c **** *
 373:.\Generated_Source\PSoC4/CyLib.c **** * Return:
 374:.\Generated_Source\PSoC4/CyLib.c **** *  None
 375:.\Generated_Source\PSoC4/CyLib.c **** *
 376:.\Generated_Source\PSoC4/CyLib.c **** * Side Effects:
 377:.\Generated_Source\PSoC4/CyLib.c **** *  If the SYSCLK clock frequency increases during the device operation, call
 378:.\Generated_Source\PSoC4/CyLib.c **** *  CySysFlashSetWaitCycles() with the appropriate parameter to adjust the number
 379:.\Generated_Source\PSoC4/CyLib.c **** *  of clock cycles the cache will wait before sampling data comes back from
ARM GAS  C:\Users\PANXIA~1\AppData\Local\Temp\ccat6fhZ.s 			page 13


 380:.\Generated_Source\PSoC4/CyLib.c **** *  Flash. If the SYSCLK clock frequency decreases, you can call
 381:.\Generated_Source\PSoC4/CyLib.c **** *  CySysFlashSetWaitCycles() to improve the CPU performance. See
 382:.\Generated_Source\PSoC4/CyLib.c **** *  CySysFlashSetWaitCycles() description for more information.
 383:.\Generated_Source\PSoC4/CyLib.c **** *
 384:.\Generated_Source\PSoC4/CyLib.c **** *  PSoC 4000: The System Clock (SYSCLK) has maximum speed of 16 MHz, so HFCLK
 385:.\Generated_Source\PSoC4/CyLib.c **** *  and SYSCLK dividers should be selected in a way, to not to exceed 16 MHz for
 386:.\Generated_Source\PSoC4/CyLib.c **** *  the System clock.
 387:.\Generated_Source\PSoC4/CyLib.c **** *
 388:.\Generated_Source\PSoC4/CyLib.c **** *******************************************************************************/
 389:.\Generated_Source\PSoC4/CyLib.c **** #if(CY_IP_SRSSV2)
 390:.\Generated_Source\PSoC4/CyLib.c ****     void CySysClkWriteImoFreq(uint32 freq)
 391:.\Generated_Source\PSoC4/CyLib.c ****     {
 299              		.loc 1 391 0
 300              		.cfi_startproc
 301 0000 90B5     		push	{r4, r7, lr}
 302              		.cfi_def_cfa_offset 12
 303              		.cfi_offset 4, -12
 304              		.cfi_offset 7, -8
 305              		.cfi_offset 14, -4
 306 0002 85B0     		sub	sp, sp, #20
 307              		.cfi_def_cfa_offset 32
 308 0004 00AF     		add	r7, sp, #0
 309              		.cfi_def_cfa_register 7
 310 0006 7860     		str	r0, [r7, #4]
 392:.\Generated_Source\PSoC4/CyLib.c ****         #if (CY_IP_FMLT)
 393:.\Generated_Source\PSoC4/CyLib.c ****             volatile uint32   parameters[2u];
 394:.\Generated_Source\PSoC4/CyLib.c ****             volatile uint32   regValues[4u];
 395:.\Generated_Source\PSoC4/CyLib.c ****         #else
 396:.\Generated_Source\PSoC4/CyLib.c ****             uint8  bgTrim4;
 397:.\Generated_Source\PSoC4/CyLib.c ****             uint8  bgTrim5;
 398:.\Generated_Source\PSoC4/CyLib.c ****             uint8  newImoTrim2Value;
 399:.\Generated_Source\PSoC4/CyLib.c ****             uint8  currentImoTrim2Value;
 400:.\Generated_Source\PSoC4/CyLib.c ****         #endif /* (CY_IP_FM) */
 401:.\Generated_Source\PSoC4/CyLib.c **** 
 402:.\Generated_Source\PSoC4/CyLib.c ****         #if (CY_PSOC4_4100M || CY_PSOC4_4200M)
 403:.\Generated_Source\PSoC4/CyLib.c ****             uint32 wcoLock = 0u;
 404:.\Generated_Source\PSoC4/CyLib.c ****         #endif  /* #if (CY_PSOC4_4100M || CY_PSOC4_4200M) */
 405:.\Generated_Source\PSoC4/CyLib.c **** 
 406:.\Generated_Source\PSoC4/CyLib.c ****         uint8  interruptState;
 407:.\Generated_Source\PSoC4/CyLib.c **** 
 408:.\Generated_Source\PSoC4/CyLib.c **** 
 409:.\Generated_Source\PSoC4/CyLib.c ****         interruptState = CyEnterCriticalSection();
 311              		.loc 1 409 0
 312 0008 0C23     		mov	r3, #12
 313 000a FC18     		add	r4, r7, r3
 314 000c FFF7FEFF 		bl	CyEnterCriticalSection
 315 0010 031C     		mov	r3, r0
 316 0012 2370     		strb	r3, [r4]
 410:.\Generated_Source\PSoC4/CyLib.c **** 
 411:.\Generated_Source\PSoC4/CyLib.c ****         #if (CY_PSOC4_4100M || CY_PSOC4_4200M)
 412:.\Generated_Source\PSoC4/CyLib.c ****             if(0u != CySysClkImoGetWcoLock())
 413:.\Generated_Source\PSoC4/CyLib.c ****             {
 414:.\Generated_Source\PSoC4/CyLib.c ****                 wcoLock = 1u;
 415:.\Generated_Source\PSoC4/CyLib.c ****                 CySysClkImoDisableWcoLock();
 416:.\Generated_Source\PSoC4/CyLib.c ****             }
 417:.\Generated_Source\PSoC4/CyLib.c ****         #endif  /* #if (CY_PSOC4_4100M || CY_PSOC4_4200M) */
 418:.\Generated_Source\PSoC4/CyLib.c **** 
ARM GAS  C:\Users\PANXIA~1\AppData\Local\Temp\ccat6fhZ.s 			page 14


 419:.\Generated_Source\PSoC4/CyLib.c ****         #if (CY_IP_FMLT)
 420:.\Generated_Source\PSoC4/CyLib.c **** 
 421:.\Generated_Source\PSoC4/CyLib.c ****             /* FM-Lite Clock Restore */
 422:.\Generated_Source\PSoC4/CyLib.c ****             regValues[0u] = CY_SYS_CLK_IMO_CONFIG_REG;
 423:.\Generated_Source\PSoC4/CyLib.c ****             regValues[1u] = CY_SYS_CLK_SELECT_REG;
 424:.\Generated_Source\PSoC4/CyLib.c ****             regValues[2u] = cyImoFreqMhz2Reg[freq - CY_SYS_CLK_IMO_FREQ_TABLE_OFFSET];
 425:.\Generated_Source\PSoC4/CyLib.c ****             regValues[3u] = CY_FLASH_CTL_REG;
 426:.\Generated_Source\PSoC4/CyLib.c **** 
 427:.\Generated_Source\PSoC4/CyLib.c ****             parameters[0u] =
 428:.\Generated_Source\PSoC4/CyLib.c ****                 (uint32) ((CY_FLASH_KEY_TWO(CY_FLASH_API_OPCODE_CLK_RESTORE) <<  CY_FLASH_PARAM_KEY
 429:.\Generated_Source\PSoC4/CyLib.c ****                             CY_FLASH_KEY_ONE);
 430:.\Generated_Source\PSoC4/CyLib.c ****             parameters[1u] = (uint32) &regValues[0u];
 431:.\Generated_Source\PSoC4/CyLib.c **** 
 432:.\Generated_Source\PSoC4/CyLib.c ****             CY_FLASH_CPUSS_SYSARG_REG = (uint32) &parameters[0u];
 433:.\Generated_Source\PSoC4/CyLib.c ****             CY_FLASH_CPUSS_SYSREQ_REG = CY_FLASH_CPUSS_REQ_START | CY_FLASH_API_OPCODE_CLK_RESTORE;
 434:.\Generated_Source\PSoC4/CyLib.c ****             (void) CY_FLASH_CPUSS_SYSARG_REG;
 435:.\Generated_Source\PSoC4/CyLib.c **** 
 436:.\Generated_Source\PSoC4/CyLib.c ****         #else /* (CY_IP_FM) */
 437:.\Generated_Source\PSoC4/CyLib.c **** 
 438:.\Generated_Source\PSoC4/CyLib.c ****         if ((freq >= CY_SYS_CLK_IMO_MIN_FREQ_MHZ) && (freq <= CY_SYS_CLK_IMO_MAX_FREQ_MHZ))
 317              		.loc 1 438 0
 318 0014 7B68     		ldr	r3, [r7, #4]
 319 0016 022B     		cmp	r3, #2
 320 0018 00D8     		bhi	.LCB185
 321 001a B0E0     		b	.L14	@long jump
 322              	.LCB185:
 323              		.loc 1 438 0 is_stmt 0 discriminator 1
 324 001c 7B68     		ldr	r3, [r7, #4]
 325 001e 302B     		cmp	r3, #48
 326 0020 00D9     		bls	.LCB188
 327 0022 ACE0     		b	.L14	@long jump
 328              	.LCB188:
 439:.\Generated_Source\PSoC4/CyLib.c ****         {
 440:.\Generated_Source\PSoC4/CyLib.c ****             if(freq <= CY_SFLASH_IMO_MAXF0_REG)
 329              		.loc 1 440 0 is_stmt 1
 330 0024 5C4B     		ldr	r3, .L25
 331 0026 1B78     		ldrb	r3, [r3]
 332 0028 DBB2     		uxtb	r3, r3
 333 002a 1A1E     		sub	r2, r3, #0
 334 002c 7B68     		ldr	r3, [r7, #4]
 335 002e 9A42     		cmp	r2, r3
 336 0030 0AD3     		bcc	.L15
 441:.\Generated_Source\PSoC4/CyLib.c ****             {
 442:.\Generated_Source\PSoC4/CyLib.c ****                 bgTrim4 = CY_SFLASH_IMO_ABS0_REG;
 337              		.loc 1 442 0
 338 0032 5A4A     		ldr	r2, .L25+4
 339 0034 0F23     		mov	r3, #15
 340 0036 FB18     		add	r3, r7, r3
 341 0038 1278     		ldrb	r2, [r2]
 342 003a 1A70     		strb	r2, [r3]
 443:.\Generated_Source\PSoC4/CyLib.c ****                 bgTrim5 = CY_SFLASH_IMO_TMPCO0_REG;
 343              		.loc 1 443 0
 344 003c 584A     		ldr	r2, .L25+8
 345 003e 0E23     		mov	r3, #14
 346 0040 FB18     		add	r3, r7, r3
 347 0042 1278     		ldrb	r2, [r2]
 348 0044 1A70     		strb	r2, [r3]
ARM GAS  C:\Users\PANXIA~1\AppData\Local\Temp\ccat6fhZ.s 			page 15


 349 0046 3FE0     		b	.L16
 350              	.L15:
 444:.\Generated_Source\PSoC4/CyLib.c ****             }
 445:.\Generated_Source\PSoC4/CyLib.c ****             else if(freq <= CY_SFLASH_IMO_MAXF1_REG)
 351              		.loc 1 445 0
 352 0048 564B     		ldr	r3, .L25+12
 353 004a 1B78     		ldrb	r3, [r3]
 354 004c DBB2     		uxtb	r3, r3
 355 004e 1A1E     		sub	r2, r3, #0
 356 0050 7B68     		ldr	r3, [r7, #4]
 357 0052 9A42     		cmp	r2, r3
 358 0054 0AD3     		bcc	.L17
 446:.\Generated_Source\PSoC4/CyLib.c ****             {
 447:.\Generated_Source\PSoC4/CyLib.c ****                 bgTrim4 = CY_SFLASH_IMO_ABS1_REG;
 359              		.loc 1 447 0
 360 0056 544A     		ldr	r2, .L25+16
 361 0058 0F23     		mov	r3, #15
 362 005a FB18     		add	r3, r7, r3
 363 005c 1278     		ldrb	r2, [r2]
 364 005e 1A70     		strb	r2, [r3]
 448:.\Generated_Source\PSoC4/CyLib.c ****                 bgTrim5 = CY_SFLASH_IMO_TMPCO1_REG;
 365              		.loc 1 448 0
 366 0060 524A     		ldr	r2, .L25+20
 367 0062 0E23     		mov	r3, #14
 368 0064 FB18     		add	r3, r7, r3
 369 0066 1278     		ldrb	r2, [r2]
 370 0068 1A70     		strb	r2, [r3]
 371 006a 2DE0     		b	.L16
 372              	.L17:
 449:.\Generated_Source\PSoC4/CyLib.c ****             }
 450:.\Generated_Source\PSoC4/CyLib.c ****             else if(freq <= CY_SFLASH_IMO_MAXF2_REG)
 373              		.loc 1 450 0
 374 006c 504B     		ldr	r3, .L25+24
 375 006e 1B78     		ldrb	r3, [r3]
 376 0070 DBB2     		uxtb	r3, r3
 377 0072 1A1E     		sub	r2, r3, #0
 378 0074 7B68     		ldr	r3, [r7, #4]
 379 0076 9A42     		cmp	r2, r3
 380 0078 0AD3     		bcc	.L18
 451:.\Generated_Source\PSoC4/CyLib.c ****             {
 452:.\Generated_Source\PSoC4/CyLib.c ****                 bgTrim4 = CY_SFLASH_IMO_ABS2_REG;
 381              		.loc 1 452 0
 382 007a 4E4A     		ldr	r2, .L25+28
 383 007c 0F23     		mov	r3, #15
 384 007e FB18     		add	r3, r7, r3
 385 0080 1278     		ldrb	r2, [r2]
 386 0082 1A70     		strb	r2, [r3]
 453:.\Generated_Source\PSoC4/CyLib.c ****                 bgTrim5 = CY_SFLASH_IMO_TMPCO2_REG;
 387              		.loc 1 453 0
 388 0084 4C4A     		ldr	r2, .L25+32
 389 0086 0E23     		mov	r3, #14
 390 0088 FB18     		add	r3, r7, r3
 391 008a 1278     		ldrb	r2, [r2]
 392 008c 1A70     		strb	r2, [r3]
 393 008e 1BE0     		b	.L16
 394              	.L18:
 454:.\Generated_Source\PSoC4/CyLib.c ****             }
ARM GAS  C:\Users\PANXIA~1\AppData\Local\Temp\ccat6fhZ.s 			page 16


 455:.\Generated_Source\PSoC4/CyLib.c ****             else if(freq <= CY_SFLASH_IMO_MAXF3_REG)
 395              		.loc 1 455 0
 396 0090 4A4B     		ldr	r3, .L25+36
 397 0092 1B78     		ldrb	r3, [r3]
 398 0094 DBB2     		uxtb	r3, r3
 399 0096 1A1E     		sub	r2, r3, #0
 400 0098 7B68     		ldr	r3, [r7, #4]
 401 009a 9A42     		cmp	r2, r3
 402 009c 0AD3     		bcc	.L19
 456:.\Generated_Source\PSoC4/CyLib.c ****             {
 457:.\Generated_Source\PSoC4/CyLib.c ****                 bgTrim4 = CY_SFLASH_IMO_ABS3_REG;
 403              		.loc 1 457 0
 404 009e 484A     		ldr	r2, .L25+40
 405 00a0 0F23     		mov	r3, #15
 406 00a2 FB18     		add	r3, r7, r3
 407 00a4 1278     		ldrb	r2, [r2]
 408 00a6 1A70     		strb	r2, [r3]
 458:.\Generated_Source\PSoC4/CyLib.c ****                 bgTrim5 = CY_SFLASH_IMO_TMPCO3_REG;
 409              		.loc 1 458 0
 410 00a8 464A     		ldr	r2, .L25+44
 411 00aa 0E23     		mov	r3, #14
 412 00ac FB18     		add	r3, r7, r3
 413 00ae 1278     		ldrb	r2, [r2]
 414 00b0 1A70     		strb	r2, [r3]
 415 00b2 09E0     		b	.L16
 416              	.L19:
 459:.\Generated_Source\PSoC4/CyLib.c ****             }
 460:.\Generated_Source\PSoC4/CyLib.c ****             else
 461:.\Generated_Source\PSoC4/CyLib.c ****             {
 462:.\Generated_Source\PSoC4/CyLib.c ****                 bgTrim4 = CY_SFLASH_IMO_ABS4_REG;
 417              		.loc 1 462 0
 418 00b4 444A     		ldr	r2, .L25+48
 419 00b6 0F23     		mov	r3, #15
 420 00b8 FB18     		add	r3, r7, r3
 421 00ba 1278     		ldrb	r2, [r2]
 422 00bc 1A70     		strb	r2, [r3]
 463:.\Generated_Source\PSoC4/CyLib.c ****                 bgTrim5 = CY_SFLASH_IMO_TMPCO4_REG;
 423              		.loc 1 463 0
 424 00be 434A     		ldr	r2, .L25+52
 425 00c0 0E23     		mov	r3, #14
 426 00c2 FB18     		add	r3, r7, r3
 427 00c4 1278     		ldrb	r2, [r2]
 428 00c6 1A70     		strb	r2, [r3]
 429              	.L16:
 464:.\Generated_Source\PSoC4/CyLib.c ****             }
 465:.\Generated_Source\PSoC4/CyLib.c **** 
 466:.\Generated_Source\PSoC4/CyLib.c ****             /* Get IMO_TRIM2 value for the new frequency */
 467:.\Generated_Source\PSoC4/CyLib.c ****             newImoTrim2Value = cyImoFreqMhz2Reg[freq - CY_SYS_CLK_IMO_FREQ_TABLE_OFFSET];
 430              		.loc 1 467 0
 431 00c8 7B68     		ldr	r3, [r7, #4]
 432 00ca DA1E     		sub	r2, r3, #3
 433 00cc 0B23     		mov	r3, #11
 434 00ce FB18     		add	r3, r7, r3
 435 00d0 3F49     		ldr	r1, .L25+56
 436 00d2 8A5C     		ldrb	r2, [r1, r2]
 437 00d4 1A70     		strb	r2, [r3]
 468:.\Generated_Source\PSoC4/CyLib.c **** 
ARM GAS  C:\Users\PANXIA~1\AppData\Local\Temp\ccat6fhZ.s 			page 17


 469:.\Generated_Source\PSoC4/CyLib.c **** 
 470:.\Generated_Source\PSoC4/CyLib.c ****             /**********************************************`*****************************
 471:.\Generated_Source\PSoC4/CyLib.c ****             * The IMO can have a different trim per frequency. To avoid possible corner
 472:.\Generated_Source\PSoC4/CyLib.c ****             * cases where a trim change can exceed the maximum frequency, the trim must
 473:.\Generated_Source\PSoC4/CyLib.c ****             * be applied at a frequency that is low enough.
 474:.\Generated_Source\PSoC4/CyLib.c ****             *
 475:.\Generated_Source\PSoC4/CyLib.c ****             * Comparing IMO_TRIM2 values for the current and new frequencies, since
 476:.\Generated_Source\PSoC4/CyLib.c ****             * IMO_TRIM2 value as a function of IMO frequency is a strictly increasing
 477:.\Generated_Source\PSoC4/CyLib.c ****             * function and is time-invariant.
 478:.\Generated_Source\PSoC4/CyLib.c ****             ***************************************************************************/
 479:.\Generated_Source\PSoC4/CyLib.c ****             if ((newImoTrim2Value >= CY_SYS_CLK_IMO_BOUNDARY_FREQ_TRIM2) && (freq >= CY_SYS_CLK_IMO
 438              		.loc 1 479 0
 439 00d6 0B23     		mov	r3, #11
 440 00d8 FB18     		add	r3, r7, r3
 441 00da 1B78     		ldrb	r3, [r3]
 442 00dc 2F2B     		cmp	r3, #47
 443 00de 0DD9     		bls	.L20
 444              		.loc 1 479 0 is_stmt 0 discriminator 1
 445 00e0 7B68     		ldr	r3, [r7, #4]
 446 00e2 2A2B     		cmp	r3, #42
 447 00e4 0AD9     		bls	.L20
 480:.\Generated_Source\PSoC4/CyLib.c ****             {
 481:.\Generated_Source\PSoC4/CyLib.c ****                 /* Set boundary IMO frequency: safe for IMO above 48 MHZ trimming */
 482:.\Generated_Source\PSoC4/CyLib.c ****                 CY_SYS_CLK_IMO_TRIM2_REG = (uint32) cyImoFreqMhz2Reg[CY_SYS_CLK_IMO_TEMP_FREQ_MHZ -
 448              		.loc 1 482 0 is_stmt 1
 449 00e6 3B4B     		ldr	r3, .L25+60
 450 00e8 1922     		mov	r2, #25
 451 00ea 1A60     		str	r2, [r3]
 483:.\Generated_Source\PSoC4/CyLib.c ****                                                                      CY_SYS_CLK_IMO_FREQ_TABLE_OFFS
 484:.\Generated_Source\PSoC4/CyLib.c **** 
 485:.\Generated_Source\PSoC4/CyLib.c ****                 CyDelayCycles(CY_SYS_CLK_IMO_FREQ_TIMEOUT_CYCLES);
 452              		.loc 1 485 0
 453 00ec 0520     		mov	r0, #5
 454 00ee FFF7FEFF 		bl	CyDelayCycles
 486:.\Generated_Source\PSoC4/CyLib.c **** 
 487:.\Generated_Source\PSoC4/CyLib.c ****                 currentImoTrim2Value = CY_SYS_CLK_IMO_TEMP_FREQ_TRIM2;
 455              		.loc 1 487 0
 456 00f2 0D23     		mov	r3, #13
 457 00f4 FB18     		add	r3, r7, r3
 458 00f6 1922     		mov	r2, #25
 459 00f8 1A70     		strb	r2, [r3]
 460 00fa 07E0     		b	.L21
 461              	.L20:
 488:.\Generated_Source\PSoC4/CyLib.c ****             }
 489:.\Generated_Source\PSoC4/CyLib.c ****             else
 490:.\Generated_Source\PSoC4/CyLib.c ****             {
 491:.\Generated_Source\PSoC4/CyLib.c ****                 currentImoTrim2Value = (uint8) (CY_SYS_CLK_IMO_TRIM2_REG & CY_SYS_CLK_IMO_FREQ_BITS
 462              		.loc 1 491 0
 463 00fc 354B     		ldr	r3, .L25+60
 464 00fe 1B68     		ldr	r3, [r3]
 465 0100 DAB2     		uxtb	r2, r3
 466 0102 0D23     		mov	r3, #13
 467 0104 FB18     		add	r3, r7, r3
 468 0106 3F21     		mov	r1, #63
 469 0108 0A40     		and	r2, r1
 470 010a 1A70     		strb	r2, [r3]
 471              	.L21:
ARM GAS  C:\Users\PANXIA~1\AppData\Local\Temp\ccat6fhZ.s 			page 18


 492:.\Generated_Source\PSoC4/CyLib.c ****             }
 493:.\Generated_Source\PSoC4/CyLib.c **** 
 494:.\Generated_Source\PSoC4/CyLib.c **** 
 495:.\Generated_Source\PSoC4/CyLib.c ****             /***************************************************************************
 496:.\Generated_Source\PSoC4/CyLib.c ****             * A trim change needs to be allowed to settle (within 5us) before the Freq
 497:.\Generated_Source\PSoC4/CyLib.c ****             * can be changed to a new frequency.
 498:.\Generated_Source\PSoC4/CyLib.c ****             *
 499:.\Generated_Source\PSoC4/CyLib.c ****             * Comparing IMO_TRIM2 values for the current and new frequencies, since
 500:.\Generated_Source\PSoC4/CyLib.c ****             * IMO_TRIM2 value as a function of IMO frequency is a strictly increasing
 501:.\Generated_Source\PSoC4/CyLib.c ****             * function and is time-invariant.
 502:.\Generated_Source\PSoC4/CyLib.c ****             ***************************************************************************/
 503:.\Generated_Source\PSoC4/CyLib.c ****             if (newImoTrim2Value < currentImoTrim2Value)
 472              		.loc 1 503 0
 473 010c 0B23     		mov	r3, #11
 474 010e FA18     		add	r2, r7, r3
 475 0110 0D23     		mov	r3, #13
 476 0112 FB18     		add	r3, r7, r3
 477 0114 1278     		ldrb	r2, [r2]
 478 0116 1B78     		ldrb	r3, [r3]
 479 0118 9A42     		cmp	r2, r3
 480 011a 08D2     		bcs	.L22
 504:.\Generated_Source\PSoC4/CyLib.c ****             {
 505:.\Generated_Source\PSoC4/CyLib.c ****                 /* Set new IMO frequency */
 506:.\Generated_Source\PSoC4/CyLib.c ****                 CY_SYS_CLK_IMO_TRIM2_REG = cyImoFreqMhz2Reg[freq - CY_SYS_CLK_IMO_FREQ_TABLE_OFFSET
 481              		.loc 1 506 0
 482 011c 2D4B     		ldr	r3, .L25+60
 483 011e 7A68     		ldr	r2, [r7, #4]
 484 0120 033A     		sub	r2, r2, #3
 485 0122 2B49     		ldr	r1, .L25+56
 486 0124 8A5C     		ldrb	r2, [r1, r2]
 487 0126 1A60     		str	r2, [r3]
 507:.\Generated_Source\PSoC4/CyLib.c ****                 CyDelayCycles(CY_SYS_CLK_IMO_FREQ_TIMEOUT_CYCLES);
 488              		.loc 1 507 0
 489 0128 0520     		mov	r0, #5
 490 012a FFF7FEFF 		bl	CyDelayCycles
 491              	.L22:
 508:.\Generated_Source\PSoC4/CyLib.c ****             }
 509:.\Generated_Source\PSoC4/CyLib.c **** 
 510:.\Generated_Source\PSoC4/CyLib.c ****             /* Set trims for the new IMO frequency */
 511:.\Generated_Source\PSoC4/CyLib.c ****             CY_SYS_CLK_IMO_TRIM1_REG = (uint32) CY_SFLASH_IMO_TRIM_REG(freq - CY_SYS_CLK_IMO_FREQ_T
 492              		.loc 1 511 0
 493 012e 2A4B     		ldr	r3, .L25+64
 494 0130 7A68     		ldr	r2, [r7, #4]
 495 0132 2649     		ldr	r1, .L25+52
 496 0134 8C46     		mov	ip, r1
 497 0136 6244     		add	r2, r2, ip
 498 0138 1278     		ldrb	r2, [r2]
 499 013a D2B2     		uxtb	r2, r2
 500 013c 1A60     		str	r2, [r3]
 512:.\Generated_Source\PSoC4/CyLib.c ****             CY_PWR_BG_TRIM4_REG  = bgTrim4;
 501              		.loc 1 512 0
 502 013e 274B     		ldr	r3, .L25+68
 503 0140 0F22     		mov	r2, #15
 504 0142 BA18     		add	r2, r7, r2
 505 0144 1278     		ldrb	r2, [r2]
 506 0146 1A60     		str	r2, [r3]
 513:.\Generated_Source\PSoC4/CyLib.c ****             CY_PWR_BG_TRIM5_REG  = bgTrim5;
ARM GAS  C:\Users\PANXIA~1\AppData\Local\Temp\ccat6fhZ.s 			page 19


 507              		.loc 1 513 0
 508 0148 254B     		ldr	r3, .L25+72
 509 014a 0E22     		mov	r2, #14
 510 014c BA18     		add	r2, r7, r2
 511 014e 1278     		ldrb	r2, [r2]
 512 0150 1A60     		str	r2, [r3]
 514:.\Generated_Source\PSoC4/CyLib.c ****             CyDelayUs(CY_SYS_CLK_IMO_TRIM_TIMEOUT_US);
 513              		.loc 1 514 0
 514 0152 0520     		mov	r0, #5
 515 0154 FFF7FEFF 		bl	CyDelayUs
 515:.\Generated_Source\PSoC4/CyLib.c **** 
 516:.\Generated_Source\PSoC4/CyLib.c ****             if (newImoTrim2Value > currentImoTrim2Value)
 516              		.loc 1 516 0
 517 0158 0B23     		mov	r3, #11
 518 015a FA18     		add	r2, r7, r3
 519 015c 0D23     		mov	r3, #13
 520 015e FB18     		add	r3, r7, r3
 521 0160 1278     		ldrb	r2, [r2]
 522 0162 1B78     		ldrb	r3, [r3]
 523 0164 9A42     		cmp	r2, r3
 524 0166 09D9     		bls	.L23
 517:.\Generated_Source\PSoC4/CyLib.c ****             {
 518:.\Generated_Source\PSoC4/CyLib.c ****                 /* Set new IMO frequency */
 519:.\Generated_Source\PSoC4/CyLib.c ****                 CY_SYS_CLK_IMO_TRIM2_REG = cyImoFreqMhz2Reg[freq - CY_SYS_CLK_IMO_FREQ_TABLE_OFFSET
 525              		.loc 1 519 0
 526 0168 1A4B     		ldr	r3, .L25+60
 527 016a 7A68     		ldr	r2, [r7, #4]
 528 016c 033A     		sub	r2, r2, #3
 529 016e 1849     		ldr	r1, .L25+56
 530 0170 8A5C     		ldrb	r2, [r1, r2]
 531 0172 1A60     		str	r2, [r3]
 520:.\Generated_Source\PSoC4/CyLib.c ****                 CyDelayCycles(CY_SYS_CLK_IMO_FREQ_TIMEOUT_CYCLES);
 532              		.loc 1 520 0
 533 0174 0520     		mov	r0, #5
 534 0176 FFF7FEFF 		bl	CyDelayCycles
 516:.\Generated_Source\PSoC4/CyLib.c ****             {
 535              		.loc 1 516 0
 536 017a 03E0     		b	.L24
 537              	.L23:
 538 017c 02E0     		b	.L24
 539              	.L14:
 521:.\Generated_Source\PSoC4/CyLib.c ****             }
 522:.\Generated_Source\PSoC4/CyLib.c ****         }
 523:.\Generated_Source\PSoC4/CyLib.c ****         else
 524:.\Generated_Source\PSoC4/CyLib.c ****         {
 525:.\Generated_Source\PSoC4/CyLib.c ****             /* Halt CPU in debug mode if new frequency is invalid */
 526:.\Generated_Source\PSoC4/CyLib.c ****             CYASSERT(0u != 0u);
 540              		.loc 1 526 0 discriminator 1
 541 017e 0020     		mov	r0, #0
 542 0180 FFF7FEFF 		bl	CyHalt
 543              	.L24:
 527:.\Generated_Source\PSoC4/CyLib.c ****         }
 528:.\Generated_Source\PSoC4/CyLib.c **** 
 529:.\Generated_Source\PSoC4/CyLib.c ****         #endif /* (CY_IP_FMLT) */
 530:.\Generated_Source\PSoC4/CyLib.c **** 
 531:.\Generated_Source\PSoC4/CyLib.c ****         #if (CY_PSOC4_4100M || CY_PSOC4_4200M)
 532:.\Generated_Source\PSoC4/CyLib.c ****             if (1u == wcoLock)
ARM GAS  C:\Users\PANXIA~1\AppData\Local\Temp\ccat6fhZ.s 			page 20


 533:.\Generated_Source\PSoC4/CyLib.c ****             {
 534:.\Generated_Source\PSoC4/CyLib.c ****                 CySysClkImoEnableWcoLock();
 535:.\Generated_Source\PSoC4/CyLib.c ****             }
 536:.\Generated_Source\PSoC4/CyLib.c ****         #endif  /* #if (CY_PSOC4_4100M || CY_PSOC4_4200M) */
 537:.\Generated_Source\PSoC4/CyLib.c **** 
 538:.\Generated_Source\PSoC4/CyLib.c ****         CyExitCriticalSection(interruptState);
 544              		.loc 1 538 0
 545 0184 0C23     		mov	r3, #12
 546 0186 FB18     		add	r3, r7, r3
 547 0188 1B78     		ldrb	r3, [r3]
 548 018a 181C     		mov	r0, r3
 549 018c FFF7FEFF 		bl	CyExitCriticalSection
 539:.\Generated_Source\PSoC4/CyLib.c ****     }
 550              		.loc 1 539 0
 551 0190 BD46     		mov	sp, r7
 552 0192 05B0     		add	sp, sp, #20
 553              		@ sp needed
 554 0194 90BD     		pop	{r4, r7, pc}
 555              	.L26:
 556 0196 C046     		.align	2
 557              	.L25:
 558 0198 C0F1FF0F 		.word	268431808
 559 019c C1F1FF0F 		.word	268431809
 560 01a0 C2F1FF0F 		.word	268431810
 561 01a4 C3F1FF0F 		.word	268431811
 562 01a8 C4F1FF0F 		.word	268431812
 563 01ac C5F1FF0F 		.word	268431813
 564 01b0 C6F1FF0F 		.word	268431814
 565 01b4 C7F1FF0F 		.word	268431815
 566 01b8 C8F1FF0F 		.word	268431816
 567 01bc C9F1FF0F 		.word	268431817
 568 01c0 CAF1FF0F 		.word	268431818
 569 01c4 CBF1FF0F 		.word	268431819
 570 01c8 CCF1FF0F 		.word	268431820
 571 01cc CDF1FF0F 		.word	268431821
 572 01d0 00000000 		.word	cyImoFreqMhz2Reg
 573 01d4 2CFF0B40 		.word	1074528044
 574 01d8 28FF0B40 		.word	1074528040
 575 01dc 1CFF0B40 		.word	1074528028
 576 01e0 20FF0B40 		.word	1074528032
 577              		.cfi_endproc
 578              	.LFE4:
 579              		.size	CySysClkWriteImoFreq, .-CySysClkWriteImoFreq
 580              		.section	.text.CySysLvdEnable,"ax",%progbits
 581              		.align	2
 582              		.global	CySysLvdEnable
 583              		.code	16
 584              		.thumb_func
 585              		.type	CySysLvdEnable, %function
 586              	CySysLvdEnable:
 587              	.LFB5:
 540:.\Generated_Source\PSoC4/CyLib.c **** 
 541:.\Generated_Source\PSoC4/CyLib.c **** #else
 542:.\Generated_Source\PSoC4/CyLib.c **** 
 543:.\Generated_Source\PSoC4/CyLib.c ****     void CySysClkWriteImoFreq(uint32 freq)
 544:.\Generated_Source\PSoC4/CyLib.c ****     {
 545:.\Generated_Source\PSoC4/CyLib.c ****         uint8  interruptState;
ARM GAS  C:\Users\PANXIA~1\AppData\Local\Temp\ccat6fhZ.s 			page 21


 546:.\Generated_Source\PSoC4/CyLib.c **** 
 547:.\Generated_Source\PSoC4/CyLib.c ****         if ((freq == 24u) || (freq == 32u) || (freq == 48u))
 548:.\Generated_Source\PSoC4/CyLib.c ****         {
 549:.\Generated_Source\PSoC4/CyLib.c ****             interruptState = CyEnterCriticalSection();
 550:.\Generated_Source\PSoC4/CyLib.c **** 
 551:.\Generated_Source\PSoC4/CyLib.c ****             /* Set IMO to 24 MHz - CLK_IMO_SELECT.FREQ = 0 */
 552:.\Generated_Source\PSoC4/CyLib.c ****             CY_SYS_CLK_IMO_SELECT_REG &= ((uint32) ~CY_SYS_CLK_IMO_SELECT_FREQ_MASK);
 553:.\Generated_Source\PSoC4/CyLib.c **** 
 554:.\Generated_Source\PSoC4/CyLib.c ****             /* Apply coarse trim */
 555:.\Generated_Source\PSoC4/CyLib.c ****             CY_SYS_CLK_IMO_TRIM1_REG = (CY_SYS_CLK_IMO_TRIM1_REG & ((uint32) ~CY_SYS_CLK_IMO_TRIM1_
 556:.\Generated_Source\PSoC4/CyLib.c ****                 (CY_SFLASH_IMO_TRIM_REG(freq - CY_SYS_CLK_IMO_MIN_FREQ_MHZ) & CY_SYS_CLK_IMO_TRIM1_
 557:.\Generated_Source\PSoC4/CyLib.c **** 
 558:.\Generated_Source\PSoC4/CyLib.c ****             /* Zero out fine trim */
 559:.\Generated_Source\PSoC4/CyLib.c ****             CY_SYS_CLK_IMO_TRIM2_REG = CY_SYS_CLK_IMO_TRIM2_REG & ((uint32) ~CY_SYS_CLK_IMO_TRIM2_F
 560:.\Generated_Source\PSoC4/CyLib.c **** 
 561:.\Generated_Source\PSoC4/CyLib.c ****             /* Apply TC trim */
 562:.\Generated_Source\PSoC4/CyLib.c ****             CY_SYS_CLK_IMO_TRIM3_REG = (CY_SYS_CLK_IMO_TRIM3_REG & ((uint32) ~CY_SYS_CLK_IMO_TRIM3_
 563:.\Generated_Source\PSoC4/CyLib.c ****                 (CY_SFLASH_IMO_TCTRIM_REG(freq - CY_SYS_CLK_IMO_MIN_FREQ_MHZ) & CY_SYS_CLK_IMO_TRIM
 564:.\Generated_Source\PSoC4/CyLib.c **** 
 565:.\Generated_Source\PSoC4/CyLib.c ****             CyDelayCycles(CY_SYS_CLK_IMO_TRIM_DELAY_US);
 566:.\Generated_Source\PSoC4/CyLib.c **** 
 567:.\Generated_Source\PSoC4/CyLib.c ****             if (freq > CY_SYS_CLK_IMO_MIN_FREQ_MHZ)
 568:.\Generated_Source\PSoC4/CyLib.c ****             {
 569:.\Generated_Source\PSoC4/CyLib.c ****                 /* Select nearby intermediate frequency */
 570:.\Generated_Source\PSoC4/CyLib.c ****                 CY_SYS_CLK_IMO_SELECT_REG = (CY_SYS_CLK_IMO_SELECT_REG & ((uint32) ~CY_SYS_CLK_IMO_
 571:.\Generated_Source\PSoC4/CyLib.c ****                     (((freq - 4u - CY_SYS_CLK_IMO_MIN_FREQ_MHZ) >> 2u) & CY_SYS_CLK_IMO_SELECT_FREQ
 572:.\Generated_Source\PSoC4/CyLib.c **** 
 573:.\Generated_Source\PSoC4/CyLib.c ****                 CyDelayCycles(CY_SYS_CLK_IMO_TRIM_DELAY_US);
 574:.\Generated_Source\PSoC4/CyLib.c **** 
 575:.\Generated_Source\PSoC4/CyLib.c ****                 /* Make small step to final frequency */
 576:.\Generated_Source\PSoC4/CyLib.c ****                 /* Select nearby intermediate frequency */
 577:.\Generated_Source\PSoC4/CyLib.c ****                 CY_SYS_CLK_IMO_SELECT_REG = (CY_SYS_CLK_IMO_SELECT_REG & ((uint32) ~CY_SYS_CLK_IMO_
 578:.\Generated_Source\PSoC4/CyLib.c ****                     (((freq - CY_SYS_CLK_IMO_MIN_FREQ_MHZ) >> 2u) & CY_SYS_CLK_IMO_SELECT_FREQ_MASK
 579:.\Generated_Source\PSoC4/CyLib.c ****             }
 580:.\Generated_Source\PSoC4/CyLib.c **** 
 581:.\Generated_Source\PSoC4/CyLib.c ****             CyExitCriticalSection(interruptState);
 582:.\Generated_Source\PSoC4/CyLib.c ****         }
 583:.\Generated_Source\PSoC4/CyLib.c ****         else
 584:.\Generated_Source\PSoC4/CyLib.c ****         {
 585:.\Generated_Source\PSoC4/CyLib.c ****             /* Halt CPU in debug mode if new frequency is invalid */
 586:.\Generated_Source\PSoC4/CyLib.c ****             CYASSERT(0u != 0u);
 587:.\Generated_Source\PSoC4/CyLib.c ****         }
 588:.\Generated_Source\PSoC4/CyLib.c ****     }
 589:.\Generated_Source\PSoC4/CyLib.c **** 
 590:.\Generated_Source\PSoC4/CyLib.c **** #endif /* (CY_IP_SRSSV2) */
 591:.\Generated_Source\PSoC4/CyLib.c **** 
 592:.\Generated_Source\PSoC4/CyLib.c **** 
 593:.\Generated_Source\PSoC4/CyLib.c **** #if(CY_IP_SRSSLT)
 594:.\Generated_Source\PSoC4/CyLib.c ****     /*******************************************************************************
 595:.\Generated_Source\PSoC4/CyLib.c ****     * Function Name: CySysClkWriteHfclkDiv
 596:.\Generated_Source\PSoC4/CyLib.c ****     ********************************************************************************
 597:.\Generated_Source\PSoC4/CyLib.c ****     *
 598:.\Generated_Source\PSoC4/CyLib.c ****     * Summary:
 599:.\Generated_Source\PSoC4/CyLib.c ****     *  Selects the pre-scaler divider value for HFCLK from IMO.
 600:.\Generated_Source\PSoC4/CyLib.c ****     *
 601:.\Generated_Source\PSoC4/CyLib.c ****     *  The HFCLK predivider allows the device to divide the HFCLK selection mux
 602:.\Generated_Source\PSoC4/CyLib.c ****     *  input before use as HFCLK. The predivider is capable of dividing the HFCLK by
ARM GAS  C:\Users\PANXIA~1\AppData\Local\Temp\ccat6fhZ.s 			page 22


 603:.\Generated_Source\PSoC4/CyLib.c ****     *  powers of 2 between 1 and 8.
 604:.\Generated_Source\PSoC4/CyLib.c ****     *
 605:.\Generated_Source\PSoC4/CyLib.c ****     *  Note HFCLK's frequency cannot exceed 16 MHz. This API is applicable for
 606:.\Generated_Source\PSoC4/CyLib.c ****     *  PSoC 4000 family of devices only.
 607:.\Generated_Source\PSoC4/CyLib.c ****     *
 608:.\Generated_Source\PSoC4/CyLib.c ****     *
 609:.\Generated_Source\PSoC4/CyLib.c ****     * Parameters:
 610:.\Generated_Source\PSoC4/CyLib.c ****     *  divider: HF clock divider value
 611:.\Generated_Source\PSoC4/CyLib.c ****     *   Define                        Description
 612:.\Generated_Source\PSoC4/CyLib.c ****     *   CY_SYS_CLK_HFCLK_DIV_NODIV    Transparent mode (w/o dividing)
 613:.\Generated_Source\PSoC4/CyLib.c ****     *   CY_SYS_CLK_HFCLK_DIV_2        Divide selected clock source by 2
 614:.\Generated_Source\PSoC4/CyLib.c ****     *   CY_SYS_CLK_HFCLK_DIV_4        Divide selected clock source by 4
 615:.\Generated_Source\PSoC4/CyLib.c ****     *   CY_SYS_CLK_HFCLK_DIV_8        Divide selected clock source by 8
 616:.\Generated_Source\PSoC4/CyLib.c ****     *
 617:.\Generated_Source\PSoC4/CyLib.c ****     * Return:
 618:.\Generated_Source\PSoC4/CyLib.c ****     *  None
 619:.\Generated_Source\PSoC4/CyLib.c ****     *
 620:.\Generated_Source\PSoC4/CyLib.c ****     * Side Effects:
 621:.\Generated_Source\PSoC4/CyLib.c ****     *  If the SYSCLK clock frequency increases during the device operation, call
 622:.\Generated_Source\PSoC4/CyLib.c ****     *  CySysFlashSetWaitCycles() with the appropriate parameter to adjust the number
 623:.\Generated_Source\PSoC4/CyLib.c ****     *  of clock cycles the cache will wait before sampling data comes back from
 624:.\Generated_Source\PSoC4/CyLib.c ****     *  Flash. If the SYSCLK clock frequency decreases, you can call
 625:.\Generated_Source\PSoC4/CyLib.c ****     *  CySysFlashSetWaitCycles() to improve the CPU performance. See
 626:.\Generated_Source\PSoC4/CyLib.c ****     *  CySysFlashSetWaitCycles() description for more information.
 627:.\Generated_Source\PSoC4/CyLib.c ****     *
 628:.\Generated_Source\PSoC4/CyLib.c ****     *******************************************************************************/
 629:.\Generated_Source\PSoC4/CyLib.c ****     void CySysClkWriteHfclkDiv(uint32 divider)
 630:.\Generated_Source\PSoC4/CyLib.c ****     {
 631:.\Generated_Source\PSoC4/CyLib.c ****         uint8  interruptState;
 632:.\Generated_Source\PSoC4/CyLib.c **** 
 633:.\Generated_Source\PSoC4/CyLib.c ****         interruptState = CyEnterCriticalSection();
 634:.\Generated_Source\PSoC4/CyLib.c **** 
 635:.\Generated_Source\PSoC4/CyLib.c ****         CY_SYS_CLK_SELECT_REG = ((CY_SYS_CLK_SELECT_REG & ((uint32) (~(CY_SYS_CLK_SELECT_HFCLK_DIV_
 636:.\Generated_Source\PSoC4/CyLib.c ****                                         CY_SYS_CLK_SELECT_HFCLK_DIV_SHIFT)))) |
 637:.\Generated_Source\PSoC4/CyLib.c ****                     ((uint32)((divider & CY_SYS_CLK_SELECT_HFCLK_DIV_MASK) << CY_SYS_CLK_SELECT_HFC
 638:.\Generated_Source\PSoC4/CyLib.c **** 
 639:.\Generated_Source\PSoC4/CyLib.c ****         CyExitCriticalSection(interruptState);
 640:.\Generated_Source\PSoC4/CyLib.c ****     }
 641:.\Generated_Source\PSoC4/CyLib.c **** #endif /* (CY_IP_SRSSLT) */
 642:.\Generated_Source\PSoC4/CyLib.c **** 
 643:.\Generated_Source\PSoC4/CyLib.c **** 
 644:.\Generated_Source\PSoC4/CyLib.c **** #if (CY_PSOC4_4100BL || CY_PSOC4_4200BL)
 645:.\Generated_Source\PSoC4/CyLib.c **** 
 646:.\Generated_Source\PSoC4/CyLib.c ****     /*******************************************************************************
 647:.\Generated_Source\PSoC4/CyLib.c ****     * Function Name: CySysClkEcoStart
 648:.\Generated_Source\PSoC4/CyLib.c ****     ********************************************************************************
 649:.\Generated_Source\PSoC4/CyLib.c ****     *
 650:.\Generated_Source\PSoC4/CyLib.c ****     * Summary:
 651:.\Generated_Source\PSoC4/CyLib.c ****     *  Starts the External Crystal Oscillator (ECO). Refer to the device datasheet
 652:.\Generated_Source\PSoC4/CyLib.c ****     *  for the ECO startup time.
 653:.\Generated_Source\PSoC4/CyLib.c ****     *
 654:.\Generated_Source\PSoC4/CyLib.c ****     *  The timeout interval is measured based on the system frequency defined by
 655:.\Generated_Source\PSoC4/CyLib.c ****     *  PSoC Creator at build time. If System clock frequency is changed in
 656:.\Generated_Source\PSoC4/CyLib.c ****     *  runtime, the CyDelayFreq() with the appropriate parameter should be called.
 657:.\Generated_Source\PSoC4/CyLib.c ****     *
 658:.\Generated_Source\PSoC4/CyLib.c ****     * Parameters:
 659:.\Generated_Source\PSoC4/CyLib.c ****     *  timeoutUs: Timeout in microseconds. If zero is specified, the function
ARM GAS  C:\Users\PANXIA~1\AppData\Local\Temp\ccat6fhZ.s 			page 23


 660:.\Generated_Source\PSoC4/CyLib.c ****     *             starts the crystal and returns CYRET_SUCCESS. If non-zero
 661:.\Generated_Source\PSoC4/CyLib.c ****     *             value is passed, the CYRET_SUCCESS is returned once crystal
 662:.\Generated_Source\PSoC4/CyLib.c ****     *             is oscillating and amplitude reached 60% and it does not mean
 663:.\Generated_Source\PSoC4/CyLib.c ****     *             24 MHz crystal is within 50 ppm. If it is not oscillating or
 664:.\Generated_Source\PSoC4/CyLib.c ****     *             amplitude didn't reach 60% after specified amount of time, the
 665:.\Generated_Source\PSoC4/CyLib.c ****     *             CYRET_TIMEOUT is returned.
 666:.\Generated_Source\PSoC4/CyLib.c ****     *
 667:.\Generated_Source\PSoC4/CyLib.c ****     * Return:
 668:.\Generated_Source\PSoC4/CyLib.c ****     *   CYRET_SUCCESS - Completed successfully. The ECO is oscillating and amplitude
 669:.\Generated_Source\PSoC4/CyLib.c ****     *                   reached 60% and it does not mean 24 MHz crystal is within
 670:.\Generated_Source\PSoC4/CyLib.c ****     *                   50 ppm.
 671:.\Generated_Source\PSoC4/CyLib.c ****     *   CYRET_TIMEOUT - Timeout occurred.
 672:.\Generated_Source\PSoC4/CyLib.c ****     *
 673:.\Generated_Source\PSoC4/CyLib.c ****     *******************************************************************************/
 674:.\Generated_Source\PSoC4/CyLib.c ****     cystatus CySysClkEcoStart(uint32 timeoutUs)
 675:.\Generated_Source\PSoC4/CyLib.c ****     {
 676:.\Generated_Source\PSoC4/CyLib.c ****         cystatus status = CYRET_SUCCESS;
 677:.\Generated_Source\PSoC4/CyLib.c **** 
 678:.\Generated_Source\PSoC4/CyLib.c ****         /* Enable the RF oscillator band gap */
 679:.\Generated_Source\PSoC4/CyLib.c ****         CY_SYS_XTAL_BLESS_RF_CONFIG_REG |= CY_SYS_XTAL_BLESS_RF_CONFIG_RF_ENABLE;
 680:.\Generated_Source\PSoC4/CyLib.c **** 
 681:.\Generated_Source\PSoC4/CyLib.c ****         /* Update trimming register */
 682:.\Generated_Source\PSoC4/CyLib.c ****         CY_SYS_XTAL_BLERD_BB_XO_REG = CY_SYS_XTAL_BLERD_BB_XO_TRIM;
 683:.\Generated_Source\PSoC4/CyLib.c **** 
 684:.\Generated_Source\PSoC4/CyLib.c ****         /* Enable the Crystal */
 685:.\Generated_Source\PSoC4/CyLib.c ****         CY_SYS_XTAL_BLERD_DBUS_REG |= CY_SYS_XTAL_BLERD_DBUS_XTAL_ENABLE;
 686:.\Generated_Source\PSoC4/CyLib.c **** 
 687:.\Generated_Source\PSoC4/CyLib.c ****         if(timeoutUs > 0u)
 688:.\Generated_Source\PSoC4/CyLib.c ****         {
 689:.\Generated_Source\PSoC4/CyLib.c ****             status = CYRET_TIMEOUT;
 690:.\Generated_Source\PSoC4/CyLib.c **** 
 691:.\Generated_Source\PSoC4/CyLib.c ****             for( ; timeoutUs > 0u; timeoutUs--)
 692:.\Generated_Source\PSoC4/CyLib.c ****             {
 693:.\Generated_Source\PSoC4/CyLib.c ****                 CyDelayUs(1u);
 694:.\Generated_Source\PSoC4/CyLib.c **** 
 695:.\Generated_Source\PSoC4/CyLib.c ****                 if(0u != CySysClkEcoReadStatus())
 696:.\Generated_Source\PSoC4/CyLib.c ****                 {
 697:.\Generated_Source\PSoC4/CyLib.c ****                     status = CYRET_SUCCESS;
 698:.\Generated_Source\PSoC4/CyLib.c ****                     break;
 699:.\Generated_Source\PSoC4/CyLib.c ****                 }
 700:.\Generated_Source\PSoC4/CyLib.c ****             }
 701:.\Generated_Source\PSoC4/CyLib.c **** 
 702:.\Generated_Source\PSoC4/CyLib.c ****         }
 703:.\Generated_Source\PSoC4/CyLib.c **** 
 704:.\Generated_Source\PSoC4/CyLib.c ****         return(status);
 705:.\Generated_Source\PSoC4/CyLib.c ****     }
 706:.\Generated_Source\PSoC4/CyLib.c **** 
 707:.\Generated_Source\PSoC4/CyLib.c **** 
 708:.\Generated_Source\PSoC4/CyLib.c ****     /*******************************************************************************
 709:.\Generated_Source\PSoC4/CyLib.c ****     * Function Name: CySysClkEcoStop
 710:.\Generated_Source\PSoC4/CyLib.c ****     ********************************************************************************
 711:.\Generated_Source\PSoC4/CyLib.c ****     *
 712:.\Generated_Source\PSoC4/CyLib.c ****     * Summary:
 713:.\Generated_Source\PSoC4/CyLib.c ****     *  Stops the megahertz crystal.
 714:.\Generated_Source\PSoC4/CyLib.c ****     *
 715:.\Generated_Source\PSoC4/CyLib.c ****     * Parameters:
 716:.\Generated_Source\PSoC4/CyLib.c ****     *  None
ARM GAS  C:\Users\PANXIA~1\AppData\Local\Temp\ccat6fhZ.s 			page 24


 717:.\Generated_Source\PSoC4/CyLib.c ****     *
 718:.\Generated_Source\PSoC4/CyLib.c ****     * Return:
 719:.\Generated_Source\PSoC4/CyLib.c ****     *  None
 720:.\Generated_Source\PSoC4/CyLib.c ****     *
 721:.\Generated_Source\PSoC4/CyLib.c ****     *******************************************************************************/
 722:.\Generated_Source\PSoC4/CyLib.c ****     void CySysClkEcoStop(void)
 723:.\Generated_Source\PSoC4/CyLib.c ****     {
 724:.\Generated_Source\PSoC4/CyLib.c ****         /* Disable the RF oscillator band gap */
 725:.\Generated_Source\PSoC4/CyLib.c ****         CY_SYS_XTAL_BLESS_RF_CONFIG_REG &= (uint32) ~CY_SYS_XTAL_BLESS_RF_CONFIG_RF_ENABLE;
 726:.\Generated_Source\PSoC4/CyLib.c **** 
 727:.\Generated_Source\PSoC4/CyLib.c ****         /* Disable the Crystal */
 728:.\Generated_Source\PSoC4/CyLib.c ****         CY_SYS_XTAL_BLERD_DBUS_REG &= (uint32) ~CY_SYS_XTAL_BLERD_DBUS_XTAL_ENABLE;
 729:.\Generated_Source\PSoC4/CyLib.c ****     }
 730:.\Generated_Source\PSoC4/CyLib.c **** 
 731:.\Generated_Source\PSoC4/CyLib.c **** 
 732:.\Generated_Source\PSoC4/CyLib.c ****     /*******************************************************************************
 733:.\Generated_Source\PSoC4/CyLib.c ****     * Function Name: CySysClkEcoReadStatus
 734:.\Generated_Source\PSoC4/CyLib.c ****     ********************************************************************************
 735:.\Generated_Source\PSoC4/CyLib.c ****     *
 736:.\Generated_Source\PSoC4/CyLib.c ****     * Summary:
 737:.\Generated_Source\PSoC4/CyLib.c ****     *  Read status bit (50 ppm reached) for the megahertz crystal.
 738:.\Generated_Source\PSoC4/CyLib.c ****     *
 739:.\Generated_Source\PSoC4/CyLib.c ****     * Parameters:
 740:.\Generated_Source\PSoC4/CyLib.c ****     *  None
 741:.\Generated_Source\PSoC4/CyLib.c ****     *
 742:.\Generated_Source\PSoC4/CyLib.c ****     * Return:
 743:.\Generated_Source\PSoC4/CyLib.c ****     *  Non-zero indicates that XTAL output reached 50 ppm.
 744:.\Generated_Source\PSoC4/CyLib.c ****     *
 745:.\Generated_Source\PSoC4/CyLib.c ****     *******************************************************************************/
 746:.\Generated_Source\PSoC4/CyLib.c ****     uint32 CySysClkEcoReadStatus(void)
 747:.\Generated_Source\PSoC4/CyLib.c ****     {
 748:.\Generated_Source\PSoC4/CyLib.c ****         return (CY_SYS_XTAL_BLERD_FSM_REG & CY_SYS_XTAL_BLERD_FSM_XO_AMP_DETECT);
 749:.\Generated_Source\PSoC4/CyLib.c ****     }
 750:.\Generated_Source\PSoC4/CyLib.c **** 
 751:.\Generated_Source\PSoC4/CyLib.c **** 
 752:.\Generated_Source\PSoC4/CyLib.c ****     /*******************************************************************************
 753:.\Generated_Source\PSoC4/CyLib.c ****     * Function Name: CySysClkWriteEcoDiv
 754:.\Generated_Source\PSoC4/CyLib.c ****     ********************************************************************************
 755:.\Generated_Source\PSoC4/CyLib.c ****     *
 756:.\Generated_Source\PSoC4/CyLib.c ****     * Summary:
 757:.\Generated_Source\PSoC4/CyLib.c ****     *  Selects value for the ECO divider.
 758:.\Generated_Source\PSoC4/CyLib.c ****     *
 759:.\Generated_Source\PSoC4/CyLib.c ****     *  The ECO must not be the HFCLK clock source when this function is called.
 760:.\Generated_Source\PSoC4/CyLib.c ****     *  The HFCLK source can be changed to the other clock source by call to the
 761:.\Generated_Source\PSoC4/CyLib.c ****     *  CySysClkWriteHfclkDirect() function. If the ECO sources the HFCLK this
 762:.\Generated_Source\PSoC4/CyLib.c ****     *  function will not have any effect if compiler in release mode, and halt the
 763:.\Generated_Source\PSoC4/CyLib.c ****     *  CPU when compiler in debug mode.
 764:.\Generated_Source\PSoC4/CyLib.c ****     *
 765:.\Generated_Source\PSoC4/CyLib.c ****     * Parameters:
 766:.\Generated_Source\PSoC4/CyLib.c ****     *  divider: Power of 2 divider selection.
 767:.\Generated_Source\PSoC4/CyLib.c ****     *
 768:.\Generated_Source\PSoC4/CyLib.c ****     *   Define                        Description
 769:.\Generated_Source\PSoC4/CyLib.c ****     *   CY_SYS_CLK_ECO_DIV1             HFCLK = ECO / 1
 770:.\Generated_Source\PSoC4/CyLib.c ****     *   CY_SYS_CLK_ECO_DIV2             HFCLK = ECO / 2
 771:.\Generated_Source\PSoC4/CyLib.c ****     *   CY_SYS_CLK_ECO_DIV4             HFCLK = ECO / 4
 772:.\Generated_Source\PSoC4/CyLib.c ****     *   CY_SYS_CLK_ECO_DIV8             HFCLK = ECO / 8
 773:.\Generated_Source\PSoC4/CyLib.c ****     *
ARM GAS  C:\Users\PANXIA~1\AppData\Local\Temp\ccat6fhZ.s 			page 25


 774:.\Generated_Source\PSoC4/CyLib.c ****     * Return:
 775:.\Generated_Source\PSoC4/CyLib.c ****     *  None
 776:.\Generated_Source\PSoC4/CyLib.c ****     *
 777:.\Generated_Source\PSoC4/CyLib.c ****     * Side Effects:
 778:.\Generated_Source\PSoC4/CyLib.c ****     *  If the SYSCLK clock frequency increases during the device operation, call
 779:.\Generated_Source\PSoC4/CyLib.c ****     *  CySysFlashSetWaitCycles() with the appropriate parameter to adjust the number
 780:.\Generated_Source\PSoC4/CyLib.c ****     *  of clock cycles the cache will wait before sampling data comes back from
 781:.\Generated_Source\PSoC4/CyLib.c ****     *  Flash. If the SYSCLK clock frequency decreases, you can call
 782:.\Generated_Source\PSoC4/CyLib.c ****     *  CySysFlashSetWaitCycles() to improve the CPU performance. See
 783:.\Generated_Source\PSoC4/CyLib.c ****     *  CySysFlashSetWaitCycles() description for more information.
 784:.\Generated_Source\PSoC4/CyLib.c ****     *
 785:.\Generated_Source\PSoC4/CyLib.c ****     *******************************************************************************/
 786:.\Generated_Source\PSoC4/CyLib.c ****     void CySysClkWriteEcoDiv(uint32 divider)
 787:.\Generated_Source\PSoC4/CyLib.c ****     {
 788:.\Generated_Source\PSoC4/CyLib.c ****         uint8  interruptState;
 789:.\Generated_Source\PSoC4/CyLib.c **** 
 790:.\Generated_Source\PSoC4/CyLib.c ****         if (CY_SYS_CLK_HFCLK_ECO != (CY_SYS_CLK_SELECT_REG & CY_SYS_CLK_SELECT_DIRECT_SEL_MASK))
 791:.\Generated_Source\PSoC4/CyLib.c ****         {
 792:.\Generated_Source\PSoC4/CyLib.c ****             interruptState = CyEnterCriticalSection();
 793:.\Generated_Source\PSoC4/CyLib.c **** 
 794:.\Generated_Source\PSoC4/CyLib.c ****             CY_SYS_CLK_XTAL_CLK_DIV_CONFIG_REG =  (divider & CY_SYS_CLK_XTAL_CLK_DIV_MASK) |
 795:.\Generated_Source\PSoC4/CyLib.c ****                                                   (CY_SYS_CLK_XTAL_CLK_DIV_CONFIG_REG & ((uint32) ~
 796:.\Generated_Source\PSoC4/CyLib.c **** 
 797:.\Generated_Source\PSoC4/CyLib.c ****             CyExitCriticalSection(interruptState);
 798:.\Generated_Source\PSoC4/CyLib.c ****         }
 799:.\Generated_Source\PSoC4/CyLib.c ****         else
 800:.\Generated_Source\PSoC4/CyLib.c ****         {
 801:.\Generated_Source\PSoC4/CyLib.c ****             /* Halt CPU in debug mode if ECO sources HFCLK */
 802:.\Generated_Source\PSoC4/CyLib.c ****             CYASSERT(0u != 0u);
 803:.\Generated_Source\PSoC4/CyLib.c ****         }
 804:.\Generated_Source\PSoC4/CyLib.c ****     }
 805:.\Generated_Source\PSoC4/CyLib.c **** #endif /* (CY_PSOC4_4100BL || CY_PSOC4_4200BL) */
 806:.\Generated_Source\PSoC4/CyLib.c **** 
 807:.\Generated_Source\PSoC4/CyLib.c **** 
 808:.\Generated_Source\PSoC4/CyLib.c **** 
 809:.\Generated_Source\PSoC4/CyLib.c **** 
 810:.\Generated_Source\PSoC4/CyLib.c **** 
 811:.\Generated_Source\PSoC4/CyLib.c **** 
 812:.\Generated_Source\PSoC4/CyLib.c **** #if(CY_IP_SRSSV2)
 813:.\Generated_Source\PSoC4/CyLib.c **** 
 814:.\Generated_Source\PSoC4/CyLib.c ****     /*******************************************************************************
 815:.\Generated_Source\PSoC4/CyLib.c ****     * Function Name: CySysLvdEnable
 816:.\Generated_Source\PSoC4/CyLib.c ****     ********************************************************************************
 817:.\Generated_Source\PSoC4/CyLib.c ****     *
 818:.\Generated_Source\PSoC4/CyLib.c ****     * Summary:
 819:.\Generated_Source\PSoC4/CyLib.c ****     *  Enables the output of the low-voltage monitor when Vddd is at or below the
 820:.\Generated_Source\PSoC4/CyLib.c ****     *  trip point, configures the device to generate an interrupt, and sets the
 821:.\Generated_Source\PSoC4/CyLib.c ****     *  voltage trip level.
 822:.\Generated_Source\PSoC4/CyLib.c ****     *
 823:.\Generated_Source\PSoC4/CyLib.c ****     * Parameters:
 824:.\Generated_Source\PSoC4/CyLib.c ****     *  threshold: Threshold selection for Low Voltage Detect circuit.
 825:.\Generated_Source\PSoC4/CyLib.c ****     *  Threshold variation is +/- 2.5% from these typical voltage choices.
 826:.\Generated_Source\PSoC4/CyLib.c ****     *         Define                     Voltage threshold
 827:.\Generated_Source\PSoC4/CyLib.c ****     *    CY_LVD_THRESHOLD_1_75_V       1.7500 V
 828:.\Generated_Source\PSoC4/CyLib.c ****     *    CY_LVD_THRESHOLD_1_80_V       1.8000 V
 829:.\Generated_Source\PSoC4/CyLib.c ****     *    CY_LVD_THRESHOLD_1_90_V       1.9000 V
 830:.\Generated_Source\PSoC4/CyLib.c ****     *    CY_LVD_THRESHOLD_2_00_V       2.0000 V
ARM GAS  C:\Users\PANXIA~1\AppData\Local\Temp\ccat6fhZ.s 			page 26


 831:.\Generated_Source\PSoC4/CyLib.c ****     *    CY_LVD_THRESHOLD_2_10_V       2.1000 V
 832:.\Generated_Source\PSoC4/CyLib.c ****     *    CY_LVD_THRESHOLD_2_20_V       2.2000 V
 833:.\Generated_Source\PSoC4/CyLib.c ****     *    CY_LVD_THRESHOLD_2_30_V       2.3000 V
 834:.\Generated_Source\PSoC4/CyLib.c ****     *    CY_LVD_THRESHOLD_2_40_V       2.4000 V
 835:.\Generated_Source\PSoC4/CyLib.c ****     *    CY_LVD_THRESHOLD_2_50_V       2.5000 V
 836:.\Generated_Source\PSoC4/CyLib.c ****     *    CY_LVD_THRESHOLD_2_60_V       2.6000 V
 837:.\Generated_Source\PSoC4/CyLib.c ****     *    CY_LVD_THRESHOLD_2_70_V       2.7000 V
 838:.\Generated_Source\PSoC4/CyLib.c ****     *    CY_LVD_THRESHOLD_2_80_V       2.8000 V
 839:.\Generated_Source\PSoC4/CyLib.c ****     *    CY_LVD_THRESHOLD_2_90_V       2.9000 V
 840:.\Generated_Source\PSoC4/CyLib.c ****     *    CY_LVD_THRESHOLD_3_00_V       3.0000 V
 841:.\Generated_Source\PSoC4/CyLib.c ****     *    CY_LVD_THRESHOLD_3_20_V       3.2000 V
 842:.\Generated_Source\PSoC4/CyLib.c ****     *    CY_LVD_THRESHOLD_4_50_V       4.5000 V
 843:.\Generated_Source\PSoC4/CyLib.c ****     *
 844:.\Generated_Source\PSoC4/CyLib.c ****     * Return:
 845:.\Generated_Source\PSoC4/CyLib.c ****     *  None
 846:.\Generated_Source\PSoC4/CyLib.c ****     *
 847:.\Generated_Source\PSoC4/CyLib.c ****     *******************************************************************************/
 848:.\Generated_Source\PSoC4/CyLib.c ****     void CySysLvdEnable(uint32 threshold)
 849:.\Generated_Source\PSoC4/CyLib.c ****     {
 588              		.loc 1 849 0
 589              		.cfi_startproc
 590 0000 80B5     		push	{r7, lr}
 591              		.cfi_def_cfa_offset 8
 592              		.cfi_offset 7, -8
 593              		.cfi_offset 14, -4
 594 0002 82B0     		sub	sp, sp, #8
 595              		.cfi_def_cfa_offset 16
 596 0004 00AF     		add	r7, sp, #0
 597              		.cfi_def_cfa_register 7
 598 0006 7860     		str	r0, [r7, #4]
 850:.\Generated_Source\PSoC4/CyLib.c ****         /* Prevent propagating a false interrupt */
 851:.\Generated_Source\PSoC4/CyLib.c ****         CY_LVD_PWR_INTR_MASK_REG   &= (uint32) ~CY_LVD_PROPAGATE_INT_TO_CPU;
 599              		.loc 1 851 0
 600 0008 134B     		ldr	r3, .L28
 601 000a 134A     		ldr	r2, .L28
 602 000c 1268     		ldr	r2, [r2]
 603 000e 0221     		mov	r1, #2
 604 0010 8A43     		bic	r2, r1
 605 0012 1A60     		str	r2, [r3]
 852:.\Generated_Source\PSoC4/CyLib.c **** 
 853:.\Generated_Source\PSoC4/CyLib.c ****         /* Set specified threshold */
 854:.\Generated_Source\PSoC4/CyLib.c ****         CY_LVD_PWR_VMON_CONFIG_REG = (CY_LVD_PWR_VMON_CONFIG_REG & ~CY_LVD_PWR_VMON_CONFIG_LVD_SEL_
 606              		.loc 1 854 0
 607 0014 114B     		ldr	r3, .L28+4
 608 0016 114A     		ldr	r2, .L28+4
 609 0018 1268     		ldr	r2, [r2]
 610 001a 1E21     		mov	r1, #30
 611 001c 8A43     		bic	r2, r1
 612 001e 111C     		mov	r1, r2
 855:.\Generated_Source\PSoC4/CyLib.c ****                 ((threshold << CY_LVD_PWR_VMON_CONFIG_LVD_SEL_SHIFT) & CY_LVD_PWR_VMON_CONFIG_LVD_S
 613              		.loc 1 855 0
 614 0020 7A68     		ldr	r2, [r7, #4]
 615 0022 5200     		lsl	r2, r2, #1
 616 0024 1E20     		mov	r0, #30
 617 0026 0240     		and	r2, r0
 854:.\Generated_Source\PSoC4/CyLib.c ****                 ((threshold << CY_LVD_PWR_VMON_CONFIG_LVD_SEL_SHIFT) & CY_LVD_PWR_VMON_CONFIG_LVD_S
 618              		.loc 1 854 0
ARM GAS  C:\Users\PANXIA~1\AppData\Local\Temp\ccat6fhZ.s 			page 27


 619 0028 0A43     		orr	r2, r1
 620 002a 1A60     		str	r2, [r3]
 856:.\Generated_Source\PSoC4/CyLib.c **** 
 857:.\Generated_Source\PSoC4/CyLib.c ****         /* Enable the LVD. This may cause a false LVD event. */
 858:.\Generated_Source\PSoC4/CyLib.c ****         CY_LVD_PWR_VMON_CONFIG_REG |= CY_LVD_PWR_VMON_CONFIG_LVD_EN;
 621              		.loc 1 858 0
 622 002c 0B4B     		ldr	r3, .L28+4
 623 002e 0B4A     		ldr	r2, .L28+4
 624 0030 1268     		ldr	r2, [r2]
 625 0032 0121     		mov	r1, #1
 626 0034 0A43     		orr	r2, r1
 627 0036 1A60     		str	r2, [r3]
 859:.\Generated_Source\PSoC4/CyLib.c **** 
 860:.\Generated_Source\PSoC4/CyLib.c ****         /* Wait for the circuit to stabilize */
 861:.\Generated_Source\PSoC4/CyLib.c ****         CyDelayUs(CY_LVD_STABILIZE_TIMEOUT_US);
 628              		.loc 1 861 0
 629 0038 FA23     		mov	r3, #250
 630 003a 9B00     		lsl	r3, r3, #2
 631 003c 181C     		mov	r0, r3
 632 003e FFF7FEFF 		bl	CyDelayUs
 862:.\Generated_Source\PSoC4/CyLib.c **** 
 863:.\Generated_Source\PSoC4/CyLib.c ****         /* Clear the false event */
 864:.\Generated_Source\PSoC4/CyLib.c ****         CySysLvdClearInterrupt();
 633              		.loc 1 864 0
 634 0042 FFF7FEFF 		bl	CySysLvdClearInterrupt
 865:.\Generated_Source\PSoC4/CyLib.c **** 
 866:.\Generated_Source\PSoC4/CyLib.c ****         /* Unmask the interrupt */
 867:.\Generated_Source\PSoC4/CyLib.c ****         CY_LVD_PWR_INTR_MASK_REG   |= CY_LVD_PROPAGATE_INT_TO_CPU;
 635              		.loc 1 867 0
 636 0046 044B     		ldr	r3, .L28
 637 0048 034A     		ldr	r2, .L28
 638 004a 1268     		ldr	r2, [r2]
 639 004c 0221     		mov	r1, #2
 640 004e 0A43     		orr	r2, r1
 641 0050 1A60     		str	r2, [r3]
 868:.\Generated_Source\PSoC4/CyLib.c ****     }
 642              		.loc 1 868 0
 643 0052 BD46     		mov	sp, r7
 644 0054 02B0     		add	sp, sp, #8
 645              		@ sp needed
 646 0056 80BD     		pop	{r7, pc}
 647              	.L29:
 648              		.align	2
 649              	.L28:
 650 0058 08000B40 		.word	1074462728
 651 005c 18000B40 		.word	1074462744
 652              		.cfi_endproc
 653              	.LFE5:
 654              		.size	CySysLvdEnable, .-CySysLvdEnable
 655              		.section	.text.CySysLvdDisable,"ax",%progbits
 656              		.align	2
 657              		.global	CySysLvdDisable
 658              		.code	16
 659              		.thumb_func
 660              		.type	CySysLvdDisable, %function
 661              	CySysLvdDisable:
 662              	.LFB6:
ARM GAS  C:\Users\PANXIA~1\AppData\Local\Temp\ccat6fhZ.s 			page 28


 869:.\Generated_Source\PSoC4/CyLib.c **** 
 870:.\Generated_Source\PSoC4/CyLib.c **** 
 871:.\Generated_Source\PSoC4/CyLib.c ****     /*******************************************************************************
 872:.\Generated_Source\PSoC4/CyLib.c ****     * Function Name: CySysLvdDisable
 873:.\Generated_Source\PSoC4/CyLib.c ****     ********************************************************************************
 874:.\Generated_Source\PSoC4/CyLib.c ****     *
 875:.\Generated_Source\PSoC4/CyLib.c ****     * Summary:
 876:.\Generated_Source\PSoC4/CyLib.c ****     *  Disables the low voltage detection. A low voltage interrupt is disabled.
 877:.\Generated_Source\PSoC4/CyLib.c ****     *
 878:.\Generated_Source\PSoC4/CyLib.c ****     * Parameters:
 879:.\Generated_Source\PSoC4/CyLib.c ****     *  None
 880:.\Generated_Source\PSoC4/CyLib.c ****     *
 881:.\Generated_Source\PSoC4/CyLib.c ****     * Return:
 882:.\Generated_Source\PSoC4/CyLib.c ****     *  None
 883:.\Generated_Source\PSoC4/CyLib.c ****     *
 884:.\Generated_Source\PSoC4/CyLib.c ****     *******************************************************************************/
 885:.\Generated_Source\PSoC4/CyLib.c ****     void CySysLvdDisable(void)
 886:.\Generated_Source\PSoC4/CyLib.c ****     {
 663              		.loc 1 886 0
 664              		.cfi_startproc
 665 0000 80B5     		push	{r7, lr}
 666              		.cfi_def_cfa_offset 8
 667              		.cfi_offset 7, -8
 668              		.cfi_offset 14, -4
 669 0002 00AF     		add	r7, sp, #0
 670              		.cfi_def_cfa_register 7
 887:.\Generated_Source\PSoC4/CyLib.c ****         CY_LVD_PWR_INTR_MASK_REG   &= ~CY_LVD_PROPAGATE_INT_TO_CPU;
 671              		.loc 1 887 0
 672 0004 064B     		ldr	r3, .L31
 673 0006 064A     		ldr	r2, .L31
 674 0008 1268     		ldr	r2, [r2]
 675 000a 0221     		mov	r1, #2
 676 000c 8A43     		bic	r2, r1
 677 000e 1A60     		str	r2, [r3]
 888:.\Generated_Source\PSoC4/CyLib.c ****         CY_LVD_PWR_VMON_CONFIG_REG &= ~CY_LVD_PWR_VMON_CONFIG_LVD_EN;
 678              		.loc 1 888 0
 679 0010 044B     		ldr	r3, .L31+4
 680 0012 044A     		ldr	r2, .L31+4
 681 0014 1268     		ldr	r2, [r2]
 682 0016 0121     		mov	r1, #1
 683 0018 8A43     		bic	r2, r1
 684 001a 1A60     		str	r2, [r3]
 889:.\Generated_Source\PSoC4/CyLib.c ****     }
 685              		.loc 1 889 0
 686 001c BD46     		mov	sp, r7
 687              		@ sp needed
 688 001e 80BD     		pop	{r7, pc}
 689              	.L32:
 690              		.align	2
 691              	.L31:
 692 0020 08000B40 		.word	1074462728
 693 0024 18000B40 		.word	1074462744
 694              		.cfi_endproc
 695              	.LFE6:
 696              		.size	CySysLvdDisable, .-CySysLvdDisable
 697              		.section	.text.CySysLvdGetInterruptSource,"ax",%progbits
 698              		.align	2
ARM GAS  C:\Users\PANXIA~1\AppData\Local\Temp\ccat6fhZ.s 			page 29


 699              		.global	CySysLvdGetInterruptSource
 700              		.code	16
 701              		.thumb_func
 702              		.type	CySysLvdGetInterruptSource, %function
 703              	CySysLvdGetInterruptSource:
 704              	.LFB7:
 890:.\Generated_Source\PSoC4/CyLib.c **** 
 891:.\Generated_Source\PSoC4/CyLib.c **** 
 892:.\Generated_Source\PSoC4/CyLib.c ****     /*******************************************************************************
 893:.\Generated_Source\PSoC4/CyLib.c ****     * Function Name: CySysLvdGetInterruptSource
 894:.\Generated_Source\PSoC4/CyLib.c ****     ********************************************************************************
 895:.\Generated_Source\PSoC4/CyLib.c ****     *
 896:.\Generated_Source\PSoC4/CyLib.c ****     * Summary:
 897:.\Generated_Source\PSoC4/CyLib.c ****     *  Gets the low voltage detection interrupt status (without clearing).
 898:.\Generated_Source\PSoC4/CyLib.c ****     *
 899:.\Generated_Source\PSoC4/CyLib.c ****     * Parameters:
 900:.\Generated_Source\PSoC4/CyLib.c ****     *  None
 901:.\Generated_Source\PSoC4/CyLib.c ****     *
 902:.\Generated_Source\PSoC4/CyLib.c ****     * Return:
 903:.\Generated_Source\PSoC4/CyLib.c ****     *  Interrupt request value:
 904:.\Generated_Source\PSoC4/CyLib.c ****     *    CY_SYS_LVD_INT - Indicates an Low Voltage Detect interrupt
 905:.\Generated_Source\PSoC4/CyLib.c ****     *
 906:.\Generated_Source\PSoC4/CyLib.c ****     *******************************************************************************/
 907:.\Generated_Source\PSoC4/CyLib.c ****     uint32 CySysLvdGetInterruptSource(void)
 908:.\Generated_Source\PSoC4/CyLib.c ****     {
 705              		.loc 1 908 0
 706              		.cfi_startproc
 707 0000 80B5     		push	{r7, lr}
 708              		.cfi_def_cfa_offset 8
 709              		.cfi_offset 7, -8
 710              		.cfi_offset 14, -4
 711 0002 00AF     		add	r7, sp, #0
 712              		.cfi_def_cfa_register 7
 909:.\Generated_Source\PSoC4/CyLib.c ****         return (CY_LVD_PWR_INTR_REG & CY_SYS_LVD_INT);
 713              		.loc 1 909 0
 714 0004 034B     		ldr	r3, .L35
 715 0006 1B68     		ldr	r3, [r3]
 716 0008 0222     		mov	r2, #2
 717 000a 1340     		and	r3, r2
 910:.\Generated_Source\PSoC4/CyLib.c ****     }
 718              		.loc 1 910 0
 719 000c 181C     		mov	r0, r3
 720 000e BD46     		mov	sp, r7
 721              		@ sp needed
 722 0010 80BD     		pop	{r7, pc}
 723              	.L36:
 724 0012 C046     		.align	2
 725              	.L35:
 726 0014 04000B40 		.word	1074462724
 727              		.cfi_endproc
 728              	.LFE7:
 729              		.size	CySysLvdGetInterruptSource, .-CySysLvdGetInterruptSource
 730              		.section	.text.CySysLvdClearInterrupt,"ax",%progbits
 731              		.align	2
 732              		.global	CySysLvdClearInterrupt
 733              		.code	16
 734              		.thumb_func
ARM GAS  C:\Users\PANXIA~1\AppData\Local\Temp\ccat6fhZ.s 			page 30


 735              		.type	CySysLvdClearInterrupt, %function
 736              	CySysLvdClearInterrupt:
 737              	.LFB8:
 911:.\Generated_Source\PSoC4/CyLib.c **** 
 912:.\Generated_Source\PSoC4/CyLib.c **** 
 913:.\Generated_Source\PSoC4/CyLib.c ****     /*******************************************************************************
 914:.\Generated_Source\PSoC4/CyLib.c ****     * Function Name: CySysLvdClearInterrupt
 915:.\Generated_Source\PSoC4/CyLib.c ****     ********************************************************************************
 916:.\Generated_Source\PSoC4/CyLib.c ****     *
 917:.\Generated_Source\PSoC4/CyLib.c ****     * Summary:
 918:.\Generated_Source\PSoC4/CyLib.c ****     *  Clears the low voltage detection interrupt status.
 919:.\Generated_Source\PSoC4/CyLib.c ****     *
 920:.\Generated_Source\PSoC4/CyLib.c ****     * Parameters:
 921:.\Generated_Source\PSoC4/CyLib.c ****     *  None
 922:.\Generated_Source\PSoC4/CyLib.c ****     *
 923:.\Generated_Source\PSoC4/CyLib.c ****     * Return:
 924:.\Generated_Source\PSoC4/CyLib.c ****     *  None
 925:.\Generated_Source\PSoC4/CyLib.c ****     *
 926:.\Generated_Source\PSoC4/CyLib.c ****     *******************************************************************************/
 927:.\Generated_Source\PSoC4/CyLib.c ****     void CySysLvdClearInterrupt(void)
 928:.\Generated_Source\PSoC4/CyLib.c ****     {
 738              		.loc 1 928 0
 739              		.cfi_startproc
 740 0000 80B5     		push	{r7, lr}
 741              		.cfi_def_cfa_offset 8
 742              		.cfi_offset 7, -8
 743              		.cfi_offset 14, -4
 744 0002 00AF     		add	r7, sp, #0
 745              		.cfi_def_cfa_register 7
 929:.\Generated_Source\PSoC4/CyLib.c ****         CY_LVD_PWR_INTR_REG = CY_SYS_LVD_INT;
 746              		.loc 1 929 0
 747 0004 024B     		ldr	r3, .L38
 748 0006 0222     		mov	r2, #2
 749 0008 1A60     		str	r2, [r3]
 930:.\Generated_Source\PSoC4/CyLib.c ****     }
 750              		.loc 1 930 0
 751 000a BD46     		mov	sp, r7
 752              		@ sp needed
 753 000c 80BD     		pop	{r7, pc}
 754              	.L39:
 755 000e C046     		.align	2
 756              	.L38:
 757 0010 04000B40 		.word	1074462724
 758              		.cfi_endproc
 759              	.LFE8:
 760              		.size	CySysLvdClearInterrupt, .-CySysLvdClearInterrupt
 761              		.section	.text.CySysGetResetReason,"ax",%progbits
 762              		.align	2
 763              		.global	CySysGetResetReason
 764              		.code	16
 765              		.thumb_func
 766              		.type	CySysGetResetReason, %function
 767              	CySysGetResetReason:
 768              	.LFB9:
 931:.\Generated_Source\PSoC4/CyLib.c **** 
 932:.\Generated_Source\PSoC4/CyLib.c **** #endif /* (CY_IP_SRSSV2) */
 933:.\Generated_Source\PSoC4/CyLib.c **** 
ARM GAS  C:\Users\PANXIA~1\AppData\Local\Temp\ccat6fhZ.s 			page 31


 934:.\Generated_Source\PSoC4/CyLib.c **** 
 935:.\Generated_Source\PSoC4/CyLib.c **** /*******************************************************************************
 936:.\Generated_Source\PSoC4/CyLib.c **** * Function Name: CySysGetResetReason
 937:.\Generated_Source\PSoC4/CyLib.c **** ********************************************************************************
 938:.\Generated_Source\PSoC4/CyLib.c **** *
 939:.\Generated_Source\PSoC4/CyLib.c **** * Summary:
 940:.\Generated_Source\PSoC4/CyLib.c **** *  Reports the cause for the latest reset(s) that occurred in the system. All
 941:.\Generated_Source\PSoC4/CyLib.c **** *  the bits in the RES_CAUSE register assert when the corresponding reset cause
 942:.\Generated_Source\PSoC4/CyLib.c **** *  occurs and must be cleared by the firmware. These bits are cleared by the
 943:.\Generated_Source\PSoC4/CyLib.c **** *  hardware only during XRES, POR, or a detected brown-out.
 944:.\Generated_Source\PSoC4/CyLib.c **** *
 945:.\Generated_Source\PSoC4/CyLib.c **** * Parameters:
 946:.\Generated_Source\PSoC4/CyLib.c **** *  reason: bits in the RES_CAUSE register to clear.
 947:.\Generated_Source\PSoC4/CyLib.c **** *   CY_SYS_RESET_WDT       - WDT caused a reset
 948:.\Generated_Source\PSoC4/CyLib.c **** *   CY_SYS_RESET_PROTFAULT - Occured protection violation that requires reset
 949:.\Generated_Source\PSoC4/CyLib.c **** *   CY_SYS_RESET_SW        - Cortex-M0 requested a system reset.
 950:.\Generated_Source\PSoC4/CyLib.c **** *
 951:.\Generated_Source\PSoC4/CyLib.c **** * Return:
 952:.\Generated_Source\PSoC4/CyLib.c **** *  Status. Same enumerated bit values as used for the reason parameter.
 953:.\Generated_Source\PSoC4/CyLib.c **** *
 954:.\Generated_Source\PSoC4/CyLib.c **** *******************************************************************************/
 955:.\Generated_Source\PSoC4/CyLib.c **** uint32 CySysGetResetReason(uint32 reason)
 956:.\Generated_Source\PSoC4/CyLib.c **** {
 769              		.loc 1 956 0
 770              		.cfi_startproc
 771 0000 80B5     		push	{r7, lr}
 772              		.cfi_def_cfa_offset 8
 773              		.cfi_offset 7, -8
 774              		.cfi_offset 14, -4
 775 0002 84B0     		sub	sp, sp, #16
 776              		.cfi_def_cfa_offset 24
 777 0004 00AF     		add	r7, sp, #0
 778              		.cfi_def_cfa_register 7
 779 0006 7860     		str	r0, [r7, #4]
 957:.\Generated_Source\PSoC4/CyLib.c ****     uint32 status;
 958:.\Generated_Source\PSoC4/CyLib.c **** 
 959:.\Generated_Source\PSoC4/CyLib.c ****     reason &= (CY_SYS_RESET_WDT | CY_SYS_RESET_PROTFAULT | CY_SYS_RESET_SW);
 780              		.loc 1 959 0
 781 0008 7B68     		ldr	r3, [r7, #4]
 782 000a 1922     		mov	r2, #25
 783 000c 1340     		and	r3, r2
 784 000e 7B60     		str	r3, [r7, #4]
 960:.\Generated_Source\PSoC4/CyLib.c ****     status = CY_SYS_RES_CAUSE_REG &
 785              		.loc 1 960 0
 786 0010 064B     		ldr	r3, .L42
 787 0012 1B68     		ldr	r3, [r3]
 788 0014 1922     		mov	r2, #25
 789 0016 1340     		and	r3, r2
 790 0018 FB60     		str	r3, [r7, #12]
 961:.\Generated_Source\PSoC4/CyLib.c ****              (CY_SYS_RESET_WDT | CY_SYS_RESET_PROTFAULT | CY_SYS_RESET_SW);
 962:.\Generated_Source\PSoC4/CyLib.c ****     CY_SYS_RES_CAUSE_REG = reason;
 791              		.loc 1 962 0
 792 001a 044B     		ldr	r3, .L42
 793 001c 7A68     		ldr	r2, [r7, #4]
 794 001e 1A60     		str	r2, [r3]
 963:.\Generated_Source\PSoC4/CyLib.c **** 
 964:.\Generated_Source\PSoC4/CyLib.c ****     return (status);
ARM GAS  C:\Users\PANXIA~1\AppData\Local\Temp\ccat6fhZ.s 			page 32


 795              		.loc 1 964 0
 796 0020 FB68     		ldr	r3, [r7, #12]
 965:.\Generated_Source\PSoC4/CyLib.c **** }
 797              		.loc 1 965 0
 798 0022 181C     		mov	r0, r3
 799 0024 BD46     		mov	sp, r7
 800 0026 04B0     		add	sp, sp, #16
 801              		@ sp needed
 802 0028 80BD     		pop	{r7, pc}
 803              	.L43:
 804 002a C046     		.align	2
 805              	.L42:
 806 002c 00030B40 		.word	1074463488
 807              		.cfi_endproc
 808              	.LFE9:
 809              		.size	CySysGetResetReason, .-CySysGetResetReason
 810              		.section	.text.CyDisableInts,"ax",%progbits
 811              		.align	2
 812              		.global	CyDisableInts
 813              		.code	16
 814              		.thumb_func
 815              		.type	CyDisableInts, %function
 816              	CyDisableInts:
 817              	.LFB10:
 966:.\Generated_Source\PSoC4/CyLib.c **** 
 967:.\Generated_Source\PSoC4/CyLib.c **** 
 968:.\Generated_Source\PSoC4/CyLib.c **** /*******************************************************************************
 969:.\Generated_Source\PSoC4/CyLib.c **** * Function Name: CyDisableInts
 970:.\Generated_Source\PSoC4/CyLib.c **** ********************************************************************************
 971:.\Generated_Source\PSoC4/CyLib.c **** *
 972:.\Generated_Source\PSoC4/CyLib.c **** * Summary:
 973:.\Generated_Source\PSoC4/CyLib.c **** *  Disables all interrupts.
 974:.\Generated_Source\PSoC4/CyLib.c **** *
 975:.\Generated_Source\PSoC4/CyLib.c **** * Parameters:
 976:.\Generated_Source\PSoC4/CyLib.c **** *  None
 977:.\Generated_Source\PSoC4/CyLib.c **** *
 978:.\Generated_Source\PSoC4/CyLib.c **** * Return:
 979:.\Generated_Source\PSoC4/CyLib.c **** *  32 bit mask of previously enabled interrupts.
 980:.\Generated_Source\PSoC4/CyLib.c **** *
 981:.\Generated_Source\PSoC4/CyLib.c **** *******************************************************************************/
 982:.\Generated_Source\PSoC4/CyLib.c **** uint32 CyDisableInts(void)
 983:.\Generated_Source\PSoC4/CyLib.c **** {
 818              		.loc 1 983 0
 819              		.cfi_startproc
 820 0000 80B5     		push	{r7, lr}
 821              		.cfi_def_cfa_offset 8
 822              		.cfi_offset 7, -8
 823              		.cfi_offset 14, -4
 824 0002 82B0     		sub	sp, sp, #8
 825              		.cfi_def_cfa_offset 16
 826 0004 00AF     		add	r7, sp, #0
 827              		.cfi_def_cfa_register 7
 984:.\Generated_Source\PSoC4/CyLib.c ****     uint32 intState;
 985:.\Generated_Source\PSoC4/CyLib.c **** 
 986:.\Generated_Source\PSoC4/CyLib.c ****     /* Get current interrupt state. */
 987:.\Generated_Source\PSoC4/CyLib.c ****     intState = CY_INT_CLEAR_REG;
 828              		.loc 1 987 0
ARM GAS  C:\Users\PANXIA~1\AppData\Local\Temp\ccat6fhZ.s 			page 33


 829 0006 064B     		ldr	r3, .L46
 830 0008 1B68     		ldr	r3, [r3]
 831 000a 7B60     		str	r3, [r7, #4]
 988:.\Generated_Source\PSoC4/CyLib.c **** 
 989:.\Generated_Source\PSoC4/CyLib.c ****     /* Disable all interrupts. */
 990:.\Generated_Source\PSoC4/CyLib.c ****     CY_INT_CLEAR_REG = CY_INT_CLEAR_DISABLE_ALL;
 832              		.loc 1 990 0
 833 000c 044B     		ldr	r3, .L46
 834 000e 0122     		mov	r2, #1
 835 0010 5242     		neg	r2, r2
 836 0012 1A60     		str	r2, [r3]
 991:.\Generated_Source\PSoC4/CyLib.c **** 
 992:.\Generated_Source\PSoC4/CyLib.c ****     return (intState);
 837              		.loc 1 992 0
 838 0014 7B68     		ldr	r3, [r7, #4]
 993:.\Generated_Source\PSoC4/CyLib.c **** }
 839              		.loc 1 993 0
 840 0016 181C     		mov	r0, r3
 841 0018 BD46     		mov	sp, r7
 842 001a 02B0     		add	sp, sp, #8
 843              		@ sp needed
 844 001c 80BD     		pop	{r7, pc}
 845              	.L47:
 846 001e C046     		.align	2
 847              	.L46:
 848 0020 80E100E0 		.word	-536813184
 849              		.cfi_endproc
 850              	.LFE10:
 851              		.size	CyDisableInts, .-CyDisableInts
 852              		.section	.text.CyEnableInts,"ax",%progbits
 853              		.align	2
 854              		.global	CyEnableInts
 855              		.code	16
 856              		.thumb_func
 857              		.type	CyEnableInts, %function
 858              	CyEnableInts:
 859              	.LFB11:
 994:.\Generated_Source\PSoC4/CyLib.c **** 
 995:.\Generated_Source\PSoC4/CyLib.c **** 
 996:.\Generated_Source\PSoC4/CyLib.c **** /*******************************************************************************
 997:.\Generated_Source\PSoC4/CyLib.c **** * Function Name: CyEnableInts
 998:.\Generated_Source\PSoC4/CyLib.c **** ********************************************************************************
 999:.\Generated_Source\PSoC4/CyLib.c **** *
1000:.\Generated_Source\PSoC4/CyLib.c **** * Summary:
1001:.\Generated_Source\PSoC4/CyLib.c **** *  Enables interrupts to a given state.
1002:.\Generated_Source\PSoC4/CyLib.c **** *
1003:.\Generated_Source\PSoC4/CyLib.c **** * Parameters:
1004:.\Generated_Source\PSoC4/CyLib.c **** *   mask, 32 bit mask of interrupts to enable.
1005:.\Generated_Source\PSoC4/CyLib.c **** *
1006:.\Generated_Source\PSoC4/CyLib.c **** * Return:
1007:.\Generated_Source\PSoC4/CyLib.c **** *  None
1008:.\Generated_Source\PSoC4/CyLib.c **** *
1009:.\Generated_Source\PSoC4/CyLib.c **** *******************************************************************************/
1010:.\Generated_Source\PSoC4/CyLib.c **** void CyEnableInts(uint32 mask)
1011:.\Generated_Source\PSoC4/CyLib.c **** {
 860              		.loc 1 1011 0
 861              		.cfi_startproc
ARM GAS  C:\Users\PANXIA~1\AppData\Local\Temp\ccat6fhZ.s 			page 34


 862 0000 80B5     		push	{r7, lr}
 863              		.cfi_def_cfa_offset 8
 864              		.cfi_offset 7, -8
 865              		.cfi_offset 14, -4
 866 0002 82B0     		sub	sp, sp, #8
 867              		.cfi_def_cfa_offset 16
 868 0004 00AF     		add	r7, sp, #0
 869              		.cfi_def_cfa_register 7
 870 0006 7860     		str	r0, [r7, #4]
1012:.\Generated_Source\PSoC4/CyLib.c ****     CY_INT_ENABLE_REG = mask;
 871              		.loc 1 1012 0
 872 0008 024B     		ldr	r3, .L49
 873 000a 7A68     		ldr	r2, [r7, #4]
 874 000c 1A60     		str	r2, [r3]
1013:.\Generated_Source\PSoC4/CyLib.c **** }
 875              		.loc 1 1013 0
 876 000e BD46     		mov	sp, r7
 877 0010 02B0     		add	sp, sp, #8
 878              		@ sp needed
 879 0012 80BD     		pop	{r7, pc}
 880              	.L50:
 881              		.align	2
 882              	.L49:
 883 0014 00E100E0 		.word	-536813312
 884              		.cfi_endproc
 885              	.LFE11:
 886              		.size	CyEnableInts, .-CyEnableInts
 887              		.section	.text.CyIntSetSysVector,"ax",%progbits
 888              		.align	2
 889              		.global	CyIntSetSysVector
 890              		.code	16
 891              		.thumb_func
 892              		.type	CyIntSetSysVector, %function
 893              	CyIntSetSysVector:
 894              	.LFB12:
1014:.\Generated_Source\PSoC4/CyLib.c **** 
1015:.\Generated_Source\PSoC4/CyLib.c **** 
1016:.\Generated_Source\PSoC4/CyLib.c **** /*******************************************************************************
1017:.\Generated_Source\PSoC4/CyLib.c **** * Function Name: CyIntSetSysVector
1018:.\Generated_Source\PSoC4/CyLib.c **** ********************************************************************************
1019:.\Generated_Source\PSoC4/CyLib.c **** *
1020:.\Generated_Source\PSoC4/CyLib.c **** * Summary:
1021:.\Generated_Source\PSoC4/CyLib.c **** *  Sets the interrupt vector of the specified system interrupt number. These
1022:.\Generated_Source\PSoC4/CyLib.c **** *  interrupts are for SysTick, PendSV and others.
1023:.\Generated_Source\PSoC4/CyLib.c **** *
1024:.\Generated_Source\PSoC4/CyLib.c **** * Parameters:
1025:.\Generated_Source\PSoC4/CyLib.c **** *  number: System interrupt number:
1026:.\Generated_Source\PSoC4/CyLib.c **** *    CY_INT_NMI_IRQN        - Non Maskable Interrupt
1027:.\Generated_Source\PSoC4/CyLib.c **** *    CY_INT_HARD_FAULT_IRQN - Hard Fault Interrupt
1028:.\Generated_Source\PSoC4/CyLib.c **** *    CY_INT_SVCALL_IRQN     - SV Call Interrupt
1029:.\Generated_Source\PSoC4/CyLib.c **** *    CY_INT_PEND_SV_IRQN    - Pend SV Interrupt
1030:.\Generated_Source\PSoC4/CyLib.c **** *    CY_INT_SYSTICK_IRQN    - System Tick Interrupt
1031:.\Generated_Source\PSoC4/CyLib.c **** *
1032:.\Generated_Source\PSoC4/CyLib.c **** *  address: Pointer to an interrupt service routine.
1033:.\Generated_Source\PSoC4/CyLib.c **** *
1034:.\Generated_Source\PSoC4/CyLib.c **** * Return:
1035:.\Generated_Source\PSoC4/CyLib.c **** *  The old ISR vector at this location.
ARM GAS  C:\Users\PANXIA~1\AppData\Local\Temp\ccat6fhZ.s 			page 35


1036:.\Generated_Source\PSoC4/CyLib.c **** *
1037:.\Generated_Source\PSoC4/CyLib.c **** *******************************************************************************/
1038:.\Generated_Source\PSoC4/CyLib.c **** cyisraddress CyIntSetSysVector(uint8 number, cyisraddress address)
1039:.\Generated_Source\PSoC4/CyLib.c **** {
 895              		.loc 1 1039 0
 896              		.cfi_startproc
 897 0000 80B5     		push	{r7, lr}
 898              		.cfi_def_cfa_offset 8
 899              		.cfi_offset 7, -8
 900              		.cfi_offset 14, -4
 901 0002 84B0     		sub	sp, sp, #16
 902              		.cfi_def_cfa_offset 24
 903 0004 00AF     		add	r7, sp, #0
 904              		.cfi_def_cfa_register 7
 905 0006 021C     		mov	r2, r0
 906 0008 3960     		str	r1, [r7]
 907 000a FB1D     		add	r3, r7, #7
 908 000c 1A70     		strb	r2, [r3]
1040:.\Generated_Source\PSoC4/CyLib.c ****     cyisraddress oldIsr;
1041:.\Generated_Source\PSoC4/CyLib.c ****     cyisraddress *ramVectorTable = (cyisraddress *) CY_INT_VECT_TABLE;
 909              		.loc 1 1041 0
 910 000e 8023     		mov	r3, #128
 911 0010 9B05     		lsl	r3, r3, #22
 912 0012 FB60     		str	r3, [r7, #12]
1042:.\Generated_Source\PSoC4/CyLib.c **** 
1043:.\Generated_Source\PSoC4/CyLib.c ****     CYASSERT(number < CY_INT_IRQ_BASE);
 913              		.loc 1 1043 0
 914 0014 FB1D     		add	r3, r7, #7
 915 0016 1B78     		ldrb	r3, [r3]
 916 0018 0F2B     		cmp	r3, #15
 917 001a 02D9     		bls	.L52
 918              		.loc 1 1043 0 is_stmt 0 discriminator 1
 919 001c 0020     		mov	r0, #0
 920 001e FFF7FEFF 		bl	CyHalt
 921              	.L52:
1044:.\Generated_Source\PSoC4/CyLib.c **** 
1045:.\Generated_Source\PSoC4/CyLib.c ****     /* Save old Interrupt service routine. */
1046:.\Generated_Source\PSoC4/CyLib.c ****     oldIsr = ramVectorTable[number];
 922              		.loc 1 1046 0 is_stmt 1
 923 0022 FB1D     		add	r3, r7, #7
 924 0024 1B78     		ldrb	r3, [r3]
 925 0026 9B00     		lsl	r3, r3, #2
 926 0028 FA68     		ldr	r2, [r7, #12]
 927 002a D318     		add	r3, r2, r3
 928 002c 1B68     		ldr	r3, [r3]
 929 002e BB60     		str	r3, [r7, #8]
1047:.\Generated_Source\PSoC4/CyLib.c **** 
1048:.\Generated_Source\PSoC4/CyLib.c ****     /* Set new Interrupt service routine. */
1049:.\Generated_Source\PSoC4/CyLib.c ****     ramVectorTable[number] = address;
 930              		.loc 1 1049 0
 931 0030 FB1D     		add	r3, r7, #7
 932 0032 1B78     		ldrb	r3, [r3]
 933 0034 9B00     		lsl	r3, r3, #2
 934 0036 FA68     		ldr	r2, [r7, #12]
 935 0038 D318     		add	r3, r2, r3
 936 003a 3A68     		ldr	r2, [r7]
 937 003c 1A60     		str	r2, [r3]
ARM GAS  C:\Users\PANXIA~1\AppData\Local\Temp\ccat6fhZ.s 			page 36


1050:.\Generated_Source\PSoC4/CyLib.c **** 
1051:.\Generated_Source\PSoC4/CyLib.c ****     return(oldIsr);
 938              		.loc 1 1051 0
 939 003e BB68     		ldr	r3, [r7, #8]
1052:.\Generated_Source\PSoC4/CyLib.c **** }
 940              		.loc 1 1052 0
 941 0040 181C     		mov	r0, r3
 942 0042 BD46     		mov	sp, r7
 943 0044 04B0     		add	sp, sp, #16
 944              		@ sp needed
 945 0046 80BD     		pop	{r7, pc}
 946              		.cfi_endproc
 947              	.LFE12:
 948              		.size	CyIntSetSysVector, .-CyIntSetSysVector
 949              		.section	.text.CyIntGetSysVector,"ax",%progbits
 950              		.align	2
 951              		.global	CyIntGetSysVector
 952              		.code	16
 953              		.thumb_func
 954              		.type	CyIntGetSysVector, %function
 955              	CyIntGetSysVector:
 956              	.LFB13:
1053:.\Generated_Source\PSoC4/CyLib.c **** 
1054:.\Generated_Source\PSoC4/CyLib.c **** 
1055:.\Generated_Source\PSoC4/CyLib.c **** /*******************************************************************************
1056:.\Generated_Source\PSoC4/CyLib.c **** * Function Name: CyIntGetSysVector
1057:.\Generated_Source\PSoC4/CyLib.c **** ********************************************************************************
1058:.\Generated_Source\PSoC4/CyLib.c **** *
1059:.\Generated_Source\PSoC4/CyLib.c **** * Summary:
1060:.\Generated_Source\PSoC4/CyLib.c **** *   Gets the interrupt vector of the specified system interrupt number. These
1061:.\Generated_Source\PSoC4/CyLib.c **** *   interrupts are for SysTick, PendSV and others.
1062:.\Generated_Source\PSoC4/CyLib.c **** *
1063:.\Generated_Source\PSoC4/CyLib.c **** * Parameters:
1064:.\Generated_Source\PSoC4/CyLib.c **** *  number: System interrupt number:
1065:.\Generated_Source\PSoC4/CyLib.c **** *    CY_INT_NMI_IRQN        - Non Maskable Interrupt
1066:.\Generated_Source\PSoC4/CyLib.c **** *    CY_INT_HARD_FAULT_IRQN - Hard Fault Interrupt
1067:.\Generated_Source\PSoC4/CyLib.c **** *    CY_INT_SVCALL_IRQN     - SV Call Interrupt
1068:.\Generated_Source\PSoC4/CyLib.c **** *    CY_INT_PEND_SV_IRQN    - Pend SV Interrupt
1069:.\Generated_Source\PSoC4/CyLib.c **** *    CY_INT_SYSTICK_IRQN    - System Tick Interrupt
1070:.\Generated_Source\PSoC4/CyLib.c **** *
1071:.\Generated_Source\PSoC4/CyLib.c **** * Return:
1072:.\Generated_Source\PSoC4/CyLib.c **** *   Address of the ISR in the interrupt vector table.
1073:.\Generated_Source\PSoC4/CyLib.c **** *
1074:.\Generated_Source\PSoC4/CyLib.c **** *******************************************************************************/
1075:.\Generated_Source\PSoC4/CyLib.c **** cyisraddress CyIntGetSysVector(uint8 number)
1076:.\Generated_Source\PSoC4/CyLib.c **** {
 957              		.loc 1 1076 0
 958              		.cfi_startproc
 959 0000 80B5     		push	{r7, lr}
 960              		.cfi_def_cfa_offset 8
 961              		.cfi_offset 7, -8
 962              		.cfi_offset 14, -4
 963 0002 84B0     		sub	sp, sp, #16
 964              		.cfi_def_cfa_offset 24
 965 0004 00AF     		add	r7, sp, #0
 966              		.cfi_def_cfa_register 7
 967 0006 021C     		mov	r2, r0
ARM GAS  C:\Users\PANXIA~1\AppData\Local\Temp\ccat6fhZ.s 			page 37


 968 0008 FB1D     		add	r3, r7, #7
 969 000a 1A70     		strb	r2, [r3]
1077:.\Generated_Source\PSoC4/CyLib.c ****     cyisraddress *ramVectorTable = (cyisraddress *) CY_INT_VECT_TABLE;
 970              		.loc 1 1077 0
 971 000c 8023     		mov	r3, #128
 972 000e 9B05     		lsl	r3, r3, #22
 973 0010 FB60     		str	r3, [r7, #12]
1078:.\Generated_Source\PSoC4/CyLib.c **** 
1079:.\Generated_Source\PSoC4/CyLib.c ****     CYASSERT(number < CY_INT_IRQ_BASE);
 974              		.loc 1 1079 0
 975 0012 FB1D     		add	r3, r7, #7
 976 0014 1B78     		ldrb	r3, [r3]
 977 0016 0F2B     		cmp	r3, #15
 978 0018 02D9     		bls	.L55
 979              		.loc 1 1079 0 is_stmt 0 discriminator 1
 980 001a 0020     		mov	r0, #0
 981 001c FFF7FEFF 		bl	CyHalt
 982              	.L55:
1080:.\Generated_Source\PSoC4/CyLib.c **** 
1081:.\Generated_Source\PSoC4/CyLib.c ****     return(ramVectorTable[number]);
 983              		.loc 1 1081 0 is_stmt 1
 984 0020 FB1D     		add	r3, r7, #7
 985 0022 1B78     		ldrb	r3, [r3]
 986 0024 9B00     		lsl	r3, r3, #2
 987 0026 FA68     		ldr	r2, [r7, #12]
 988 0028 D318     		add	r3, r2, r3
 989 002a 1B68     		ldr	r3, [r3]
1082:.\Generated_Source\PSoC4/CyLib.c **** }
 990              		.loc 1 1082 0
 991 002c 181C     		mov	r0, r3
 992 002e BD46     		mov	sp, r7
 993 0030 04B0     		add	sp, sp, #16
 994              		@ sp needed
 995 0032 80BD     		pop	{r7, pc}
 996              		.cfi_endproc
 997              	.LFE13:
 998              		.size	CyIntGetSysVector, .-CyIntGetSysVector
 999              		.section	.text.CyIntSetVector,"ax",%progbits
 1000              		.align	2
 1001              		.global	CyIntSetVector
 1002              		.code	16
 1003              		.thumb_func
 1004              		.type	CyIntSetVector, %function
 1005              	CyIntSetVector:
 1006              	.LFB14:
1083:.\Generated_Source\PSoC4/CyLib.c **** 
1084:.\Generated_Source\PSoC4/CyLib.c **** 
1085:.\Generated_Source\PSoC4/CyLib.c **** /*******************************************************************************
1086:.\Generated_Source\PSoC4/CyLib.c **** * Function Name: CyIntSetVector
1087:.\Generated_Source\PSoC4/CyLib.c **** ********************************************************************************
1088:.\Generated_Source\PSoC4/CyLib.c **** *
1089:.\Generated_Source\PSoC4/CyLib.c **** * Summary:
1090:.\Generated_Source\PSoC4/CyLib.c **** *  Sets the interrupt vector of the specified interrupt number.
1091:.\Generated_Source\PSoC4/CyLib.c **** *
1092:.\Generated_Source\PSoC4/CyLib.c **** * Parameters:
1093:.\Generated_Source\PSoC4/CyLib.c **** *  number: Valid range [0-31].  Interrupt number
1094:.\Generated_Source\PSoC4/CyLib.c **** *  address: Pointer to an interrupt service routine
ARM GAS  C:\Users\PANXIA~1\AppData\Local\Temp\ccat6fhZ.s 			page 38


1095:.\Generated_Source\PSoC4/CyLib.c **** *
1096:.\Generated_Source\PSoC4/CyLib.c **** * Return:
1097:.\Generated_Source\PSoC4/CyLib.c **** *   Previous interrupt vector value.
1098:.\Generated_Source\PSoC4/CyLib.c **** *
1099:.\Generated_Source\PSoC4/CyLib.c **** *******************************************************************************/
1100:.\Generated_Source\PSoC4/CyLib.c **** cyisraddress CyIntSetVector(uint8 number, cyisraddress address)
1101:.\Generated_Source\PSoC4/CyLib.c **** {
 1007              		.loc 1 1101 0
 1008              		.cfi_startproc
 1009 0000 80B5     		push	{r7, lr}
 1010              		.cfi_def_cfa_offset 8
 1011              		.cfi_offset 7, -8
 1012              		.cfi_offset 14, -4
 1013 0002 84B0     		sub	sp, sp, #16
 1014              		.cfi_def_cfa_offset 24
 1015 0004 00AF     		add	r7, sp, #0
 1016              		.cfi_def_cfa_register 7
 1017 0006 021C     		mov	r2, r0
 1018 0008 3960     		str	r1, [r7]
 1019 000a FB1D     		add	r3, r7, #7
 1020 000c 1A70     		strb	r2, [r3]
1102:.\Generated_Source\PSoC4/CyLib.c ****     cyisraddress oldIsr;
1103:.\Generated_Source\PSoC4/CyLib.c ****     cyisraddress *ramVectorTable = (cyisraddress *) CY_INT_VECT_TABLE;
 1021              		.loc 1 1103 0
 1022 000e 8023     		mov	r3, #128
 1023 0010 9B05     		lsl	r3, r3, #22
 1024 0012 FB60     		str	r3, [r7, #12]
1104:.\Generated_Source\PSoC4/CyLib.c **** 
1105:.\Generated_Source\PSoC4/CyLib.c ****     CYASSERT(number < CY_NUM_INTERRUPTS);
 1025              		.loc 1 1105 0
 1026 0014 FB1D     		add	r3, r7, #7
 1027 0016 1B78     		ldrb	r3, [r3]
 1028 0018 1F2B     		cmp	r3, #31
 1029 001a 02D9     		bls	.L58
 1030              		.loc 1 1105 0 is_stmt 0 discriminator 1
 1031 001c 0020     		mov	r0, #0
 1032 001e FFF7FEFF 		bl	CyHalt
 1033              	.L58:
1106:.\Generated_Source\PSoC4/CyLib.c **** 
1107:.\Generated_Source\PSoC4/CyLib.c ****     /* Save old Interrupt service routine. */
1108:.\Generated_Source\PSoC4/CyLib.c ****     oldIsr = ramVectorTable[CY_INT_IRQ_BASE + number];
 1034              		.loc 1 1108 0 is_stmt 1
 1035 0022 FB1D     		add	r3, r7, #7
 1036 0024 1B78     		ldrb	r3, [r3]
 1037 0026 1033     		add	r3, r3, #16
 1038 0028 9B00     		lsl	r3, r3, #2
 1039 002a FA68     		ldr	r2, [r7, #12]
 1040 002c D318     		add	r3, r2, r3
 1041 002e 1B68     		ldr	r3, [r3]
 1042 0030 BB60     		str	r3, [r7, #8]
1109:.\Generated_Source\PSoC4/CyLib.c **** 
1110:.\Generated_Source\PSoC4/CyLib.c ****     /* Set new Interrupt service routine. */
1111:.\Generated_Source\PSoC4/CyLib.c ****     ramVectorTable[CY_INT_IRQ_BASE + number] = address;
 1043              		.loc 1 1111 0
 1044 0032 FB1D     		add	r3, r7, #7
 1045 0034 1B78     		ldrb	r3, [r3]
 1046 0036 1033     		add	r3, r3, #16
ARM GAS  C:\Users\PANXIA~1\AppData\Local\Temp\ccat6fhZ.s 			page 39


 1047 0038 9B00     		lsl	r3, r3, #2
 1048 003a FA68     		ldr	r2, [r7, #12]
 1049 003c D318     		add	r3, r2, r3
 1050 003e 3A68     		ldr	r2, [r7]
 1051 0040 1A60     		str	r2, [r3]
1112:.\Generated_Source\PSoC4/CyLib.c **** 
1113:.\Generated_Source\PSoC4/CyLib.c ****     return(oldIsr);
 1052              		.loc 1 1113 0
 1053 0042 BB68     		ldr	r3, [r7, #8]
1114:.\Generated_Source\PSoC4/CyLib.c **** }
 1054              		.loc 1 1114 0
 1055 0044 181C     		mov	r0, r3
 1056 0046 BD46     		mov	sp, r7
 1057 0048 04B0     		add	sp, sp, #16
 1058              		@ sp needed
 1059 004a 80BD     		pop	{r7, pc}
 1060              		.cfi_endproc
 1061              	.LFE14:
 1062              		.size	CyIntSetVector, .-CyIntSetVector
 1063              		.section	.text.CyIntGetVector,"ax",%progbits
 1064              		.align	2
 1065              		.global	CyIntGetVector
 1066              		.code	16
 1067              		.thumb_func
 1068              		.type	CyIntGetVector, %function
 1069              	CyIntGetVector:
 1070              	.LFB15:
1115:.\Generated_Source\PSoC4/CyLib.c **** 
1116:.\Generated_Source\PSoC4/CyLib.c **** 
1117:.\Generated_Source\PSoC4/CyLib.c **** /*******************************************************************************
1118:.\Generated_Source\PSoC4/CyLib.c **** * Function Name: CyIntGetVector
1119:.\Generated_Source\PSoC4/CyLib.c **** ********************************************************************************
1120:.\Generated_Source\PSoC4/CyLib.c **** *
1121:.\Generated_Source\PSoC4/CyLib.c **** * Summary:
1122:.\Generated_Source\PSoC4/CyLib.c **** *  Gets the interrupt vector of the specified interrupt number.
1123:.\Generated_Source\PSoC4/CyLib.c **** *
1124:.\Generated_Source\PSoC4/CyLib.c **** * Parameters:
1125:.\Generated_Source\PSoC4/CyLib.c **** *  number: Valid range [0-31].  Interrupt number
1126:.\Generated_Source\PSoC4/CyLib.c **** *
1127:.\Generated_Source\PSoC4/CyLib.c **** * Return:
1128:.\Generated_Source\PSoC4/CyLib.c **** *  Address of the ISR in the interrupt vector table.
1129:.\Generated_Source\PSoC4/CyLib.c **** *
1130:.\Generated_Source\PSoC4/CyLib.c **** *******************************************************************************/
1131:.\Generated_Source\PSoC4/CyLib.c **** cyisraddress CyIntGetVector(uint8 number)
1132:.\Generated_Source\PSoC4/CyLib.c **** {
 1071              		.loc 1 1132 0
 1072              		.cfi_startproc
 1073 0000 80B5     		push	{r7, lr}
 1074              		.cfi_def_cfa_offset 8
 1075              		.cfi_offset 7, -8
 1076              		.cfi_offset 14, -4
 1077 0002 84B0     		sub	sp, sp, #16
 1078              		.cfi_def_cfa_offset 24
 1079 0004 00AF     		add	r7, sp, #0
 1080              		.cfi_def_cfa_register 7
 1081 0006 021C     		mov	r2, r0
 1082 0008 FB1D     		add	r3, r7, #7
ARM GAS  C:\Users\PANXIA~1\AppData\Local\Temp\ccat6fhZ.s 			page 40


 1083 000a 1A70     		strb	r2, [r3]
1133:.\Generated_Source\PSoC4/CyLib.c ****     cyisraddress *ramVectorTable = (cyisraddress *) CY_INT_VECT_TABLE;
 1084              		.loc 1 1133 0
 1085 000c 8023     		mov	r3, #128
 1086 000e 9B05     		lsl	r3, r3, #22
 1087 0010 FB60     		str	r3, [r7, #12]
1134:.\Generated_Source\PSoC4/CyLib.c **** 
1135:.\Generated_Source\PSoC4/CyLib.c ****     CYASSERT(number < CY_NUM_INTERRUPTS);
 1088              		.loc 1 1135 0
 1089 0012 FB1D     		add	r3, r7, #7
 1090 0014 1B78     		ldrb	r3, [r3]
 1091 0016 1F2B     		cmp	r3, #31
 1092 0018 02D9     		bls	.L61
 1093              		.loc 1 1135 0 is_stmt 0 discriminator 1
 1094 001a 0020     		mov	r0, #0
 1095 001c FFF7FEFF 		bl	CyHalt
 1096              	.L61:
1136:.\Generated_Source\PSoC4/CyLib.c **** 
1137:.\Generated_Source\PSoC4/CyLib.c ****     return (ramVectorTable[CY_INT_IRQ_BASE + number]);
 1097              		.loc 1 1137 0 is_stmt 1
 1098 0020 FB1D     		add	r3, r7, #7
 1099 0022 1B78     		ldrb	r3, [r3]
 1100 0024 1033     		add	r3, r3, #16
 1101 0026 9B00     		lsl	r3, r3, #2
 1102 0028 FA68     		ldr	r2, [r7, #12]
 1103 002a D318     		add	r3, r2, r3
 1104 002c 1B68     		ldr	r3, [r3]
1138:.\Generated_Source\PSoC4/CyLib.c **** }
 1105              		.loc 1 1138 0
 1106 002e 181C     		mov	r0, r3
 1107 0030 BD46     		mov	sp, r7
 1108 0032 04B0     		add	sp, sp, #16
 1109              		@ sp needed
 1110 0034 80BD     		pop	{r7, pc}
 1111              		.cfi_endproc
 1112              	.LFE15:
 1113              		.size	CyIntGetVector, .-CyIntGetVector
 1114              		.section	.text.CyIntSetPriority,"ax",%progbits
 1115              		.align	2
 1116              		.global	CyIntSetPriority
 1117              		.code	16
 1118              		.thumb_func
 1119              		.type	CyIntSetPriority, %function
 1120              	CyIntSetPriority:
 1121              	.LFB16:
1139:.\Generated_Source\PSoC4/CyLib.c **** 
1140:.\Generated_Source\PSoC4/CyLib.c **** /*******************************************************************************
1141:.\Generated_Source\PSoC4/CyLib.c **** * Function Name: CyIntSetPriority
1142:.\Generated_Source\PSoC4/CyLib.c **** ********************************************************************************
1143:.\Generated_Source\PSoC4/CyLib.c **** *
1144:.\Generated_Source\PSoC4/CyLib.c **** * Summary:
1145:.\Generated_Source\PSoC4/CyLib.c **** *  Sets the priority of the interrupt.
1146:.\Generated_Source\PSoC4/CyLib.c **** *
1147:.\Generated_Source\PSoC4/CyLib.c **** * Parameters:
1148:.\Generated_Source\PSoC4/CyLib.c **** *  priority: Priority of the interrupt. 0 - 3, 0 being the highest.
1149:.\Generated_Source\PSoC4/CyLib.c **** *  number: The number of the interrupt, 0 - 31.
1150:.\Generated_Source\PSoC4/CyLib.c **** *
ARM GAS  C:\Users\PANXIA~1\AppData\Local\Temp\ccat6fhZ.s 			page 41


1151:.\Generated_Source\PSoC4/CyLib.c **** * Return:
1152:.\Generated_Source\PSoC4/CyLib.c **** *  None
1153:.\Generated_Source\PSoC4/CyLib.c **** *
1154:.\Generated_Source\PSoC4/CyLib.c **** *******************************************************************************/
1155:.\Generated_Source\PSoC4/CyLib.c **** void CyIntSetPriority(uint8 number, uint8 priority)
1156:.\Generated_Source\PSoC4/CyLib.c **** {
 1122              		.loc 1 1156 0
 1123              		.cfi_startproc
 1124 0000 90B5     		push	{r4, r7, lr}
 1125              		.cfi_def_cfa_offset 12
 1126              		.cfi_offset 4, -12
 1127              		.cfi_offset 7, -8
 1128              		.cfi_offset 14, -4
 1129 0002 87B0     		sub	sp, sp, #28
 1130              		.cfi_def_cfa_offset 40
 1131 0004 00AF     		add	r7, sp, #0
 1132              		.cfi_def_cfa_register 7
 1133 0006 021C     		mov	r2, r0
 1134 0008 FB1D     		add	r3, r7, #7
 1135 000a 1A70     		strb	r2, [r3]
 1136 000c BB1D     		add	r3, r7, #6
 1137 000e 0A1C     		add	r2, r1, #0
 1138 0010 1A70     		strb	r2, [r3]
1157:.\Generated_Source\PSoC4/CyLib.c ****     uint8 interruptState;
1158:.\Generated_Source\PSoC4/CyLib.c ****     uint32 shift;
1159:.\Generated_Source\PSoC4/CyLib.c ****     uint32 value;
1160:.\Generated_Source\PSoC4/CyLib.c **** 
1161:.\Generated_Source\PSoC4/CyLib.c ****     CYASSERT(priority <= CY_MIN_PRIORITY);
 1139              		.loc 1 1161 0
 1140 0012 BB1D     		add	r3, r7, #6
 1141 0014 1B78     		ldrb	r3, [r3]
 1142 0016 032B     		cmp	r3, #3
 1143 0018 02D9     		bls	.L64
 1144              		.loc 1 1161 0 is_stmt 0 discriminator 1
 1145 001a 0020     		mov	r0, #0
 1146 001c FFF7FEFF 		bl	CyHalt
 1147              	.L64:
1162:.\Generated_Source\PSoC4/CyLib.c ****     CYASSERT(number < CY_NUM_INTERRUPTS);
 1148              		.loc 1 1162 0 is_stmt 1
 1149 0020 FB1D     		add	r3, r7, #7
 1150 0022 1B78     		ldrb	r3, [r3]
 1151 0024 1F2B     		cmp	r3, #31
 1152 0026 02D9     		bls	.L65
 1153              		.loc 1 1162 0 is_stmt 0 discriminator 1
 1154 0028 0020     		mov	r0, #0
 1155 002a FFF7FEFF 		bl	CyHalt
 1156              	.L65:
1163:.\Generated_Source\PSoC4/CyLib.c **** 
1164:.\Generated_Source\PSoC4/CyLib.c ****     shift = CY_INT_PRIORITY_SHIFT(number);
 1157              		.loc 1 1164 0 is_stmt 1
 1158 002e FB1D     		add	r3, r7, #7
 1159 0030 1B78     		ldrb	r3, [r3]
 1160 0032 0322     		mov	r2, #3
 1161 0034 1340     		and	r3, r2
 1162 0036 DB00     		lsl	r3, r3, #3
 1163 0038 0633     		add	r3, r3, #6
 1164 003a 7B61     		str	r3, [r7, #20]
ARM GAS  C:\Users\PANXIA~1\AppData\Local\Temp\ccat6fhZ.s 			page 42


1165:.\Generated_Source\PSoC4/CyLib.c **** 
1166:.\Generated_Source\PSoC4/CyLib.c ****     interruptState = CyEnterCriticalSection();
 1165              		.loc 1 1166 0
 1166 003c 1323     		mov	r3, #19
 1167 003e FC18     		add	r4, r7, r3
 1168 0040 FFF7FEFF 		bl	CyEnterCriticalSection
 1169 0044 031C     		mov	r3, r0
 1170 0046 2370     		strb	r3, [r4]
1167:.\Generated_Source\PSoC4/CyLib.c **** 
1168:.\Generated_Source\PSoC4/CyLib.c ****     value = CY_INT_PRIORITY_REG(number);
 1171              		.loc 1 1168 0
 1172 0048 FB1D     		add	r3, r7, #7
 1173 004a 1B78     		ldrb	r3, [r3]
 1174 004c 9B08     		lsr	r3, r3, #2
 1175 004e DBB2     		uxtb	r3, r3
 1176 0050 9B00     		lsl	r3, r3, #2
 1177 0052 144A     		ldr	r2, .L66
 1178 0054 9446     		mov	ip, r2
 1179 0056 6344     		add	r3, r3, ip
 1180 0058 1B68     		ldr	r3, [r3]
 1181 005a FB60     		str	r3, [r7, #12]
1169:.\Generated_Source\PSoC4/CyLib.c ****     value &= (uint32)(~((uint32)(CY_INT_PRIORITY_MASK << shift)));
 1182              		.loc 1 1169 0
 1183 005c 7B69     		ldr	r3, [r7, #20]
 1184 005e 0322     		mov	r2, #3
 1185 0060 9A40     		lsl	r2, r2, r3
 1186 0062 131C     		mov	r3, r2
 1187 0064 DA43     		mvn	r2, r3
 1188 0066 FB68     		ldr	r3, [r7, #12]
 1189 0068 1340     		and	r3, r2
 1190 006a FB60     		str	r3, [r7, #12]
1170:.\Generated_Source\PSoC4/CyLib.c ****     value |= ((uint32)priority << shift);
 1191              		.loc 1 1170 0
 1192 006c BB1D     		add	r3, r7, #6
 1193 006e 1A78     		ldrb	r2, [r3]
 1194 0070 7B69     		ldr	r3, [r7, #20]
 1195 0072 9A40     		lsl	r2, r2, r3
 1196 0074 131C     		mov	r3, r2
 1197 0076 FA68     		ldr	r2, [r7, #12]
 1198 0078 1343     		orr	r3, r2
 1199 007a FB60     		str	r3, [r7, #12]
1171:.\Generated_Source\PSoC4/CyLib.c ****     CY_INT_PRIORITY_REG(number) = value;
 1200              		.loc 1 1171 0
 1201 007c FB1D     		add	r3, r7, #7
 1202 007e 1B78     		ldrb	r3, [r3]
 1203 0080 9B08     		lsr	r3, r3, #2
 1204 0082 DBB2     		uxtb	r3, r3
 1205 0084 9B00     		lsl	r3, r3, #2
 1206 0086 074A     		ldr	r2, .L66
 1207 0088 9446     		mov	ip, r2
 1208 008a 6344     		add	r3, r3, ip
 1209 008c FA68     		ldr	r2, [r7, #12]
 1210 008e 1A60     		str	r2, [r3]
1172:.\Generated_Source\PSoC4/CyLib.c **** 
1173:.\Generated_Source\PSoC4/CyLib.c ****     CyExitCriticalSection(interruptState);
 1211              		.loc 1 1173 0
 1212 0090 1323     		mov	r3, #19
ARM GAS  C:\Users\PANXIA~1\AppData\Local\Temp\ccat6fhZ.s 			page 43


 1213 0092 FB18     		add	r3, r7, r3
 1214 0094 1B78     		ldrb	r3, [r3]
 1215 0096 181C     		mov	r0, r3
 1216 0098 FFF7FEFF 		bl	CyExitCriticalSection
1174:.\Generated_Source\PSoC4/CyLib.c **** }
 1217              		.loc 1 1174 0
 1218 009c BD46     		mov	sp, r7
 1219 009e 07B0     		add	sp, sp, #28
 1220              		@ sp needed
 1221 00a0 90BD     		pop	{r4, r7, pc}
 1222              	.L67:
 1223 00a2 C046     		.align	2
 1224              	.L66:
 1225 00a4 00E400E0 		.word	-536812544
 1226              		.cfi_endproc
 1227              	.LFE16:
 1228              		.size	CyIntSetPriority, .-CyIntSetPriority
 1229              		.section	.text.CyIntGetPriority,"ax",%progbits
 1230              		.align	2
 1231              		.global	CyIntGetPriority
 1232              		.code	16
 1233              		.thumb_func
 1234              		.type	CyIntGetPriority, %function
 1235              	CyIntGetPriority:
 1236              	.LFB17:
1175:.\Generated_Source\PSoC4/CyLib.c **** 
1176:.\Generated_Source\PSoC4/CyLib.c **** 
1177:.\Generated_Source\PSoC4/CyLib.c **** /*******************************************************************************
1178:.\Generated_Source\PSoC4/CyLib.c **** * Function Name: CyIntGetPriority
1179:.\Generated_Source\PSoC4/CyLib.c **** ********************************************************************************
1180:.\Generated_Source\PSoC4/CyLib.c **** *
1181:.\Generated_Source\PSoC4/CyLib.c **** * Summary:
1182:.\Generated_Source\PSoC4/CyLib.c **** *  Gets the priority of the interrupt.
1183:.\Generated_Source\PSoC4/CyLib.c **** *
1184:.\Generated_Source\PSoC4/CyLib.c **** * Parameters:
1185:.\Generated_Source\PSoC4/CyLib.c **** *  number: The number of the interrupt, 0 - 31.
1186:.\Generated_Source\PSoC4/CyLib.c **** *
1187:.\Generated_Source\PSoC4/CyLib.c **** * Return:
1188:.\Generated_Source\PSoC4/CyLib.c **** *  Priority of the interrupt. 0 - 3, 0 being the highest.
1189:.\Generated_Source\PSoC4/CyLib.c **** *
1190:.\Generated_Source\PSoC4/CyLib.c **** *******************************************************************************/
1191:.\Generated_Source\PSoC4/CyLib.c **** uint8 CyIntGetPriority(uint8 number)
1192:.\Generated_Source\PSoC4/CyLib.c **** {
 1237              		.loc 1 1192 0
 1238              		.cfi_startproc
 1239 0000 80B5     		push	{r7, lr}
 1240              		.cfi_def_cfa_offset 8
 1241              		.cfi_offset 7, -8
 1242              		.cfi_offset 14, -4
 1243 0002 84B0     		sub	sp, sp, #16
 1244              		.cfi_def_cfa_offset 24
 1245 0004 00AF     		add	r7, sp, #0
 1246              		.cfi_def_cfa_register 7
 1247 0006 021C     		mov	r2, r0
 1248 0008 FB1D     		add	r3, r7, #7
 1249 000a 1A70     		strb	r2, [r3]
1193:.\Generated_Source\PSoC4/CyLib.c ****     uint8 priority;
ARM GAS  C:\Users\PANXIA~1\AppData\Local\Temp\ccat6fhZ.s 			page 44


1194:.\Generated_Source\PSoC4/CyLib.c **** 
1195:.\Generated_Source\PSoC4/CyLib.c ****     CYASSERT(number < CY_NUM_INTERRUPTS);
 1250              		.loc 1 1195 0
 1251 000c FB1D     		add	r3, r7, #7
 1252 000e 1B78     		ldrb	r3, [r3]
 1253 0010 1F2B     		cmp	r3, #31
 1254 0012 02D9     		bls	.L69
 1255              		.loc 1 1195 0 is_stmt 0 discriminator 1
 1256 0014 0020     		mov	r0, #0
 1257 0016 FFF7FEFF 		bl	CyHalt
 1258              	.L69:
1196:.\Generated_Source\PSoC4/CyLib.c **** 
1197:.\Generated_Source\PSoC4/CyLib.c ****     priority = (uint8) (CY_INT_PRIORITY_REG(number) >> CY_INT_PRIORITY_SHIFT(number));
 1259              		.loc 1 1197 0 is_stmt 1
 1260 001a FB1D     		add	r3, r7, #7
 1261 001c 1B78     		ldrb	r3, [r3]
 1262 001e 9B08     		lsr	r3, r3, #2
 1263 0020 DBB2     		uxtb	r3, r3
 1264 0022 9B00     		lsl	r3, r3, #2
 1265 0024 0C4A     		ldr	r2, .L71
 1266 0026 9446     		mov	ip, r2
 1267 0028 6344     		add	r3, r3, ip
 1268 002a 1B68     		ldr	r3, [r3]
 1269 002c FA1D     		add	r2, r7, #7
 1270 002e 1278     		ldrb	r2, [r2]
 1271 0030 0321     		mov	r1, #3
 1272 0032 0A40     		and	r2, r1
 1273 0034 D200     		lsl	r2, r2, #3
 1274 0036 0632     		add	r2, r2, #6
 1275 0038 D340     		lsr	r3, r3, r2
 1276 003a 1A1C     		mov	r2, r3
 1277 003c 0F23     		mov	r3, #15
 1278 003e FB18     		add	r3, r7, r3
 1279 0040 1A70     		strb	r2, [r3]
1198:.\Generated_Source\PSoC4/CyLib.c **** 
1199:.\Generated_Source\PSoC4/CyLib.c ****     return (priority & (uint8) CY_INT_PRIORITY_MASK);
 1280              		.loc 1 1199 0
 1281 0042 0F23     		mov	r3, #15
 1282 0044 FB18     		add	r3, r7, r3
 1283 0046 1B78     		ldrb	r3, [r3]
 1284 0048 0322     		mov	r2, #3
 1285 004a 1340     		and	r3, r2
 1286 004c DBB2     		uxtb	r3, r3
1200:.\Generated_Source\PSoC4/CyLib.c **** }
 1287              		.loc 1 1200 0
 1288 004e 181C     		mov	r0, r3
 1289 0050 BD46     		mov	sp, r7
 1290 0052 04B0     		add	sp, sp, #16
 1291              		@ sp needed
 1292 0054 80BD     		pop	{r7, pc}
 1293              	.L72:
 1294 0056 C046     		.align	2
 1295              	.L71:
 1296 0058 00E400E0 		.word	-536812544
 1297              		.cfi_endproc
 1298              	.LFE17:
 1299              		.size	CyIntGetPriority, .-CyIntGetPriority
ARM GAS  C:\Users\PANXIA~1\AppData\Local\Temp\ccat6fhZ.s 			page 45


 1300              		.section	.text.CyIntEnable,"ax",%progbits
 1301              		.align	2
 1302              		.global	CyIntEnable
 1303              		.code	16
 1304              		.thumb_func
 1305              		.type	CyIntEnable, %function
 1306              	CyIntEnable:
 1307              	.LFB18:
1201:.\Generated_Source\PSoC4/CyLib.c **** 
1202:.\Generated_Source\PSoC4/CyLib.c **** 
1203:.\Generated_Source\PSoC4/CyLib.c **** /*******************************************************************************
1204:.\Generated_Source\PSoC4/CyLib.c **** * Function Name: CyIntEnable
1205:.\Generated_Source\PSoC4/CyLib.c **** ********************************************************************************
1206:.\Generated_Source\PSoC4/CyLib.c **** *
1207:.\Generated_Source\PSoC4/CyLib.c **** * Summary:
1208:.\Generated_Source\PSoC4/CyLib.c **** *  Enables the specified interrupt number.
1209:.\Generated_Source\PSoC4/CyLib.c **** *
1210:.\Generated_Source\PSoC4/CyLib.c **** * Parameters:
1211:.\Generated_Source\PSoC4/CyLib.c **** *  number: Valid range [0-31].  Interrupt number
1212:.\Generated_Source\PSoC4/CyLib.c **** *
1213:.\Generated_Source\PSoC4/CyLib.c **** * Return:
1214:.\Generated_Source\PSoC4/CyLib.c **** *  None
1215:.\Generated_Source\PSoC4/CyLib.c **** *
1216:.\Generated_Source\PSoC4/CyLib.c **** *******************************************************************************/
1217:.\Generated_Source\PSoC4/CyLib.c **** void CyIntEnable(uint8 number)
1218:.\Generated_Source\PSoC4/CyLib.c **** {
 1308              		.loc 1 1218 0
 1309              		.cfi_startproc
 1310 0000 80B5     		push	{r7, lr}
 1311              		.cfi_def_cfa_offset 8
 1312              		.cfi_offset 7, -8
 1313              		.cfi_offset 14, -4
 1314 0002 82B0     		sub	sp, sp, #8
 1315              		.cfi_def_cfa_offset 16
 1316 0004 00AF     		add	r7, sp, #0
 1317              		.cfi_def_cfa_register 7
 1318 0006 021C     		mov	r2, r0
 1319 0008 FB1D     		add	r3, r7, #7
 1320 000a 1A70     		strb	r2, [r3]
1219:.\Generated_Source\PSoC4/CyLib.c ****     CY_INT_ENABLE_REG = ((uint32) 0x01u << (CY_INT_ENABLE_RANGE_MASK & number));
 1321              		.loc 1 1219 0
 1322 000c 054B     		ldr	r3, .L74
 1323 000e FA1D     		add	r2, r7, #7
 1324 0010 1278     		ldrb	r2, [r2]
 1325 0012 1F21     		mov	r1, #31
 1326 0014 0A40     		and	r2, r1
 1327 0016 0121     		mov	r1, #1
 1328 0018 9140     		lsl	r1, r1, r2
 1329 001a 0A1C     		mov	r2, r1
 1330 001c 1A60     		str	r2, [r3]
1220:.\Generated_Source\PSoC4/CyLib.c **** }
 1331              		.loc 1 1220 0
 1332 001e BD46     		mov	sp, r7
 1333 0020 02B0     		add	sp, sp, #8
 1334              		@ sp needed
 1335 0022 80BD     		pop	{r7, pc}
 1336              	.L75:
ARM GAS  C:\Users\PANXIA~1\AppData\Local\Temp\ccat6fhZ.s 			page 46


 1337              		.align	2
 1338              	.L74:
 1339 0024 00E100E0 		.word	-536813312
 1340              		.cfi_endproc
 1341              	.LFE18:
 1342              		.size	CyIntEnable, .-CyIntEnable
 1343              		.section	.text.CyIntGetState,"ax",%progbits
 1344              		.align	2
 1345              		.global	CyIntGetState
 1346              		.code	16
 1347              		.thumb_func
 1348              		.type	CyIntGetState, %function
 1349              	CyIntGetState:
 1350              	.LFB19:
1221:.\Generated_Source\PSoC4/CyLib.c **** 
1222:.\Generated_Source\PSoC4/CyLib.c **** 
1223:.\Generated_Source\PSoC4/CyLib.c **** /*******************************************************************************
1224:.\Generated_Source\PSoC4/CyLib.c **** * Function Name: CyIntGetState
1225:.\Generated_Source\PSoC4/CyLib.c **** ********************************************************************************
1226:.\Generated_Source\PSoC4/CyLib.c **** *
1227:.\Generated_Source\PSoC4/CyLib.c **** * Summary:
1228:.\Generated_Source\PSoC4/CyLib.c **** *  Gets the enable state of the specified interrupt number.
1229:.\Generated_Source\PSoC4/CyLib.c **** *
1230:.\Generated_Source\PSoC4/CyLib.c **** * Parameters:
1231:.\Generated_Source\PSoC4/CyLib.c **** *  number: Valid range [0-31].  Interrupt number.
1232:.\Generated_Source\PSoC4/CyLib.c **** *
1233:.\Generated_Source\PSoC4/CyLib.c **** * Return:
1234:.\Generated_Source\PSoC4/CyLib.c **** *  Enable status: 1 if enabled, 0 if disabled
1235:.\Generated_Source\PSoC4/CyLib.c **** *
1236:.\Generated_Source\PSoC4/CyLib.c **** *******************************************************************************/
1237:.\Generated_Source\PSoC4/CyLib.c **** uint8 CyIntGetState(uint8 number)
1238:.\Generated_Source\PSoC4/CyLib.c **** {
 1351              		.loc 1 1238 0
 1352              		.cfi_startproc
 1353 0000 80B5     		push	{r7, lr}
 1354              		.cfi_def_cfa_offset 8
 1355              		.cfi_offset 7, -8
 1356              		.cfi_offset 14, -4
 1357 0002 82B0     		sub	sp, sp, #8
 1358              		.cfi_def_cfa_offset 16
 1359 0004 00AF     		add	r7, sp, #0
 1360              		.cfi_def_cfa_register 7
 1361 0006 021C     		mov	r2, r0
 1362 0008 FB1D     		add	r3, r7, #7
 1363 000a 1A70     		strb	r2, [r3]
1239:.\Generated_Source\PSoC4/CyLib.c ****     /* Get state of interrupt. */
1240:.\Generated_Source\PSoC4/CyLib.c ****     return ((0u != (CY_INT_ENABLE_REG & ((uint32) 0x01u << (CY_INT_ENABLE_RANGE_MASK & number)))) ?
 1364              		.loc 1 1240 0
 1365 000c 074B     		ldr	r3, .L78
 1366 000e 1A68     		ldr	r2, [r3]
 1367 0010 FB1D     		add	r3, r7, #7
 1368 0012 1B78     		ldrb	r3, [r3]
 1369 0014 1F21     		mov	r1, #31
 1370 0016 0B40     		and	r3, r1
 1371 0018 DA40     		lsr	r2, r2, r3
 1372 001a 131C     		mov	r3, r2
 1373 001c DBB2     		uxtb	r3, r3
ARM GAS  C:\Users\PANXIA~1\AppData\Local\Temp\ccat6fhZ.s 			page 47


 1374 001e 0122     		mov	r2, #1
 1375 0020 1340     		and	r3, r2
 1376 0022 DBB2     		uxtb	r3, r3
1241:.\Generated_Source\PSoC4/CyLib.c **** }
 1377              		.loc 1 1241 0
 1378 0024 181C     		mov	r0, r3
 1379 0026 BD46     		mov	sp, r7
 1380 0028 02B0     		add	sp, sp, #8
 1381              		@ sp needed
 1382 002a 80BD     		pop	{r7, pc}
 1383              	.L79:
 1384              		.align	2
 1385              	.L78:
 1386 002c 00E100E0 		.word	-536813312
 1387              		.cfi_endproc
 1388              	.LFE19:
 1389              		.size	CyIntGetState, .-CyIntGetState
 1390              		.section	.text.CyIntDisable,"ax",%progbits
 1391              		.align	2
 1392              		.global	CyIntDisable
 1393              		.code	16
 1394              		.thumb_func
 1395              		.type	CyIntDisable, %function
 1396              	CyIntDisable:
 1397              	.LFB20:
1242:.\Generated_Source\PSoC4/CyLib.c **** 
1243:.\Generated_Source\PSoC4/CyLib.c **** 
1244:.\Generated_Source\PSoC4/CyLib.c **** /*******************************************************************************
1245:.\Generated_Source\PSoC4/CyLib.c **** * Function Name: CyIntDisable
1246:.\Generated_Source\PSoC4/CyLib.c **** ********************************************************************************
1247:.\Generated_Source\PSoC4/CyLib.c **** *
1248:.\Generated_Source\PSoC4/CyLib.c **** * Summary:
1249:.\Generated_Source\PSoC4/CyLib.c **** *   Disables the specified interrupt number.
1250:.\Generated_Source\PSoC4/CyLib.c **** *
1251:.\Generated_Source\PSoC4/CyLib.c **** * Parameters:
1252:.\Generated_Source\PSoC4/CyLib.c **** *   number: Valid range [0-31].  Interrupt number.
1253:.\Generated_Source\PSoC4/CyLib.c **** *
1254:.\Generated_Source\PSoC4/CyLib.c **** * Return:
1255:.\Generated_Source\PSoC4/CyLib.c **** *  None
1256:.\Generated_Source\PSoC4/CyLib.c **** *
1257:.\Generated_Source\PSoC4/CyLib.c **** *******************************************************************************/
1258:.\Generated_Source\PSoC4/CyLib.c **** void CyIntDisable(uint8 number)
1259:.\Generated_Source\PSoC4/CyLib.c **** {
 1398              		.loc 1 1259 0
 1399              		.cfi_startproc
 1400 0000 80B5     		push	{r7, lr}
 1401              		.cfi_def_cfa_offset 8
 1402              		.cfi_offset 7, -8
 1403              		.cfi_offset 14, -4
 1404 0002 82B0     		sub	sp, sp, #8
 1405              		.cfi_def_cfa_offset 16
 1406 0004 00AF     		add	r7, sp, #0
 1407              		.cfi_def_cfa_register 7
 1408 0006 021C     		mov	r2, r0
 1409 0008 FB1D     		add	r3, r7, #7
 1410 000a 1A70     		strb	r2, [r3]
1260:.\Generated_Source\PSoC4/CyLib.c ****     CY_INT_CLEAR_REG = ((uint32) 0x01u << (CY_INT_ENABLE_RANGE_MASK & number));
ARM GAS  C:\Users\PANXIA~1\AppData\Local\Temp\ccat6fhZ.s 			page 48


 1411              		.loc 1 1260 0
 1412 000c 054B     		ldr	r3, .L81
 1413 000e FA1D     		add	r2, r7, #7
 1414 0010 1278     		ldrb	r2, [r2]
 1415 0012 1F21     		mov	r1, #31
 1416 0014 0A40     		and	r2, r1
 1417 0016 0121     		mov	r1, #1
 1418 0018 9140     		lsl	r1, r1, r2
 1419 001a 0A1C     		mov	r2, r1
 1420 001c 1A60     		str	r2, [r3]
1261:.\Generated_Source\PSoC4/CyLib.c **** }
 1421              		.loc 1 1261 0
 1422 001e BD46     		mov	sp, r7
 1423 0020 02B0     		add	sp, sp, #8
 1424              		@ sp needed
 1425 0022 80BD     		pop	{r7, pc}
 1426              	.L82:
 1427              		.align	2
 1428              	.L81:
 1429 0024 80E100E0 		.word	-536813184
 1430              		.cfi_endproc
 1431              	.LFE20:
 1432              		.size	CyIntDisable, .-CyIntDisable
 1433              		.section	.text.CyIntSetPending,"ax",%progbits
 1434              		.align	2
 1435              		.global	CyIntSetPending
 1436              		.code	16
 1437              		.thumb_func
 1438              		.type	CyIntSetPending, %function
 1439              	CyIntSetPending:
 1440              	.LFB21:
1262:.\Generated_Source\PSoC4/CyLib.c **** 
1263:.\Generated_Source\PSoC4/CyLib.c **** /*******************************************************************************
1264:.\Generated_Source\PSoC4/CyLib.c **** * Function Name: CyIntSetPending
1265:.\Generated_Source\PSoC4/CyLib.c **** ********************************************************************************
1266:.\Generated_Source\PSoC4/CyLib.c **** *
1267:.\Generated_Source\PSoC4/CyLib.c **** * Summary:
1268:.\Generated_Source\PSoC4/CyLib.c **** *  Forces the specified interrupt number to be pending.
1269:.\Generated_Source\PSoC4/CyLib.c **** *
1270:.\Generated_Source\PSoC4/CyLib.c **** * Parameters:
1271:.\Generated_Source\PSoC4/CyLib.c **** *  number: Valid range [0-31].  Interrupt number.
1272:.\Generated_Source\PSoC4/CyLib.c **** *
1273:.\Generated_Source\PSoC4/CyLib.c **** * Return:
1274:.\Generated_Source\PSoC4/CyLib.c **** *  None
1275:.\Generated_Source\PSoC4/CyLib.c **** *
1276:.\Generated_Source\PSoC4/CyLib.c **** *******************************************************************************/
1277:.\Generated_Source\PSoC4/CyLib.c **** void CyIntSetPending(uint8 number)
1278:.\Generated_Source\PSoC4/CyLib.c **** {
 1441              		.loc 1 1278 0
 1442              		.cfi_startproc
 1443 0000 80B5     		push	{r7, lr}
 1444              		.cfi_def_cfa_offset 8
 1445              		.cfi_offset 7, -8
 1446              		.cfi_offset 14, -4
 1447 0002 82B0     		sub	sp, sp, #8
 1448              		.cfi_def_cfa_offset 16
 1449 0004 00AF     		add	r7, sp, #0
ARM GAS  C:\Users\PANXIA~1\AppData\Local\Temp\ccat6fhZ.s 			page 49


 1450              		.cfi_def_cfa_register 7
 1451 0006 021C     		mov	r2, r0
 1452 0008 FB1D     		add	r3, r7, #7
 1453 000a 1A70     		strb	r2, [r3]
1279:.\Generated_Source\PSoC4/CyLib.c ****     CY_INT_SET_PEND_REG = ((uint32) 0x01u << (CY_INT_ENABLE_RANGE_MASK & number));
 1454              		.loc 1 1279 0
 1455 000c 054B     		ldr	r3, .L84
 1456 000e FA1D     		add	r2, r7, #7
 1457 0010 1278     		ldrb	r2, [r2]
 1458 0012 1F21     		mov	r1, #31
 1459 0014 0A40     		and	r2, r1
 1460 0016 0121     		mov	r1, #1
 1461 0018 9140     		lsl	r1, r1, r2
 1462 001a 0A1C     		mov	r2, r1
 1463 001c 1A60     		str	r2, [r3]
1280:.\Generated_Source\PSoC4/CyLib.c **** }
 1464              		.loc 1 1280 0
 1465 001e BD46     		mov	sp, r7
 1466 0020 02B0     		add	sp, sp, #8
 1467              		@ sp needed
 1468 0022 80BD     		pop	{r7, pc}
 1469              	.L85:
 1470              		.align	2
 1471              	.L84:
 1472 0024 00E200E0 		.word	-536813056
 1473              		.cfi_endproc
 1474              	.LFE21:
 1475              		.size	CyIntSetPending, .-CyIntSetPending
 1476              		.section	.text.CyIntClearPending,"ax",%progbits
 1477              		.align	2
 1478              		.global	CyIntClearPending
 1479              		.code	16
 1480              		.thumb_func
 1481              		.type	CyIntClearPending, %function
 1482              	CyIntClearPending:
 1483              	.LFB22:
1281:.\Generated_Source\PSoC4/CyLib.c **** 
1282:.\Generated_Source\PSoC4/CyLib.c **** 
1283:.\Generated_Source\PSoC4/CyLib.c **** /*******************************************************************************
1284:.\Generated_Source\PSoC4/CyLib.c **** * Function Name: CyIntClearPending
1285:.\Generated_Source\PSoC4/CyLib.c **** ********************************************************************************
1286:.\Generated_Source\PSoC4/CyLib.c **** *
1287:.\Generated_Source\PSoC4/CyLib.c **** * Summary:
1288:.\Generated_Source\PSoC4/CyLib.c **** *  Clears any pending interrupt for the specified interrupt number.
1289:.\Generated_Source\PSoC4/CyLib.c **** *
1290:.\Generated_Source\PSoC4/CyLib.c **** * Parameters:
1291:.\Generated_Source\PSoC4/CyLib.c **** *  number: Valid range [0-31].  Interrupt number.
1292:.\Generated_Source\PSoC4/CyLib.c **** *
1293:.\Generated_Source\PSoC4/CyLib.c **** * Return:
1294:.\Generated_Source\PSoC4/CyLib.c **** *  None
1295:.\Generated_Source\PSoC4/CyLib.c **** *
1296:.\Generated_Source\PSoC4/CyLib.c **** *******************************************************************************/
1297:.\Generated_Source\PSoC4/CyLib.c **** void CyIntClearPending(uint8 number)
1298:.\Generated_Source\PSoC4/CyLib.c **** {
 1484              		.loc 1 1298 0
 1485              		.cfi_startproc
 1486 0000 80B5     		push	{r7, lr}
ARM GAS  C:\Users\PANXIA~1\AppData\Local\Temp\ccat6fhZ.s 			page 50


 1487              		.cfi_def_cfa_offset 8
 1488              		.cfi_offset 7, -8
 1489              		.cfi_offset 14, -4
 1490 0002 82B0     		sub	sp, sp, #8
 1491              		.cfi_def_cfa_offset 16
 1492 0004 00AF     		add	r7, sp, #0
 1493              		.cfi_def_cfa_register 7
 1494 0006 021C     		mov	r2, r0
 1495 0008 FB1D     		add	r3, r7, #7
 1496 000a 1A70     		strb	r2, [r3]
1299:.\Generated_Source\PSoC4/CyLib.c ****     CY_INT_CLR_PEND_REG = ((uint32) 0x01u << (CY_INT_ENABLE_RANGE_MASK & number));
 1497              		.loc 1 1299 0
 1498 000c 054B     		ldr	r3, .L87
 1499 000e FA1D     		add	r2, r7, #7
 1500 0010 1278     		ldrb	r2, [r2]
 1501 0012 1F21     		mov	r1, #31
 1502 0014 0A40     		and	r2, r1
 1503 0016 0121     		mov	r1, #1
 1504 0018 9140     		lsl	r1, r1, r2
 1505 001a 0A1C     		mov	r2, r1
 1506 001c 1A60     		str	r2, [r3]
1300:.\Generated_Source\PSoC4/CyLib.c **** }
 1507              		.loc 1 1300 0
 1508 001e BD46     		mov	sp, r7
 1509 0020 02B0     		add	sp, sp, #8
 1510              		@ sp needed
 1511 0022 80BD     		pop	{r7, pc}
 1512              	.L88:
 1513              		.align	2
 1514              	.L87:
 1515 0024 80E200E0 		.word	-536812928
 1516              		.cfi_endproc
 1517              	.LFE22:
 1518              		.size	CyIntClearPending, .-CyIntClearPending
 1519              		.section	.text.CyHalt,"ax",%progbits
 1520              		.align	2
 1521              		.global	CyHalt
 1522              		.code	16
 1523              		.thumb_func
 1524              		.type	CyHalt, %function
 1525              	CyHalt:
 1526              	.LFB23:
1301:.\Generated_Source\PSoC4/CyLib.c **** 
1302:.\Generated_Source\PSoC4/CyLib.c **** 
1303:.\Generated_Source\PSoC4/CyLib.c **** /*******************************************************************************
1304:.\Generated_Source\PSoC4/CyLib.c **** * Function Name: CyHalt
1305:.\Generated_Source\PSoC4/CyLib.c **** ********************************************************************************
1306:.\Generated_Source\PSoC4/CyLib.c **** *
1307:.\Generated_Source\PSoC4/CyLib.c **** * Summary:
1308:.\Generated_Source\PSoC4/CyLib.c **** *  Halts the CPU.
1309:.\Generated_Source\PSoC4/CyLib.c **** *
1310:.\Generated_Source\PSoC4/CyLib.c **** * Parameters:
1311:.\Generated_Source\PSoC4/CyLib.c **** *  reason: Value to be used during debugging.
1312:.\Generated_Source\PSoC4/CyLib.c **** *
1313:.\Generated_Source\PSoC4/CyLib.c **** * Return:
1314:.\Generated_Source\PSoC4/CyLib.c **** *  None
1315:.\Generated_Source\PSoC4/CyLib.c **** *
ARM GAS  C:\Users\PANXIA~1\AppData\Local\Temp\ccat6fhZ.s 			page 51


1316:.\Generated_Source\PSoC4/CyLib.c **** *******************************************************************************/
1317:.\Generated_Source\PSoC4/CyLib.c **** void CyHalt(uint8 reason)
1318:.\Generated_Source\PSoC4/CyLib.c **** {
 1527              		.loc 1 1318 0
 1528              		.cfi_startproc
 1529 0000 80B5     		push	{r7, lr}
 1530              		.cfi_def_cfa_offset 8
 1531              		.cfi_offset 7, -8
 1532              		.cfi_offset 14, -4
 1533 0002 82B0     		sub	sp, sp, #8
 1534              		.cfi_def_cfa_offset 16
 1535 0004 00AF     		add	r7, sp, #0
 1536              		.cfi_def_cfa_register 7
 1537 0006 021C     		mov	r2, r0
 1538 0008 FB1D     		add	r3, r7, #7
 1539 000a 1A70     		strb	r2, [r3]
1319:.\Generated_Source\PSoC4/CyLib.c ****     if(0u != reason)
1320:.\Generated_Source\PSoC4/CyLib.c ****     {
1321:.\Generated_Source\PSoC4/CyLib.c ****         /* To remove unreferenced local variable warning */
1322:.\Generated_Source\PSoC4/CyLib.c ****     }
1323:.\Generated_Source\PSoC4/CyLib.c **** 
1324:.\Generated_Source\PSoC4/CyLib.c ****     #if defined (__ARMCC_VERSION)
1325:.\Generated_Source\PSoC4/CyLib.c ****         __breakpoint(0x0);
1326:.\Generated_Source\PSoC4/CyLib.c ****     #elif defined(__GNUC__) || defined (__ICCARM__)
1327:.\Generated_Source\PSoC4/CyLib.c ****         __asm("    bkpt    1");
 1540              		.loc 1 1327 0
 1541              	@ 1327 ".\Generated_Source\PSoC4\CyLib.c" 1
 1542 000c 01BE     		    bkpt    1
 1543              	@ 0 "" 2
1328:.\Generated_Source\PSoC4/CyLib.c ****     #elif defined(__C51__)
1329:.\Generated_Source\PSoC4/CyLib.c ****         CYDEV_HALT_CPU;
1330:.\Generated_Source\PSoC4/CyLib.c ****     #endif  /* (__ARMCC_VERSION) */
1331:.\Generated_Source\PSoC4/CyLib.c **** }
 1544              		.loc 1 1331 0
 1545              		.code	16
 1546 000e BD46     		mov	sp, r7
 1547 0010 02B0     		add	sp, sp, #8
 1548              		@ sp needed
 1549 0012 80BD     		pop	{r7, pc}
 1550              		.cfi_endproc
 1551              	.LFE23:
 1552              		.size	CyHalt, .-CyHalt
 1553              		.section	.text.CySoftwareReset,"ax",%progbits
 1554              		.align	2
 1555              		.global	CySoftwareReset
 1556              		.code	16
 1557              		.thumb_func
 1558              		.type	CySoftwareReset, %function
 1559              	CySoftwareReset:
 1560              	.LFB24:
1332:.\Generated_Source\PSoC4/CyLib.c **** 
1333:.\Generated_Source\PSoC4/CyLib.c **** 
1334:.\Generated_Source\PSoC4/CyLib.c **** /*******************************************************************************
1335:.\Generated_Source\PSoC4/CyLib.c **** * Function Name: CySoftwareReset
1336:.\Generated_Source\PSoC4/CyLib.c **** ********************************************************************************
1337:.\Generated_Source\PSoC4/CyLib.c **** *
1338:.\Generated_Source\PSoC4/CyLib.c **** * Summary:
ARM GAS  C:\Users\PANXIA~1\AppData\Local\Temp\ccat6fhZ.s 			page 52


1339:.\Generated_Source\PSoC4/CyLib.c **** *  Forces a software reset of the device.
1340:.\Generated_Source\PSoC4/CyLib.c **** *
1341:.\Generated_Source\PSoC4/CyLib.c **** * Parameters:
1342:.\Generated_Source\PSoC4/CyLib.c **** *  None
1343:.\Generated_Source\PSoC4/CyLib.c **** *
1344:.\Generated_Source\PSoC4/CyLib.c **** * Return:
1345:.\Generated_Source\PSoC4/CyLib.c **** *  None
1346:.\Generated_Source\PSoC4/CyLib.c **** *
1347:.\Generated_Source\PSoC4/CyLib.c **** *******************************************************************************/
1348:.\Generated_Source\PSoC4/CyLib.c **** void CySoftwareReset(void)
1349:.\Generated_Source\PSoC4/CyLib.c **** {
 1561              		.loc 1 1349 0
 1562              		.cfi_startproc
 1563 0000 80B5     		push	{r7, lr}
 1564              		.cfi_def_cfa_offset 8
 1565              		.cfi_offset 7, -8
 1566              		.cfi_offset 14, -4
 1567 0002 00AF     		add	r7, sp, #0
 1568              		.cfi_def_cfa_register 7
1350:.\Generated_Source\PSoC4/CyLib.c ****     /***************************************************************************
1351:.\Generated_Source\PSoC4/CyLib.c ****     * Setting the system reset request bit. The vector key value must be written
1352:.\Generated_Source\PSoC4/CyLib.c ****     * to the register, otherwise the register write is unpredictable.
1353:.\Generated_Source\PSoC4/CyLib.c ****     ***************************************************************************/
1354:.\Generated_Source\PSoC4/CyLib.c ****     CY_SYS_CM0_AIRCR_REG = (CY_SYS_CM0_AIRCR_REG & (uint32)(~CY_SYS_CM0_AIRCR_VECTKEY_MASK)) |
 1569              		.loc 1 1354 0
 1570 0004 044B     		ldr	r3, .L91
 1571 0006 044A     		ldr	r2, .L91
 1572 0008 1268     		ldr	r2, [r2]
 1573 000a 1204     		lsl	r2, r2, #16
 1574 000c 120C     		lsr	r2, r2, #16
1355:.\Generated_Source\PSoC4/CyLib.c ****                             CY_SYS_CM0_AIRCR_VECTKEY | CY_SYS_CM0_AIRCR_SYSRESETREQ;
 1575              		.loc 1 1355 0
 1576 000e 0349     		ldr	r1, .L91+4
 1577 0010 0A43     		orr	r2, r1
1354:.\Generated_Source\PSoC4/CyLib.c ****                             CY_SYS_CM0_AIRCR_VECTKEY | CY_SYS_CM0_AIRCR_SYSRESETREQ;
 1578              		.loc 1 1354 0
 1579 0012 1A60     		str	r2, [r3]
1356:.\Generated_Source\PSoC4/CyLib.c **** }
 1580              		.loc 1 1356 0
 1581 0014 BD46     		mov	sp, r7
 1582              		@ sp needed
 1583 0016 80BD     		pop	{r7, pc}
 1584              	.L92:
 1585              		.align	2
 1586              	.L91:
 1587 0018 0CED00E0 		.word	-536810228
 1588 001c 0400FA05 		.word	100270084
 1589              		.cfi_endproc
 1590              	.LFE24:
 1591              		.size	CySoftwareReset, .-CySoftwareReset
 1592              		.section	.text.CyDelay,"ax",%progbits
 1593              		.align	2
 1594              		.global	CyDelay
 1595              		.code	16
 1596              		.thumb_func
 1597              		.type	CyDelay, %function
 1598              	CyDelay:
ARM GAS  C:\Users\PANXIA~1\AppData\Local\Temp\ccat6fhZ.s 			page 53


 1599              	.LFB25:
1357:.\Generated_Source\PSoC4/CyLib.c **** 
1358:.\Generated_Source\PSoC4/CyLib.c **** 
1359:.\Generated_Source\PSoC4/CyLib.c **** /*******************************************************************************
1360:.\Generated_Source\PSoC4/CyLib.c **** * Function Name: CyDelay
1361:.\Generated_Source\PSoC4/CyLib.c **** ********************************************************************************
1362:.\Generated_Source\PSoC4/CyLib.c **** *
1363:.\Generated_Source\PSoC4/CyLib.c **** * Summary:
1364:.\Generated_Source\PSoC4/CyLib.c **** *  Blocks for milliseconds.
1365:.\Generated_Source\PSoC4/CyLib.c **** *
1366:.\Generated_Source\PSoC4/CyLib.c **** * Parameters:
1367:.\Generated_Source\PSoC4/CyLib.c **** *  milliseconds: number of milliseconds to delay.
1368:.\Generated_Source\PSoC4/CyLib.c **** *
1369:.\Generated_Source\PSoC4/CyLib.c **** * Return:
1370:.\Generated_Source\PSoC4/CyLib.c **** *  None
1371:.\Generated_Source\PSoC4/CyLib.c **** *
1372:.\Generated_Source\PSoC4/CyLib.c **** *******************************************************************************/
1373:.\Generated_Source\PSoC4/CyLib.c **** void CyDelay(uint32 milliseconds)
1374:.\Generated_Source\PSoC4/CyLib.c **** {
 1600              		.loc 1 1374 0
 1601              		.cfi_startproc
 1602 0000 80B5     		push	{r7, lr}
 1603              		.cfi_def_cfa_offset 8
 1604              		.cfi_offset 7, -8
 1605              		.cfi_offset 14, -4
 1606 0002 82B0     		sub	sp, sp, #8
 1607              		.cfi_def_cfa_offset 16
 1608 0004 00AF     		add	r7, sp, #0
 1609              		.cfi_def_cfa_register 7
 1610 0006 7860     		str	r0, [r7, #4]
1375:.\Generated_Source\PSoC4/CyLib.c ****     while (milliseconds > CY_DELAY_MS_OVERFLOW)
 1611              		.loc 1 1375 0
 1612 0008 09E0     		b	.L94
 1613              	.L95:
1376:.\Generated_Source\PSoC4/CyLib.c ****     {
1377:.\Generated_Source\PSoC4/CyLib.c ****         /* This loop prevents overflow.
1378:.\Generated_Source\PSoC4/CyLib.c ****          * At 100MHz, milliseconds * cydelayFreqKhz overflows at about 42 seconds
1379:.\Generated_Source\PSoC4/CyLib.c ****          */
1380:.\Generated_Source\PSoC4/CyLib.c ****         CyDelayCycles(cydelay32kMs);
 1614              		.loc 1 1380 0
 1615 000a 0C4B     		ldr	r3, .L96
 1616 000c 1B68     		ldr	r3, [r3]
 1617 000e 181C     		mov	r0, r3
 1618 0010 FFF7FEFF 		bl	CyDelayCycles
1381:.\Generated_Source\PSoC4/CyLib.c ****         milliseconds -= CY_DELAY_MS_OVERFLOW;
 1619              		.loc 1 1381 0
 1620 0014 7B68     		ldr	r3, [r7, #4]
 1621 0016 0A4A     		ldr	r2, .L96+4
 1622 0018 9446     		mov	ip, r2
 1623 001a 6344     		add	r3, r3, ip
 1624 001c 7B60     		str	r3, [r7, #4]
 1625              	.L94:
1375:.\Generated_Source\PSoC4/CyLib.c ****     while (milliseconds > CY_DELAY_MS_OVERFLOW)
 1626              		.loc 1 1375 0
 1627 001e 7A68     		ldr	r2, [r7, #4]
 1628 0020 8023     		mov	r3, #128
 1629 0022 1B02     		lsl	r3, r3, #8
ARM GAS  C:\Users\PANXIA~1\AppData\Local\Temp\ccat6fhZ.s 			page 54


 1630 0024 9A42     		cmp	r2, r3
 1631 0026 F0D8     		bhi	.L95
1382:.\Generated_Source\PSoC4/CyLib.c ****     }
1383:.\Generated_Source\PSoC4/CyLib.c **** 
1384:.\Generated_Source\PSoC4/CyLib.c ****     CyDelayCycles(milliseconds * cydelayFreqKhz);
 1632              		.loc 1 1384 0
 1633 0028 064B     		ldr	r3, .L96+8
 1634 002a 1B68     		ldr	r3, [r3]
 1635 002c 7A68     		ldr	r2, [r7, #4]
 1636 002e 5343     		mul	r3, r2
 1637 0030 181C     		mov	r0, r3
 1638 0032 FFF7FEFF 		bl	CyDelayCycles
1385:.\Generated_Source\PSoC4/CyLib.c **** }
 1639              		.loc 1 1385 0
 1640 0036 BD46     		mov	sp, r7
 1641 0038 02B0     		add	sp, sp, #8
 1642              		@ sp needed
 1643 003a 80BD     		pop	{r7, pc}
 1644              	.L97:
 1645              		.align	2
 1646              	.L96:
 1647 003c 00000000 		.word	cydelay32kMs
 1648 0040 0080FFFF 		.word	-32768
 1649 0044 00000000 		.word	cydelayFreqKhz
 1650              		.cfi_endproc
 1651              	.LFE25:
 1652              		.size	CyDelay, .-CyDelay
 1653              		.section	.text.CyDelayUs,"ax",%progbits
 1654              		.align	2
 1655              		.global	CyDelayUs
 1656              		.code	16
 1657              		.thumb_func
 1658              		.type	CyDelayUs, %function
 1659              	CyDelayUs:
 1660              	.LFB26:
1386:.\Generated_Source\PSoC4/CyLib.c **** 
1387:.\Generated_Source\PSoC4/CyLib.c **** 
1388:.\Generated_Source\PSoC4/CyLib.c **** /*******************************************************************************
1389:.\Generated_Source\PSoC4/CyLib.c **** * Function Name: CyDelayUs
1390:.\Generated_Source\PSoC4/CyLib.c **** ********************************************************************************
1391:.\Generated_Source\PSoC4/CyLib.c **** * Summary:
1392:.\Generated_Source\PSoC4/CyLib.c **** *  Blocks for microseconds.
1393:.\Generated_Source\PSoC4/CyLib.c **** *
1394:.\Generated_Source\PSoC4/CyLib.c **** * Parameters:
1395:.\Generated_Source\PSoC4/CyLib.c **** *  microseconds: number of microseconds to delay.
1396:.\Generated_Source\PSoC4/CyLib.c **** *
1397:.\Generated_Source\PSoC4/CyLib.c **** * Return:
1398:.\Generated_Source\PSoC4/CyLib.c **** *  None
1399:.\Generated_Source\PSoC4/CyLib.c **** *
1400:.\Generated_Source\PSoC4/CyLib.c **** *******************************************************************************/
1401:.\Generated_Source\PSoC4/CyLib.c **** void CyDelayUs(uint16 microseconds)
1402:.\Generated_Source\PSoC4/CyLib.c **** {
 1661              		.loc 1 1402 0
 1662              		.cfi_startproc
 1663 0000 80B5     		push	{r7, lr}
 1664              		.cfi_def_cfa_offset 8
 1665              		.cfi_offset 7, -8
ARM GAS  C:\Users\PANXIA~1\AppData\Local\Temp\ccat6fhZ.s 			page 55


 1666              		.cfi_offset 14, -4
 1667 0002 82B0     		sub	sp, sp, #8
 1668              		.cfi_def_cfa_offset 16
 1669 0004 00AF     		add	r7, sp, #0
 1670              		.cfi_def_cfa_register 7
 1671 0006 021C     		mov	r2, r0
 1672 0008 BB1D     		add	r3, r7, #6
 1673 000a 1A80     		strh	r2, [r3]
1403:.\Generated_Source\PSoC4/CyLib.c ****     CyDelayCycles((uint32)microseconds * cydelayFreqMhz);
 1674              		.loc 1 1403 0
 1675 000c BB1D     		add	r3, r7, #6
 1676 000e 1B88     		ldrh	r3, [r3]
 1677 0010 044A     		ldr	r2, .L99
 1678 0012 1278     		ldrb	r2, [r2]
 1679 0014 5343     		mul	r3, r2
 1680 0016 181C     		mov	r0, r3
 1681 0018 FFF7FEFF 		bl	CyDelayCycles
1404:.\Generated_Source\PSoC4/CyLib.c **** }
 1682              		.loc 1 1404 0
 1683 001c BD46     		mov	sp, r7
 1684 001e 02B0     		add	sp, sp, #8
 1685              		@ sp needed
 1686 0020 80BD     		pop	{r7, pc}
 1687              	.L100:
 1688 0022 C046     		.align	2
 1689              	.L99:
 1690 0024 00000000 		.word	cydelayFreqMhz
 1691              		.cfi_endproc
 1692              	.LFE26:
 1693              		.size	CyDelayUs, .-CyDelayUs
 1694              		.global	__aeabi_uidiv
 1695              		.section	.text.CyDelayFreq,"ax",%progbits
 1696              		.align	2
 1697              		.global	CyDelayFreq
 1698              		.code	16
 1699              		.thumb_func
 1700              		.type	CyDelayFreq, %function
 1701              	CyDelayFreq:
 1702              	.LFB27:
1405:.\Generated_Source\PSoC4/CyLib.c **** 
1406:.\Generated_Source\PSoC4/CyLib.c **** 
1407:.\Generated_Source\PSoC4/CyLib.c **** /*******************************************************************************
1408:.\Generated_Source\PSoC4/CyLib.c **** * Function Name: CyDelayFreq
1409:.\Generated_Source\PSoC4/CyLib.c **** ********************************************************************************
1410:.\Generated_Source\PSoC4/CyLib.c **** * Summary:
1411:.\Generated_Source\PSoC4/CyLib.c **** *  Sets clock frequency for CyDelay.
1412:.\Generated_Source\PSoC4/CyLib.c **** *
1413:.\Generated_Source\PSoC4/CyLib.c **** * Parameters:
1414:.\Generated_Source\PSoC4/CyLib.c **** *  freq: Frequency of bus clock in Hertz.
1415:.\Generated_Source\PSoC4/CyLib.c **** *
1416:.\Generated_Source\PSoC4/CyLib.c **** * Return:
1417:.\Generated_Source\PSoC4/CyLib.c **** *  None
1418:.\Generated_Source\PSoC4/CyLib.c **** *
1419:.\Generated_Source\PSoC4/CyLib.c **** *******************************************************************************/
1420:.\Generated_Source\PSoC4/CyLib.c **** void CyDelayFreq(uint32 freq)
1421:.\Generated_Source\PSoC4/CyLib.c **** {
 1703              		.loc 1 1421 0
ARM GAS  C:\Users\PANXIA~1\AppData\Local\Temp\ccat6fhZ.s 			page 56


 1704              		.cfi_startproc
 1705 0000 80B5     		push	{r7, lr}
 1706              		.cfi_def_cfa_offset 8
 1707              		.cfi_offset 7, -8
 1708              		.cfi_offset 14, -4
 1709 0002 82B0     		sub	sp, sp, #8
 1710              		.cfi_def_cfa_offset 16
 1711 0004 00AF     		add	r7, sp, #0
 1712              		.cfi_def_cfa_register 7
 1713 0006 7860     		str	r0, [r7, #4]
1422:.\Generated_Source\PSoC4/CyLib.c ****     if (freq != 0u)
 1714              		.loc 1 1422 0
 1715 0008 7B68     		ldr	r3, [r7, #4]
 1716 000a 002B     		cmp	r3, #0
 1717 000c 03D0     		beq	.L102
1423:.\Generated_Source\PSoC4/CyLib.c ****     {
1424:.\Generated_Source\PSoC4/CyLib.c ****         cydelayFreqHz = freq;
 1718              		.loc 1 1424 0
 1719 000e 154B     		ldr	r3, .L104
 1720 0010 7A68     		ldr	r2, [r7, #4]
 1721 0012 1A60     		str	r2, [r3]
 1722 0014 02E0     		b	.L103
 1723              	.L102:
1425:.\Generated_Source\PSoC4/CyLib.c ****     }
1426:.\Generated_Source\PSoC4/CyLib.c ****     else
1427:.\Generated_Source\PSoC4/CyLib.c ****     {
1428:.\Generated_Source\PSoC4/CyLib.c ****         cydelayFreqHz = CYDEV_BCLK__SYSCLK__HZ;
 1724              		.loc 1 1428 0
 1725 0016 134B     		ldr	r3, .L104
 1726 0018 134A     		ldr	r2, .L104+4
 1727 001a 1A60     		str	r2, [r3]
 1728              	.L103:
1429:.\Generated_Source\PSoC4/CyLib.c ****     }
1430:.\Generated_Source\PSoC4/CyLib.c **** 
1431:.\Generated_Source\PSoC4/CyLib.c ****     cydelayFreqMhz = (uint8)((cydelayFreqHz + CY_DELAY_1M_MINUS_1_THRESHOLD) / CY_DELAY_1M_THRESHOL
 1729              		.loc 1 1431 0
 1730 001c 114B     		ldr	r3, .L104
 1731 001e 1B68     		ldr	r3, [r3]
 1732 0020 124A     		ldr	r2, .L104+8
 1733 0022 9446     		mov	ip, r2
 1734 0024 6344     		add	r3, r3, ip
 1735 0026 181C     		mov	r0, r3
 1736 0028 1149     		ldr	r1, .L104+12
 1737 002a FFF7FEFF 		bl	__aeabi_uidiv
 1738 002e 031C     		mov	r3, r0
 1739 0030 DAB2     		uxtb	r2, r3
 1740 0032 104B     		ldr	r3, .L104+16
 1741 0034 1A70     		strb	r2, [r3]
1432:.\Generated_Source\PSoC4/CyLib.c ****     cydelayFreqKhz = (cydelayFreqHz + CY_DELAY_1K_MINUS_1_THRESHOLD) / CY_DELAY_1K_THRESHOLD;
 1742              		.loc 1 1432 0
 1743 0036 0B4B     		ldr	r3, .L104
 1744 0038 1B68     		ldr	r3, [r3]
 1745 003a 0F4A     		ldr	r2, .L104+20
 1746 003c 9446     		mov	ip, r2
 1747 003e 6344     		add	r3, r3, ip
 1748 0040 181C     		mov	r0, r3
 1749 0042 FA23     		mov	r3, #250
ARM GAS  C:\Users\PANXIA~1\AppData\Local\Temp\ccat6fhZ.s 			page 57


 1750 0044 9900     		lsl	r1, r3, #2
 1751 0046 FFF7FEFF 		bl	__aeabi_uidiv
 1752 004a 031C     		mov	r3, r0
 1753 004c 1A1C     		mov	r2, r3
 1754 004e 0B4B     		ldr	r3, .L104+24
 1755 0050 1A60     		str	r2, [r3]
1433:.\Generated_Source\PSoC4/CyLib.c ****     cydelay32kMs   = CY_DELAY_MS_OVERFLOW * cydelayFreqKhz;
 1756              		.loc 1 1433 0
 1757 0052 0A4B     		ldr	r3, .L104+24
 1758 0054 1B68     		ldr	r3, [r3]
 1759 0056 DA03     		lsl	r2, r3, #15
 1760 0058 094B     		ldr	r3, .L104+28
 1761 005a 1A60     		str	r2, [r3]
1434:.\Generated_Source\PSoC4/CyLib.c **** }
 1762              		.loc 1 1434 0
 1763 005c BD46     		mov	sp, r7
 1764 005e 02B0     		add	sp, sp, #8
 1765              		@ sp needed
 1766 0060 80BD     		pop	{r7, pc}
 1767              	.L105:
 1768 0062 C046     		.align	2
 1769              	.L104:
 1770 0064 00000000 		.word	cydelayFreqHz
 1771 0068 00366E01 		.word	24000000
 1772 006c 3F420F00 		.word	999999
 1773 0070 40420F00 		.word	1000000
 1774 0074 00000000 		.word	cydelayFreqMhz
 1775 0078 E7030000 		.word	999
 1776 007c 00000000 		.word	cydelayFreqKhz
 1777 0080 00000000 		.word	cydelay32kMs
 1778              		.cfi_endproc
 1779              	.LFE27:
 1780              		.size	CyDelayFreq, .-CyDelayFreq
 1781              		.section	.text.CySysTickStart,"ax",%progbits
 1782              		.align	2
 1783              		.global	CySysTickStart
 1784              		.code	16
 1785              		.thumb_func
 1786              		.type	CySysTickStart, %function
 1787              	CySysTickStart:
 1788              	.LFB28:
1435:.\Generated_Source\PSoC4/CyLib.c **** 
1436:.\Generated_Source\PSoC4/CyLib.c **** 
1437:.\Generated_Source\PSoC4/CyLib.c **** /*******************************************************************************
1438:.\Generated_Source\PSoC4/CyLib.c **** * Function Name: CySysTick_Start
1439:.\Generated_Source\PSoC4/CyLib.c **** ********************************************************************************
1440:.\Generated_Source\PSoC4/CyLib.c **** *
1441:.\Generated_Source\PSoC4/CyLib.c **** * Summary:
1442:.\Generated_Source\PSoC4/CyLib.c **** *  Starts the system timer (SysTick): configures SysTick to generate interrupt
1443:.\Generated_Source\PSoC4/CyLib.c **** *  every 1 ms and enables the interrupt.
1444:.\Generated_Source\PSoC4/CyLib.c **** *
1445:.\Generated_Source\PSoC4/CyLib.c **** * Parameters:
1446:.\Generated_Source\PSoC4/CyLib.c **** *  None
1447:.\Generated_Source\PSoC4/CyLib.c **** *
1448:.\Generated_Source\PSoC4/CyLib.c **** * Return:
1449:.\Generated_Source\PSoC4/CyLib.c **** *  None
1450:.\Generated_Source\PSoC4/CyLib.c **** *
ARM GAS  C:\Users\PANXIA~1\AppData\Local\Temp\ccat6fhZ.s 			page 58


1451:.\Generated_Source\PSoC4/CyLib.c **** * Side Effects:
1452:.\Generated_Source\PSoC4/CyLib.c **** *  Clears SysTick count flag if it was set.
1453:.\Generated_Source\PSoC4/CyLib.c **** *
1454:.\Generated_Source\PSoC4/CyLib.c **** *******************************************************************************/
1455:.\Generated_Source\PSoC4/CyLib.c **** void CySysTickStart(void)
1456:.\Generated_Source\PSoC4/CyLib.c **** {
 1789              		.loc 1 1456 0
 1790              		.cfi_startproc
 1791 0000 80B5     		push	{r7, lr}
 1792              		.cfi_def_cfa_offset 8
 1793              		.cfi_offset 7, -8
 1794              		.cfi_offset 14, -4
 1795 0002 00AF     		add	r7, sp, #0
 1796              		.cfi_def_cfa_register 7
1457:.\Generated_Source\PSoC4/CyLib.c ****     if (0u == CySysTickInitVar)
 1797              		.loc 1 1457 0
 1798 0004 064B     		ldr	r3, .L108
 1799 0006 1B68     		ldr	r3, [r3]
 1800 0008 002B     		cmp	r3, #0
 1801 000a 04D1     		bne	.L107
1458:.\Generated_Source\PSoC4/CyLib.c ****     {
1459:.\Generated_Source\PSoC4/CyLib.c ****         CySysTickInit();
 1802              		.loc 1 1459 0
 1803 000c FFF7FEFF 		bl	CySysTickInit
1460:.\Generated_Source\PSoC4/CyLib.c ****         CySysTickInitVar = 1u;
 1804              		.loc 1 1460 0
 1805 0010 034B     		ldr	r3, .L108
 1806 0012 0122     		mov	r2, #1
 1807 0014 1A60     		str	r2, [r3]
 1808              	.L107:
1461:.\Generated_Source\PSoC4/CyLib.c ****     }
1462:.\Generated_Source\PSoC4/CyLib.c **** 
1463:.\Generated_Source\PSoC4/CyLib.c ****     CySysTickEnable();
 1809              		.loc 1 1463 0
 1810 0016 FFF7FEFF 		bl	CySysTickEnable
1464:.\Generated_Source\PSoC4/CyLib.c **** }
 1811              		.loc 1 1464 0
 1812 001a BD46     		mov	sp, r7
 1813              		@ sp needed
 1814 001c 80BD     		pop	{r7, pc}
 1815              	.L109:
 1816 001e C046     		.align	2
 1817              	.L108:
 1818 0020 00000000 		.word	CySysTickInitVar
 1819              		.cfi_endproc
 1820              	.LFE28:
 1821              		.size	CySysTickStart, .-CySysTickStart
 1822              		.section	.text.CySysTickInit,"ax",%progbits
 1823              		.align	2
 1824              		.global	CySysTickInit
 1825              		.code	16
 1826              		.thumb_func
 1827              		.type	CySysTickInit, %function
 1828              	CySysTickInit:
 1829              	.LFB29:
1465:.\Generated_Source\PSoC4/CyLib.c **** 
1466:.\Generated_Source\PSoC4/CyLib.c **** 
ARM GAS  C:\Users\PANXIA~1\AppData\Local\Temp\ccat6fhZ.s 			page 59


1467:.\Generated_Source\PSoC4/CyLib.c **** /*******************************************************************************
1468:.\Generated_Source\PSoC4/CyLib.c **** * Function Name: CySysTickInit
1469:.\Generated_Source\PSoC4/CyLib.c **** ********************************************************************************
1470:.\Generated_Source\PSoC4/CyLib.c **** *
1471:.\Generated_Source\PSoC4/CyLib.c **** * Summary:
1472:.\Generated_Source\PSoC4/CyLib.c **** *  Sets CySysTickServiceCallbacks() as an ISR for the SysTick exception.
1473:.\Generated_Source\PSoC4/CyLib.c **** *  The clock source for the SysTick counter is set to the System Clock.
1474:.\Generated_Source\PSoC4/CyLib.c **** *  The SysTick reload value is configured for the timer to generate interrupt
1475:.\Generated_Source\PSoC4/CyLib.c **** *  every 1 ms. The System clock value is on the global variables cydelayFreqHz.
1476:.\Generated_Source\PSoC4/CyLib.c **** *  User is responsible for calling CyDelayFreq() function.
1477:.\Generated_Source\PSoC4/CyLib.c **** *  Initializes CySysTickCallbacks array.
1478:.\Generated_Source\PSoC4/CyLib.c **** *
1479:.\Generated_Source\PSoC4/CyLib.c **** * Parameters:
1480:.\Generated_Source\PSoC4/CyLib.c **** *  None
1481:.\Generated_Source\PSoC4/CyLib.c **** *
1482:.\Generated_Source\PSoC4/CyLib.c **** * Return:
1483:.\Generated_Source\PSoC4/CyLib.c **** *  None
1484:.\Generated_Source\PSoC4/CyLib.c **** *
1485:.\Generated_Source\PSoC4/CyLib.c **** * Side Effects:
1486:.\Generated_Source\PSoC4/CyLib.c **** *  Clears SysTick count flag if it was set
1487:.\Generated_Source\PSoC4/CyLib.c **** *
1488:.\Generated_Source\PSoC4/CyLib.c **** *******************************************************************************/
1489:.\Generated_Source\PSoC4/CyLib.c **** void CySysTickInit(void)
1490:.\Generated_Source\PSoC4/CyLib.c **** {
 1830              		.loc 1 1490 0
 1831              		.cfi_startproc
 1832 0000 80B5     		push	{r7, lr}
 1833              		.cfi_def_cfa_offset 8
 1834              		.cfi_offset 7, -8
 1835              		.cfi_offset 14, -4
 1836 0002 82B0     		sub	sp, sp, #8
 1837              		.cfi_def_cfa_offset 16
 1838 0004 00AF     		add	r7, sp, #0
 1839              		.cfi_def_cfa_register 7
1491:.\Generated_Source\PSoC4/CyLib.c ****     uint32 i;
1492:.\Generated_Source\PSoC4/CyLib.c **** 
1493:.\Generated_Source\PSoC4/CyLib.c ****     for (i = 0u; i<CY_SYS_SYST_NUM_OF_CALLBACKS; i++)
 1840              		.loc 1 1493 0
 1841 0006 0023     		mov	r3, #0
 1842 0008 7B60     		str	r3, [r7, #4]
 1843 000a 07E0     		b	.L111
 1844              	.L112:
1494:.\Generated_Source\PSoC4/CyLib.c ****     {
1495:.\Generated_Source\PSoC4/CyLib.c ****         CySysTickCallbacks[i] = (void *) 0;
 1845              		.loc 1 1495 0 discriminator 3
 1846 000c 114B     		ldr	r3, .L113
 1847 000e 7A68     		ldr	r2, [r7, #4]
 1848 0010 9200     		lsl	r2, r2, #2
 1849 0012 0021     		mov	r1, #0
 1850 0014 D150     		str	r1, [r2, r3]
1493:.\Generated_Source\PSoC4/CyLib.c ****     {
 1851              		.loc 1 1493 0 discriminator 3
 1852 0016 7B68     		ldr	r3, [r7, #4]
 1853 0018 0133     		add	r3, r3, #1
 1854 001a 7B60     		str	r3, [r7, #4]
 1855              	.L111:
1493:.\Generated_Source\PSoC4/CyLib.c ****     {
ARM GAS  C:\Users\PANXIA~1\AppData\Local\Temp\ccat6fhZ.s 			page 60


 1856              		.loc 1 1493 0 is_stmt 0 discriminator 1
 1857 001c 7B68     		ldr	r3, [r7, #4]
 1858 001e 042B     		cmp	r3, #4
 1859 0020 F4D9     		bls	.L112
1496:.\Generated_Source\PSoC4/CyLib.c ****     }
1497:.\Generated_Source\PSoC4/CyLib.c **** 
1498:.\Generated_Source\PSoC4/CyLib.c ****     (void) CyIntSetSysVector(CY_INT_SYSTICK_IRQN, &CySysTickServiceCallbacks);
 1860              		.loc 1 1498 0 is_stmt 1
 1861 0022 0D4B     		ldr	r3, .L113+4
 1862 0024 0F20     		mov	r0, #15
 1863 0026 191C     		mov	r1, r3
 1864 0028 FFF7FEFF 		bl	CyIntSetSysVector
1499:.\Generated_Source\PSoC4/CyLib.c **** 
1500:.\Generated_Source\PSoC4/CyLib.c ****     #if(!CY_PSOC3 && !CY_PSOC4_4000 && !CY_PSOC4_4100 && !CY_PSOC4_4200)
1501:.\Generated_Source\PSoC4/CyLib.c ****         CySysTickSetClockSource(CY_SYS_SYST_CSR_CLK_SRC_SYSCLK);
1502:.\Generated_Source\PSoC4/CyLib.c ****     #endif /* (!CY_PSOC3 && !CY_PSOC4_4000 && !CY_PSOC4_4100 && !CY_PSOC4_4200) */
1503:.\Generated_Source\PSoC4/CyLib.c **** 
1504:.\Generated_Source\PSoC4/CyLib.c ****     CySysTickSetReload(cydelayFreqHz/1000u);
 1865              		.loc 1 1504 0
 1866 002c 0B4B     		ldr	r3, .L113+8
 1867 002e 1B68     		ldr	r3, [r3]
 1868 0030 181C     		mov	r0, r3
 1869 0032 FA23     		mov	r3, #250
 1870 0034 9900     		lsl	r1, r3, #2
 1871 0036 FFF7FEFF 		bl	__aeabi_uidiv
 1872 003a 031C     		mov	r3, r0
 1873 003c 181C     		mov	r0, r3
 1874 003e FFF7FEFF 		bl	CySysTickSetReload
1505:.\Generated_Source\PSoC4/CyLib.c ****     CySysTickClear();
 1875              		.loc 1 1505 0
 1876 0042 FFF7FEFF 		bl	CySysTickClear
1506:.\Generated_Source\PSoC4/CyLib.c ****     CyIntEnable(CY_INT_SYSTICK_IRQN);
 1877              		.loc 1 1506 0
 1878 0046 0F20     		mov	r0, #15
 1879 0048 FFF7FEFF 		bl	CyIntEnable
1507:.\Generated_Source\PSoC4/CyLib.c **** }
 1880              		.loc 1 1507 0
 1881 004c BD46     		mov	sp, r7
 1882 004e 02B0     		add	sp, sp, #8
 1883              		@ sp needed
 1884 0050 80BD     		pop	{r7, pc}
 1885              	.L114:
 1886 0052 C046     		.align	2
 1887              	.L113:
 1888 0054 00000000 		.word	CySysTickCallbacks
 1889 0058 00000000 		.word	CySysTickServiceCallbacks
 1890 005c 00000000 		.word	cydelayFreqHz
 1891              		.cfi_endproc
 1892              	.LFE29:
 1893              		.size	CySysTickInit, .-CySysTickInit
 1894              		.section	.text.CySysTickEnable,"ax",%progbits
 1895              		.align	2
 1896              		.global	CySysTickEnable
 1897              		.code	16
 1898              		.thumb_func
 1899              		.type	CySysTickEnable, %function
 1900              	CySysTickEnable:
ARM GAS  C:\Users\PANXIA~1\AppData\Local\Temp\ccat6fhZ.s 			page 61


 1901              	.LFB30:
1508:.\Generated_Source\PSoC4/CyLib.c **** 
1509:.\Generated_Source\PSoC4/CyLib.c **** 
1510:.\Generated_Source\PSoC4/CyLib.c **** /*******************************************************************************
1511:.\Generated_Source\PSoC4/CyLib.c **** * Function Name: CySysTickEnable
1512:.\Generated_Source\PSoC4/CyLib.c **** ********************************************************************************
1513:.\Generated_Source\PSoC4/CyLib.c **** *
1514:.\Generated_Source\PSoC4/CyLib.c **** * Summary:
1515:.\Generated_Source\PSoC4/CyLib.c **** *  Enables the SysTick timer and its interrupt.
1516:.\Generated_Source\PSoC4/CyLib.c **** *
1517:.\Generated_Source\PSoC4/CyLib.c **** * Parameters:
1518:.\Generated_Source\PSoC4/CyLib.c **** *  None
1519:.\Generated_Source\PSoC4/CyLib.c **** *
1520:.\Generated_Source\PSoC4/CyLib.c **** * Return:
1521:.\Generated_Source\PSoC4/CyLib.c **** *  None
1522:.\Generated_Source\PSoC4/CyLib.c **** *
1523:.\Generated_Source\PSoC4/CyLib.c **** * Side Effects:
1524:.\Generated_Source\PSoC4/CyLib.c **** *  Clears SysTick count flag if it was set
1525:.\Generated_Source\PSoC4/CyLib.c **** *
1526:.\Generated_Source\PSoC4/CyLib.c **** *******************************************************************************/
1527:.\Generated_Source\PSoC4/CyLib.c **** void CySysTickEnable(void)
1528:.\Generated_Source\PSoC4/CyLib.c **** {
 1902              		.loc 1 1528 0
 1903              		.cfi_startproc
 1904 0000 80B5     		push	{r7, lr}
 1905              		.cfi_def_cfa_offset 8
 1906              		.cfi_offset 7, -8
 1907              		.cfi_offset 14, -4
 1908 0002 00AF     		add	r7, sp, #0
 1909              		.cfi_def_cfa_register 7
1529:.\Generated_Source\PSoC4/CyLib.c ****     CySysTickEnableInterrupt();
 1910              		.loc 1 1529 0
 1911 0004 FFF7FEFF 		bl	CySysTickEnableInterrupt
1530:.\Generated_Source\PSoC4/CyLib.c ****     CY_SYS_SYST_CSR_REG |= CY_SYS_SYST_CSR_ENABLE;
 1912              		.loc 1 1530 0
 1913 0008 034B     		ldr	r3, .L116
 1914 000a 034A     		ldr	r2, .L116
 1915 000c 1268     		ldr	r2, [r2]
 1916 000e 0121     		mov	r1, #1
 1917 0010 0A43     		orr	r2, r1
 1918 0012 1A60     		str	r2, [r3]
1531:.\Generated_Source\PSoC4/CyLib.c **** }
 1919              		.loc 1 1531 0
 1920 0014 BD46     		mov	sp, r7
 1921              		@ sp needed
 1922 0016 80BD     		pop	{r7, pc}
 1923              	.L117:
 1924              		.align	2
 1925              	.L116:
 1926 0018 10E000E0 		.word	-536813552
 1927              		.cfi_endproc
 1928              	.LFE30:
 1929              		.size	CySysTickEnable, .-CySysTickEnable
 1930              		.section	.text.CySysTickStop,"ax",%progbits
 1931              		.align	2
 1932              		.global	CySysTickStop
 1933              		.code	16
ARM GAS  C:\Users\PANXIA~1\AppData\Local\Temp\ccat6fhZ.s 			page 62


 1934              		.thumb_func
 1935              		.type	CySysTickStop, %function
 1936              	CySysTickStop:
 1937              	.LFB31:
1532:.\Generated_Source\PSoC4/CyLib.c **** 
1533:.\Generated_Source\PSoC4/CyLib.c **** 
1534:.\Generated_Source\PSoC4/CyLib.c **** /*******************************************************************************
1535:.\Generated_Source\PSoC4/CyLib.c **** * Function Name: CySysTickStop
1536:.\Generated_Source\PSoC4/CyLib.c **** ********************************************************************************
1537:.\Generated_Source\PSoC4/CyLib.c **** *
1538:.\Generated_Source\PSoC4/CyLib.c **** * Summary:
1539:.\Generated_Source\PSoC4/CyLib.c **** *  Stops the system timer (SysTick).
1540:.\Generated_Source\PSoC4/CyLib.c **** *
1541:.\Generated_Source\PSoC4/CyLib.c **** * Parameters:
1542:.\Generated_Source\PSoC4/CyLib.c **** *  None
1543:.\Generated_Source\PSoC4/CyLib.c **** *
1544:.\Generated_Source\PSoC4/CyLib.c **** * Return:
1545:.\Generated_Source\PSoC4/CyLib.c **** *  None
1546:.\Generated_Source\PSoC4/CyLib.c **** *
1547:.\Generated_Source\PSoC4/CyLib.c **** * Side Effects:
1548:.\Generated_Source\PSoC4/CyLib.c **** *  Clears SysTick count flag if it was set
1549:.\Generated_Source\PSoC4/CyLib.c **** *
1550:.\Generated_Source\PSoC4/CyLib.c **** *******************************************************************************/
1551:.\Generated_Source\PSoC4/CyLib.c **** void CySysTickStop(void)
1552:.\Generated_Source\PSoC4/CyLib.c **** {
 1938              		.loc 1 1552 0
 1939              		.cfi_startproc
 1940 0000 80B5     		push	{r7, lr}
 1941              		.cfi_def_cfa_offset 8
 1942              		.cfi_offset 7, -8
 1943              		.cfi_offset 14, -4
 1944 0002 00AF     		add	r7, sp, #0
 1945              		.cfi_def_cfa_register 7
1553:.\Generated_Source\PSoC4/CyLib.c ****     CY_SYS_SYST_CSR_REG &= ((uint32) ~(CY_SYS_SYST_CSR_ENABLE));
 1946              		.loc 1 1553 0
 1947 0004 034B     		ldr	r3, .L119
 1948 0006 034A     		ldr	r2, .L119
 1949 0008 1268     		ldr	r2, [r2]
 1950 000a 0121     		mov	r1, #1
 1951 000c 8A43     		bic	r2, r1
 1952 000e 1A60     		str	r2, [r3]
1554:.\Generated_Source\PSoC4/CyLib.c **** }
 1953              		.loc 1 1554 0
 1954 0010 BD46     		mov	sp, r7
 1955              		@ sp needed
 1956 0012 80BD     		pop	{r7, pc}
 1957              	.L120:
 1958              		.align	2
 1959              	.L119:
 1960 0014 10E000E0 		.word	-536813552
 1961              		.cfi_endproc
 1962              	.LFE31:
 1963              		.size	CySysTickStop, .-CySysTickStop
 1964              		.section	.text.CySysTickEnableInterrupt,"ax",%progbits
 1965              		.align	2
 1966              		.global	CySysTickEnableInterrupt
 1967              		.code	16
ARM GAS  C:\Users\PANXIA~1\AppData\Local\Temp\ccat6fhZ.s 			page 63


 1968              		.thumb_func
 1969              		.type	CySysTickEnableInterrupt, %function
 1970              	CySysTickEnableInterrupt:
 1971              	.LFB32:
1555:.\Generated_Source\PSoC4/CyLib.c **** 
1556:.\Generated_Source\PSoC4/CyLib.c **** 
1557:.\Generated_Source\PSoC4/CyLib.c **** /*******************************************************************************
1558:.\Generated_Source\PSoC4/CyLib.c **** * Function Name: CySysTickEnableInterrupt
1559:.\Generated_Source\PSoC4/CyLib.c **** ********************************************************************************
1560:.\Generated_Source\PSoC4/CyLib.c **** *
1561:.\Generated_Source\PSoC4/CyLib.c **** * Summary:
1562:.\Generated_Source\PSoC4/CyLib.c **** *  Enables the SysTick interrupt.
1563:.\Generated_Source\PSoC4/CyLib.c **** *
1564:.\Generated_Source\PSoC4/CyLib.c **** * Parameters:
1565:.\Generated_Source\PSoC4/CyLib.c **** *  None
1566:.\Generated_Source\PSoC4/CyLib.c **** *
1567:.\Generated_Source\PSoC4/CyLib.c **** * Return:
1568:.\Generated_Source\PSoC4/CyLib.c **** *  None
1569:.\Generated_Source\PSoC4/CyLib.c **** *
1570:.\Generated_Source\PSoC4/CyLib.c **** * Side Effects:
1571:.\Generated_Source\PSoC4/CyLib.c **** *  Clears SysTick count flag if it was set
1572:.\Generated_Source\PSoC4/CyLib.c **** *
1573:.\Generated_Source\PSoC4/CyLib.c **** *******************************************************************************/
1574:.\Generated_Source\PSoC4/CyLib.c **** void CySysTickEnableInterrupt(void)
1575:.\Generated_Source\PSoC4/CyLib.c **** {
 1972              		.loc 1 1575 0
 1973              		.cfi_startproc
 1974 0000 80B5     		push	{r7, lr}
 1975              		.cfi_def_cfa_offset 8
 1976              		.cfi_offset 7, -8
 1977              		.cfi_offset 14, -4
 1978 0002 00AF     		add	r7, sp, #0
 1979              		.cfi_def_cfa_register 7
1576:.\Generated_Source\PSoC4/CyLib.c ****     CY_SYS_SYST_CSR_REG |= CY_SYS_SYST_CSR_ENABLE_INT;
 1980              		.loc 1 1576 0
 1981 0004 034B     		ldr	r3, .L122
 1982 0006 034A     		ldr	r2, .L122
 1983 0008 1268     		ldr	r2, [r2]
 1984 000a 0221     		mov	r1, #2
 1985 000c 0A43     		orr	r2, r1
 1986 000e 1A60     		str	r2, [r3]
1577:.\Generated_Source\PSoC4/CyLib.c **** }
 1987              		.loc 1 1577 0
 1988 0010 BD46     		mov	sp, r7
 1989              		@ sp needed
 1990 0012 80BD     		pop	{r7, pc}
 1991              	.L123:
 1992              		.align	2
 1993              	.L122:
 1994 0014 10E000E0 		.word	-536813552
 1995              		.cfi_endproc
 1996              	.LFE32:
 1997              		.size	CySysTickEnableInterrupt, .-CySysTickEnableInterrupt
 1998              		.section	.text.CySysTickDisableInterrupt,"ax",%progbits
 1999              		.align	2
 2000              		.global	CySysTickDisableInterrupt
 2001              		.code	16
ARM GAS  C:\Users\PANXIA~1\AppData\Local\Temp\ccat6fhZ.s 			page 64


 2002              		.thumb_func
 2003              		.type	CySysTickDisableInterrupt, %function
 2004              	CySysTickDisableInterrupt:
 2005              	.LFB33:
1578:.\Generated_Source\PSoC4/CyLib.c **** 
1579:.\Generated_Source\PSoC4/CyLib.c **** 
1580:.\Generated_Source\PSoC4/CyLib.c **** /*******************************************************************************
1581:.\Generated_Source\PSoC4/CyLib.c **** * Function Name: CySysTickDisableInterrupt
1582:.\Generated_Source\PSoC4/CyLib.c **** ********************************************************************************
1583:.\Generated_Source\PSoC4/CyLib.c **** *
1584:.\Generated_Source\PSoC4/CyLib.c **** * Summary:
1585:.\Generated_Source\PSoC4/CyLib.c **** *  Disables the SysTick interrupt.
1586:.\Generated_Source\PSoC4/CyLib.c **** *
1587:.\Generated_Source\PSoC4/CyLib.c **** * Parameters:
1588:.\Generated_Source\PSoC4/CyLib.c **** *  None
1589:.\Generated_Source\PSoC4/CyLib.c **** *
1590:.\Generated_Source\PSoC4/CyLib.c **** * Return:
1591:.\Generated_Source\PSoC4/CyLib.c **** *  None
1592:.\Generated_Source\PSoC4/CyLib.c **** *
1593:.\Generated_Source\PSoC4/CyLib.c **** * Side Effects:
1594:.\Generated_Source\PSoC4/CyLib.c **** *  Clears SysTick count flag if it was set
1595:.\Generated_Source\PSoC4/CyLib.c **** *
1596:.\Generated_Source\PSoC4/CyLib.c **** *******************************************************************************/
1597:.\Generated_Source\PSoC4/CyLib.c **** void CySysTickDisableInterrupt(void)
1598:.\Generated_Source\PSoC4/CyLib.c **** {
 2006              		.loc 1 1598 0
 2007              		.cfi_startproc
 2008 0000 80B5     		push	{r7, lr}
 2009              		.cfi_def_cfa_offset 8
 2010              		.cfi_offset 7, -8
 2011              		.cfi_offset 14, -4
 2012 0002 00AF     		add	r7, sp, #0
 2013              		.cfi_def_cfa_register 7
1599:.\Generated_Source\PSoC4/CyLib.c ****     CY_SYS_SYST_CSR_REG &= ((uint32) ~(CY_SYS_SYST_CSR_ENABLE_INT));
 2014              		.loc 1 1599 0
 2015 0004 034B     		ldr	r3, .L125
 2016 0006 034A     		ldr	r2, .L125
 2017 0008 1268     		ldr	r2, [r2]
 2018 000a 0221     		mov	r1, #2
 2019 000c 8A43     		bic	r2, r1
 2020 000e 1A60     		str	r2, [r3]
1600:.\Generated_Source\PSoC4/CyLib.c **** }
 2021              		.loc 1 1600 0
 2022 0010 BD46     		mov	sp, r7
 2023              		@ sp needed
 2024 0012 80BD     		pop	{r7, pc}
 2025              	.L126:
 2026              		.align	2
 2027              	.L125:
 2028 0014 10E000E0 		.word	-536813552
 2029              		.cfi_endproc
 2030              	.LFE33:
 2031              		.size	CySysTickDisableInterrupt, .-CySysTickDisableInterrupt
 2032              		.section	.text.CySysTickSetReload,"ax",%progbits
 2033              		.align	2
 2034              		.global	CySysTickSetReload
 2035              		.code	16
ARM GAS  C:\Users\PANXIA~1\AppData\Local\Temp\ccat6fhZ.s 			page 65


 2036              		.thumb_func
 2037              		.type	CySysTickSetReload, %function
 2038              	CySysTickSetReload:
 2039              	.LFB34:
1601:.\Generated_Source\PSoC4/CyLib.c **** 
1602:.\Generated_Source\PSoC4/CyLib.c **** 
1603:.\Generated_Source\PSoC4/CyLib.c **** /*******************************************************************************
1604:.\Generated_Source\PSoC4/CyLib.c **** * Function Name: CySysTickSetReload
1605:.\Generated_Source\PSoC4/CyLib.c **** ********************************************************************************
1606:.\Generated_Source\PSoC4/CyLib.c **** *
1607:.\Generated_Source\PSoC4/CyLib.c **** * Summary:
1608:.\Generated_Source\PSoC4/CyLib.c **** *  Sets value the counter is set to on startup and after it reaches zero. This
1609:.\Generated_Source\PSoC4/CyLib.c **** *  function do not change or reset current sysTick counter value, so it should
1610:.\Generated_Source\PSoC4/CyLib.c **** *  be cleared using CySysTickClear() API.
1611:.\Generated_Source\PSoC4/CyLib.c **** *
1612:.\Generated_Source\PSoC4/CyLib.c **** * Parameters:
1613:.\Generated_Source\PSoC4/CyLib.c **** *  value: Valid range [0x0-0x00FFFFFF]. Counter reset value
1614:.\Generated_Source\PSoC4/CyLib.c **** *
1615:.\Generated_Source\PSoC4/CyLib.c **** * Return:
1616:.\Generated_Source\PSoC4/CyLib.c **** *  None
1617:.\Generated_Source\PSoC4/CyLib.c **** *
1618:.\Generated_Source\PSoC4/CyLib.c **** *******************************************************************************/
1619:.\Generated_Source\PSoC4/CyLib.c **** void CySysTickSetReload(uint32 value)
1620:.\Generated_Source\PSoC4/CyLib.c **** {
 2040              		.loc 1 1620 0
 2041              		.cfi_startproc
 2042 0000 80B5     		push	{r7, lr}
 2043              		.cfi_def_cfa_offset 8
 2044              		.cfi_offset 7, -8
 2045              		.cfi_offset 14, -4
 2046 0002 82B0     		sub	sp, sp, #8
 2047              		.cfi_def_cfa_offset 16
 2048 0004 00AF     		add	r7, sp, #0
 2049              		.cfi_def_cfa_register 7
 2050 0006 7860     		str	r0, [r7, #4]
1621:.\Generated_Source\PSoC4/CyLib.c ****     CY_SYS_SYST_RVR_REG = (value & CY_SYS_SYST_RVR_CNT_MASK);
 2051              		.loc 1 1621 0
 2052 0008 034B     		ldr	r3, .L128
 2053 000a 7A68     		ldr	r2, [r7, #4]
 2054 000c 1202     		lsl	r2, r2, #8
 2055 000e 120A     		lsr	r2, r2, #8
 2056 0010 1A60     		str	r2, [r3]
1622:.\Generated_Source\PSoC4/CyLib.c **** }
 2057              		.loc 1 1622 0
 2058 0012 BD46     		mov	sp, r7
 2059 0014 02B0     		add	sp, sp, #8
 2060              		@ sp needed
 2061 0016 80BD     		pop	{r7, pc}
 2062              	.L129:
 2063              		.align	2
 2064              	.L128:
 2065 0018 14E000E0 		.word	-536813548
 2066              		.cfi_endproc
 2067              	.LFE34:
 2068              		.size	CySysTickSetReload, .-CySysTickSetReload
 2069              		.section	.text.CySysTickGetReload,"ax",%progbits
 2070              		.align	2
ARM GAS  C:\Users\PANXIA~1\AppData\Local\Temp\ccat6fhZ.s 			page 66


 2071              		.global	CySysTickGetReload
 2072              		.code	16
 2073              		.thumb_func
 2074              		.type	CySysTickGetReload, %function
 2075              	CySysTickGetReload:
 2076              	.LFB35:
1623:.\Generated_Source\PSoC4/CyLib.c **** 
1624:.\Generated_Source\PSoC4/CyLib.c **** 
1625:.\Generated_Source\PSoC4/CyLib.c **** /*******************************************************************************
1626:.\Generated_Source\PSoC4/CyLib.c **** * Function Name: CySysTickGetReload
1627:.\Generated_Source\PSoC4/CyLib.c **** ********************************************************************************
1628:.\Generated_Source\PSoC4/CyLib.c **** *
1629:.\Generated_Source\PSoC4/CyLib.c **** * Summary:
1630:.\Generated_Source\PSoC4/CyLib.c **** *  Sets value the counter is set to on startup and after it reaches zero.
1631:.\Generated_Source\PSoC4/CyLib.c **** *
1632:.\Generated_Source\PSoC4/CyLib.c **** * Parameters:
1633:.\Generated_Source\PSoC4/CyLib.c **** *  None
1634:.\Generated_Source\PSoC4/CyLib.c **** *
1635:.\Generated_Source\PSoC4/CyLib.c **** * Return:
1636:.\Generated_Source\PSoC4/CyLib.c **** *  Counter reset value.
1637:.\Generated_Source\PSoC4/CyLib.c **** *
1638:.\Generated_Source\PSoC4/CyLib.c **** *******************************************************************************/
1639:.\Generated_Source\PSoC4/CyLib.c **** uint32 CySysTickGetReload(void)
1640:.\Generated_Source\PSoC4/CyLib.c **** {
 2077              		.loc 1 1640 0
 2078              		.cfi_startproc
 2079 0000 80B5     		push	{r7, lr}
 2080              		.cfi_def_cfa_offset 8
 2081              		.cfi_offset 7, -8
 2082              		.cfi_offset 14, -4
 2083 0002 00AF     		add	r7, sp, #0
 2084              		.cfi_def_cfa_register 7
1641:.\Generated_Source\PSoC4/CyLib.c ****     return(CY_SYS_SYST_RVR_REG & CY_SYS_SYST_RVR_CNT_MASK);
 2085              		.loc 1 1641 0
 2086 0004 034B     		ldr	r3, .L132
 2087 0006 1B68     		ldr	r3, [r3]
 2088 0008 1B02     		lsl	r3, r3, #8
 2089 000a 1B0A     		lsr	r3, r3, #8
1642:.\Generated_Source\PSoC4/CyLib.c **** }
 2090              		.loc 1 1642 0
 2091 000c 181C     		mov	r0, r3
 2092 000e BD46     		mov	sp, r7
 2093              		@ sp needed
 2094 0010 80BD     		pop	{r7, pc}
 2095              	.L133:
 2096 0012 C046     		.align	2
 2097              	.L132:
 2098 0014 14E000E0 		.word	-536813548
 2099              		.cfi_endproc
 2100              	.LFE35:
 2101              		.size	CySysTickGetReload, .-CySysTickGetReload
 2102              		.section	.text.CySysTickGetValue,"ax",%progbits
 2103              		.align	2
 2104              		.global	CySysTickGetValue
 2105              		.code	16
 2106              		.thumb_func
 2107              		.type	CySysTickGetValue, %function
ARM GAS  C:\Users\PANXIA~1\AppData\Local\Temp\ccat6fhZ.s 			page 67


 2108              	CySysTickGetValue:
 2109              	.LFB36:
1643:.\Generated_Source\PSoC4/CyLib.c **** 
1644:.\Generated_Source\PSoC4/CyLib.c **** 
1645:.\Generated_Source\PSoC4/CyLib.c **** /*******************************************************************************
1646:.\Generated_Source\PSoC4/CyLib.c **** * Function Name: CySysTickGetValue
1647:.\Generated_Source\PSoC4/CyLib.c **** ********************************************************************************
1648:.\Generated_Source\PSoC4/CyLib.c **** *
1649:.\Generated_Source\PSoC4/CyLib.c **** * Summary:
1650:.\Generated_Source\PSoC4/CyLib.c **** *  Gets current SysTick counter value.
1651:.\Generated_Source\PSoC4/CyLib.c **** *
1652:.\Generated_Source\PSoC4/CyLib.c **** * Parameters:
1653:.\Generated_Source\PSoC4/CyLib.c **** *  None
1654:.\Generated_Source\PSoC4/CyLib.c **** *
1655:.\Generated_Source\PSoC4/CyLib.c **** * Return:
1656:.\Generated_Source\PSoC4/CyLib.c **** *  Current SysTick counter value
1657:.\Generated_Source\PSoC4/CyLib.c **** *
1658:.\Generated_Source\PSoC4/CyLib.c **** *******************************************************************************/
1659:.\Generated_Source\PSoC4/CyLib.c **** uint32 CySysTickGetValue(void)
1660:.\Generated_Source\PSoC4/CyLib.c **** {
 2110              		.loc 1 1660 0
 2111              		.cfi_startproc
 2112 0000 80B5     		push	{r7, lr}
 2113              		.cfi_def_cfa_offset 8
 2114              		.cfi_offset 7, -8
 2115              		.cfi_offset 14, -4
 2116 0002 00AF     		add	r7, sp, #0
 2117              		.cfi_def_cfa_register 7
1661:.\Generated_Source\PSoC4/CyLib.c ****     return(CY_SYS_SYST_CVR_REG & CY_SYS_SYST_CVR_CNT_MASK);
 2118              		.loc 1 1661 0
 2119 0004 034B     		ldr	r3, .L136
 2120 0006 1B68     		ldr	r3, [r3]
 2121 0008 1B02     		lsl	r3, r3, #8
 2122 000a 1B0A     		lsr	r3, r3, #8
1662:.\Generated_Source\PSoC4/CyLib.c **** }
 2123              		.loc 1 1662 0
 2124 000c 181C     		mov	r0, r3
 2125 000e BD46     		mov	sp, r7
 2126              		@ sp needed
 2127 0010 80BD     		pop	{r7, pc}
 2128              	.L137:
 2129 0012 C046     		.align	2
 2130              	.L136:
 2131 0014 18E000E0 		.word	-536813544
 2132              		.cfi_endproc
 2133              	.LFE36:
 2134              		.size	CySysTickGetValue, .-CySysTickGetValue
 2135              		.section	.text.CySysTickGetCountFlag,"ax",%progbits
 2136              		.align	2
 2137              		.global	CySysTickGetCountFlag
 2138              		.code	16
 2139              		.thumb_func
 2140              		.type	CySysTickGetCountFlag, %function
 2141              	CySysTickGetCountFlag:
 2142              	.LFB37:
1663:.\Generated_Source\PSoC4/CyLib.c **** 
1664:.\Generated_Source\PSoC4/CyLib.c **** 
ARM GAS  C:\Users\PANXIA~1\AppData\Local\Temp\ccat6fhZ.s 			page 68


1665:.\Generated_Source\PSoC4/CyLib.c **** #if(!CY_PSOC3 && !CY_PSOC4_4000 && !CY_PSOC4_4100 && !CY_PSOC4_4200)
1666:.\Generated_Source\PSoC4/CyLib.c ****     /*******************************************************************************
1667:.\Generated_Source\PSoC4/CyLib.c ****     * Function Name: CySysTickSetClockSource
1668:.\Generated_Source\PSoC4/CyLib.c ****     ********************************************************************************
1669:.\Generated_Source\PSoC4/CyLib.c ****     *
1670:.\Generated_Source\PSoC4/CyLib.c ****     * Summary:
1671:.\Generated_Source\PSoC4/CyLib.c ****     *  Sets the clock source for the SysTick counter.
1672:.\Generated_Source\PSoC4/CyLib.c ****     *
1673:.\Generated_Source\PSoC4/CyLib.c ****     * Parameters:
1674:.\Generated_Source\PSoC4/CyLib.c ****     *  clockSource: Clock source for SysTick counter
1675:.\Generated_Source\PSoC4/CyLib.c ****     *         Define                     Clock Source
1676:.\Generated_Source\PSoC4/CyLib.c ****     *   CY_SYS_SYST_CSR_CLK_SRC_SYSCLK     SysTick is clocked by CPU clock.
1677:.\Generated_Source\PSoC4/CyLib.c ****     *   CY_SYS_SYST_CSR_CLK_SRC_LFCLK      SysTick is clocked by the low frequency
1678:.\Generated_Source\PSoC4/CyLib.c ****     *                                      clock. (ILO 100 KHz for PSoC 5LP, and
1679:.\Generated_Source\PSoC4/CyLib.c ****     *                                      LFCLK for PSoC 4).
1680:.\Generated_Source\PSoC4/CyLib.c ****     *
1681:.\Generated_Source\PSoC4/CyLib.c ****     * Return:
1682:.\Generated_Source\PSoC4/CyLib.c ****     *  None
1683:.\Generated_Source\PSoC4/CyLib.c ****     *
1684:.\Generated_Source\PSoC4/CyLib.c ****     * Side Effects:
1685:.\Generated_Source\PSoC4/CyLib.c ****     *  Clears SysTick count flag if it was set. If clock source is not ready this
1686:.\Generated_Source\PSoC4/CyLib.c ****     *  function call will have no effect. After changing clock source to the low
1687:.\Generated_Source\PSoC4/CyLib.c ****     *  frequency clock the counter and reload register values will remain unchanged
1688:.\Generated_Source\PSoC4/CyLib.c ****     *  so time to the interrupt will be significantly bigger and vice versa.
1689:.\Generated_Source\PSoC4/CyLib.c ****     *
1690:.\Generated_Source\PSoC4/CyLib.c ****     *******************************************************************************/
1691:.\Generated_Source\PSoC4/CyLib.c ****     void CySysTickSetClockSource(uint32 clockSource)
1692:.\Generated_Source\PSoC4/CyLib.c ****     {
1693:.\Generated_Source\PSoC4/CyLib.c ****         if (clockSource == CY_SYS_SYST_CSR_CLK_SRC_SYSCLK)
1694:.\Generated_Source\PSoC4/CyLib.c ****         {
1695:.\Generated_Source\PSoC4/CyLib.c ****             CY_SYS_SYST_CSR_REG |= (uint32)(CY_SYS_SYST_CSR_CLK_SRC_SYSCLK << CY_SYS_SYST_CSR_CLK_S
1696:.\Generated_Source\PSoC4/CyLib.c ****         }
1697:.\Generated_Source\PSoC4/CyLib.c ****         else
1698:.\Generated_Source\PSoC4/CyLib.c ****         {
1699:.\Generated_Source\PSoC4/CyLib.c ****             CY_SYS_SYST_CSR_REG &= ((uint32) ~((uint32)(CY_SYS_SYST_CSR_CLK_SRC_SYSCLK << CY_SYS_SY
1700:.\Generated_Source\PSoC4/CyLib.c ****         }
1701:.\Generated_Source\PSoC4/CyLib.c ****     }
1702:.\Generated_Source\PSoC4/CyLib.c **** #endif /* (!CY_PSOC3 && !CY_PSOC4_4000 && !CY_PSOC4_4100 && !CY_PSOC4_4200) */
1703:.\Generated_Source\PSoC4/CyLib.c **** 
1704:.\Generated_Source\PSoC4/CyLib.c **** 
1705:.\Generated_Source\PSoC4/CyLib.c **** /*******************************************************************************
1706:.\Generated_Source\PSoC4/CyLib.c **** * Function Name: CySysTickGetCountFlag
1707:.\Generated_Source\PSoC4/CyLib.c **** ********************************************************************************
1708:.\Generated_Source\PSoC4/CyLib.c **** *
1709:.\Generated_Source\PSoC4/CyLib.c **** * Summary:
1710:.\Generated_Source\PSoC4/CyLib.c **** *  The count flag is set once SysTick counter reaches zero.
1711:.\Generated_Source\PSoC4/CyLib.c **** *   The flag cleared on read.
1712:.\Generated_Source\PSoC4/CyLib.c **** *
1713:.\Generated_Source\PSoC4/CyLib.c **** * Parameters:
1714:.\Generated_Source\PSoC4/CyLib.c **** *  None
1715:.\Generated_Source\PSoC4/CyLib.c **** *
1716:.\Generated_Source\PSoC4/CyLib.c **** * Return:
1717:.\Generated_Source\PSoC4/CyLib.c ****     *  Returns non-zero value if flag is set, otherwise zero is returned.
1718:.\Generated_Source\PSoC4/CyLib.c **** *
1719:.\Generated_Source\PSoC4/CyLib.c **** *
1720:.\Generated_Source\PSoC4/CyLib.c **** * Side Effects:
1721:.\Generated_Source\PSoC4/CyLib.c **** *  Clears SysTick count flag if it was set.
ARM GAS  C:\Users\PANXIA~1\AppData\Local\Temp\ccat6fhZ.s 			page 69


1722:.\Generated_Source\PSoC4/CyLib.c **** *
1723:.\Generated_Source\PSoC4/CyLib.c **** *******************************************************************************/
1724:.\Generated_Source\PSoC4/CyLib.c **** uint32 CySysTickGetCountFlag(void)
1725:.\Generated_Source\PSoC4/CyLib.c **** {
 2143              		.loc 1 1725 0
 2144              		.cfi_startproc
 2145 0000 80B5     		push	{r7, lr}
 2146              		.cfi_def_cfa_offset 8
 2147              		.cfi_offset 7, -8
 2148              		.cfi_offset 14, -4
 2149 0002 00AF     		add	r7, sp, #0
 2150              		.cfi_def_cfa_register 7
1726:.\Generated_Source\PSoC4/CyLib.c ****     return ((CY_SYS_SYST_CSR_REG>>CY_SYS_SYST_CSR_COUNTFLAG_SHIFT) & 0x01u);
 2151              		.loc 1 1726 0
 2152 0004 034B     		ldr	r3, .L140
 2153 0006 1B68     		ldr	r3, [r3]
 2154 0008 1B0C     		lsr	r3, r3, #16
 2155 000a 0122     		mov	r2, #1
 2156 000c 1340     		and	r3, r2
1727:.\Generated_Source\PSoC4/CyLib.c **** }
 2157              		.loc 1 1727 0
 2158 000e 181C     		mov	r0, r3
 2159 0010 BD46     		mov	sp, r7
 2160              		@ sp needed
 2161 0012 80BD     		pop	{r7, pc}
 2162              	.L141:
 2163              		.align	2
 2164              	.L140:
 2165 0014 10E000E0 		.word	-536813552
 2166              		.cfi_endproc
 2167              	.LFE37:
 2168              		.size	CySysTickGetCountFlag, .-CySysTickGetCountFlag
 2169              		.section	.text.CySysTickClear,"ax",%progbits
 2170              		.align	2
 2171              		.global	CySysTickClear
 2172              		.code	16
 2173              		.thumb_func
 2174              		.type	CySysTickClear, %function
 2175              	CySysTickClear:
 2176              	.LFB38:
1728:.\Generated_Source\PSoC4/CyLib.c **** 
1729:.\Generated_Source\PSoC4/CyLib.c **** 
1730:.\Generated_Source\PSoC4/CyLib.c **** /*******************************************************************************
1731:.\Generated_Source\PSoC4/CyLib.c **** * Function Name: CySysTickClear
1732:.\Generated_Source\PSoC4/CyLib.c **** ********************************************************************************
1733:.\Generated_Source\PSoC4/CyLib.c **** *
1734:.\Generated_Source\PSoC4/CyLib.c **** * Summary:
1735:.\Generated_Source\PSoC4/CyLib.c **** *  Clears the SysTick counter for well-defined startup.
1736:.\Generated_Source\PSoC4/CyLib.c **** *
1737:.\Generated_Source\PSoC4/CyLib.c **** * Parameters:
1738:.\Generated_Source\PSoC4/CyLib.c **** *  None
1739:.\Generated_Source\PSoC4/CyLib.c **** *
1740:.\Generated_Source\PSoC4/CyLib.c **** * Return:
1741:.\Generated_Source\PSoC4/CyLib.c **** *  None
1742:.\Generated_Source\PSoC4/CyLib.c **** *
1743:.\Generated_Source\PSoC4/CyLib.c **** *******************************************************************************/
1744:.\Generated_Source\PSoC4/CyLib.c **** void CySysTickClear(void)
ARM GAS  C:\Users\PANXIA~1\AppData\Local\Temp\ccat6fhZ.s 			page 70


1745:.\Generated_Source\PSoC4/CyLib.c **** {
 2177              		.loc 1 1745 0
 2178              		.cfi_startproc
 2179 0000 80B5     		push	{r7, lr}
 2180              		.cfi_def_cfa_offset 8
 2181              		.cfi_offset 7, -8
 2182              		.cfi_offset 14, -4
 2183 0002 00AF     		add	r7, sp, #0
 2184              		.cfi_def_cfa_register 7
1746:.\Generated_Source\PSoC4/CyLib.c ****     CY_SYS_SYST_CVR_REG = 0u;
 2185              		.loc 1 1746 0
 2186 0004 024B     		ldr	r3, .L143
 2187 0006 0022     		mov	r2, #0
 2188 0008 1A60     		str	r2, [r3]
1747:.\Generated_Source\PSoC4/CyLib.c **** }
 2189              		.loc 1 1747 0
 2190 000a BD46     		mov	sp, r7
 2191              		@ sp needed
 2192 000c 80BD     		pop	{r7, pc}
 2193              	.L144:
 2194 000e C046     		.align	2
 2195              	.L143:
 2196 0010 18E000E0 		.word	-536813544
 2197              		.cfi_endproc
 2198              	.LFE38:
 2199              		.size	CySysTickClear, .-CySysTickClear
 2200              		.section	.text.CySysTickSetCallback,"ax",%progbits
 2201              		.align	2
 2202              		.global	CySysTickSetCallback
 2203              		.code	16
 2204              		.thumb_func
 2205              		.type	CySysTickSetCallback, %function
 2206              	CySysTickSetCallback:
 2207              	.LFB39:
1748:.\Generated_Source\PSoC4/CyLib.c **** 
1749:.\Generated_Source\PSoC4/CyLib.c **** 
1750:.\Generated_Source\PSoC4/CyLib.c **** /*******************************************************************************
1751:.\Generated_Source\PSoC4/CyLib.c **** * Function Name: CySysTickSetCallback
1752:.\Generated_Source\PSoC4/CyLib.c **** ********************************************************************************
1753:.\Generated_Source\PSoC4/CyLib.c **** *
1754:.\Generated_Source\PSoC4/CyLib.c **** * Summary:
1755:.\Generated_Source\PSoC4/CyLib.c **** *  This function allows up to five user-defined interrupt service routine
1756:.\Generated_Source\PSoC4/CyLib.c **** *  functions to be associated with the SysTick interrupt. These are specified
1757:.\Generated_Source\PSoC4/CyLib.c **** *  through the use of pointers to the function.
1758:.\Generated_Source\PSoC4/CyLib.c **** *
1759:.\Generated_Source\PSoC4/CyLib.c **** *  To set a custom callback function without the overhead of the system provided
1760:.\Generated_Source\PSoC4/CyLib.c **** *  one, use CyIntSetSysVector(CY_INT_SYSTICK_IRQN, cyisraddress <address>),
1761:.\Generated_Source\PSoC4/CyLib.c **** *  where <address> is address of the custom defined interrupt service routine.
1762:.\Generated_Source\PSoC4/CyLib.c **** *  Note: a custom callback function overrides the system defined callback
1763:.\Generated_Source\PSoC4/CyLib.c **** *  functions.
1764:.\Generated_Source\PSoC4/CyLib.c **** *
1765:.\Generated_Source\PSoC4/CyLib.c **** * Parameters:
1766:.\Generated_Source\PSoC4/CyLib.c **** *  number: The number of the callback function addresses to be set. The valid
1767:.\Generated_Source\PSoC4/CyLib.c **** *          range is from 0 to 4.
1768:.\Generated_Source\PSoC4/CyLib.c **** *
1769:.\Generated_Source\PSoC4/CyLib.c **** *  void(*CallbackFunction(void): A pointer to the function that will be
1770:.\Generated_Source\PSoC4/CyLib.c **** *                                associated with the SysTick ISR for the
ARM GAS  C:\Users\PANXIA~1\AppData\Local\Temp\ccat6fhZ.s 			page 71


1771:.\Generated_Source\PSoC4/CyLib.c **** *                                specified number.
1772:.\Generated_Source\PSoC4/CyLib.c **** *
1773:.\Generated_Source\PSoC4/CyLib.c **** * Return:
1774:.\Generated_Source\PSoC4/CyLib.c **** *  Returns the address of the previous callback function.
1775:.\Generated_Source\PSoC4/CyLib.c **** *  The NULL is returned if the specified address in not set.
1776:.\Generated_Source\PSoC4/CyLib.c **** *
1777:.\Generated_Source\PSoC4/CyLib.c **** * Side Effects:
1778:.\Generated_Source\PSoC4/CyLib.c **** *  The registered callback functions will be executed in the interrupt.
1779:.\Generated_Source\PSoC4/CyLib.c **** *
1780:.\Generated_Source\PSoC4/CyLib.c **** *******************************************************************************/
1781:.\Generated_Source\PSoC4/CyLib.c **** cySysTickCallback CySysTickSetCallback(uint32 number, cySysTickCallback function)
1782:.\Generated_Source\PSoC4/CyLib.c **** {
 2208              		.loc 1 1782 0
 2209              		.cfi_startproc
 2210 0000 80B5     		push	{r7, lr}
 2211              		.cfi_def_cfa_offset 8
 2212              		.cfi_offset 7, -8
 2213              		.cfi_offset 14, -4
 2214 0002 84B0     		sub	sp, sp, #16
 2215              		.cfi_def_cfa_offset 24
 2216 0004 00AF     		add	r7, sp, #0
 2217              		.cfi_def_cfa_register 7
 2218 0006 7860     		str	r0, [r7, #4]
 2219 0008 3960     		str	r1, [r7]
1783:.\Generated_Source\PSoC4/CyLib.c ****     cySysTickCallback retVal;
1784:.\Generated_Source\PSoC4/CyLib.c **** 
1785:.\Generated_Source\PSoC4/CyLib.c ****     retVal = CySysTickCallbacks[number];
 2220              		.loc 1 1785 0
 2221 000a 074B     		ldr	r3, .L147
 2222 000c 7A68     		ldr	r2, [r7, #4]
 2223 000e 9200     		lsl	r2, r2, #2
 2224 0010 D358     		ldr	r3, [r2, r3]
 2225 0012 FB60     		str	r3, [r7, #12]
1786:.\Generated_Source\PSoC4/CyLib.c ****     CySysTickCallbacks[number] = function;
 2226              		.loc 1 1786 0
 2227 0014 044B     		ldr	r3, .L147
 2228 0016 7A68     		ldr	r2, [r7, #4]
 2229 0018 9200     		lsl	r2, r2, #2
 2230 001a 3968     		ldr	r1, [r7]
 2231 001c D150     		str	r1, [r2, r3]
1787:.\Generated_Source\PSoC4/CyLib.c ****     return (retVal);
 2232              		.loc 1 1787 0
 2233 001e FB68     		ldr	r3, [r7, #12]
1788:.\Generated_Source\PSoC4/CyLib.c **** }
 2234              		.loc 1 1788 0
 2235 0020 181C     		mov	r0, r3
 2236 0022 BD46     		mov	sp, r7
 2237 0024 04B0     		add	sp, sp, #16
 2238              		@ sp needed
 2239 0026 80BD     		pop	{r7, pc}
 2240              	.L148:
 2241              		.align	2
 2242              	.L147:
 2243 0028 00000000 		.word	CySysTickCallbacks
 2244              		.cfi_endproc
 2245              	.LFE39:
 2246              		.size	CySysTickSetCallback, .-CySysTickSetCallback
ARM GAS  C:\Users\PANXIA~1\AppData\Local\Temp\ccat6fhZ.s 			page 72


 2247              		.section	.text.CySysTickGetCallback,"ax",%progbits
 2248              		.align	2
 2249              		.global	CySysTickGetCallback
 2250              		.code	16
 2251              		.thumb_func
 2252              		.type	CySysTickGetCallback, %function
 2253              	CySysTickGetCallback:
 2254              	.LFB40:
1789:.\Generated_Source\PSoC4/CyLib.c **** 
1790:.\Generated_Source\PSoC4/CyLib.c **** 
1791:.\Generated_Source\PSoC4/CyLib.c **** /*******************************************************************************
1792:.\Generated_Source\PSoC4/CyLib.c **** * Function Name: CySysTickGetCallback
1793:.\Generated_Source\PSoC4/CyLib.c **** ********************************************************************************
1794:.\Generated_Source\PSoC4/CyLib.c **** *
1795:.\Generated_Source\PSoC4/CyLib.c **** * Summary:
1796:.\Generated_Source\PSoC4/CyLib.c **** *  The function get the specified callback pointer.
1797:.\Generated_Source\PSoC4/CyLib.c **** *
1798:.\Generated_Source\PSoC4/CyLib.c **** * Parameters:
1799:.\Generated_Source\PSoC4/CyLib.c **** *  number: The number of callback function address to get. The valid
1800:.\Generated_Source\PSoC4/CyLib.c **** *          range is from 0 to 4.
1801:.\Generated_Source\PSoC4/CyLib.c **** *
1802:.\Generated_Source\PSoC4/CyLib.c **** * Return:
1803:.\Generated_Source\PSoC4/CyLib.c **** *  Returns the address of the specified callback function.
1804:.\Generated_Source\PSoC4/CyLib.c **** *  The NULL is returned if the specified address in not initialized.
1805:.\Generated_Source\PSoC4/CyLib.c **** *
1806:.\Generated_Source\PSoC4/CyLib.c **** *******************************************************************************/
1807:.\Generated_Source\PSoC4/CyLib.c **** cySysTickCallback CySysTickGetCallback(uint32 number)
1808:.\Generated_Source\PSoC4/CyLib.c **** {
 2255              		.loc 1 1808 0
 2256              		.cfi_startproc
 2257 0000 80B5     		push	{r7, lr}
 2258              		.cfi_def_cfa_offset 8
 2259              		.cfi_offset 7, -8
 2260              		.cfi_offset 14, -4
 2261 0002 82B0     		sub	sp, sp, #8
 2262              		.cfi_def_cfa_offset 16
 2263 0004 00AF     		add	r7, sp, #0
 2264              		.cfi_def_cfa_register 7
 2265 0006 7860     		str	r0, [r7, #4]
1809:.\Generated_Source\PSoC4/CyLib.c ****     return ((cySysTickCallback) CySysTickCallbacks[number]);
 2266              		.loc 1 1809 0
 2267 0008 034B     		ldr	r3, .L151
 2268 000a 7A68     		ldr	r2, [r7, #4]
 2269 000c 9200     		lsl	r2, r2, #2
 2270 000e D358     		ldr	r3, [r2, r3]
1810:.\Generated_Source\PSoC4/CyLib.c **** }
 2271              		.loc 1 1810 0
 2272 0010 181C     		mov	r0, r3
 2273 0012 BD46     		mov	sp, r7
 2274 0014 02B0     		add	sp, sp, #8
 2275              		@ sp needed
 2276 0016 80BD     		pop	{r7, pc}
 2277              	.L152:
 2278              		.align	2
 2279              	.L151:
 2280 0018 00000000 		.word	CySysTickCallbacks
 2281              		.cfi_endproc
ARM GAS  C:\Users\PANXIA~1\AppData\Local\Temp\ccat6fhZ.s 			page 73


 2282              	.LFE40:
 2283              		.size	CySysTickGetCallback, .-CySysTickGetCallback
 2284              		.section	.text.CySysTickServiceCallbacks,"ax",%progbits
 2285              		.align	2
 2286              		.code	16
 2287              		.thumb_func
 2288              		.type	CySysTickServiceCallbacks, %function
 2289              	CySysTickServiceCallbacks:
 2290              	.LFB41:
1811:.\Generated_Source\PSoC4/CyLib.c **** 
1812:.\Generated_Source\PSoC4/CyLib.c **** 
1813:.\Generated_Source\PSoC4/CyLib.c **** /*******************************************************************************
1814:.\Generated_Source\PSoC4/CyLib.c **** * Function Name: CySysTickServiceCallbacks
1815:.\Generated_Source\PSoC4/CyLib.c **** ********************************************************************************
1816:.\Generated_Source\PSoC4/CyLib.c **** *
1817:.\Generated_Source\PSoC4/CyLib.c **** * Summary:
1818:.\Generated_Source\PSoC4/CyLib.c **** *  System Tick timer interrupt routine
1819:.\Generated_Source\PSoC4/CyLib.c **** *
1820:.\Generated_Source\PSoC4/CyLib.c **** * Parameters:
1821:.\Generated_Source\PSoC4/CyLib.c **** *  None
1822:.\Generated_Source\PSoC4/CyLib.c **** *
1823:.\Generated_Source\PSoC4/CyLib.c **** * Return:
1824:.\Generated_Source\PSoC4/CyLib.c **** *  None
1825:.\Generated_Source\PSoC4/CyLib.c **** *
1826:.\Generated_Source\PSoC4/CyLib.c **** *******************************************************************************/
1827:.\Generated_Source\PSoC4/CyLib.c **** static void CySysTickServiceCallbacks(void)
1828:.\Generated_Source\PSoC4/CyLib.c **** {
 2291              		.loc 1 1828 0
 2292              		.cfi_startproc
 2293 0000 80B5     		push	{r7, lr}
 2294              		.cfi_def_cfa_offset 8
 2295              		.cfi_offset 7, -8
 2296              		.cfi_offset 14, -4
 2297 0002 82B0     		sub	sp, sp, #8
 2298              		.cfi_def_cfa_offset 16
 2299 0004 00AF     		add	r7, sp, #0
 2300              		.cfi_def_cfa_register 7
1829:.\Generated_Source\PSoC4/CyLib.c ****     uint32 i;
1830:.\Generated_Source\PSoC4/CyLib.c **** 
1831:.\Generated_Source\PSoC4/CyLib.c ****     /* Verify that tick timer flag was set */
1832:.\Generated_Source\PSoC4/CyLib.c ****     if (1u == CySysTickGetCountFlag())
 2301              		.loc 1 1832 0
 2302 0006 FFF7FEFF 		bl	CySysTickGetCountFlag
 2303 000a 031E     		sub	r3, r0, #0
 2304 000c 012B     		cmp	r3, #1
 2305 000e 13D1     		bne	.L153
1833:.\Generated_Source\PSoC4/CyLib.c ****     {
1834:.\Generated_Source\PSoC4/CyLib.c ****         for (i=0u; i < CY_SYS_SYST_NUM_OF_CALLBACKS; i++)
 2306              		.loc 1 1834 0
 2307 0010 0023     		mov	r3, #0
 2308 0012 7B60     		str	r3, [r7, #4]
 2309 0014 0DE0     		b	.L155
 2310              	.L157:
1835:.\Generated_Source\PSoC4/CyLib.c ****         {
1836:.\Generated_Source\PSoC4/CyLib.c ****             if (CySysTickCallbacks[i] != (void *) 0)
 2311              		.loc 1 1836 0
 2312 0016 0A4B     		ldr	r3, .L158
ARM GAS  C:\Users\PANXIA~1\AppData\Local\Temp\ccat6fhZ.s 			page 74


 2313 0018 7A68     		ldr	r2, [r7, #4]
 2314 001a 9200     		lsl	r2, r2, #2
 2315 001c D358     		ldr	r3, [r2, r3]
 2316 001e 002B     		cmp	r3, #0
 2317 0020 04D0     		beq	.L156
1837:.\Generated_Source\PSoC4/CyLib.c ****             {
1838:.\Generated_Source\PSoC4/CyLib.c ****                 (void)(CySysTickCallbacks[i])();
 2318              		.loc 1 1838 0
 2319 0022 074B     		ldr	r3, .L158
 2320 0024 7A68     		ldr	r2, [r7, #4]
 2321 0026 9200     		lsl	r2, r2, #2
 2322 0028 D358     		ldr	r3, [r2, r3]
 2323 002a 9847     		blx	r3
 2324              	.L156:
1834:.\Generated_Source\PSoC4/CyLib.c ****         {
 2325              		.loc 1 1834 0 discriminator 2
 2326 002c 7B68     		ldr	r3, [r7, #4]
 2327 002e 0133     		add	r3, r3, #1
 2328 0030 7B60     		str	r3, [r7, #4]
 2329              	.L155:
1834:.\Generated_Source\PSoC4/CyLib.c ****         {
 2330              		.loc 1 1834 0 is_stmt 0 discriminator 1
 2331 0032 7B68     		ldr	r3, [r7, #4]
 2332 0034 042B     		cmp	r3, #4
 2333 0036 EED9     		bls	.L157
 2334              	.L153:
1839:.\Generated_Source\PSoC4/CyLib.c ****             }
1840:.\Generated_Source\PSoC4/CyLib.c ****         }
1841:.\Generated_Source\PSoC4/CyLib.c ****     }
1842:.\Generated_Source\PSoC4/CyLib.c **** }
 2335              		.loc 1 1842 0 is_stmt 1
 2336 0038 BD46     		mov	sp, r7
 2337 003a 02B0     		add	sp, sp, #8
 2338              		@ sp needed
 2339 003c 80BD     		pop	{r7, pc}
 2340              	.L159:
 2341 003e C046     		.align	2
 2342              	.L158:
 2343 0040 00000000 		.word	CySysTickCallbacks
 2344              		.cfi_endproc
 2345              	.LFE41:
 2346              		.size	CySysTickServiceCallbacks, .-CySysTickServiceCallbacks
 2347              		.section	.text.CyGetUniqueId,"ax",%progbits
 2348              		.align	2
 2349              		.global	CyGetUniqueId
 2350              		.code	16
 2351              		.thumb_func
 2352              		.type	CyGetUniqueId, %function
 2353              	CyGetUniqueId:
 2354              	.LFB42:
1843:.\Generated_Source\PSoC4/CyLib.c **** 
1844:.\Generated_Source\PSoC4/CyLib.c **** 
1845:.\Generated_Source\PSoC4/CyLib.c **** /*******************************************************************************
1846:.\Generated_Source\PSoC4/CyLib.c **** * Function Name: CyGetUniqueId
1847:.\Generated_Source\PSoC4/CyLib.c **** ********************************************************************************
1848:.\Generated_Source\PSoC4/CyLib.c **** *
1849:.\Generated_Source\PSoC4/CyLib.c **** * Summary:
ARM GAS  C:\Users\PANXIA~1\AppData\Local\Temp\ccat6fhZ.s 			page 75


1850:.\Generated_Source\PSoC4/CyLib.c **** *  Returns the 64-bit unique ID of the device. The uniqueness of the number is
1851:.\Generated_Source\PSoC4/CyLib.c **** *  guaranteed for 10 years due to the die lot number having a cycle life of 10
1852:.\Generated_Source\PSoC4/CyLib.c **** *  years and even after 10 years, the probability of getting two identical
1853:.\Generated_Source\PSoC4/CyLib.c **** *  numbers is very small.
1854:.\Generated_Source\PSoC4/CyLib.c **** *
1855:.\Generated_Source\PSoC4/CyLib.c **** * Parameters:
1856:.\Generated_Source\PSoC4/CyLib.c **** *  uniqueId: The pointer to a two element 32-bit unsigned integer array. Returns
1857:.\Generated_Source\PSoC4/CyLib.c **** *  the 64-bit unique ID of the device by loading them into the integer array
1858:.\Generated_Source\PSoC4/CyLib.c **** *  pointed to by uniqueId.
1859:.\Generated_Source\PSoC4/CyLib.c **** *
1860:.\Generated_Source\PSoC4/CyLib.c **** * Return:
1861:.\Generated_Source\PSoC4/CyLib.c **** *  None
1862:.\Generated_Source\PSoC4/CyLib.c **** *
1863:.\Generated_Source\PSoC4/CyLib.c **** *******************************************************************************/
1864:.\Generated_Source\PSoC4/CyLib.c **** void CyGetUniqueId(uint32* uniqueId)
1865:.\Generated_Source\PSoC4/CyLib.c **** {
 2355              		.loc 1 1865 0
 2356              		.cfi_startproc
 2357 0000 80B5     		push	{r7, lr}
 2358              		.cfi_def_cfa_offset 8
 2359              		.cfi_offset 7, -8
 2360              		.cfi_offset 14, -4
 2361 0002 82B0     		sub	sp, sp, #8
 2362              		.cfi_def_cfa_offset 16
 2363 0004 00AF     		add	r7, sp, #0
 2364              		.cfi_def_cfa_register 7
 2365 0006 7860     		str	r0, [r7, #4]
1866:.\Generated_Source\PSoC4/CyLib.c **** #if(CY_PSOC4)
1867:.\Generated_Source\PSoC4/CyLib.c ****     uniqueId[0u]  =  (uint32)(* (reg8 *) CYREG_SFLASH_DIE_LOT0  );
 2366              		.loc 1 1867 0
 2367 0008 254B     		ldr	r3, .L161
 2368 000a 1B78     		ldrb	r3, [r3]
 2369 000c DBB2     		uxtb	r3, r3
 2370 000e 1A1C     		mov	r2, r3
 2371 0010 7B68     		ldr	r3, [r7, #4]
 2372 0012 1A60     		str	r2, [r3]
1868:.\Generated_Source\PSoC4/CyLib.c ****     uniqueId[0u] |= ((uint32)(* (reg8 *) CYREG_SFLASH_DIE_LOT1  ) <<  8u);
 2373              		.loc 1 1868 0
 2374 0014 234B     		ldr	r3, .L161+4
 2375 0016 1B78     		ldrb	r3, [r3]
 2376 0018 DBB2     		uxtb	r3, r3
 2377 001a 1A02     		lsl	r2, r3, #8
 2378 001c 7B68     		ldr	r3, [r7, #4]
 2379 001e 1B68     		ldr	r3, [r3]
 2380 0020 1A43     		orr	r2, r3
 2381 0022 7B68     		ldr	r3, [r7, #4]
 2382 0024 1A60     		str	r2, [r3]
1869:.\Generated_Source\PSoC4/CyLib.c ****     uniqueId[0u] |= ((uint32)(* (reg8 *) CYREG_SFLASH_DIE_LOT2  ) << 16u);
 2383              		.loc 1 1869 0
 2384 0026 204B     		ldr	r3, .L161+8
 2385 0028 1B78     		ldrb	r3, [r3]
 2386 002a DBB2     		uxtb	r3, r3
 2387 002c 1A04     		lsl	r2, r3, #16
 2388 002e 7B68     		ldr	r3, [r7, #4]
 2389 0030 1B68     		ldr	r3, [r3]
 2390 0032 1A43     		orr	r2, r3
 2391 0034 7B68     		ldr	r3, [r7, #4]
ARM GAS  C:\Users\PANXIA~1\AppData\Local\Temp\ccat6fhZ.s 			page 76


 2392 0036 1A60     		str	r2, [r3]
1870:.\Generated_Source\PSoC4/CyLib.c ****     uniqueId[0u] |= ((uint32)(* (reg8 *) CYREG_SFLASH_DIE_WAFER ) << 24u);
 2393              		.loc 1 1870 0
 2394 0038 1C4B     		ldr	r3, .L161+12
 2395 003a 1B78     		ldrb	r3, [r3]
 2396 003c DBB2     		uxtb	r3, r3
 2397 003e 1A06     		lsl	r2, r3, #24
 2398 0040 7B68     		ldr	r3, [r7, #4]
 2399 0042 1B68     		ldr	r3, [r3]
 2400 0044 1A43     		orr	r2, r3
 2401 0046 7B68     		ldr	r3, [r7, #4]
 2402 0048 1A60     		str	r2, [r3]
1871:.\Generated_Source\PSoC4/CyLib.c **** 
1872:.\Generated_Source\PSoC4/CyLib.c ****     uniqueId[1u]  =  (uint32)(* (reg8 *) CYREG_SFLASH_DIE_X     );
 2403              		.loc 1 1872 0
 2404 004a 7B68     		ldr	r3, [r7, #4]
 2405 004c 0433     		add	r3, r3, #4
 2406 004e 184A     		ldr	r2, .L161+16
 2407 0050 1278     		ldrb	r2, [r2]
 2408 0052 D2B2     		uxtb	r2, r2
 2409 0054 1A60     		str	r2, [r3]
1873:.\Generated_Source\PSoC4/CyLib.c ****     uniqueId[1u] |= ((uint32)(* (reg8 *) CYREG_SFLASH_DIE_Y     ) <<  8u);
 2410              		.loc 1 1873 0
 2411 0056 174B     		ldr	r3, .L161+20
 2412 0058 1B78     		ldrb	r3, [r3]
 2413 005a DBB2     		uxtb	r3, r3
 2414 005c 1902     		lsl	r1, r3, #8
 2415 005e 7B68     		ldr	r3, [r7, #4]
 2416 0060 0433     		add	r3, r3, #4
 2417 0062 7A68     		ldr	r2, [r7, #4]
 2418 0064 0432     		add	r2, r2, #4
 2419 0066 1268     		ldr	r2, [r2]
 2420 0068 0A43     		orr	r2, r1
 2421 006a 1A60     		str	r2, [r3]
1874:.\Generated_Source\PSoC4/CyLib.c ****     uniqueId[1u] |= ((uint32)(* (reg8 *) CYREG_SFLASH_DIE_SORT  ) << 16u);
 2422              		.loc 1 1874 0
 2423 006c 124B     		ldr	r3, .L161+24
 2424 006e 1B78     		ldrb	r3, [r3]
 2425 0070 DBB2     		uxtb	r3, r3
 2426 0072 1904     		lsl	r1, r3, #16
 2427 0074 7B68     		ldr	r3, [r7, #4]
 2428 0076 0433     		add	r3, r3, #4
 2429 0078 7A68     		ldr	r2, [r7, #4]
 2430 007a 0432     		add	r2, r2, #4
 2431 007c 1268     		ldr	r2, [r2]
 2432 007e 0A43     		orr	r2, r1
 2433 0080 1A60     		str	r2, [r3]
1875:.\Generated_Source\PSoC4/CyLib.c ****     uniqueId[1u] |= ((uint32)(* (reg8 *) CYREG_SFLASH_DIE_MINOR ) << 24u);
 2434              		.loc 1 1875 0
 2435 0082 0E4B     		ldr	r3, .L161+28
 2436 0084 1B78     		ldrb	r3, [r3]
 2437 0086 DBB2     		uxtb	r3, r3
 2438 0088 1906     		lsl	r1, r3, #24
 2439 008a 7B68     		ldr	r3, [r7, #4]
 2440 008c 0433     		add	r3, r3, #4
 2441 008e 7A68     		ldr	r2, [r7, #4]
 2442 0090 0432     		add	r2, r2, #4
ARM GAS  C:\Users\PANXIA~1\AppData\Local\Temp\ccat6fhZ.s 			page 77


 2443 0092 1268     		ldr	r2, [r2]
 2444 0094 0A43     		orr	r2, r1
 2445 0096 1A60     		str	r2, [r3]
1876:.\Generated_Source\PSoC4/CyLib.c **** #else
1877:.\Generated_Source\PSoC4/CyLib.c ****     uniqueId[0u]  =  (uint32) CY_GET_XTND_REG8((void CYFAR *) (CYREG_FLSHID_CUST_TABLES_LOT_LSB   )
1878:.\Generated_Source\PSoC4/CyLib.c ****     uniqueId[0u] |= ((uint32) CY_GET_XTND_REG8((void CYFAR *) (CYREG_FLSHID_CUST_TABLES_LOT_MSB   )
1879:.\Generated_Source\PSoC4/CyLib.c ****     uniqueId[0u] |= ((uint32) CY_GET_XTND_REG8((void CYFAR *) (CYREG_MLOGIC_REV_ID                )
1880:.\Generated_Source\PSoC4/CyLib.c ****     uniqueId[0u] |= ((uint32) CY_GET_XTND_REG8((void CYFAR *) (CYREG_FLSHID_CUST_TABLES_WAFER_NUM )
1881:.\Generated_Source\PSoC4/CyLib.c **** 
1882:.\Generated_Source\PSoC4/CyLib.c ****     uniqueId[1u]  =  (uint32) CY_GET_XTND_REG8((void CYFAR *) (CYREG_FLSHID_CUST_TABLES_X_LOC     )
1883:.\Generated_Source\PSoC4/CyLib.c ****     uniqueId[1u] |= ((uint32) CY_GET_XTND_REG8((void CYFAR *) (CYREG_FLSHID_CUST_TABLES_Y_LOC     )
1884:.\Generated_Source\PSoC4/CyLib.c ****     uniqueId[1u] |= ((uint32) CY_GET_XTND_REG8((void CYFAR *) (CYREG_FLSHID_CUST_TABLES_WRK_WK    )
1885:.\Generated_Source\PSoC4/CyLib.c ****     uniqueId[1u] |= ((uint32) CY_GET_XTND_REG8((void CYFAR *) (CYREG_FLSHID_CUST_TABLES_FAB_YR    )
1886:.\Generated_Source\PSoC4/CyLib.c **** #endif  /* (CY_PSOC4) */
1887:.\Generated_Source\PSoC4/CyLib.c **** }
 2446              		.loc 1 1887 0
 2447 0098 BD46     		mov	sp, r7
 2448 009a 02B0     		add	sp, sp, #8
 2449              		@ sp needed
 2450 009c 80BD     		pop	{r7, pc}
 2451              	.L162:
 2452 009e C046     		.align	2
 2453              	.L161:
 2454 00a0 78F1FF0F 		.word	268431736
 2455 00a4 79F1FF0F 		.word	268431737
 2456 00a8 7AF1FF0F 		.word	268431738
 2457 00ac 7BF1FF0F 		.word	268431739
 2458 00b0 7CF1FF0F 		.word	268431740
 2459 00b4 7DF1FF0F 		.word	268431741
 2460 00b8 7EF1FF0F 		.word	268431742
 2461 00bc 7FF1FF0F 		.word	268431743
 2462              		.cfi_endproc
 2463              	.LFE42:
 2464              		.size	CyGetUniqueId, .-CyGetUniqueId
 2465              		.text
 2466              	.Letext0:
 2467              		.file 2 ".\\Generated_Source\\PSoC4\\cytypes.h"
 2468              		.file 3 ".\\Generated_Source\\PSoC4\\CyLib.h"