ARM GAS  C:\Users\PANXIA~1\AppData\Local\Temp\cc3RO1L3.s 			page 1


   1              		.cpu cortex-m0
   2              		.fpu softvfp
   3              		.eabi_attribute 20, 1
   4              		.eabi_attribute 21, 1
   5              		.eabi_attribute 23, 3
   6              		.eabi_attribute 24, 1
   7              		.eabi_attribute 25, 1
   8              		.eabi_attribute 26, 1
   9              		.eabi_attribute 30, 6
  10              		.eabi_attribute 34, 0
  11              		.eabi_attribute 18, 4
  12              		.code	16
  13              		.file	"Em_EEPROM.c"
  14              		.text
  15              	.Ltext0:
  16              		.cfi_sections	.debug_frame
  17              		.section	.text.Em_EEPROM_Start,"ax",%progbits
  18              		.align	2
  19              		.global	Em_EEPROM_Start
  20              		.code	16
  21              		.thumb_func
  22              		.type	Em_EEPROM_Start, %function
  23              	Em_EEPROM_Start:
  24              	.LFB0:
  25              		.file 1 ".\\Generated_Source\\PSoC4\\Em_EEPROM.c"
   1:.\Generated_Source\PSoC4/Em_EEPROM.c **** /*******************************************************************************
   2:.\Generated_Source\PSoC4/Em_EEPROM.c **** * File Name: Em_EEPROM.c
   3:.\Generated_Source\PSoC4/Em_EEPROM.c **** * Version 1.10
   4:.\Generated_Source\PSoC4/Em_EEPROM.c **** *
   5:.\Generated_Source\PSoC4/Em_EEPROM.c **** * Description:
   6:.\Generated_Source\PSoC4/Em_EEPROM.c **** *  This file provides the source code to API for the Emulated EEPROM Component.
   7:.\Generated_Source\PSoC4/Em_EEPROM.c **** *
   8:.\Generated_Source\PSoC4/Em_EEPROM.c **** ********************************************************************************
   9:.\Generated_Source\PSoC4/Em_EEPROM.c **** * Copyright 2013, Cypress Semiconductor Corporation.  All rights reserved.
  10:.\Generated_Source\PSoC4/Em_EEPROM.c **** * You may use this file only in accordance with the license, terms, conditions,
  11:.\Generated_Source\PSoC4/Em_EEPROM.c **** * disclaimers, and limitations in the end user license agreement accompanying
  12:.\Generated_Source\PSoC4/Em_EEPROM.c **** * the software package with which this file was provided.
  13:.\Generated_Source\PSoC4/Em_EEPROM.c **** *******************************************************************************/
  14:.\Generated_Source\PSoC4/Em_EEPROM.c **** 
  15:.\Generated_Source\PSoC4/Em_EEPROM.c **** #include "Em_EEPROM.h"
  16:.\Generated_Source\PSoC4/Em_EEPROM.c **** 
  17:.\Generated_Source\PSoC4/Em_EEPROM.c **** 
  18:.\Generated_Source\PSoC4/Em_EEPROM.c **** /*******************************************************************************
  19:.\Generated_Source\PSoC4/Em_EEPROM.c **** * Function Name: Em_EEPROM_Start
  20:.\Generated_Source\PSoC4/Em_EEPROM.c **** ********************************************************************************
  21:.\Generated_Source\PSoC4/Em_EEPROM.c **** *
  22:.\Generated_Source\PSoC4/Em_EEPROM.c **** * Summary:
  23:.\Generated_Source\PSoC4/Em_EEPROM.c **** *  Empty function. Included for consistency with other
  24:.\Generated_Source\PSoC4/Em_EEPROM.c **** *  components.
  25:.\Generated_Source\PSoC4/Em_EEPROM.c **** *
  26:.\Generated_Source\PSoC4/Em_EEPROM.c **** * Parameters:
  27:.\Generated_Source\PSoC4/Em_EEPROM.c **** *  None
  28:.\Generated_Source\PSoC4/Em_EEPROM.c **** *
  29:.\Generated_Source\PSoC4/Em_EEPROM.c **** * Return:
  30:.\Generated_Source\PSoC4/Em_EEPROM.c **** *  None
  31:.\Generated_Source\PSoC4/Em_EEPROM.c **** *
  32:.\Generated_Source\PSoC4/Em_EEPROM.c **** *******************************************************************************/
ARM GAS  C:\Users\PANXIA~1\AppData\Local\Temp\cc3RO1L3.s 			page 2


  33:.\Generated_Source\PSoC4/Em_EEPROM.c **** void Em_EEPROM_Start(void) 
  34:.\Generated_Source\PSoC4/Em_EEPROM.c **** {
  26              		.loc 1 34 0
  27              		.cfi_startproc
  28 0000 80B5     		push	{r7, lr}
  29              		.cfi_def_cfa_offset 8
  30              		.cfi_offset 7, -8
  31              		.cfi_offset 14, -4
  32 0002 00AF     		add	r7, sp, #0
  33              		.cfi_def_cfa_register 7
  35:.\Generated_Source\PSoC4/Em_EEPROM.c **** 
  36:.\Generated_Source\PSoC4/Em_EEPROM.c **** }
  34              		.loc 1 36 0
  35 0004 BD46     		mov	sp, r7
  36              		@ sp needed
  37 0006 80BD     		pop	{r7, pc}
  38              		.cfi_endproc
  39              	.LFE0:
  40              		.size	Em_EEPROM_Start, .-Em_EEPROM_Start
  41              		.section	.text.Em_EEPROM_Stop,"ax",%progbits
  42              		.align	2
  43              		.global	Em_EEPROM_Stop
  44              		.code	16
  45              		.thumb_func
  46              		.type	Em_EEPROM_Stop, %function
  47              	Em_EEPROM_Stop:
  48              	.LFB1:
  37:.\Generated_Source\PSoC4/Em_EEPROM.c **** 
  38:.\Generated_Source\PSoC4/Em_EEPROM.c **** 
  39:.\Generated_Source\PSoC4/Em_EEPROM.c **** /*******************************************************************************
  40:.\Generated_Source\PSoC4/Em_EEPROM.c **** * Function Name: Em_EEPROM_Stop
  41:.\Generated_Source\PSoC4/Em_EEPROM.c **** ********************************************************************************
  42:.\Generated_Source\PSoC4/Em_EEPROM.c **** *
  43:.\Generated_Source\PSoC4/Em_EEPROM.c **** * Summary:
  44:.\Generated_Source\PSoC4/Em_EEPROM.c **** *  Empty function. Included for consistency with other
  45:.\Generated_Source\PSoC4/Em_EEPROM.c **** *  components.
  46:.\Generated_Source\PSoC4/Em_EEPROM.c **** *
  47:.\Generated_Source\PSoC4/Em_EEPROM.c **** * Parameters:
  48:.\Generated_Source\PSoC4/Em_EEPROM.c **** *  None
  49:.\Generated_Source\PSoC4/Em_EEPROM.c **** *
  50:.\Generated_Source\PSoC4/Em_EEPROM.c **** * Return:
  51:.\Generated_Source\PSoC4/Em_EEPROM.c **** *  None
  52:.\Generated_Source\PSoC4/Em_EEPROM.c **** *
  53:.\Generated_Source\PSoC4/Em_EEPROM.c **** *******************************************************************************/
  54:.\Generated_Source\PSoC4/Em_EEPROM.c **** void Em_EEPROM_Stop(void) 
  55:.\Generated_Source\PSoC4/Em_EEPROM.c **** {
  49              		.loc 1 55 0
  50              		.cfi_startproc
  51 0000 80B5     		push	{r7, lr}
  52              		.cfi_def_cfa_offset 8
  53              		.cfi_offset 7, -8
  54              		.cfi_offset 14, -4
  55 0002 00AF     		add	r7, sp, #0
  56              		.cfi_def_cfa_register 7
  56:.\Generated_Source\PSoC4/Em_EEPROM.c **** 
  57:.\Generated_Source\PSoC4/Em_EEPROM.c **** }
  57              		.loc 1 57 0
ARM GAS  C:\Users\PANXIA~1\AppData\Local\Temp\cc3RO1L3.s 			page 3


  58 0004 BD46     		mov	sp, r7
  59              		@ sp needed
  60 0006 80BD     		pop	{r7, pc}
  61              		.cfi_endproc
  62              	.LFE1:
  63              		.size	Em_EEPROM_Stop, .-Em_EEPROM_Stop
  64              		.section	.text.Em_EEPROM_Write,"ax",%progbits
  65              		.align	2
  66              		.global	Em_EEPROM_Write
  67              		.code	16
  68              		.thumb_func
  69              		.type	Em_EEPROM_Write, %function
  70              	Em_EEPROM_Write:
  71              	.LFB2:
  58:.\Generated_Source\PSoC4/Em_EEPROM.c **** 
  59:.\Generated_Source\PSoC4/Em_EEPROM.c **** 
  60:.\Generated_Source\PSoC4/Em_EEPROM.c **** /*******************************************************************************
  61:.\Generated_Source\PSoC4/Em_EEPROM.c **** * Function Name: Em_EEPROM_Write
  62:.\Generated_Source\PSoC4/Em_EEPROM.c **** ********************************************************************************
  63:.\Generated_Source\PSoC4/Em_EEPROM.c **** *
  64:.\Generated_Source\PSoC4/Em_EEPROM.c **** * Summary:
  65:.\Generated_Source\PSoC4/Em_EEPROM.c **** *  Writes the specified number of bytes from the source buffer in SRAM to the
  66:.\Generated_Source\PSoC4/Em_EEPROM.c **** *  emulated EEPROM array in flash, without modifying other data in flash.
  67:.\Generated_Source\PSoC4/Em_EEPROM.c **** *
  68:.\Generated_Source\PSoC4/Em_EEPROM.c **** * Parameters:
  69:.\Generated_Source\PSoC4/Em_EEPROM.c **** *  srcBuf:    Pointer to the SRAM buffer holding the data to write.
  70:.\Generated_Source\PSoC4/Em_EEPROM.c **** *  eepromPtr: Pointer to the array or variable in flash representing
  71:.\Generated_Source\PSoC4/Em_EEPROM.c **** *             the emulated EEPROM.
  72:.\Generated_Source\PSoC4/Em_EEPROM.c **** *  byteCount: Number of bytes to write from srcBuf to eepromPtr.
  73:.\Generated_Source\PSoC4/Em_EEPROM.c **** *
  74:.\Generated_Source\PSoC4/Em_EEPROM.c **** * Return:
  75:.\Generated_Source\PSoC4/Em_EEPROM.c **** *    CYRET_SUCCESS     Successful write.
  76:.\Generated_Source\PSoC4/Em_EEPROM.c **** *    CYRET_BAD_PARAM   eepromPtr is out of range of flash memory.
  77:.\Generated_Source\PSoC4/Em_EEPROM.c **** *    CYRET_UNKNOWN     Other error in writing flash.
  78:.\Generated_Source\PSoC4/Em_EEPROM.c **** *
  79:.\Generated_Source\PSoC4/Em_EEPROM.c **** *******************************************************************************/
  80:.\Generated_Source\PSoC4/Em_EEPROM.c **** #if (CY_PSOC3)
  81:.\Generated_Source\PSoC4/Em_EEPROM.c ****     cystatus Em_EEPROM_Write(const uint8 srcBuf[], const uint8 eepromPtr[], uint16 byteCount)
  82:.\Generated_Source\PSoC4/Em_EEPROM.c ****                                                                             
  83:.\Generated_Source\PSoC4/Em_EEPROM.c **** #else
  84:.\Generated_Source\PSoC4/Em_EEPROM.c ****     cystatus Em_EEPROM_Write(const uint8 srcBuf[], const uint8 eepromPtr[], uint32 byteCount)
  85:.\Generated_Source\PSoC4/Em_EEPROM.c **** #endif /* (!CY_PSOC3) */
  86:.\Generated_Source\PSoC4/Em_EEPROM.c **** {
  72              		.loc 1 86 0
  73              		.cfi_startproc
  74 0000 80B5     		push	{r7, lr}
  75              		.cfi_def_cfa_offset 8
  76              		.cfi_offset 7, -8
  77              		.cfi_offset 14, -4
  78 0002 ACB0     		sub	sp, sp, #176
  79              		.cfi_def_cfa_offset 184
  80 0004 00AF     		add	r7, sp, #0
  81              		.cfi_def_cfa_register 7
  82 0006 F860     		str	r0, [r7, #12]
  83 0008 B960     		str	r1, [r7, #8]
  84 000a 7A60     		str	r2, [r7, #4]
  87:.\Generated_Source\PSoC4/Em_EEPROM.c ****     uint8 writeBuffer[CY_FLASH_SIZEOF_ROW];
ARM GAS  C:\Users\PANXIA~1\AppData\Local\Temp\cc3RO1L3.s 			page 4


  88:.\Generated_Source\PSoC4/Em_EEPROM.c ****     uint32 arrayId;
  89:.\Generated_Source\PSoC4/Em_EEPROM.c ****     uint32 rowId;
  90:.\Generated_Source\PSoC4/Em_EEPROM.c ****     uint32 dstIndex;
  91:.\Generated_Source\PSoC4/Em_EEPROM.c ****     uint32 srcIndex;
  92:.\Generated_Source\PSoC4/Em_EEPROM.c ****     cystatus rc;
  93:.\Generated_Source\PSoC4/Em_EEPROM.c ****     uint32 eeOffset;
  94:.\Generated_Source\PSoC4/Em_EEPROM.c ****     uint32 byteOffset;
  95:.\Generated_Source\PSoC4/Em_EEPROM.c ****     
  96:.\Generated_Source\PSoC4/Em_EEPROM.c ****     #if (!CY_PSOC4)
  97:.\Generated_Source\PSoC4/Em_EEPROM.c ****         #if (CYDEV_ECC_ENABLE == 0)
  98:.\Generated_Source\PSoC4/Em_EEPROM.c ****             uint8 rowBuffer[CY_FLASH_SIZEOF_ROW + CY_FLASH_SIZEOF_ECC_ROW];
  99:.\Generated_Source\PSoC4/Em_EEPROM.c ****         #endif /* CYDEV_ECC_ENABLE == 0) */
 100:.\Generated_Source\PSoC4/Em_EEPROM.c ****     #endif /* (!CY_PSOC4) */
 101:.\Generated_Source\PSoC4/Em_EEPROM.c **** 
 102:.\Generated_Source\PSoC4/Em_EEPROM.c ****     eeOffset = (uint32)eepromPtr;
  85              		.loc 1 102 0
  86 000c BB68     		ldr	r3, [r7, #8]
  87 000e 9822     		mov	r2, #152
  88 0010 BA18     		add	r2, r7, r2
  89 0012 1360     		str	r3, [r2]
 103:.\Generated_Source\PSoC4/Em_EEPROM.c ****     #if (CY_PSOC3)
 104:.\Generated_Source\PSoC4/Em_EEPROM.c ****         eeOffset &= Em_EEPROM_CODE_ADDR_MASK;
 105:.\Generated_Source\PSoC4/Em_EEPROM.c ****     #endif /* (CY_PSOC3) */
 106:.\Generated_Source\PSoC4/Em_EEPROM.c **** 
 107:.\Generated_Source\PSoC4/Em_EEPROM.c ****     /* Make sure, that eepromPtr[] points to ROM */
 108:.\Generated_Source\PSoC4/Em_EEPROM.c ****     #if (CY_PSOC3)
 109:.\Generated_Source\PSoC4/Em_EEPROM.c ****         if (((uint32)eepromPtr >= Em_EEPROM_CODE_ADDR_OFFSET) &&
 110:.\Generated_Source\PSoC4/Em_EEPROM.c ****             (((uint32)eepromPtr + byteCount) <= Em_EEPROM_CODE_ADDR_END))
 111:.\Generated_Source\PSoC4/Em_EEPROM.c ****     #else
 112:.\Generated_Source\PSoC4/Em_EEPROM.c ****         if (((uint32)eepromPtr + byteCount) < Em_EEPROM_FLASH_END_ADDR)
  90              		.loc 1 112 0
  91 0014 BA68     		ldr	r2, [r7, #8]
  92 0016 7B68     		ldr	r3, [r7, #4]
  93 0018 D318     		add	r3, r2, r3
  94 001a 564A     		ldr	r2, .L14
  95 001c 9342     		cmp	r3, r2
  96 001e 00D9     		bls	.LCB60
  97 0020 8DE0     		b	.L4	@long jump
  98              	.LCB60:
 113:.\Generated_Source\PSoC4/Em_EEPROM.c ****     #endif /* (CY_PSOC3) */
 114:.\Generated_Source\PSoC4/Em_EEPROM.c ****     {
 115:.\Generated_Source\PSoC4/Em_EEPROM.c ****         #if (!CY_PSOC4)
 116:.\Generated_Source\PSoC4/Em_EEPROM.c ****             (void)CySetTemp();
 117:.\Generated_Source\PSoC4/Em_EEPROM.c **** 
 118:.\Generated_Source\PSoC4/Em_EEPROM.c ****             #if(CYDEV_ECC_ENABLE == 0)
 119:.\Generated_Source\PSoC4/Em_EEPROM.c ****                 (void)CySetFlashEEBuffer(rowBuffer);
 120:.\Generated_Source\PSoC4/Em_EEPROM.c ****             #endif
 121:.\Generated_Source\PSoC4/Em_EEPROM.c ****         #endif /* (!CY_PSOC4) */
 122:.\Generated_Source\PSoC4/Em_EEPROM.c **** 
 123:.\Generated_Source\PSoC4/Em_EEPROM.c ****         arrayId = eeOffset / CY_FLASH_SIZEOF_ARRAY;
  99              		.loc 1 123 0
 100 0022 9823     		mov	r3, #152
 101 0024 FB18     		add	r3, r7, r3
 102 0026 1B68     		ldr	r3, [r3]
 103 0028 DB0B     		lsr	r3, r3, #15
 104 002a 9422     		mov	r2, #148
 105 002c BA18     		add	r2, r7, r2
ARM GAS  C:\Users\PANXIA~1\AppData\Local\Temp\cc3RO1L3.s 			page 5


 106 002e 1360     		str	r3, [r2]
 124:.\Generated_Source\PSoC4/Em_EEPROM.c ****         rowId = (eeOffset / CY_FLASH_SIZEOF_ROW) % Em_EEPROM_ROWS_IN_ARRAY;
 107              		.loc 1 124 0
 108 0030 9823     		mov	r3, #152
 109 0032 FB18     		add	r3, r7, r3
 110 0034 1B68     		ldr	r3, [r3]
 111 0036 DB09     		lsr	r3, r3, #7
 112 0038 FF22     		mov	r2, #255
 113 003a 1340     		and	r3, r2
 114 003c AC22     		mov	r2, #172
 115 003e BA18     		add	r2, r7, r2
 116 0040 1360     		str	r3, [r2]
 125:.\Generated_Source\PSoC4/Em_EEPROM.c ****         byteOffset = (CY_FLASH_SIZEOF_ARRAY * arrayId) + (CY_FLASH_SIZEOF_ROW * rowId);
 117              		.loc 1 125 0
 118 0042 9423     		mov	r3, #148
 119 0044 FB18     		add	r3, r7, r3
 120 0046 1B68     		ldr	r3, [r3]
 121 0048 1A02     		lsl	r2, r3, #8
 122 004a AC23     		mov	r3, #172
 123 004c FB18     		add	r3, r7, r3
 124 004e 1B68     		ldr	r3, [r3]
 125 0050 D318     		add	r3, r2, r3
 126 0052 DB01     		lsl	r3, r3, #7
 127 0054 9C22     		mov	r2, #156
 128 0056 BA18     		add	r2, r7, r2
 129 0058 1360     		str	r3, [r2]
 126:.\Generated_Source\PSoC4/Em_EEPROM.c ****         srcIndex = 0u;
 130              		.loc 1 126 0
 131 005a 0023     		mov	r3, #0
 132 005c A422     		mov	r2, #164
 133 005e BA18     		add	r2, r7, r2
 134 0060 1360     		str	r3, [r2]
 127:.\Generated_Source\PSoC4/Em_EEPROM.c **** 
 128:.\Generated_Source\PSoC4/Em_EEPROM.c ****         rc = CYRET_SUCCESS;
 135              		.loc 1 128 0
 136 0062 0023     		mov	r3, #0
 137 0064 A022     		mov	r2, #160
 138 0066 BA18     		add	r2, r7, r2
 139 0068 1360     		str	r3, [r2]
 129:.\Generated_Source\PSoC4/Em_EEPROM.c **** 
 130:.\Generated_Source\PSoC4/Em_EEPROM.c ****         while ((srcIndex < byteCount) && (CYRET_SUCCESS == rc))
 140              		.loc 1 130 0
 141 006a 5CE0     		b	.L5
 142              	.L11:
 131:.\Generated_Source\PSoC4/Em_EEPROM.c ****         {
 132:.\Generated_Source\PSoC4/Em_EEPROM.c ****             /* Copy data to the write buffer either from the source buffer or from the flash */
 133:.\Generated_Source\PSoC4/Em_EEPROM.c ****             for (dstIndex = 0u; dstIndex < CY_FLASH_SIZEOF_ROW; dstIndex++)
 143              		.loc 1 133 0
 144 006c 0023     		mov	r3, #0
 145 006e A822     		mov	r2, #168
 146 0070 BA18     		add	r2, r7, r2
 147 0072 1360     		str	r3, [r2]
 148 0074 3EE0     		b	.L6
 149              	.L9:
 134:.\Generated_Source\PSoC4/Em_EEPROM.c ****             {
 135:.\Generated_Source\PSoC4/Em_EEPROM.c ****                 if ((byteOffset >= eeOffset) && (srcIndex < byteCount))
 150              		.loc 1 135 0
ARM GAS  C:\Users\PANXIA~1\AppData\Local\Temp\cc3RO1L3.s 			page 6


 151 0076 9C23     		mov	r3, #156
 152 0078 FB18     		add	r3, r7, r3
 153 007a 1A68     		ldr	r2, [r3]
 154 007c 9823     		mov	r3, #152
 155 007e FB18     		add	r3, r7, r3
 156 0080 1B68     		ldr	r3, [r3]
 157 0082 9A42     		cmp	r2, r3
 158 0084 1BD3     		bcc	.L7
 159              		.loc 1 135 0 is_stmt 0 discriminator 1
 160 0086 A423     		mov	r3, #164
 161 0088 FB18     		add	r3, r7, r3
 162 008a 1A68     		ldr	r2, [r3]
 163 008c 7B68     		ldr	r3, [r7, #4]
 164 008e 9A42     		cmp	r2, r3
 165 0090 15D2     		bcs	.L7
 136:.\Generated_Source\PSoC4/Em_EEPROM.c ****                 {
 137:.\Generated_Source\PSoC4/Em_EEPROM.c ****                     writeBuffer[dstIndex] = srcBuf[srcIndex];
 166              		.loc 1 137 0 is_stmt 1
 167 0092 FA68     		ldr	r2, [r7, #12]
 168 0094 A423     		mov	r3, #164
 169 0096 FB18     		add	r3, r7, r3
 170 0098 1B68     		ldr	r3, [r3]
 171 009a D318     		add	r3, r2, r3
 172 009c 1978     		ldrb	r1, [r3]
 173 009e 1423     		mov	r3, #20
 174 00a0 FA18     		add	r2, r7, r3
 175 00a2 A823     		mov	r3, #168
 176 00a4 FB18     		add	r3, r7, r3
 177 00a6 1B68     		ldr	r3, [r3]
 178 00a8 D318     		add	r3, r2, r3
 179 00aa 0A1C     		add	r2, r1, #0
 180 00ac 1A70     		strb	r2, [r3]
 138:.\Generated_Source\PSoC4/Em_EEPROM.c ****                     srcIndex++;
 181              		.loc 1 138 0
 182 00ae A423     		mov	r3, #164
 183 00b0 FB18     		add	r3, r7, r3
 184 00b2 1B68     		ldr	r3, [r3]
 185 00b4 0133     		add	r3, r3, #1
 186 00b6 A422     		mov	r2, #164
 187 00b8 BA18     		add	r2, r7, r2
 188 00ba 1360     		str	r3, [r2]
 189 00bc 0CE0     		b	.L8
 190              	.L7:
 139:.\Generated_Source\PSoC4/Em_EEPROM.c ****                 }
 140:.\Generated_Source\PSoC4/Em_EEPROM.c ****                 else
 141:.\Generated_Source\PSoC4/Em_EEPROM.c ****                 {
 142:.\Generated_Source\PSoC4/Em_EEPROM.c ****                     writeBuffer[dstIndex] = CY_GET_XTND_REG8(CYDEV_FLASH_BASE + byteOffset);
 191              		.loc 1 142 0
 192 00be 9C23     		mov	r3, #156
 193 00c0 FB18     		add	r3, r7, r3
 194 00c2 1B68     		ldr	r3, [r3]
 195 00c4 1B78     		ldrb	r3, [r3]
 196 00c6 D9B2     		uxtb	r1, r3
 197 00c8 1423     		mov	r3, #20
 198 00ca FA18     		add	r2, r7, r3
 199 00cc A823     		mov	r3, #168
 200 00ce FB18     		add	r3, r7, r3
ARM GAS  C:\Users\PANXIA~1\AppData\Local\Temp\cc3RO1L3.s 			page 7


 201 00d0 1B68     		ldr	r3, [r3]
 202 00d2 D318     		add	r3, r2, r3
 203 00d4 0A1C     		add	r2, r1, #0
 204 00d6 1A70     		strb	r2, [r3]
 205              	.L8:
 143:.\Generated_Source\PSoC4/Em_EEPROM.c ****                 }
 144:.\Generated_Source\PSoC4/Em_EEPROM.c ****                 byteOffset++;
 206              		.loc 1 144 0 discriminator 2
 207 00d8 9C23     		mov	r3, #156
 208 00da FB18     		add	r3, r7, r3
 209 00dc 1B68     		ldr	r3, [r3]
 210 00de 0133     		add	r3, r3, #1
 211 00e0 9C22     		mov	r2, #156
 212 00e2 BA18     		add	r2, r7, r2
 213 00e4 1360     		str	r3, [r2]
 133:.\Generated_Source\PSoC4/Em_EEPROM.c ****             {
 214              		.loc 1 133 0 discriminator 2
 215 00e6 A823     		mov	r3, #168
 216 00e8 FB18     		add	r3, r7, r3
 217 00ea 1B68     		ldr	r3, [r3]
 218 00ec 0133     		add	r3, r3, #1
 219 00ee A822     		mov	r2, #168
 220 00f0 BA18     		add	r2, r7, r2
 221 00f2 1360     		str	r3, [r2]
 222              	.L6:
 133:.\Generated_Source\PSoC4/Em_EEPROM.c ****             {
 223              		.loc 1 133 0 is_stmt 0 discriminator 1
 224 00f4 A823     		mov	r3, #168
 225 00f6 FB18     		add	r3, r7, r3
 226 00f8 1B68     		ldr	r3, [r3]
 227 00fa 7F2B     		cmp	r3, #127
 228 00fc BBD9     		bls	.L9
 145:.\Generated_Source\PSoC4/Em_EEPROM.c ****             }
 146:.\Generated_Source\PSoC4/Em_EEPROM.c **** 
 147:.\Generated_Source\PSoC4/Em_EEPROM.c ****             /* Write flash row */
 148:.\Generated_Source\PSoC4/Em_EEPROM.c ****             #if (CY_PSOC4)
 149:.\Generated_Source\PSoC4/Em_EEPROM.c ****                 rc = CySysFlashWriteRow(rowId, writeBuffer);
 229              		.loc 1 149 0 is_stmt 1
 230 00fe AC23     		mov	r3, #172
 231 0100 FB18     		add	r3, r7, r3
 232 0102 1A68     		ldr	r2, [r3]
 233 0104 1423     		mov	r3, #20
 234 0106 FB18     		add	r3, r7, r3
 235 0108 101C     		mov	r0, r2
 236 010a 191C     		mov	r1, r3
 237 010c FFF7FEFF 		bl	CySysFlashWriteRow
 238 0110 031C     		mov	r3, r0
 239 0112 A022     		mov	r2, #160
 240 0114 BA18     		add	r2, r7, r2
 241 0116 1360     		str	r3, [r2]
 150:.\Generated_Source\PSoC4/Em_EEPROM.c ****             #else
 151:.\Generated_Source\PSoC4/Em_EEPROM.c ****                 rc = CyWriteRowData((uint8)arrayId, (uint16)rowId, writeBuffer);
 152:.\Generated_Source\PSoC4/Em_EEPROM.c ****             #endif /* (CY_PSOC4) */
 153:.\Generated_Source\PSoC4/Em_EEPROM.c **** 
 154:.\Generated_Source\PSoC4/Em_EEPROM.c ****             /* Go to the next row */
 155:.\Generated_Source\PSoC4/Em_EEPROM.c ****             rowId++;
 242              		.loc 1 155 0
ARM GAS  C:\Users\PANXIA~1\AppData\Local\Temp\cc3RO1L3.s 			page 8


 243 0118 AC23     		mov	r3, #172
 244 011a FB18     		add	r3, r7, r3
 245 011c 1B68     		ldr	r3, [r3]
 246 011e 0133     		add	r3, r3, #1
 247 0120 AC22     		mov	r2, #172
 248 0122 BA18     		add	r2, r7, r2
 249 0124 1360     		str	r3, [r2]
 250              	.L5:
 130:.\Generated_Source\PSoC4/Em_EEPROM.c ****         {
 251              		.loc 1 130 0
 252 0126 A423     		mov	r3, #164
 253 0128 FB18     		add	r3, r7, r3
 254 012a 1A68     		ldr	r2, [r3]
 255 012c 7B68     		ldr	r3, [r7, #4]
 256 012e 9A42     		cmp	r2, r3
 257 0130 09D2     		bcs	.L10
 130:.\Generated_Source\PSoC4/Em_EEPROM.c ****         {
 258              		.loc 1 130 0 is_stmt 0 discriminator 1
 259 0132 A023     		mov	r3, #160
 260 0134 FB18     		add	r3, r7, r3
 261 0136 1B68     		ldr	r3, [r3]
 262 0138 002B     		cmp	r3, #0
 263 013a 97D0     		beq	.L11
 264 013c 03E0     		b	.L10
 265              	.L4:
 156:.\Generated_Source\PSoC4/Em_EEPROM.c ****             #if (CY_FLASH_NUMBER_ARRAYS > 1)
 157:.\Generated_Source\PSoC4/Em_EEPROM.c ****                 if (rowId >= Em_EEPROM_ROWS_IN_ARRAY)
 158:.\Generated_Source\PSoC4/Em_EEPROM.c ****                 {
 159:.\Generated_Source\PSoC4/Em_EEPROM.c ****                     arrayId++;
 160:.\Generated_Source\PSoC4/Em_EEPROM.c ****                     rowId = 0u;
 161:.\Generated_Source\PSoC4/Em_EEPROM.c ****                 }
 162:.\Generated_Source\PSoC4/Em_EEPROM.c ****             #endif /* (CY_FLASH_NUMBER_ARRAYS > 1) */
 163:.\Generated_Source\PSoC4/Em_EEPROM.c ****         }
 164:.\Generated_Source\PSoC4/Em_EEPROM.c **** 
 165:.\Generated_Source\PSoC4/Em_EEPROM.c ****         /* Flush both Cache and PHUB prefetch buffer */
 166:.\Generated_Source\PSoC4/Em_EEPROM.c ****         #if (CY_PSOC5)
 167:.\Generated_Source\PSoC4/Em_EEPROM.c ****             CyFlushCache();
 168:.\Generated_Source\PSoC4/Em_EEPROM.c ****         #elif (CY_PSOC3)
 169:.\Generated_Source\PSoC4/Em_EEPROM.c ****             CY_FLASH_CONTROL_REG |= 6u;
 170:.\Generated_Source\PSoC4/Em_EEPROM.c ****         #endif /* (CY_PSOC5) */
 171:.\Generated_Source\PSoC4/Em_EEPROM.c ****     }
 172:.\Generated_Source\PSoC4/Em_EEPROM.c ****     else
 173:.\Generated_Source\PSoC4/Em_EEPROM.c ****     {
 174:.\Generated_Source\PSoC4/Em_EEPROM.c ****         rc = CYRET_BAD_PARAM;
 266              		.loc 1 174 0 is_stmt 1
 267 013e 0123     		mov	r3, #1
 268 0140 A022     		mov	r2, #160
 269 0142 BA18     		add	r2, r7, r2
 270 0144 1360     		str	r3, [r2]
 271              	.L10:
 175:.\Generated_Source\PSoC4/Em_EEPROM.c ****     }
 176:.\Generated_Source\PSoC4/Em_EEPROM.c **** 
 177:.\Generated_Source\PSoC4/Em_EEPROM.c ****     /* Mask return codes from flash, if they are not supported */
 178:.\Generated_Source\PSoC4/Em_EEPROM.c ****     if ((CYRET_SUCCESS != rc) && (CYRET_BAD_PARAM != rc))
 272              		.loc 1 178 0
 273 0146 A023     		mov	r3, #160
 274 0148 FB18     		add	r3, r7, r3
ARM GAS  C:\Users\PANXIA~1\AppData\Local\Temp\cc3RO1L3.s 			page 9


 275 014a 1B68     		ldr	r3, [r3]
 276 014c 002B     		cmp	r3, #0
 277 014e 09D0     		beq	.L12
 278              		.loc 1 178 0 is_stmt 0 discriminator 1
 279 0150 A023     		mov	r3, #160
 280 0152 FB18     		add	r3, r7, r3
 281 0154 1B68     		ldr	r3, [r3]
 282 0156 012B     		cmp	r3, #1
 283 0158 04D0     		beq	.L12
 179:.\Generated_Source\PSoC4/Em_EEPROM.c ****     {
 180:.\Generated_Source\PSoC4/Em_EEPROM.c ****         rc = CYRET_UNKNOWN;
 284              		.loc 1 180 0 is_stmt 1
 285 015a 0123     		mov	r3, #1
 286 015c 5B42     		neg	r3, r3
 287 015e A022     		mov	r2, #160
 288 0160 BA18     		add	r2, r7, r2
 289 0162 1360     		str	r3, [r2]
 290              	.L12:
 181:.\Generated_Source\PSoC4/Em_EEPROM.c ****     }
 182:.\Generated_Source\PSoC4/Em_EEPROM.c ****     
 183:.\Generated_Source\PSoC4/Em_EEPROM.c ****     return (rc);
 291              		.loc 1 183 0
 292 0164 A023     		mov	r3, #160
 293 0166 FB18     		add	r3, r7, r3
 294 0168 1B68     		ldr	r3, [r3]
 184:.\Generated_Source\PSoC4/Em_EEPROM.c **** }
 295              		.loc 1 184 0
 296 016a 181C     		mov	r0, r3
 297 016c BD46     		mov	sp, r7
 298 016e 2CB0     		add	sp, sp, #176
 299              		@ sp needed
 300 0170 80BD     		pop	{r7, pc}
 301              	.L15:
 302 0172 C046     		.align	2
 303              	.L14:
 304 0174 FF7F0000 		.word	32767
 305              		.cfi_endproc
 306              	.LFE2:
 307              		.size	Em_EEPROM_Write, .-Em_EEPROM_Write
 308              		.text
 309              	.Letext0:
 310              		.file 2 ".\\Generated_Source\\PSoC4\\cytypes.h"