ARM GAS  C:\Users\li\AppData\Local\Temp\ccP4gsSh.s 			page 1


   1              		.syntax unified
   2              		.cpu cortex-m3
   3              		.fpu softvfp
   4              		.eabi_attribute 20, 1
   5              		.eabi_attribute 21, 1
   6              		.eabi_attribute 23, 3
   7              		.eabi_attribute 24, 1
   8              		.eabi_attribute 25, 1
   9              		.eabi_attribute 26, 1
  10              		.eabi_attribute 30, 1
  11              		.eabi_attribute 34, 1
  12              		.eabi_attribute 18, 4
  13              		.thumb
  14              		.file	"CanopenDictConfig.c"
  15              		.text
  16              	.Ltext0:
  17              		.cfi_sections	.debug_frame
  18              		.section	.text.Slave_heartbeatError,"ax",%progbits
  19              		.align	2
  20              		.global	Slave_heartbeatError
  21              		.thumb
  22              		.thumb_func
  23              		.type	Slave_heartbeatError, %function
  24              	Slave_heartbeatError:
  25              	.LFB1:
  26              		.file 1 ".\\CanopenDictConfig.c"
   1:.\CanopenDictConfig.c **** /* Includes ------------------------------------------------------------------*/
   2:.\CanopenDictConfig.c **** #include "CanopenDictConfig.h"
   3:.\CanopenDictConfig.c **** #include "applicfg.h"
   4:.\CanopenDictConfig.c **** #include "TestSlave.h"
   5:.\CanopenDictConfig.c **** #include "dcf.h"
   6:.\CanopenDictConfig.c **** /* Private typedef -----------------------------------------------------------*/
   7:.\CanopenDictConfig.c **** /* Private define ------------------------------------------------------------*/
   8:.\CanopenDictConfig.c **** /* Private macro -------------------------------------------------------------*/
   9:.\CanopenDictConfig.c **** /* Private variables ---------------------------------------------------------*/
  10:.\CanopenDictConfig.c **** /* Private function prototypes -----------------------------------------------*/
  11:.\CanopenDictConfig.c **** /* Private functions ---------------------------------------------------------*/
  12:.\CanopenDictConfig.c **** /*Froward declaration*/
  13:.\CanopenDictConfig.c **** //#define POWER_ON sendSDO_1(d,MOTOR_1,len_16, 0x6040, 0x00,0x06);
  14:.\CanopenDictConfig.c **** //#define POWER_OFF sendSDO_1(d,MOTOR_1,len_16, 0x6040, 0x00,0x0f);
  15:.\CanopenDictConfig.c **** //#define SELECT_SPPED_MODE sendSDO_1(d,MOTOR_1,len_8,  0x6060, 0x00,0x03);
  16:.\CanopenDictConfig.c **** 
  17:.\CanopenDictConfig.c **** unsigned char nodeID=0x04;
  18:.\CanopenDictConfig.c **** void delay1ms(void)
  19:.\CanopenDictConfig.c ****     {      unsigned char a,b,c;     for(c=50;c>0;c--)  for(b=200;b>0;b--)             for(a=2;a>0;a
  20:.\CanopenDictConfig.c **** /**
  21:.\CanopenDictConfig.c ****   * @brief  Slave_heartbeatError.
  22:.\CanopenDictConfig.c ****   * @param  d:CANOpen object dictionary. heartbeatID:Node id
  23:.\CanopenDictConfig.c ****   * @retval None
  24:.\CanopenDictConfig.c ****   */
  25:.\CanopenDictConfig.c **** void Slave_heartbeatError(CO_Data* d, UNS8 heartbeatID)
  26:.\CanopenDictConfig.c **** {
  27              		.loc 1 26 0
  28              		.cfi_startproc
  29              		@ args = 0, pretend = 0, frame = 0
  30              		@ frame_needed = 0, uses_anonymous_args = 0
  31              		@ link register save eliminated.
ARM GAS  C:\Users\li\AppData\Local\Temp\ccP4gsSh.s 			page 2


  32              	.LVL0:
  33 0000 7047     		bx	lr
  34              		.cfi_endproc
  35              	.LFE1:
  36              		.size	Slave_heartbeatError, .-Slave_heartbeatError
  37 0002 00BF     		.section	.text.Slave_preOperational,"ax",%progbits
  38              		.align	2
  39              		.global	Slave_preOperational
  40              		.thumb
  41              		.thumb_func
  42              		.type	Slave_preOperational, %function
  43              	Slave_preOperational:
  44              	.LFB3:
  27:.\CanopenDictConfig.c ****     MSG_USER(0, "Slave_heartbeatError %d\n", heartbeatID);
  28:.\CanopenDictConfig.c **** }
  29:.\CanopenDictConfig.c **** 
  30:.\CanopenDictConfig.c **** /**
  31:.\CanopenDictConfig.c ****   * @brief  Slave_initialisation.
  32:.\CanopenDictConfig.c ****   * @param  d:CANOpen object dictionary.
  33:.\CanopenDictConfig.c ****   * @retval None
  34:.\CanopenDictConfig.c ****   */
  35:.\CanopenDictConfig.c **** void Slave_initialisation(CO_Data* d)
  36:.\CanopenDictConfig.c **** {
  37:.\CanopenDictConfig.c ****       UNS16 HeartTimePeriod = 500;
  38:.\CanopenDictConfig.c **** 	  UNS32 size = sizeof(HeartTimePeriod); // 注意传递的是uns32
  39:.\CanopenDictConfig.c **** 
  40:.\CanopenDictConfig.c **** 	  writeLocalDict( d, /*CO_Data* d*/
  41:.\CanopenDictConfig.c **** 			 0x1017, /*UNS16 index*/
  42:.\CanopenDictConfig.c **** 			 0x00, /*UNS8 subind*/
  43:.\CanopenDictConfig.c **** 			 &HeartTimePeriod, /*void * pSourceData,*/
  44:.\CanopenDictConfig.c **** 			 &size, /* UNS8 * pExpectedSize*/
  45:.\CanopenDictConfig.c **** 			 RW);  /* UNS8 checkAccess */
  46:.\CanopenDictConfig.c **** //    UNS32 TPDO1_COBID = 0x0181;
  47:.\CanopenDictConfig.c **** //    UNS32 RPDO1_COBID = 0x0201;
  48:.\CanopenDictConfig.c **** //    UNS32 TPDO2_COBID = 0x0182;
  49:.\CanopenDictConfig.c **** //    UNS32 RPDO2_COBID = 0x0281;
  50:.\CanopenDictConfig.c **** //    UNS32 size =   sizeof(UNS32);
  51:.\CanopenDictConfig.c **** //    UNS8  unsize = sizeof(UNS8);
  52:.\CanopenDictConfig.c **** //    UNS8  TpdoTransmissionType = 0;
  53:.\CanopenDictConfig.c **** 
  54:.\CanopenDictConfig.c **** //    TpdoTransmissionType = TpdoTransmissionType;
  55:.\CanopenDictConfig.c **** //    MSG_USER(0, "Slave_initialisation",0);
  56:.\CanopenDictConfig.c **** 
  57:.\CanopenDictConfig.c **** //    /*****************************************
  58:.\CanopenDictConfig.c **** //     * Define RPDOs to match slave ID=2 TPDOs*
  59:.\CanopenDictConfig.c **** //     *****************************************/
  60:.\CanopenDictConfig.c **** //    writeLocalDict( d, /*CO_Data* d*/
  61:.\CanopenDictConfig.c **** //            0x1400, /*UNS16 index*/
  62:.\CanopenDictConfig.c **** //            0x01, /*UNS8 subind*/
  63:.\CanopenDictConfig.c **** //            &RPDO1_COBID, /*void * pSourceData,*/
  64:.\CanopenDictConfig.c **** //            &size, /* UNS8 * pExpectedSize*/
  65:.\CanopenDictConfig.c **** //            RW);  /* UNS8 checkAccess */
  66:.\CanopenDictConfig.c **** //    TpdoTransmissionType = TRANS_SYNC_ACYCLIC;
  67:.\CanopenDictConfig.c **** //    writeLocalDict( d, /*CO_Data* d*/
  68:.\CanopenDictConfig.c **** //            0x1400, /*UNS16 index*/
  69:.\CanopenDictConfig.c **** //            0x02, /*UNS8 subind*/
  70:.\CanopenDictConfig.c **** //            &TpdoTransmissionType, /*void * pSourceData,*/
ARM GAS  C:\Users\li\AppData\Local\Temp\ccP4gsSh.s 			page 3


  71:.\CanopenDictConfig.c **** //            (UNS32*)&unsize, /* UNS8 * pExpectedSize*/
  72:.\CanopenDictConfig.c **** //            RW);  /* UNS8 checkAccess */
  73:.\CanopenDictConfig.c **** 
  74:.\CanopenDictConfig.c **** //    writeLocalDict( d, /*CO_Data* d*/
  75:.\CanopenDictConfig.c **** //            0x1401, /*UNS16 index*/
  76:.\CanopenDictConfig.c **** //            0x01, /*UNS8 subind*/
  77:.\CanopenDictConfig.c **** //            &RPDO2_COBID, /*void * pSourceData,*/
  78:.\CanopenDictConfig.c **** //            &size, /* UNS8 * pExpectedSize*/
  79:.\CanopenDictConfig.c **** //            RW);  /* UNS8 checkAccess */
  80:.\CanopenDictConfig.c **** //    TpdoTransmissionType = TRANS_SYNC_ACYCLIC;
  81:.\CanopenDictConfig.c **** //    writeLocalDict( d, /*CO_Data* d*/
  82:.\CanopenDictConfig.c **** //            0x1401, /*UNS16 index*/
  83:.\CanopenDictConfig.c **** //            0x02, /*UNS8 subind*/
  84:.\CanopenDictConfig.c **** //            &TpdoTransmissionType, /*void * pSourceData,*/
  85:.\CanopenDictConfig.c **** //            (UNS32*)&unsize, /* UNS8 * pExpectedSize*/
  86:.\CanopenDictConfig.c **** //            RW);  /* UNS8 checkAccess */
  87:.\CanopenDictConfig.c **** 
  88:.\CanopenDictConfig.c **** //    writeLocalDict( d, /*CO_Data* d*/
  89:.\CanopenDictConfig.c **** //            0x1800, /*UNS16 index*/
  90:.\CanopenDictConfig.c **** //            0x01, /*UNS8 subind*/
  91:.\CanopenDictConfig.c **** //            &TPDO1_COBID, /*void * pSourceData,*/
  92:.\CanopenDictConfig.c **** //            &size, /* UNS8 * pExpectedSize*/
  93:.\CanopenDictConfig.c **** //            RW);  /* UNS8 checkAccess */
  94:.\CanopenDictConfig.c **** //    TpdoTransmissionType = TRANS_SYNC_MIN;
  95:.\CanopenDictConfig.c **** //    writeLocalDict( d, /*CO_Data* d*/
  96:.\CanopenDictConfig.c **** //            0x1800, /*UNS16 index*/
  97:.\CanopenDictConfig.c **** //            0x02, /*UNS8 subind*/
  98:.\CanopenDictConfig.c **** //            &TpdoTransmissionType, /*void * pSourceData,*/
  99:.\CanopenDictConfig.c **** //            (UNS32*)&unsize, /* UNS8 * pExpectedSize*/
 100:.\CanopenDictConfig.c **** //            RW);  /* UNS8 checkAccess */
 101:.\CanopenDictConfig.c **** 
 102:.\CanopenDictConfig.c **** //    writeLocalDict( d, /*CO_Data* d*/
 103:.\CanopenDictConfig.c **** //            0x1801, /*UNS16 index*/
 104:.\CanopenDictConfig.c **** //            0x01, /*UNS8 subind*/
 105:.\CanopenDictConfig.c **** //            &TPDO2_COBID, /*void * pSourceData,*/
 106:.\CanopenDictConfig.c **** //            &size, /* UNS8 * pExpectedSize*/
 107:.\CanopenDictConfig.c **** //            RW);  /* UNS8 checkAccess */
 108:.\CanopenDictConfig.c **** //    TpdoTransmissionType = TRANS_SYNC_MIN;
 109:.\CanopenDictConfig.c **** //    writeLocalDict( d, /*CO_Data* d*/
 110:.\CanopenDictConfig.c **** //            0x1801, /*UNS16 index*/
 111:.\CanopenDictConfig.c **** //            0x02, /*UNS8 subind*/
 112:.\CanopenDictConfig.c **** //            &TpdoTransmissionType, /*void * pSourceData,*/
 113:.\CanopenDictConfig.c **** //            (UNS32*)&unsize, /* UNS8 * pExpectedSize*/
 114:.\CanopenDictConfig.c **** //            RW);  /* UNS8 checkAccess */
 115:.\CanopenDictConfig.c **** 
 116:.\CanopenDictConfig.c **** }
 117:.\CanopenDictConfig.c **** 
 118:.\CanopenDictConfig.c **** /**
 119:.\CanopenDictConfig.c ****   * @brief  Slave_preOperational.
 120:.\CanopenDictConfig.c ****   * @param  d:CANOpen object dictionary.
 121:.\CanopenDictConfig.c ****   * @retval None
 122:.\CanopenDictConfig.c ****   */
 123:.\CanopenDictConfig.c **** void Slave_preOperational(CO_Data* d)
 124:.\CanopenDictConfig.c **** {
  45              		.loc 1 124 0
  46              		.cfi_startproc
  47              		@ args = 0, pretend = 0, frame = 0
ARM GAS  C:\Users\li\AppData\Local\Temp\ccP4gsSh.s 			page 4


  48              		@ frame_needed = 0, uses_anonymous_args = 0
  49              		@ link register save eliminated.
  50              	.LVL1:
  51 0000 7047     		bx	lr
  52              		.cfi_endproc
  53              	.LFE3:
  54              		.size	Slave_preOperational, .-Slave_preOperational
  55 0002 00BF     		.section	.text.Slave_operational,"ax",%progbits
  56              		.align	2
  57              		.global	Slave_operational
  58              		.thumb
  59              		.thumb_func
  60              		.type	Slave_operational, %function
  61              	Slave_operational:
  62              	.LFB4:
 125:.\CanopenDictConfig.c ****   
 126:.\CanopenDictConfig.c ****      MSG_USER(0, "Slave_preOperational",0);
 127:.\CanopenDictConfig.c **** }
 128:.\CanopenDictConfig.c **** /**
 129:.\CanopenDictConfig.c ****   * @brief  Slave_preOperational.
 130:.\CanopenDictConfig.c ****   * @param  d:CANOpen object dictionary.
 131:.\CanopenDictConfig.c ****   * @retval None
 132:.\CanopenDictConfig.c ****   */
 133:.\CanopenDictConfig.c **** void Slave_operational(CO_Data* d)
 134:.\CanopenDictConfig.c **** {
  63              		.loc 1 134 0
  64              		.cfi_startproc
  65              		@ args = 0, pretend = 0, frame = 0
  66              		@ frame_needed = 0, uses_anonymous_args = 0
  67              		@ link register save eliminated.
  68              	.LVL2:
  69 0000 7047     		bx	lr
  70              		.cfi_endproc
  71              	.LFE4:
  72              		.size	Slave_operational, .-Slave_operational
  73 0002 00BF     		.section	.text.Slave_stopped,"ax",%progbits
  74              		.align	2
  75              		.global	Slave_stopped
  76              		.thumb
  77              		.thumb_func
  78              		.type	Slave_stopped, %function
  79              	Slave_stopped:
  80              	.LFB5:
 135:.\CanopenDictConfig.c **** //	UNS32 SyncTimePeriod = 1000;
 136:.\CanopenDictConfig.c **** //	UNS32 size = sizeof(SyncTimePeriod);subindex
 137:.\CanopenDictConfig.c **** //
 138:.\CanopenDictConfig.c **** //	writeLocalDict( d, /*CO_Data* d*/
 139:.\CanopenDictConfig.c **** //			0x1006, /*UNS16 index*/
 140:.\CanopenDictConfig.c **** //			0x00, /*UNS8 subind*/
 141:.\CanopenDictConfig.c **** //			&SyncTimePeriod, /*void * pSourceData,*/
 142:.\CanopenDictConfig.c **** //			&size, /* UNS8 * pExpectedSize*/
 143:.\CanopenDictConfig.c **** //			RW);  /* UNS8 checkAccess */
 144:.\CanopenDictConfig.c **** //	stopSYNC(d);
 145:.\CanopenDictConfig.c **** //	startSYNC(d);
 146:.\CanopenDictConfig.c **** //	setTimer(100);
 147:.\CanopenDictConfig.c **** ////	TIM_Cmd(TIM4, ENABLE);
 148:.\CanopenDictConfig.c ****     MSG_USER(0x00, "--------------------------------Slave_operational---------------------",0);
ARM GAS  C:\Users\li\AppData\Local\Temp\ccP4gsSh.s 			page 5


 149:.\CanopenDictConfig.c **** }
 150:.\CanopenDictConfig.c **** /**
 151:.\CanopenDictConfig.c ****   * @brief  Slave_stopped.
 152:.\CanopenDictConfig.c ****   * @param  d:CANOpen object dictionary.
 153:.\CanopenDictConfig.c ****   * @retval None
 154:.\CanopenDictConfig.c ****   */
 155:.\CanopenDictConfig.c **** void Slave_stopped(CO_Data* d)
 156:.\CanopenDictConfig.c **** {
  81              		.loc 1 156 0
  82              		.cfi_startproc
  83              		@ args = 0, pretend = 0, frame = 0
  84              		@ frame_needed = 0, uses_anonymous_args = 0
  85              		@ link register save eliminated.
  86              	.LVL3:
  87 0000 7047     		bx	lr
  88              		.cfi_endproc
  89              	.LFE5:
  90              		.size	Slave_stopped, .-Slave_stopped
  91 0002 00BF     		.section	.text.Slave_post_sync,"ax",%progbits
  92              		.align	2
  93              		.global	Slave_post_sync
  94              		.thumb
  95              		.thumb_func
  96              		.type	Slave_post_sync, %function
  97              	Slave_post_sync:
  98              	.LFB6:
 157:.\CanopenDictConfig.c ****     MSG_USER(0, "Slave_stopped",0);
 158:.\CanopenDictConfig.c **** }
 159:.\CanopenDictConfig.c **** 
 160:.\CanopenDictConfig.c **** /**
 161:.\CanopenDictConfig.c ****   * @brief  Slave_post_sync.
 162:.\CanopenDictConfig.c ****   * @param  d:CANOpen object dictionary.
 163:.\CanopenDictConfig.c ****   * @retval None
 164:.\CanopenDictConfig.c ****   */
 165:.\CanopenDictConfig.c **** void Slave_post_sync(CO_Data* d)
 166:.\CanopenDictConfig.c **** {
  99              		.loc 1 166 0
 100              		.cfi_startproc
 101              		@ args = 0, pretend = 0, frame = 0
 102              		@ frame_needed = 0, uses_anonymous_args = 0
 103              		@ link register save eliminated.
 104              	.LVL4:
 105 0000 7047     		bx	lr
 106              		.cfi_endproc
 107              	.LFE6:
 108              		.size	Slave_post_sync, .-Slave_post_sync
 109 0002 00BF     		.section	.text.Slave_post_emcy,"ax",%progbits
 110              		.align	2
 111              		.global	Slave_post_emcy
 112              		.thumb
 113              		.thumb_func
 114              		.type	Slave_post_emcy, %function
 115              	Slave_post_emcy:
 116              	.LFB7:
 167:.\CanopenDictConfig.c **** 
 168:.\CanopenDictConfig.c **** //	ControlWordAxis1 = 0x0f;
 169:.\CanopenDictConfig.c **** //	InterpolationDataAxis1 = 100;
ARM GAS  C:\Users\li\AppData\Local\Temp\ccP4gsSh.s 			page 6


 170:.\CanopenDictConfig.c **** //
 171:.\CanopenDictConfig.c **** //	ControlWordAxis2 = 0x0f;
 172:.\CanopenDictConfig.c **** //	InterpolationDataAxis2 = 100;
 173:.\CanopenDictConfig.c ****     MSG_USER(0, "Slave_post_sync",0);
 174:.\CanopenDictConfig.c **** }
 175:.\CanopenDictConfig.c **** /**
 176:.\CanopenDictConfig.c ****   * @brief  Slave_post_emcy.
 177:.\CanopenDictConfig.c ****   * @param  d:CANOpen object dictionary.
 178:.\CanopenDictConfig.c ****   * @retval None
 179:.\CanopenDictConfig.c ****   */
 180:.\CanopenDictConfig.c **** void Slave_post_emcy(CO_Data* d, UNS8 nodeID, UNS16 errCode, UNS8 errReg)
 181:.\CanopenDictConfig.c **** {
 117              		.loc 1 181 0
 118              		.cfi_startproc
 119              		@ args = 0, pretend = 0, frame = 0
 120              		@ frame_needed = 0, uses_anonymous_args = 0
 121              		@ link register save eliminated.
 122              	.LVL5:
 123 0000 7047     		bx	lr
 124              		.cfi_endproc
 125              	.LFE7:
 126              		.size	Slave_post_emcy, .-Slave_post_emcy
 127 0002 00BF     		.section	.text.Slave_post_TPDO,"ax",%progbits
 128              		.align	2
 129              		.global	Slave_post_TPDO
 130              		.thumb
 131              		.thumb_func
 132              		.type	Slave_post_TPDO, %function
 133              	Slave_post_TPDO:
 134              	.LFB8:
 182:.\CanopenDictConfig.c ****     //MSG_USER(0, "Slave received EMCY message. Node: %2.2x  ErrorCode: %4.4x  ErrorRegister: %2.2x
 183:.\CanopenDictConfig.c ****     MSG_USER(0, "Slave received EMCY message. Node: %2.2x  ErrorCode: %4.4x  ErrorRegister: %2.2x\n
 184:.\CanopenDictConfig.c **** }
 185:.\CanopenDictConfig.c **** /**
 186:.\CanopenDictConfig.c ****   * @brief  Slave_post_TPDO.
 187:.\CanopenDictConfig.c ****   * @param  d:CANOpen object dictionary.
 188:.\CanopenDictConfig.c ****   * @retval None
 189:.\CanopenDictConfig.c ****   */
 190:.\CanopenDictConfig.c **** void Slave_post_TPDO(CO_Data* d)
 191:.\CanopenDictConfig.c **** {
 135              		.loc 1 191 0
 136              		.cfi_startproc
 137              		@ args = 0, pretend = 0, frame = 0
 138              		@ frame_needed = 0, uses_anonymous_args = 0
 139              		@ link register save eliminated.
 140              	.LVL6:
 141 0000 7047     		bx	lr
 142              		.cfi_endproc
 143              	.LFE8:
 144              		.size	Slave_post_TPDO, .-Slave_post_TPDO
 145 0002 00BF     		.section	.text.Slave_post_SlaveBootup,"ax",%progbits
 146              		.align	2
 147              		.global	Slave_post_SlaveBootup
 148              		.thumb
 149              		.thumb_func
 150              		.type	Slave_post_SlaveBootup, %function
 151              	Slave_post_SlaveBootup:
ARM GAS  C:\Users\li\AppData\Local\Temp\ccP4gsSh.s 			page 7


 152              	.LFB9:
 192:.\CanopenDictConfig.c **** 
 193:.\CanopenDictConfig.c **** }
 194:.\CanopenDictConfig.c **** 
 195:.\CanopenDictConfig.c **** /**
 196:.\CanopenDictConfig.c ****   * @brief  Slave_post_SlaveBootup.
 197:.\CanopenDictConfig.c ****   * @param  d:CANOpen object dictionary.nodeId:Node id newNodeState:Slave change state
 198:.\CanopenDictConfig.c ****   * @retval None
 199:.\CanopenDictConfig.c ****   */
 200:.\CanopenDictConfig.c **** void Slave_post_SlaveBootup(CO_Data* d, UNS8 nodeid)
 201:.\CanopenDictConfig.c **** {
 153              		.loc 1 201 0
 154              		.cfi_startproc
 155              		@ args = 0, pretend = 0, frame = 0
 156              		@ frame_needed = 0, uses_anonymous_args = 0
 157              		@ link register save eliminated.
 158              	.LVL7:
 159 0000 7047     		bx	lr
 160              		.cfi_endproc
 161              	.LFE9:
 162              		.size	Slave_post_SlaveBootup, .-Slave_post_SlaveBootup
 163 0002 00BF     		.section	.text.Slave_initialisation,"ax",%progbits
 164              		.align	2
 165              		.global	Slave_initialisation
 166              		.thumb
 167              		.thumb_func
 168              		.type	Slave_initialisation, %function
 169              	Slave_initialisation:
 170              	.LFB2:
  36:.\CanopenDictConfig.c ****       UNS16 HeartTimePeriod = 500;
 171              		.loc 1 36 0
 172              		.cfi_startproc
 173              		@ args = 0, pretend = 0, frame = 8
 174              		@ frame_needed = 0, uses_anonymous_args = 0
 175              	.LVL8:
  36:.\CanopenDictConfig.c ****       UNS16 HeartTimePeriod = 500;
 176              		.loc 1 36 0
 177 0000 00B5     		push	{lr}
 178              		.cfi_def_cfa_offset 4
 179              		.cfi_offset 14, -4
 180 0002 87B0     		sub	sp, sp, #28
 181              		.cfi_def_cfa_offset 32
  37:.\CanopenDictConfig.c **** 	  UNS32 size = sizeof(HeartTimePeriod); // 注意传递的是uns32
 182              		.loc 1 37 0
 183 0004 4FF4FA73 		mov	r3, #500
 184 0008 ADF81630 		strh	r3, [sp, #22]	@ movhi
  38:.\CanopenDictConfig.c **** 
 185              		.loc 1 38 0
 186 000c 0223     		movs	r3, #2
 187 000e 0493     		str	r3, [sp, #16]
  40:.\CanopenDictConfig.c **** 			 0x1017, /*UNS16 index*/
 188              		.loc 1 40 0
 189 0010 04AB     		add	r3, sp, #16
 190 0012 0093     		str	r3, [sp]
 191 0014 0022     		movs	r2, #0
 192 0016 0192     		str	r2, [sp, #4]
 193 0018 0292     		str	r2, [sp, #8]
ARM GAS  C:\Users\li\AppData\Local\Temp\ccP4gsSh.s 			page 8


 194 001a 41F21701 		movw	r1, #4119
 195 001e 0DF11603 		add	r3, sp, #22
 196 0022 FFF7FEFF 		bl	_setODentry
 197              	.LVL9:
 116:.\CanopenDictConfig.c **** 
 198              		.loc 1 116 0
 199 0026 07B0     		add	sp, sp, #28
 200              		.cfi_def_cfa_offset 4
 201              		@ sp needed
 202 0028 5DF804FB 		ldr	pc, [sp], #4
 203              		.cfi_endproc
 204              	.LFE2:
 205              		.size	Slave_initialisation, .-Slave_initialisation
 206              		.section	.text.Slave_post_SlaveStateChange,"ax",%progbits
 207              		.align	2
 208              		.global	Slave_post_SlaveStateChange
 209              		.thumb
 210              		.thumb_func
 211              		.type	Slave_post_SlaveStateChange, %function
 212              	Slave_post_SlaveStateChange:
 213              	.LFB10:
 202:.\CanopenDictConfig.c ****         MSG_USER(0, "Slave_post_SlaveBootup %d", nodeid);
 203:.\CanopenDictConfig.c **** }
 204:.\CanopenDictConfig.c **** 
 205:.\CanopenDictConfig.c **** void Slave_post_SlaveStateChange(CO_Data* d, UNS8 nodeId, e_nodeState newNodeState)
 206:.\CanopenDictConfig.c **** {
 214              		.loc 1 206 0
 215              		.cfi_startproc
 216              		@ args = 0, pretend = 0, frame = 0
 217              		@ frame_needed = 0, uses_anonymous_args = 0
 218              	.LVL10:
 207:.\CanopenDictConfig.c ****         static UNS8 NodeIdNum = 0;
 208:.\CanopenDictConfig.c ****         if (newNodeState == Operational)
 219              		.loc 1 208 0
 220 0000 052A     		cmp	r2, #5
 221 0002 0ED1     		bne	.L14
 206:.\CanopenDictConfig.c ****         static UNS8 NodeIdNum = 0;
 222              		.loc 1 206 0
 223 0004 08B5     		push	{r3, lr}
 224              		.cfi_def_cfa_offset 8
 225              		.cfi_offset 3, -8
 226              		.cfi_offset 14, -4
 209:.\CanopenDictConfig.c ****         {
 210:.\CanopenDictConfig.c ****                 NodeIdNum++;
 227              		.loc 1 210 0
 228 0006 074A     		ldr	r2, .L15
 229              	.LVL11:
 230 0008 1378     		ldrb	r3, [r2]	@ zero_extendqisi2
 231 000a 0133     		adds	r3, r3, #1
 232 000c DBB2     		uxtb	r3, r3
 233 000e 1370     		strb	r3, [r2]
 211:.\CanopenDictConfig.c ****                 if (NodeIdNum == MAX_CAN_BUS_ID)
 234              		.loc 1 211 0
 235 0010 012B     		cmp	r3, #1
 236 0012 05D1     		bne	.L11
 212:.\CanopenDictConfig.c ****                 {
 213:.\CanopenDictConfig.c ****                         NodeIdNum = 0;
ARM GAS  C:\Users\li\AppData\Local\Temp\ccP4gsSh.s 			page 9


 237              		.loc 1 213 0
 238 0014 0022     		movs	r2, #0
 239 0016 034B     		ldr	r3, .L15
 240 0018 1A70     		strb	r2, [r3]
 214:.\CanopenDictConfig.c ****                         setState(d, Operational);
 241              		.loc 1 214 0
 242 001a 0521     		movs	r1, #5
 243              	.LVL12:
 244 001c FFF7FEFF 		bl	setState
 245              	.LVL13:
 246              	.L11:
 247 0020 08BD     		pop	{r3, pc}
 248              	.LVL14:
 249              	.L14:
 250              		.cfi_def_cfa_offset 0
 251              		.cfi_restore 3
 252              		.cfi_restore 14
 253 0022 7047     		bx	lr
 254              	.L16:
 255              		.align	2
 256              	.L15:
 257 0024 00000000 		.word	.LANCHOR0
 258              		.cfi_endproc
 259              	.LFE10:
 260              		.size	Slave_post_SlaveStateChange, .-Slave_post_SlaveStateChange
 261              		.section	.text.delay1ms,"ax",%progbits
 262              		.align	2
 263              		.global	delay1ms
 264              		.thumb
 265              		.thumb_func
 266              		.type	delay1ms, %function
 267              	delay1ms:
 268              	.LFB0:
  19:.\CanopenDictConfig.c **** /**
 269              		.loc 1 19 0
 270              		.cfi_startproc
 271              		@ args = 0, pretend = 0, frame = 0
 272              		@ frame_needed = 0, uses_anonymous_args = 0
 273              		@ link register save eliminated.
 274              	.LVL15:
  19:.\CanopenDictConfig.c **** /**
 275              		.loc 1 19 0
 276 0000 3221     		movs	r1, #50
 277 0002 0DE0     		b	.L18
 278              	.LVL16:
 279              	.L19:
  19:.\CanopenDictConfig.c **** /**
 280              		.loc 1 19 0 is_stmt 0 discriminator 5
 281 0004 013B     		subs	r3, r3, #1
 282              	.LVL17:
 283 0006 DBB2     		uxtb	r3, r3
 284              	.LVL18:
 285 0008 00E0     		b	.L20
 286              	.LVL19:
 287              	.L22:
 288 000a 0223     		movs	r3, #2
 289              	.L20:
ARM GAS  C:\Users\li\AppData\Local\Temp\ccP4gsSh.s 			page 10


 290              	.LVL20:
  19:.\CanopenDictConfig.c **** /**
 291              		.loc 1 19 0 discriminator 3
 292 000c 002B     		cmp	r3, #0
 293 000e F9D1     		bne	.L19
  19:.\CanopenDictConfig.c **** /**
 294              		.loc 1 19 0 discriminator 6
 295 0010 013A     		subs	r2, r2, #1
 296              	.LVL21:
 297 0012 D2B2     		uxtb	r2, r2
 298              	.LVL22:
 299 0014 00E0     		b	.L21
 300              	.LVL23:
 301              	.L23:
 302 0016 C822     		movs	r2, #200
 303              	.L21:
 304              	.LVL24:
  19:.\CanopenDictConfig.c **** /**
 305              		.loc 1 19 0 discriminator 7
 306 0018 002A     		cmp	r2, #0
 307 001a F6D1     		bne	.L22
  19:.\CanopenDictConfig.c **** /**
 308              		.loc 1 19 0 discriminator 9
 309 001c 0139     		subs	r1, r1, #1
 310              	.LVL25:
 311 001e C9B2     		uxtb	r1, r1
 312              	.LVL26:
 313              	.L18:
  19:.\CanopenDictConfig.c **** /**
 314              		.loc 1 19 0 discriminator 10
 315 0020 0029     		cmp	r1, #0
 316 0022 F8D1     		bne	.L23
  19:.\CanopenDictConfig.c **** /**
 317              		.loc 1 19 0
 318 0024 7047     		bx	lr
 319              		.cfi_endproc
 320              	.LFE0:
 321              		.size	delay1ms, .-delay1ms
 322 0026 00BF     		.section	.text.CANOpenSlaveInit,"ax",%progbits
 323              		.align	2
 324              		.global	CANOpenSlaveInit
 325              		.thumb
 326              		.thumb_func
 327              		.type	CANOpenSlaveInit, %function
 328              	CANOpenSlaveInit:
 329              	.LFB11:
 215:.\CanopenDictConfig.c ****                         MSG_USER(0x0000,"ENTER Slave_Operational",0);
 216:.\CanopenDictConfig.c ****                 }
 217:.\CanopenDictConfig.c ****         }
 218:.\CanopenDictConfig.c **** }
 219:.\CanopenDictConfig.c **** 
 220:.\CanopenDictConfig.c **** 
 221:.\CanopenDictConfig.c **** 
 222:.\CanopenDictConfig.c **** /**
 223:.\CanopenDictConfig.c ****   * @brief  CANOpenSlaveInit.
 224:.\CanopenDictConfig.c ****   * @param  d:CANOpen object dictionary.
 225:.\CanopenDictConfig.c ****   * @retval None
ARM GAS  C:\Users\li\AppData\Local\Temp\ccP4gsSh.s 			page 11


 226:.\CanopenDictConfig.c ****   */
 227:.\CanopenDictConfig.c **** void CANOpenSlaveInit(CO_Data* d)
 228:.\CanopenDictConfig.c **** {
 330              		.loc 1 228 0 is_stmt 1
 331              		.cfi_startproc
 332              		@ args = 0, pretend = 0, frame = 0
 333              		@ frame_needed = 0, uses_anonymous_args = 0
 334              		@ link register save eliminated.
 335              	.LVL27:
 229:.\CanopenDictConfig.c ****     d->heartbeatError = Slave_heartbeatError;
 336              		.loc 1 229 0
 337 0000 0F4B     		ldr	r3, .L25
 338 0002 C0F8AC30 		str	r3, [r0, #172]
 230:.\CanopenDictConfig.c ****     d->initialisation = Slave_initialisation;
 339              		.loc 1 230 0
 340 0006 0F4B     		ldr	r3, .L25+4
 341 0008 C0F88030 		str	r3, [r0, #128]
 231:.\CanopenDictConfig.c ****     d->preOperational = Slave_preOperational;
 342              		.loc 1 231 0
 343 000c 0E4B     		ldr	r3, .L25+8
 344 000e C0F88430 		str	r3, [r0, #132]
 232:.\CanopenDictConfig.c ****     d->operational = Slave_operational;
 345              		.loc 1 232 0
 346 0012 0E4B     		ldr	r3, .L25+12
 347 0014 C0F88830 		str	r3, [r0, #136]
 233:.\CanopenDictConfig.c ****     d->stopped = Slave_stopped;
 348              		.loc 1 233 0
 349 0018 0D4B     		ldr	r3, .L25+16
 350 001a C0F88C30 		str	r3, [r0, #140]
 234:.\CanopenDictConfig.c ****     d->post_sync = Slave_post_sync;
 351              		.loc 1 234 0
 352 001e 0D4B     		ldr	r3, .L25+20
 353 0020 C0F83C31 		str	r3, [r0, #316]
 235:.\CanopenDictConfig.c ****     d->post_TPDO = Slave_post_TPDO;
 354              		.loc 1 235 0
 355 0024 0C4B     		ldr	r3, .L25+24
 356 0026 C0F84031 		str	r3, [r0, #320]
 236:.\CanopenDictConfig.c ****     d->post_emcy             = Slave_post_emcy;
 357              		.loc 1 236 0
 358 002a 0C4B     		ldr	r3, .L25+28
 359 002c C0F8A831 		str	r3, [r0, #424]
 237:.\CanopenDictConfig.c ****     d->post_SlaveBootup      = Slave_post_SlaveBootup;
 360              		.loc 1 237 0
 361 0030 0B4B     		ldr	r3, .L25+32
 362 0032 C0F84431 		str	r3, [r0, #324]
 238:.\CanopenDictConfig.c ****     d->post_SlaveStateChange = Slave_post_SlaveStateChange;
 363              		.loc 1 238 0
 364 0036 0B4B     		ldr	r3, .L25+36
 365 0038 C0F84831 		str	r3, [r0, #328]
 366 003c 7047     		bx	lr
 367              	.L26:
 368 003e 00BF     		.align	2
 369              	.L25:
 370 0040 00000000 		.word	Slave_heartbeatError
 371 0044 00000000 		.word	Slave_initialisation
 372 0048 00000000 		.word	Slave_preOperational
 373 004c 00000000 		.word	Slave_operational
ARM GAS  C:\Users\li\AppData\Local\Temp\ccP4gsSh.s 			page 12


 374 0050 00000000 		.word	Slave_stopped
 375 0054 00000000 		.word	Slave_post_sync
 376 0058 00000000 		.word	Slave_post_TPDO
 377 005c 00000000 		.word	Slave_post_emcy
 378 0060 00000000 		.word	Slave_post_SlaveBootup
 379 0064 00000000 		.word	Slave_post_SlaveStateChange
 380              		.cfi_endproc
 381              	.LFE11:
 382              		.size	CANOpenSlaveInit, .-CANOpenSlaveInit
 383              		.section	.text.CanopenInit,"ax",%progbits
 384              		.align	2
 385              		.global	CanopenInit
 386              		.thumb
 387              		.thumb_func
 388              		.type	CanopenInit, %function
 389              	CanopenInit:
 390              	.LFB12:
 239:.\CanopenDictConfig.c **** 
 240:.\CanopenDictConfig.c **** }
 241:.\CanopenDictConfig.c **** /**
 242:.\CanopenDictConfig.c ****   * @brief  CanopenInit
 243:.\CanopenDictConfig.c ****   * @param  NONE
 244:.\CanopenDictConfig.c ****   * @retval NONECofig_MOTOR_test
 245:.\CanopenDictConfig.c ****   */
 246:.\CanopenDictConfig.c **** void CanopenInit(void)
 247:.\CanopenDictConfig.c **** {
 391              		.loc 1 247 0
 392              		.cfi_startproc
 393              		@ args = 0, pretend = 0, frame = 0
 394              		@ frame_needed = 0, uses_anonymous_args = 0
 395 0000 10B5     		push	{r4, lr}
 396              		.cfi_def_cfa_offset 8
 397              		.cfi_offset 4, -8
 398              		.cfi_offset 14, -4
 248:.\CanopenDictConfig.c ****     UNS32 i;
 249:.\CanopenDictConfig.c **** //
 250:.\CanopenDictConfig.c **** //	initTimer();
 251:.\CanopenDictConfig.c **** //	CANOpenSlaveObject->canHandle = CAN1;
 252:.\CanopenDictConfig.c **** 
 253:.\CanopenDictConfig.c **** //	setState(CANOpenSlaveObject,Initialisation);
 254:.\CanopenDictConfig.c **** //	setNodeId (CANOpenSlaveObject, 127);
 255:.\CanopenDictConfig.c ****     CANOpenSlaveInit(&TestSlave_Data);
 399              		.loc 1 255 0
 400 0002 0D4C     		ldr	r4, .L33
 401 0004 2046     		mov	r0, r4
 402 0006 FFF7FEFF 		bl	CANOpenSlaveInit
 403              	.LVL28:
 256:.\CanopenDictConfig.c **** 
 257:.\CanopenDictConfig.c ****     setNodeId(&TestSlave_Data, nodeID);
 404              		.loc 1 257 0
 405 000a 2046     		mov	r0, r4
 406 000c 0B4B     		ldr	r3, .L33+4
 407 000e 1978     		ldrb	r1, [r3]	@ zero_extendqisi2
 408 0010 FFF7FEFF 		bl	setNodeId
 409              	.LVL29:
 258:.\CanopenDictConfig.c ****     setState(&TestSlave_Data, Initialisation);
 410              		.loc 1 258 0
ARM GAS  C:\Users\li\AppData\Local\Temp\ccP4gsSh.s 			page 13


 411 0014 2046     		mov	r0, r4
 412 0016 0021     		movs	r1, #0
 413 0018 FFF7FEFF 		bl	setState
 414              	.LVL30:
 259:.\CanopenDictConfig.c **** 
 260:.\CanopenDictConfig.c ****     for(i=0; i<65536; i++);
 415              		.loc 1 260 0
 416 001c 0023     		movs	r3, #0
 417 001e 00E0     		b	.L28
 418              	.LVL31:
 419              	.L29:
 420              		.loc 1 260 0 is_stmt 0 discriminator 3
 421 0020 0133     		adds	r3, r3, #1
 422              	.LVL32:
 423              	.L28:
 424              		.loc 1 260 0 discriminator 1
 425 0022 B3F5803F 		cmp	r3, #65536
 426 0026 FBD3     		bcc	.L29
 427 0028 0023     		movs	r3, #0
 428              	.LVL33:
 429 002a 00E0     		b	.L30
 430              	.LVL34:
 431              	.L31:
 261:.\CanopenDictConfig.c ****     for(i=0; i<65536; i++);
 432              		.loc 1 261 0 is_stmt 1 discriminator 3
 433 002c 0133     		adds	r3, r3, #1
 434              	.LVL35:
 435              	.L30:
 436              		.loc 1 261 0 is_stmt 0 discriminator 1
 437 002e B3F5803F 		cmp	r3, #65536
 438 0032 FBD3     		bcc	.L31
 262:.\CanopenDictConfig.c **** //    for(i=0; i<65536; i++);
 263:.\CanopenDictConfig.c **** //    for(i=0; i<65536; i++);
 264:.\CanopenDictConfig.c **** //    for(i=0; i<65536; i++);
 265:.\CanopenDictConfig.c **** 
 266:.\CanopenDictConfig.c ****     MSG_USER(0x00,"CanopenInit_OK!",0);
 267:.\CanopenDictConfig.c **** }
 439              		.loc 1 267 0 is_stmt 1
 440 0034 10BD     		pop	{r4, pc}
 441              	.L34:
 442 0036 00BF     		.align	2
 443              	.L33:
 444 0038 00000000 		.word	TestSlave_Data
 445 003c 00000000 		.word	.LANCHOR1
 446              		.cfi_endproc
 447              	.LFE12:
 448              		.size	CanopenInit, .-CanopenInit
 449              		.global	nodeID
 450              		.data
 451              		.set	.LANCHOR1,. + 0
 452              		.type	nodeID, %object
 453              		.size	nodeID, 1
 454              	nodeID:
 455 0000 04       		.byte	4
 456              		.bss
 457              		.set	.LANCHOR0,. + 0
 458              		.type	NodeIdNum.5898, %object
ARM GAS  C:\Users\li\AppData\Local\Temp\ccP4gsSh.s 			page 14


 459              		.size	NodeIdNum.5898, 1
 460              	NodeIdNum.5898:
 461 0000 00       		.space	1
 462              		.text
 463              	.Letext0:
 464              		.file 2 ".\\can.h"
 465              		.file 3 ".\\applicfg.h"
 466              		.file 4 ".\\data.h"
 467              		.file 5 ".\\objdictdef.h"
 468              		.file 6 ".\\objacces.h"
 469              		.file 7 ".\\sdo.h"
 470              		.file 8 ".\\pdo.h"
 471              		.file 9 ".\\states.h"
 472              		.file 10 ".\\lifegrd.h"
 473              		.file 11 ".\\sync.h"
 474              		.file 12 ".\\emcy.h"
 475              		.file 13 ".\\TestSlave.h"