ARM GAS  C:\Users\PANXIA~1\AppData\Local\Temp\cchsV8S1.s 			page 1


   1              		.syntax unified
   2              		.cpu cortex-m3
   3              		.fpu softvfp
   4              		.eabi_attribute 20, 1
   5              		.eabi_attribute 21, 1
   6              		.eabi_attribute 23, 3
   7              		.eabi_attribute 24, 1
   8              		.eabi_attribute 25, 1
   9              		.eabi_attribute 26, 1
  10              		.eabi_attribute 30, 1
  11              		.eabi_attribute 34, 1
  12              		.eabi_attribute 18, 4
  13              		.thumb
  14              		.file	"cyfitter_cfg.c"
  15              		.text
  16              	.Ltext0:
  17              		.cfi_sections	.debug_frame
  18              		.section	.text.CyClockStartupError,"ax",%progbits
  19              		.align	2
  20              		.thumb
  21              		.thumb_func
  22              		.type	CyClockStartupError, %function
  23              	CyClockStartupError:
  24              	.LFB3:
  25              		.file 1 ".\\Generated_Source\\PSoC5\\cyfitter_cfg.c"
   1:.\Generated_Source\PSoC5/cyfitter_cfg.c **** /*******************************************************************************
   2:.\Generated_Source\PSoC5/cyfitter_cfg.c **** * File Name: cyfitter_cfg.c
   3:.\Generated_Source\PSoC5/cyfitter_cfg.c **** * 
   4:.\Generated_Source\PSoC5/cyfitter_cfg.c **** * PSoC Creator  3.3
   5:.\Generated_Source\PSoC5/cyfitter_cfg.c **** *
   6:.\Generated_Source\PSoC5/cyfitter_cfg.c **** * Description:
   7:.\Generated_Source\PSoC5/cyfitter_cfg.c **** * This file contains device initialization code.
   8:.\Generated_Source\PSoC5/cyfitter_cfg.c **** * Except for the user defined sections in CyClockStartupError(), this file should not be modified.
   9:.\Generated_Source\PSoC5/cyfitter_cfg.c **** * This file is automatically generated by PSoC Creator.
  10:.\Generated_Source\PSoC5/cyfitter_cfg.c **** *
  11:.\Generated_Source\PSoC5/cyfitter_cfg.c **** ********************************************************************************
  12:.\Generated_Source\PSoC5/cyfitter_cfg.c **** * Copyright (c) 2007-2015 Cypress Semiconductor.  All rights reserved.
  13:.\Generated_Source\PSoC5/cyfitter_cfg.c **** * You may use this file only in accordance with the license, terms, conditions, 
  14:.\Generated_Source\PSoC5/cyfitter_cfg.c **** * disclaimers, and limitations in the end user license agreement accompanying 
  15:.\Generated_Source\PSoC5/cyfitter_cfg.c **** * the software package with which this file was provided.
  16:.\Generated_Source\PSoC5/cyfitter_cfg.c **** ********************************************************************************/
  17:.\Generated_Source\PSoC5/cyfitter_cfg.c **** 
  18:.\Generated_Source\PSoC5/cyfitter_cfg.c **** #include <string.h>
  19:.\Generated_Source\PSoC5/cyfitter_cfg.c **** #include "cytypes.h"
  20:.\Generated_Source\PSoC5/cyfitter_cfg.c **** #include "cydevice_trm.h"
  21:.\Generated_Source\PSoC5/cyfitter_cfg.c **** #include "cyfitter.h"
  22:.\Generated_Source\PSoC5/cyfitter_cfg.c **** #include "CyLib.h"
  23:.\Generated_Source\PSoC5/cyfitter_cfg.c **** #include "cyfitter_cfg.h"
  24:.\Generated_Source\PSoC5/cyfitter_cfg.c **** 
  25:.\Generated_Source\PSoC5/cyfitter_cfg.c **** #define CY_NEED_CYCLOCKSTARTUPERROR 1
  26:.\Generated_Source\PSoC5/cyfitter_cfg.c **** 
  27:.\Generated_Source\PSoC5/cyfitter_cfg.c **** 
  28:.\Generated_Source\PSoC5/cyfitter_cfg.c **** #if defined(__GNUC__) || defined(__ARMCC_VERSION)
  29:.\Generated_Source\PSoC5/cyfitter_cfg.c ****     #define CYPACKED 
  30:.\Generated_Source\PSoC5/cyfitter_cfg.c ****     #define CYPACKED_ATTR __attribute__ ((packed))
  31:.\Generated_Source\PSoC5/cyfitter_cfg.c ****     #define CYALIGNED __attribute__ ((aligned))
  32:.\Generated_Source\PSoC5/cyfitter_cfg.c ****     #define CY_CFG_UNUSED __attribute__ ((unused))
ARM GAS  C:\Users\PANXIA~1\AppData\Local\Temp\cchsV8S1.s 			page 2


  33:.\Generated_Source\PSoC5/cyfitter_cfg.c ****     #define CY_CFG_SECTION __attribute__ ((section(".psocinit")))
  34:.\Generated_Source\PSoC5/cyfitter_cfg.c ****     
  35:.\Generated_Source\PSoC5/cyfitter_cfg.c ****     #if defined(__ARMCC_VERSION)
  36:.\Generated_Source\PSoC5/cyfitter_cfg.c ****         #define CY_CFG_MEMORY_BARRIER() __memory_changed()
  37:.\Generated_Source\PSoC5/cyfitter_cfg.c ****     #else
  38:.\Generated_Source\PSoC5/cyfitter_cfg.c ****         #define CY_CFG_MEMORY_BARRIER() __sync_synchronize()
  39:.\Generated_Source\PSoC5/cyfitter_cfg.c ****     #endif
  40:.\Generated_Source\PSoC5/cyfitter_cfg.c ****     
  41:.\Generated_Source\PSoC5/cyfitter_cfg.c **** #elif defined(__ICCARM__)
  42:.\Generated_Source\PSoC5/cyfitter_cfg.c ****     #include <intrinsics.h>
  43:.\Generated_Source\PSoC5/cyfitter_cfg.c **** 
  44:.\Generated_Source\PSoC5/cyfitter_cfg.c ****     #define CYPACKED __packed
  45:.\Generated_Source\PSoC5/cyfitter_cfg.c ****     #define CYPACKED_ATTR 
  46:.\Generated_Source\PSoC5/cyfitter_cfg.c ****     #define CYALIGNED _Pragma("data_alignment=4")
  47:.\Generated_Source\PSoC5/cyfitter_cfg.c ****     #define CY_CFG_UNUSED _Pragma("diag_suppress=Pe177")
  48:.\Generated_Source\PSoC5/cyfitter_cfg.c ****     #define CY_CFG_SECTION _Pragma("location=\".psocinit\"")
  49:.\Generated_Source\PSoC5/cyfitter_cfg.c ****     
  50:.\Generated_Source\PSoC5/cyfitter_cfg.c ****     #define CY_CFG_MEMORY_BARRIER() __DMB()
  51:.\Generated_Source\PSoC5/cyfitter_cfg.c ****     
  52:.\Generated_Source\PSoC5/cyfitter_cfg.c **** #else
  53:.\Generated_Source\PSoC5/cyfitter_cfg.c ****     #error Unsupported toolchain
  54:.\Generated_Source\PSoC5/cyfitter_cfg.c **** #endif
  55:.\Generated_Source\PSoC5/cyfitter_cfg.c **** 
  56:.\Generated_Source\PSoC5/cyfitter_cfg.c **** 
  57:.\Generated_Source\PSoC5/cyfitter_cfg.c **** CY_CFG_UNUSED
  58:.\Generated_Source\PSoC5/cyfitter_cfg.c **** static void CYMEMZERO(void *s, size_t n);
  59:.\Generated_Source\PSoC5/cyfitter_cfg.c **** CY_CFG_UNUSED
  60:.\Generated_Source\PSoC5/cyfitter_cfg.c **** static void CYMEMZERO(void *s, size_t n)
  61:.\Generated_Source\PSoC5/cyfitter_cfg.c **** {
  62:.\Generated_Source\PSoC5/cyfitter_cfg.c **** 	(void)memset(s, 0, n);
  63:.\Generated_Source\PSoC5/cyfitter_cfg.c **** }
  64:.\Generated_Source\PSoC5/cyfitter_cfg.c **** CY_CFG_UNUSED
  65:.\Generated_Source\PSoC5/cyfitter_cfg.c **** static void CYCONFIGCPY(void *dest, const void *src, size_t n);
  66:.\Generated_Source\PSoC5/cyfitter_cfg.c **** CY_CFG_UNUSED
  67:.\Generated_Source\PSoC5/cyfitter_cfg.c **** static void CYCONFIGCPY(void *dest, const void *src, size_t n)
  68:.\Generated_Source\PSoC5/cyfitter_cfg.c **** {
  69:.\Generated_Source\PSoC5/cyfitter_cfg.c **** 	(void)memcpy(dest, src, n);
  70:.\Generated_Source\PSoC5/cyfitter_cfg.c **** }
  71:.\Generated_Source\PSoC5/cyfitter_cfg.c **** CY_CFG_UNUSED
  72:.\Generated_Source\PSoC5/cyfitter_cfg.c **** static void CYCONFIGCPYCODE(void *dest, const void *src, size_t n);
  73:.\Generated_Source\PSoC5/cyfitter_cfg.c **** CY_CFG_UNUSED
  74:.\Generated_Source\PSoC5/cyfitter_cfg.c **** static void CYCONFIGCPYCODE(void *dest, const void *src, size_t n)
  75:.\Generated_Source\PSoC5/cyfitter_cfg.c **** {
  76:.\Generated_Source\PSoC5/cyfitter_cfg.c **** 	(void)memcpy(dest, src, n);
  77:.\Generated_Source\PSoC5/cyfitter_cfg.c **** }
  78:.\Generated_Source\PSoC5/cyfitter_cfg.c **** 
  79:.\Generated_Source\PSoC5/cyfitter_cfg.c **** 
  80:.\Generated_Source\PSoC5/cyfitter_cfg.c **** 
  81:.\Generated_Source\PSoC5/cyfitter_cfg.c **** /* Clock startup error codes                                                   */
  82:.\Generated_Source\PSoC5/cyfitter_cfg.c **** #define CYCLOCKSTART_NO_ERROR    0u
  83:.\Generated_Source\PSoC5/cyfitter_cfg.c **** #define CYCLOCKSTART_XTAL_ERROR  1u
  84:.\Generated_Source\PSoC5/cyfitter_cfg.c **** #define CYCLOCKSTART_32KHZ_ERROR 2u
  85:.\Generated_Source\PSoC5/cyfitter_cfg.c **** #define CYCLOCKSTART_PLL_ERROR   3u
  86:.\Generated_Source\PSoC5/cyfitter_cfg.c **** 
  87:.\Generated_Source\PSoC5/cyfitter_cfg.c **** #ifdef CY_NEED_CYCLOCKSTARTUPERROR
  88:.\Generated_Source\PSoC5/cyfitter_cfg.c **** /*******************************************************************************
  89:.\Generated_Source\PSoC5/cyfitter_cfg.c **** * Function Name: CyClockStartupError
ARM GAS  C:\Users\PANXIA~1\AppData\Local\Temp\cchsV8S1.s 			page 3


  90:.\Generated_Source\PSoC5/cyfitter_cfg.c **** ********************************************************************************
  91:.\Generated_Source\PSoC5/cyfitter_cfg.c **** * Summary:
  92:.\Generated_Source\PSoC5/cyfitter_cfg.c **** *  If an error is encountered during clock configuration (crystal startup error,
  93:.\Generated_Source\PSoC5/cyfitter_cfg.c **** *  PLL lock error, etc.), the system will end up here.  Unless reimplemented by
  94:.\Generated_Source\PSoC5/cyfitter_cfg.c **** *  the customer, this function will stop in an infinite loop.
  95:.\Generated_Source\PSoC5/cyfitter_cfg.c **** *
  96:.\Generated_Source\PSoC5/cyfitter_cfg.c **** * Parameters:
  97:.\Generated_Source\PSoC5/cyfitter_cfg.c **** *   void
  98:.\Generated_Source\PSoC5/cyfitter_cfg.c **** *
  99:.\Generated_Source\PSoC5/cyfitter_cfg.c **** * Return:
 100:.\Generated_Source\PSoC5/cyfitter_cfg.c **** *   void
 101:.\Generated_Source\PSoC5/cyfitter_cfg.c **** *
 102:.\Generated_Source\PSoC5/cyfitter_cfg.c **** *******************************************************************************/
 103:.\Generated_Source\PSoC5/cyfitter_cfg.c **** CY_CFG_UNUSED
 104:.\Generated_Source\PSoC5/cyfitter_cfg.c **** static void CyClockStartupError(uint8 errorCode);
 105:.\Generated_Source\PSoC5/cyfitter_cfg.c **** CY_CFG_UNUSED
 106:.\Generated_Source\PSoC5/cyfitter_cfg.c **** static void CyClockStartupError(uint8 errorCode)
 107:.\Generated_Source\PSoC5/cyfitter_cfg.c **** {
  26              		.loc 1 107 0
  27              		.cfi_startproc
  28              		@ Volatile: function does not return.
  29              		@ args = 0, pretend = 0, frame = 0
  30              		@ frame_needed = 0, uses_anonymous_args = 0
  31              		@ link register save eliminated.
  32              	.LVL0:
  33              	.L2:
 108:.\Generated_Source\PSoC5/cyfitter_cfg.c ****     /* To remove the compiler warning if errorCode not used.                */
 109:.\Generated_Source\PSoC5/cyfitter_cfg.c ****     errorCode = errorCode;
 110:.\Generated_Source\PSoC5/cyfitter_cfg.c **** 
 111:.\Generated_Source\PSoC5/cyfitter_cfg.c ****     /* `#START CyClockStartupError` */
 112:.\Generated_Source\PSoC5/cyfitter_cfg.c **** 
 113:.\Generated_Source\PSoC5/cyfitter_cfg.c ****     /* If we have a clock startup error (bad MHz crystal, PLL lock, etc.),  */
 114:.\Generated_Source\PSoC5/cyfitter_cfg.c ****     /* we will end up here to allow the customer to implement something to  */
 115:.\Generated_Source\PSoC5/cyfitter_cfg.c ****     /* deal with the clock condition.                                       */
 116:.\Generated_Source\PSoC5/cyfitter_cfg.c **** 
 117:.\Generated_Source\PSoC5/cyfitter_cfg.c ****     /* `#END` */
 118:.\Generated_Source\PSoC5/cyfitter_cfg.c **** 
 119:.\Generated_Source\PSoC5/cyfitter_cfg.c ****     /* If nothing else, stop here since the clocks have not started         */
 120:.\Generated_Source\PSoC5/cyfitter_cfg.c ****     /* correctly.                                                           */
 121:.\Generated_Source\PSoC5/cyfitter_cfg.c ****     while(1) {}
  34              		.loc 1 121 0 discriminator 1
  35 0000 FEE7     		b	.L2
  36              		.cfi_endproc
  37              	.LFE3:
  38              		.size	CyClockStartupError, .-CyClockStartupError
  39 0002 00BF     		.section	.text.cfg_write_bytes32,"ax",%progbits
  40              		.align	2
  41              		.thumb
  42              		.thumb_func
  43              		.type	cfg_write_bytes32, %function
  44              	cfg_write_bytes32:
  45              	.LFB4:
 122:.\Generated_Source\PSoC5/cyfitter_cfg.c **** }
 123:.\Generated_Source\PSoC5/cyfitter_cfg.c **** #endif
 124:.\Generated_Source\PSoC5/cyfitter_cfg.c **** 
 125:.\Generated_Source\PSoC5/cyfitter_cfg.c **** #define CY_CFG_BASE_ADDR_COUNT 12u
 126:.\Generated_Source\PSoC5/cyfitter_cfg.c **** CYPACKED typedef struct
ARM GAS  C:\Users\PANXIA~1\AppData\Local\Temp\cchsV8S1.s 			page 4


 127:.\Generated_Source\PSoC5/cyfitter_cfg.c **** {
 128:.\Generated_Source\PSoC5/cyfitter_cfg.c **** 	uint8 offset;
 129:.\Generated_Source\PSoC5/cyfitter_cfg.c **** 	uint8 value;
 130:.\Generated_Source\PSoC5/cyfitter_cfg.c **** } CYPACKED_ATTR cy_cfg_addrvalue_t;
 131:.\Generated_Source\PSoC5/cyfitter_cfg.c **** 
 132:.\Generated_Source\PSoC5/cyfitter_cfg.c **** 
 133:.\Generated_Source\PSoC5/cyfitter_cfg.c **** 
 134:.\Generated_Source\PSoC5/cyfitter_cfg.c **** /*******************************************************************************
 135:.\Generated_Source\PSoC5/cyfitter_cfg.c **** * Function Name: cfg_write_bytes32
 136:.\Generated_Source\PSoC5/cyfitter_cfg.c **** ********************************************************************************
 137:.\Generated_Source\PSoC5/cyfitter_cfg.c **** * Summary:
 138:.\Generated_Source\PSoC5/cyfitter_cfg.c **** *  This function is used for setting up the chip configuration areas that
 139:.\Generated_Source\PSoC5/cyfitter_cfg.c **** *  contain relatively sparse data.
 140:.\Generated_Source\PSoC5/cyfitter_cfg.c **** *
 141:.\Generated_Source\PSoC5/cyfitter_cfg.c **** * Parameters:
 142:.\Generated_Source\PSoC5/cyfitter_cfg.c **** *   void
 143:.\Generated_Source\PSoC5/cyfitter_cfg.c **** *
 144:.\Generated_Source\PSoC5/cyfitter_cfg.c **** * Return:
 145:.\Generated_Source\PSoC5/cyfitter_cfg.c **** *   void
 146:.\Generated_Source\PSoC5/cyfitter_cfg.c **** *
 147:.\Generated_Source\PSoC5/cyfitter_cfg.c **** *******************************************************************************/
 148:.\Generated_Source\PSoC5/cyfitter_cfg.c **** static void cfg_write_bytes32(const uint32 addr_table[], const cy_cfg_addrvalue_t data_table[]);
 149:.\Generated_Source\PSoC5/cyfitter_cfg.c **** static void cfg_write_bytes32(const uint32 addr_table[], const cy_cfg_addrvalue_t data_table[])
 150:.\Generated_Source\PSoC5/cyfitter_cfg.c **** {
  46              		.loc 1 150 0
  47              		.cfi_startproc
  48              		@ args = 0, pretend = 0, frame = 0
  49              		@ frame_needed = 0, uses_anonymous_args = 0
  50              		@ link register save eliminated.
  51              	.LVL1:
  52 0000 F0B4     		push	{r4, r5, r6, r7}
  53              		.cfi_def_cfa_offset 16
  54              		.cfi_offset 4, -16
  55              		.cfi_offset 5, -12
  56              		.cfi_offset 6, -8
  57              		.cfi_offset 7, -4
  58              	.LVL2:
 151:.\Generated_Source\PSoC5/cyfitter_cfg.c **** 	/* For 32-bit little-endian architectures */
 152:.\Generated_Source\PSoC5/cyfitter_cfg.c **** 	uint32 i, j = 0u;
  59              		.loc 1 152 0
  60 0002 0022     		movs	r2, #0
 153:.\Generated_Source\PSoC5/cyfitter_cfg.c **** 	for (i = 0u; i < CY_CFG_BASE_ADDR_COUNT; i++)
  61              		.loc 1 153 0
  62 0004 1746     		mov	r7, r2
  63 0006 11E0     		b	.L4
  64              	.LVL3:
  65              	.L7:
  66              	.LBB2:
 154:.\Generated_Source\PSoC5/cyfitter_cfg.c **** 	{
 155:.\Generated_Source\PSoC5/cyfitter_cfg.c **** 		uint32 baseAddr = addr_table[i];
  67              		.loc 1 155 0
  68 0008 50F82760 		ldr	r6, [r0, r7, lsl #2]
  69              	.LVL4:
 156:.\Generated_Source\PSoC5/cyfitter_cfg.c **** 		uint8 count = (uint8)baseAddr;
  70              		.loc 1 156 0
  71 000c F3B2     		uxtb	r3, r6
  72              	.LVL5:
ARM GAS  C:\Users\PANXIA~1\AppData\Local\Temp\cchsV8S1.s 			page 5


 157:.\Generated_Source\PSoC5/cyfitter_cfg.c **** 		baseAddr &= 0xFFFFFF00u;
  73              		.loc 1 157 0
  74 000e 26F0FF06 		bic	r6, r6, #255
  75              	.LVL6:
 158:.\Generated_Source\PSoC5/cyfitter_cfg.c **** 		while (count != 0u)
  76              		.loc 1 158 0
  77 0012 08E0     		b	.L5
  78              	.L6:
 159:.\Generated_Source\PSoC5/cyfitter_cfg.c **** 		{
 160:.\Generated_Source\PSoC5/cyfitter_cfg.c **** 			CY_SET_XTND_REG8((void CYFAR *)(baseAddr + data_table[j].offset), data_table[j].value);
  79              		.loc 1 160 0
  80 0014 01EB4205 		add	r5, r1, r2, lsl #1
  81 0018 11F81240 		ldrb	r4, [r1, r2, lsl #1]	@ zero_extendqisi2
  82 001c 6D78     		ldrb	r5, [r5, #1]	@ zero_extendqisi2
  83 001e A555     		strb	r5, [r4, r6]
 161:.\Generated_Source\PSoC5/cyfitter_cfg.c **** 			j++;
  84              		.loc 1 161 0
  85 0020 0132     		adds	r2, r2, #1
  86              	.LVL7:
 162:.\Generated_Source\PSoC5/cyfitter_cfg.c **** 			count--;
  87              		.loc 1 162 0
  88 0022 013B     		subs	r3, r3, #1
  89              	.LVL8:
  90 0024 DBB2     		uxtb	r3, r3
  91              	.LVL9:
  92              	.L5:
 158:.\Generated_Source\PSoC5/cyfitter_cfg.c **** 		{
  93              		.loc 1 158 0
  94 0026 002B     		cmp	r3, #0
  95 0028 F4D1     		bne	.L6
  96              	.LBE2:
 153:.\Generated_Source\PSoC5/cyfitter_cfg.c **** 	{
  97              		.loc 1 153 0 discriminator 2
  98 002a 0137     		adds	r7, r7, #1
  99              	.LVL10:
 100              	.L4:
 153:.\Generated_Source\PSoC5/cyfitter_cfg.c **** 	{
 101              		.loc 1 153 0 is_stmt 0 discriminator 1
 102 002c 0B2F     		cmp	r7, #11
 103 002e EBD9     		bls	.L7
 163:.\Generated_Source\PSoC5/cyfitter_cfg.c **** 		}
 164:.\Generated_Source\PSoC5/cyfitter_cfg.c **** 	}
 165:.\Generated_Source\PSoC5/cyfitter_cfg.c **** }
 104              		.loc 1 165 0 is_stmt 1
 105 0030 F0BC     		pop	{r4, r5, r6, r7}
 106              		.cfi_restore 7
 107              		.cfi_restore 6
 108              		.cfi_restore 5
 109              		.cfi_restore 4
 110              		.cfi_def_cfa_offset 0
 111              	.LVL11:
 112 0032 7047     		bx	lr
 113              		.cfi_endproc
 114              	.LFE4:
 115              		.size	cfg_write_bytes32, .-cfg_write_bytes32
 116              		.section	.text.AnalogSetDefault,"ax",%progbits
 117              		.align	2
ARM GAS  C:\Users\PANXIA~1\AppData\Local\Temp\cchsV8S1.s 			page 6


 118              		.thumb
 119              		.thumb_func
 120              		.type	AnalogSetDefault, %function
 121              	AnalogSetDefault:
 122              	.LFB6:
 166:.\Generated_Source\PSoC5/cyfitter_cfg.c **** 
 167:.\Generated_Source\PSoC5/cyfitter_cfg.c **** /*******************************************************************************
 168:.\Generated_Source\PSoC5/cyfitter_cfg.c **** * Function Name: ClockSetup
 169:.\Generated_Source\PSoC5/cyfitter_cfg.c **** ********************************************************************************
 170:.\Generated_Source\PSoC5/cyfitter_cfg.c **** *
 171:.\Generated_Source\PSoC5/cyfitter_cfg.c **** * Summary:
 172:.\Generated_Source\PSoC5/cyfitter_cfg.c **** *  Performs the initialization of all of the clocks in the device based on the
 173:.\Generated_Source\PSoC5/cyfitter_cfg.c **** *  settings in the Clock tab of the DWR.  This includes enabling the requested
 174:.\Generated_Source\PSoC5/cyfitter_cfg.c **** *  clocks and setting the necessary dividers to produce the desired frequency. 
 175:.\Generated_Source\PSoC5/cyfitter_cfg.c **** *
 176:.\Generated_Source\PSoC5/cyfitter_cfg.c **** * Parameters:
 177:.\Generated_Source\PSoC5/cyfitter_cfg.c **** *  void
 178:.\Generated_Source\PSoC5/cyfitter_cfg.c **** *
 179:.\Generated_Source\PSoC5/cyfitter_cfg.c **** * Return:
 180:.\Generated_Source\PSoC5/cyfitter_cfg.c **** *  void
 181:.\Generated_Source\PSoC5/cyfitter_cfg.c **** *
 182:.\Generated_Source\PSoC5/cyfitter_cfg.c **** *******************************************************************************/
 183:.\Generated_Source\PSoC5/cyfitter_cfg.c **** static void ClockSetup(void);
 184:.\Generated_Source\PSoC5/cyfitter_cfg.c **** static void ClockSetup(void)
 185:.\Generated_Source\PSoC5/cyfitter_cfg.c **** {
 186:.\Generated_Source\PSoC5/cyfitter_cfg.c **** 	uint32 timeout;
 187:.\Generated_Source\PSoC5/cyfitter_cfg.c **** 	uint8 pllLock;
 188:.\Generated_Source\PSoC5/cyfitter_cfg.c **** 
 189:.\Generated_Source\PSoC5/cyfitter_cfg.c **** 
 190:.\Generated_Source\PSoC5/cyfitter_cfg.c **** 	/* Configure ILO based on settings from Clock DWR */
 191:.\Generated_Source\PSoC5/cyfitter_cfg.c **** 	CY_SET_XTND_REG8((void CYFAR *)(CYREG_SLOWCLK_ILO_CR0), 0x06u);
 192:.\Generated_Source\PSoC5/cyfitter_cfg.c **** 
 193:.\Generated_Source\PSoC5/cyfitter_cfg.c **** 	/* Configure IMO based on settings from Clock DWR */
 194:.\Generated_Source\PSoC5/cyfitter_cfg.c **** 	CY_SET_XTND_REG8((void CYFAR *)(CYREG_FASTCLK_IMO_CR), 0x52u);
 195:.\Generated_Source\PSoC5/cyfitter_cfg.c **** 	CY_SET_XTND_REG8((void CYFAR *)(CYREG_IMO_TR1), (CY_GET_XTND_REG8((void CYFAR *)CYREG_FLSHID_CUST_
 196:.\Generated_Source\PSoC5/cyfitter_cfg.c **** 
 197:.\Generated_Source\PSoC5/cyfitter_cfg.c **** 	/* Configure PLL based on settings from Clock DWR */
 198:.\Generated_Source\PSoC5/cyfitter_cfg.c **** 	CY_SET_XTND_REG16((void CYFAR *)(CYREG_FASTCLK_PLL_P), 0x0708u);
 199:.\Generated_Source\PSoC5/cyfitter_cfg.c **** 	CY_SET_XTND_REG16((void CYFAR *)(CYREG_FASTCLK_PLL_CFG0), 0x1251u);
 200:.\Generated_Source\PSoC5/cyfitter_cfg.c **** 	/* Wait up to 250us for the PLL to lock */
 201:.\Generated_Source\PSoC5/cyfitter_cfg.c **** 	pllLock = 0u;
 202:.\Generated_Source\PSoC5/cyfitter_cfg.c **** 	for (timeout = 250u / 10u; (timeout > 0u) && (pllLock != 0x03u); timeout--)
 203:.\Generated_Source\PSoC5/cyfitter_cfg.c **** 	{ 
 204:.\Generated_Source\PSoC5/cyfitter_cfg.c **** 		pllLock = 0x03u & ((uint8)((uint8)pllLock << 1) | ((CY_GET_XTND_REG8((void CYFAR *)CYREG_FASTCLK_
 205:.\Generated_Source\PSoC5/cyfitter_cfg.c **** 		CyDelayCycles(10u * 48u); /* Delay 10us based on 48MHz clock */
 206:.\Generated_Source\PSoC5/cyfitter_cfg.c **** 	}
 207:.\Generated_Source\PSoC5/cyfitter_cfg.c **** 	/* If we ran out of time the PLL didn't lock so go to the error function */
 208:.\Generated_Source\PSoC5/cyfitter_cfg.c **** 	if (timeout == 0u)
 209:.\Generated_Source\PSoC5/cyfitter_cfg.c **** 	{
 210:.\Generated_Source\PSoC5/cyfitter_cfg.c **** 		CyClockStartupError(CYCLOCKSTART_PLL_ERROR);
 211:.\Generated_Source\PSoC5/cyfitter_cfg.c **** 	}
 212:.\Generated_Source\PSoC5/cyfitter_cfg.c **** 
 213:.\Generated_Source\PSoC5/cyfitter_cfg.c **** 	/* Configure Bus/Master Clock based on settings from Clock DWR */
 214:.\Generated_Source\PSoC5/cyfitter_cfg.c **** 	CY_SET_XTND_REG16((void CYFAR *)(CYREG_CLKDIST_MSTR0), 0x0100u);
 215:.\Generated_Source\PSoC5/cyfitter_cfg.c **** 	CY_SET_XTND_REG8((void CYFAR *)(CYREG_CLKDIST_MSTR0), 0x07u);
 216:.\Generated_Source\PSoC5/cyfitter_cfg.c **** 	CY_SET_XTND_REG8((void CYFAR *)(CYREG_CLKDIST_BCFG0), 0x00u);
 217:.\Generated_Source\PSoC5/cyfitter_cfg.c **** 	CY_SET_XTND_REG8((void CYFAR *)(CYREG_CLKDIST_BCFG2), 0x48u);
ARM GAS  C:\Users\PANXIA~1\AppData\Local\Temp\cchsV8S1.s 			page 7


 218:.\Generated_Source\PSoC5/cyfitter_cfg.c **** 	CY_SET_XTND_REG8((void CYFAR *)(CYREG_CLKDIST_MSTR0), 0x00u);
 219:.\Generated_Source\PSoC5/cyfitter_cfg.c **** 
 220:.\Generated_Source\PSoC5/cyfitter_cfg.c **** 	/* Configure USB Clock based on settings from Clock DWR */
 221:.\Generated_Source\PSoC5/cyfitter_cfg.c **** 	CY_SET_XTND_REG8((void CYFAR *)(CYREG_CLKDIST_UCFG), 0x00u);
 222:.\Generated_Source\PSoC5/cyfitter_cfg.c **** 	CY_SET_XTND_REG8((void CYFAR *)(CYREG_CLKDIST_LD), 0x02u);
 223:.\Generated_Source\PSoC5/cyfitter_cfg.c **** }
 224:.\Generated_Source\PSoC5/cyfitter_cfg.c **** 
 225:.\Generated_Source\PSoC5/cyfitter_cfg.c **** 
 226:.\Generated_Source\PSoC5/cyfitter_cfg.c **** /* Analog API Functions */
 227:.\Generated_Source\PSoC5/cyfitter_cfg.c **** 
 228:.\Generated_Source\PSoC5/cyfitter_cfg.c **** 
 229:.\Generated_Source\PSoC5/cyfitter_cfg.c **** /*******************************************************************************
 230:.\Generated_Source\PSoC5/cyfitter_cfg.c **** * Function Name: AnalogSetDefault
 231:.\Generated_Source\PSoC5/cyfitter_cfg.c **** ********************************************************************************
 232:.\Generated_Source\PSoC5/cyfitter_cfg.c **** *
 233:.\Generated_Source\PSoC5/cyfitter_cfg.c **** * Summary:
 234:.\Generated_Source\PSoC5/cyfitter_cfg.c **** *  Sets up the analog portions of the chip to default values based on chip
 235:.\Generated_Source\PSoC5/cyfitter_cfg.c **** *  configuration options from the project.
 236:.\Generated_Source\PSoC5/cyfitter_cfg.c **** *
 237:.\Generated_Source\PSoC5/cyfitter_cfg.c **** * Parameters:
 238:.\Generated_Source\PSoC5/cyfitter_cfg.c **** *  void
 239:.\Generated_Source\PSoC5/cyfitter_cfg.c **** *
 240:.\Generated_Source\PSoC5/cyfitter_cfg.c **** * Return:
 241:.\Generated_Source\PSoC5/cyfitter_cfg.c **** *  void
 242:.\Generated_Source\PSoC5/cyfitter_cfg.c **** *
 243:.\Generated_Source\PSoC5/cyfitter_cfg.c **** *******************************************************************************/
 244:.\Generated_Source\PSoC5/cyfitter_cfg.c **** static void AnalogSetDefault(void);
 245:.\Generated_Source\PSoC5/cyfitter_cfg.c **** static void AnalogSetDefault(void)
 246:.\Generated_Source\PSoC5/cyfitter_cfg.c **** {
 123              		.loc 1 246 0
 124              		.cfi_startproc
 125              		@ args = 0, pretend = 0, frame = 0
 126              		@ frame_needed = 0, uses_anonymous_args = 0
 127              		@ link register save eliminated.
 247:.\Generated_Source\PSoC5/cyfitter_cfg.c **** 	uint8 bg_xover_inl_trim = CY_GET_XTND_REG8((void CYFAR *)(CYREG_FLSHID_MFG_CFG_BG_XOVER_INL_TRIM +
 128              		.loc 1 247 0
 129 0000 064B     		ldr	r3, .L10
 130 0002 1B78     		ldrb	r3, [r3]	@ zero_extendqisi2
 131 0004 DBB2     		uxtb	r3, r3
 132              	.LVL12:
 248:.\Generated_Source\PSoC5/cyfitter_cfg.c **** 	CY_SET_XTND_REG8((void CYFAR *)(CYREG_BG_DFT0), (bg_xover_inl_trim & 0x07u));
 133              		.loc 1 248 0
 134 0006 03F00701 		and	r1, r3, #7
 135 000a 054A     		ldr	r2, .L10+4
 136 000c 1170     		strb	r1, [r2]
 249:.\Generated_Source\PSoC5/cyfitter_cfg.c **** 	CY_SET_XTND_REG8((void CYFAR *)(CYREG_BG_DFT1), ((bg_xover_inl_trim >> 4) & 0x0Fu));
 137              		.loc 1 249 0
 138 000e 1B09     		lsrs	r3, r3, #4
 139              	.LVL13:
 140 0010 0132     		adds	r2, r2, #1
 141 0012 1370     		strb	r3, [r2]
 250:.\Generated_Source\PSoC5/cyfitter_cfg.c **** 	CY_SET_XTND_REG8((void CYFAR *)CYREG_PUMP_CR0, 0x44u);
 142              		.loc 1 250 0
 143 0014 4422     		movs	r2, #68
 144 0016 034B     		ldr	r3, .L10+8
 145 0018 1A70     		strb	r2, [r3]
 146 001a 7047     		bx	lr
ARM GAS  C:\Users\PANXIA~1\AppData\Local\Temp\cchsV8S1.s 			page 8


 147              	.L11:
 148              		.align	2
 149              	.L10:
 150 001c CF010049 		.word	1224737231
 151 0020 6E580040 		.word	1073764462
 152 0024 76580040 		.word	1073764470
 153              		.cfi_endproc
 154              	.LFE6:
 155              		.size	AnalogSetDefault, .-AnalogSetDefault
 156              		.section	.text.CYMEMZERO,"ax",%progbits
 157              		.align	2
 158              		.thumb
 159              		.thumb_func
 160              		.type	CYMEMZERO, %function
 161              	CYMEMZERO:
 162              	.LFB0:
  61:.\Generated_Source\PSoC5/cyfitter_cfg.c **** 	(void)memset(s, 0, n);
 163              		.loc 1 61 0
 164              		.cfi_startproc
 165              		@ args = 0, pretend = 0, frame = 0
 166              		@ frame_needed = 0, uses_anonymous_args = 0
 167              	.LVL14:
 168 0000 08B5     		push	{r3, lr}
 169              		.cfi_def_cfa_offset 8
 170              		.cfi_offset 3, -8
 171              		.cfi_offset 14, -4
 172 0002 0A46     		mov	r2, r1
  62:.\Generated_Source\PSoC5/cyfitter_cfg.c **** }
 173              		.loc 1 62 0
 174 0004 0021     		movs	r1, #0
 175              	.LVL15:
 176 0006 FFF7FEFF 		bl	memset
 177              	.LVL16:
 178 000a 08BD     		pop	{r3, pc}
 179              		.cfi_endproc
 180              	.LFE0:
 181              		.size	CYMEMZERO, .-CYMEMZERO
 182              		.section	.text.CYCONFIGCPYCODE,"ax",%progbits
 183              		.align	2
 184              		.thumb
 185              		.thumb_func
 186              		.type	CYCONFIGCPYCODE, %function
 187              	CYCONFIGCPYCODE:
 188              	.LFB2:
  75:.\Generated_Source\PSoC5/cyfitter_cfg.c **** 	(void)memcpy(dest, src, n);
 189              		.loc 1 75 0
 190              		.cfi_startproc
 191              		@ args = 0, pretend = 0, frame = 0
 192              		@ frame_needed = 0, uses_anonymous_args = 0
 193              	.LVL17:
 194 0000 08B5     		push	{r3, lr}
 195              		.cfi_def_cfa_offset 8
 196              		.cfi_offset 3, -8
 197              		.cfi_offset 14, -4
  76:.\Generated_Source\PSoC5/cyfitter_cfg.c **** }
 198              		.loc 1 76 0
 199 0002 FFF7FEFF 		bl	memcpy
ARM GAS  C:\Users\PANXIA~1\AppData\Local\Temp\cchsV8S1.s 			page 9


 200              	.LVL18:
 201 0006 08BD     		pop	{r3, pc}
 202              		.cfi_endproc
 203              	.LFE2:
 204              		.size	CYCONFIGCPYCODE, .-CYCONFIGCPYCODE
 205              		.section	.text.CYCONFIGCPY,"ax",%progbits
 206              		.align	2
 207              		.thumb
 208              		.thumb_func
 209              		.type	CYCONFIGCPY, %function
 210              	CYCONFIGCPY:
 211              	.LFB1:
  68:.\Generated_Source\PSoC5/cyfitter_cfg.c **** 	(void)memcpy(dest, src, n);
 212              		.loc 1 68 0
 213              		.cfi_startproc
 214              		@ args = 0, pretend = 0, frame = 0
 215              		@ frame_needed = 0, uses_anonymous_args = 0
 216              	.LVL19:
 217 0000 08B5     		push	{r3, lr}
 218              		.cfi_def_cfa_offset 8
 219              		.cfi_offset 3, -8
 220              		.cfi_offset 14, -4
  69:.\Generated_Source\PSoC5/cyfitter_cfg.c **** }
 221              		.loc 1 69 0
 222 0002 FFF7FEFF 		bl	memcpy
 223              	.LVL20:
 224 0006 08BD     		pop	{r3, pc}
 225              		.cfi_endproc
 226              	.LFE1:
 227              		.size	CYCONFIGCPY, .-CYCONFIGCPY
 228              		.section	.text.ClockSetup,"ax",%progbits
 229              		.align	2
 230              		.thumb
 231              		.thumb_func
 232              		.type	ClockSetup, %function
 233              	ClockSetup:
 234              	.LFB5:
 185:.\Generated_Source\PSoC5/cyfitter_cfg.c **** 	uint32 timeout;
 235              		.loc 1 185 0
 236              		.cfi_startproc
 237              		@ args = 0, pretend = 0, frame = 0
 238              		@ frame_needed = 0, uses_anonymous_args = 0
 239 0000 38B5     		push	{r3, r4, r5, lr}
 240              		.cfi_def_cfa_offset 16
 241              		.cfi_offset 3, -16
 242              		.cfi_offset 4, -12
 243              		.cfi_offset 5, -8
 244              		.cfi_offset 14, -4
 191:.\Generated_Source\PSoC5/cyfitter_cfg.c **** 
 245              		.loc 1 191 0
 246 0002 0622     		movs	r2, #6
 247 0004 1E4B     		ldr	r3, .L24
 248 0006 1A70     		strb	r2, [r3]
 194:.\Generated_Source\PSoC5/cyfitter_cfg.c **** 	CY_SET_XTND_REG8((void CYFAR *)(CYREG_IMO_TR1), (CY_GET_XTND_REG8((void CYFAR *)CYREG_FLSHID_CUST_
 249              		.loc 1 194 0
 250 0008 5222     		movs	r2, #82
 251 000a A3F58073 		sub	r3, r3, #256
ARM GAS  C:\Users\PANXIA~1\AppData\Local\Temp\cchsV8S1.s 			page 10


 252 000e 1A70     		strb	r2, [r3]
 195:.\Generated_Source\PSoC5/cyfitter_cfg.c **** 
 253              		.loc 1 195 0
 254 0010 1C4B     		ldr	r3, .L24+4
 255 0012 1B78     		ldrb	r3, [r3]	@ zero_extendqisi2
 256 0014 DBB2     		uxtb	r3, r3
 257 0016 1C4A     		ldr	r2, .L24+8
 258 0018 1370     		strb	r3, [r2]
 198:.\Generated_Source\PSoC5/cyfitter_cfg.c **** 	CY_SET_XTND_REG16((void CYFAR *)(CYREG_FASTCLK_PLL_CFG0), 0x1251u);
 259              		.loc 1 198 0
 260 001a 4FF4E162 		mov	r2, #1800
 261 001e 1B4B     		ldr	r3, .L24+12
 262 0020 1A80     		strh	r2, [r3]	@ movhi
 199:.\Generated_Source\PSoC5/cyfitter_cfg.c **** 	/* Wait up to 250us for the PLL to lock */
 263              		.loc 1 199 0
 264 0022 41F25122 		movw	r2, #4689
 265 0026 023B     		subs	r3, r3, #2
 266 0028 1A80     		strh	r2, [r3]	@ movhi
 267              	.LVL21:
 201:.\Generated_Source\PSoC5/cyfitter_cfg.c **** 	for (timeout = 250u / 10u; (timeout > 0u) && (pllLock != 0x03u); timeout--)
 268              		.loc 1 201 0
 269 002a 0024     		movs	r4, #0
 202:.\Generated_Source\PSoC5/cyfitter_cfg.c **** 	{ 
 270              		.loc 1 202 0
 271 002c 1925     		movs	r5, #25
 272 002e 0CE0     		b	.L19
 273              	.LVL22:
 274              	.L21:
 204:.\Generated_Source\PSoC5/cyfitter_cfg.c **** 		CyDelayCycles(10u * 48u); /* Delay 10us based on 48MHz clock */
 275              		.loc 1 204 0 discriminator 4
 276 0030 174B     		ldr	r3, .L24+16
 277 0032 1B78     		ldrb	r3, [r3]	@ zero_extendqisi2
 278 0034 03F00103 		and	r3, r3, #1
 279 0038 43EA4404 		orr	r4, r3, r4, lsl #1
 280              	.LVL23:
 281 003c 04F00304 		and	r4, r4, #3
 282              	.LVL24:
 205:.\Generated_Source\PSoC5/cyfitter_cfg.c **** 	}
 283              		.loc 1 205 0 discriminator 4
 284 0040 4FF4F070 		mov	r0, #480
 285 0044 FFF7FEFF 		bl	CyDelayCycles
 286              	.LVL25:
 202:.\Generated_Source\PSoC5/cyfitter_cfg.c **** 	{ 
 287              		.loc 1 202 0 discriminator 4
 288 0048 013D     		subs	r5, r5, #1
 289              	.LVL26:
 290              	.L19:
 202:.\Generated_Source\PSoC5/cyfitter_cfg.c **** 	{ 
 291              		.loc 1 202 0 is_stmt 0 discriminator 1
 292 004a 0DB1     		cbz	r5, .L20
 202:.\Generated_Source\PSoC5/cyfitter_cfg.c **** 	{ 
 293              		.loc 1 202 0 discriminator 3
 294 004c 032C     		cmp	r4, #3
 295 004e EFD1     		bne	.L21
 296              	.L20:
 208:.\Generated_Source\PSoC5/cyfitter_cfg.c **** 	{
 297              		.loc 1 208 0 is_stmt 1
ARM GAS  C:\Users\PANXIA~1\AppData\Local\Temp\cchsV8S1.s 			page 11


 298 0050 15B9     		cbnz	r5, .L22
 210:.\Generated_Source\PSoC5/cyfitter_cfg.c **** 	}
 299              		.loc 1 210 0
 300 0052 0320     		movs	r0, #3
 301 0054 FFF7FEFF 		bl	CyClockStartupError
 302              	.LVL27:
 303              	.L22:
 214:.\Generated_Source\PSoC5/cyfitter_cfg.c **** 	CY_SET_XTND_REG8((void CYFAR *)(CYREG_CLKDIST_MSTR0), 0x07u);
 304              		.loc 1 214 0
 305 0058 0E4A     		ldr	r2, .L24+20
 306 005a 4FF48073 		mov	r3, #256
 307 005e 1380     		strh	r3, [r2]	@ movhi
 215:.\Generated_Source\PSoC5/cyfitter_cfg.c **** 	CY_SET_XTND_REG8((void CYFAR *)(CYREG_CLKDIST_BCFG0), 0x00u);
 308              		.loc 1 215 0
 309 0060 0723     		movs	r3, #7
 310 0062 1370     		strb	r3, [r2]
 216:.\Generated_Source\PSoC5/cyfitter_cfg.c **** 	CY_SET_XTND_REG8((void CYFAR *)(CYREG_CLKDIST_BCFG2), 0x48u);
 311              		.loc 1 216 0
 312 0064 0023     		movs	r3, #0
 313 0066 0C49     		ldr	r1, .L24+24
 314 0068 0B70     		strb	r3, [r1]
 217:.\Generated_Source\PSoC5/cyfitter_cfg.c **** 	CY_SET_XTND_REG8((void CYFAR *)(CYREG_CLKDIST_MSTR0), 0x00u);
 315              		.loc 1 217 0
 316 006a 4820     		movs	r0, #72
 317 006c 0231     		adds	r1, r1, #2
 318 006e 0870     		strb	r0, [r1]
 218:.\Generated_Source\PSoC5/cyfitter_cfg.c **** 
 319              		.loc 1 218 0
 320 0070 1370     		strb	r3, [r2]
 221:.\Generated_Source\PSoC5/cyfitter_cfg.c **** 	CY_SET_XTND_REG8((void CYFAR *)(CYREG_CLKDIST_LD), 0x02u);
 321              		.loc 1 221 0
 322 0072 0532     		adds	r2, r2, #5
 323 0074 1370     		strb	r3, [r2]
 222:.\Generated_Source\PSoC5/cyfitter_cfg.c **** }
 324              		.loc 1 222 0
 325 0076 0222     		movs	r2, #2
 326 0078 084B     		ldr	r3, .L24+28
 327 007a 1A70     		strb	r2, [r3]
 328 007c 38BD     		pop	{r3, r4, r5, pc}
 329              	.LVL28:
 330              	.L25:
 331 007e 00BF     		.align	2
 332              	.L24:
 333 0080 00430040 		.word	1073758976
 334 0084 0F010049 		.word	1224737039
 335 0088 A1460040 		.word	1073759905
 336 008c 22420040 		.word	1073758754
 337 0090 25420040 		.word	1073758757
 338 0094 04400040 		.word	1073758212
 339 0098 06400040 		.word	1073758214
 340 009c 01400040 		.word	1073758209
 341              		.cfi_endproc
 342              	.LFE5:
 343              		.size	ClockSetup, .-ClockSetup
 344              		.section	.text.SetAnalogRoutingPumps,"ax",%progbits
 345              		.align	2
 346              		.global	SetAnalogRoutingPumps
ARM GAS  C:\Users\PANXIA~1\AppData\Local\Temp\cchsV8S1.s 			page 12


 347              		.thumb
 348              		.thumb_func
 349              		.type	SetAnalogRoutingPumps, %function
 350              	SetAnalogRoutingPumps:
 351              	.LFB7:
 251:.\Generated_Source\PSoC5/cyfitter_cfg.c **** }
 252:.\Generated_Source\PSoC5/cyfitter_cfg.c **** 
 253:.\Generated_Source\PSoC5/cyfitter_cfg.c **** 
 254:.\Generated_Source\PSoC5/cyfitter_cfg.c **** /*******************************************************************************
 255:.\Generated_Source\PSoC5/cyfitter_cfg.c **** * Function Name: SetAnalogRoutingPumps
 256:.\Generated_Source\PSoC5/cyfitter_cfg.c **** ********************************************************************************
 257:.\Generated_Source\PSoC5/cyfitter_cfg.c **** *
 258:.\Generated_Source\PSoC5/cyfitter_cfg.c **** * Summary:
 259:.\Generated_Source\PSoC5/cyfitter_cfg.c **** * Enables or disables the analog pumps feeding analog routing switches.
 260:.\Generated_Source\PSoC5/cyfitter_cfg.c **** * Intended to be called at startup, based on the Vdda system configuration;
 261:.\Generated_Source\PSoC5/cyfitter_cfg.c **** * may be called during operation when the user informs us that the Vdda voltage
 262:.\Generated_Source\PSoC5/cyfitter_cfg.c **** * crossed the pump threshold.
 263:.\Generated_Source\PSoC5/cyfitter_cfg.c **** *
 264:.\Generated_Source\PSoC5/cyfitter_cfg.c **** * Parameters:
 265:.\Generated_Source\PSoC5/cyfitter_cfg.c **** *  enabled - 1 to enable the pumps, 0 to disable the pumps
 266:.\Generated_Source\PSoC5/cyfitter_cfg.c **** *
 267:.\Generated_Source\PSoC5/cyfitter_cfg.c **** * Return:
 268:.\Generated_Source\PSoC5/cyfitter_cfg.c **** *  void
 269:.\Generated_Source\PSoC5/cyfitter_cfg.c **** *
 270:.\Generated_Source\PSoC5/cyfitter_cfg.c **** *******************************************************************************/
 271:.\Generated_Source\PSoC5/cyfitter_cfg.c **** void SetAnalogRoutingPumps(uint8 enabled)
 272:.\Generated_Source\PSoC5/cyfitter_cfg.c **** {
 352              		.loc 1 272 0
 353              		.cfi_startproc
 354              		@ args = 0, pretend = 0, frame = 0
 355              		@ frame_needed = 0, uses_anonymous_args = 0
 356              		@ link register save eliminated.
 357              	.LVL29:
 273:.\Generated_Source\PSoC5/cyfitter_cfg.c **** 	uint8 regValue = CY_GET_XTND_REG8((void CYFAR *)CYREG_PUMP_CR0);
 358              		.loc 1 273 0
 359 0000 024A     		ldr	r2, .L27
 360 0002 1378     		ldrb	r3, [r2]	@ zero_extendqisi2
 361 0004 DBB2     		uxtb	r3, r3
 362              	.LVL30:
 274:.\Generated_Source\PSoC5/cyfitter_cfg.c **** 	if (enabled != 0u)
 275:.\Generated_Source\PSoC5/cyfitter_cfg.c **** 	{
 276:.\Generated_Source\PSoC5/cyfitter_cfg.c **** 		regValue |= 0x00u;
 277:.\Generated_Source\PSoC5/cyfitter_cfg.c **** 	}
 278:.\Generated_Source\PSoC5/cyfitter_cfg.c **** 	else
 279:.\Generated_Source\PSoC5/cyfitter_cfg.c **** 	{
 280:.\Generated_Source\PSoC5/cyfitter_cfg.c **** 		regValue &= (uint8)~0x00u;
 281:.\Generated_Source\PSoC5/cyfitter_cfg.c **** 	}
 282:.\Generated_Source\PSoC5/cyfitter_cfg.c **** 	CY_SET_XTND_REG8((void CYFAR *)CYREG_PUMP_CR0, regValue);
 363              		.loc 1 282 0
 364 0006 1370     		strb	r3, [r2]
 365 0008 7047     		bx	lr
 366              	.L28:
 367 000a 00BF     		.align	2
 368              	.L27:
 369 000c 76580040 		.word	1073764470
 370              		.cfi_endproc
 371              	.LFE7:
ARM GAS  C:\Users\PANXIA~1\AppData\Local\Temp\cchsV8S1.s 			page 13


 372              		.size	SetAnalogRoutingPumps, .-SetAnalogRoutingPumps
 373              		.section	.text.cyfitter_cfg,"ax",%progbits
 374              		.align	2
 375              		.global	cyfitter_cfg
 376              		.thumb
 377              		.thumb_func
 378              		.type	cyfitter_cfg, %function
 379              	cyfitter_cfg:
 380              	.LFB8:
 283:.\Generated_Source\PSoC5/cyfitter_cfg.c **** }
 284:.\Generated_Source\PSoC5/cyfitter_cfg.c **** 
 285:.\Generated_Source\PSoC5/cyfitter_cfg.c **** #define CY_AMUX_UNUSED CYREG_BOOST_SR
 286:.\Generated_Source\PSoC5/cyfitter_cfg.c **** 
 287:.\Generated_Source\PSoC5/cyfitter_cfg.c **** 
 288:.\Generated_Source\PSoC5/cyfitter_cfg.c **** /*******************************************************************************
 289:.\Generated_Source\PSoC5/cyfitter_cfg.c **** * Function Name: cyfitter_cfg
 290:.\Generated_Source\PSoC5/cyfitter_cfg.c **** ********************************************************************************
 291:.\Generated_Source\PSoC5/cyfitter_cfg.c **** * Summary:
 292:.\Generated_Source\PSoC5/cyfitter_cfg.c **** *  This function is called by the start-up code for the selected device. It
 293:.\Generated_Source\PSoC5/cyfitter_cfg.c **** *  performs all of the necessary device configuration based on the design
 294:.\Generated_Source\PSoC5/cyfitter_cfg.c **** *  settings.  This includes settings from the Design Wide Resources (DWR) such
 295:.\Generated_Source\PSoC5/cyfitter_cfg.c **** *  as Clocks and Pins as well as any component configuration that is necessary.
 296:.\Generated_Source\PSoC5/cyfitter_cfg.c **** *
 297:.\Generated_Source\PSoC5/cyfitter_cfg.c **** * Parameters:  
 298:.\Generated_Source\PSoC5/cyfitter_cfg.c **** *   void
 299:.\Generated_Source\PSoC5/cyfitter_cfg.c **** *
 300:.\Generated_Source\PSoC5/cyfitter_cfg.c **** * Return:
 301:.\Generated_Source\PSoC5/cyfitter_cfg.c **** *   void
 302:.\Generated_Source\PSoC5/cyfitter_cfg.c **** *
 303:.\Generated_Source\PSoC5/cyfitter_cfg.c **** *******************************************************************************/
 304:.\Generated_Source\PSoC5/cyfitter_cfg.c **** 
 305:.\Generated_Source\PSoC5/cyfitter_cfg.c **** void cyfitter_cfg(void)
 306:.\Generated_Source\PSoC5/cyfitter_cfg.c **** {
 381              		.loc 1 306 0
 382              		.cfi_startproc
 383              		@ args = 0, pretend = 0, frame = 0
 384              		@ frame_needed = 0, uses_anonymous_args = 0
 385 0000 38B5     		push	{r3, r4, r5, lr}
 386              		.cfi_def_cfa_offset 16
 387              		.cfi_offset 3, -16
 388              		.cfi_offset 4, -12
 389              		.cfi_offset 5, -8
 390              		.cfi_offset 14, -4
 307:.\Generated_Source\PSoC5/cyfitter_cfg.c **** 	/* IOPINS0_8 Address: CYREG_PRT15_DR Size (bytes): 10 */
 308:.\Generated_Source\PSoC5/cyfitter_cfg.c **** 	static const uint8 CYCODE BS_IOPINS0_8_VAL[] = {
 309:.\Generated_Source\PSoC5/cyfitter_cfg.c **** 		0x00u, 0x00u, 0x00u, 0x00u, 0x00u, 0x00u, 0x00u, 0x00u, 0xC0u, 0x00u};
 310:.\Generated_Source\PSoC5/cyfitter_cfg.c **** 
 311:.\Generated_Source\PSoC5/cyfitter_cfg.c **** 	/* IOPINS0_3 Address: CYREG_PRT3_DM0 Size (bytes): 8 */
 312:.\Generated_Source\PSoC5/cyfitter_cfg.c **** 	static const uint8 CYCODE BS_IOPINS0_3_VAL[] = {
 313:.\Generated_Source\PSoC5/cyfitter_cfg.c **** 		0x00u, 0x7Fu, 0x7Fu, 0x00u, 0x00u, 0x00u, 0x00u, 0x00u};
 314:.\Generated_Source\PSoC5/cyfitter_cfg.c **** 
 315:.\Generated_Source\PSoC5/cyfitter_cfg.c **** #ifdef CYGlobalIntDisable
 316:.\Generated_Source\PSoC5/cyfitter_cfg.c **** 	/* Disable interrupts by default. Let user enable if/when they want. */
 317:.\Generated_Source\PSoC5/cyfitter_cfg.c **** 	CYGlobalIntDisable
 391              		.loc 1 317 0
 392              	@ 317 ".\Generated_Source\PSoC5\cyfitter_cfg.c" 1
 393 0002 72B6     		CPSID   i
ARM GAS  C:\Users\PANXIA~1\AppData\Local\Temp\cchsV8S1.s 			page 14


 394              	@ 0 "" 2
 318:.\Generated_Source\PSoC5/cyfitter_cfg.c **** #endif
 319:.\Generated_Source\PSoC5/cyfitter_cfg.c **** 
 320:.\Generated_Source\PSoC5/cyfitter_cfg.c **** 	/* Enable/Disable Debug functionality based on settings from System DWR */
 321:.\Generated_Source\PSoC5/cyfitter_cfg.c **** 	CY_SET_XTND_REG8((void CYFAR *)CYREG_MLOGIC_DEBUG, (CY_GET_XTND_REG8((void CYFAR *)CYREG_MLOGIC_DE
 395              		.loc 1 321 0
 396              		.thumb
 397 0004 294A     		ldr	r2, .L33
 398 0006 1378     		ldrb	r3, [r2]	@ zero_extendqisi2
 399 0008 43F00403 		orr	r3, r3, #4
 400 000c 1370     		strb	r3, [r2]
 401              	.LVL31:
 402              	.LBB3:
 322:.\Generated_Source\PSoC5/cyfitter_cfg.c **** 
 323:.\Generated_Source\PSoC5/cyfitter_cfg.c **** 	{
 324:.\Generated_Source\PSoC5/cyfitter_cfg.c **** 		static const uint32 CYCODE cy_cfg_addr_table[] = {
 325:.\Generated_Source\PSoC5/cyfitter_cfg.c **** 			0x40004501u, /* Base address: 0x40004500 Count: 1 */
 326:.\Generated_Source\PSoC5/cyfitter_cfg.c **** 			0x40005201u, /* Base address: 0x40005200 Count: 1 */
 327:.\Generated_Source\PSoC5/cyfitter_cfg.c **** 			0x40011701u, /* Base address: 0x40011700 Count: 1 */
 328:.\Generated_Source\PSoC5/cyfitter_cfg.c **** 			0x40011901u, /* Base address: 0x40011900 Count: 1 */
 329:.\Generated_Source\PSoC5/cyfitter_cfg.c **** 			0x40014003u, /* Base address: 0x40014000 Count: 3 */
 330:.\Generated_Source\PSoC5/cyfitter_cfg.c **** 			0x40014102u, /* Base address: 0x40014100 Count: 2 */
 331:.\Generated_Source\PSoC5/cyfitter_cfg.c **** 			0x40014202u, /* Base address: 0x40014200 Count: 2 */
 332:.\Generated_Source\PSoC5/cyfitter_cfg.c **** 			0x40014302u, /* Base address: 0x40014300 Count: 2 */
 333:.\Generated_Source\PSoC5/cyfitter_cfg.c **** 			0x40014703u, /* Base address: 0x40014700 Count: 3 */
 334:.\Generated_Source\PSoC5/cyfitter_cfg.c **** 			0x40014803u, /* Base address: 0x40014800 Count: 3 */
 335:.\Generated_Source\PSoC5/cyfitter_cfg.c **** 			0x40014C02u, /* Base address: 0x40014C00 Count: 2 */
 336:.\Generated_Source\PSoC5/cyfitter_cfg.c **** 			0x40015101u, /* Base address: 0x40015100 Count: 1 */
 337:.\Generated_Source\PSoC5/cyfitter_cfg.c **** 		};
 338:.\Generated_Source\PSoC5/cyfitter_cfg.c **** 
 339:.\Generated_Source\PSoC5/cyfitter_cfg.c **** 		static const cy_cfg_addrvalue_t CYCODE cy_cfg_data_table[] = {
 340:.\Generated_Source\PSoC5/cyfitter_cfg.c **** 			{0x7Eu, 0x02u},
 341:.\Generated_Source\PSoC5/cyfitter_cfg.c **** 			{0x7Cu, 0x40u},
 342:.\Generated_Source\PSoC5/cyfitter_cfg.c **** 			{0xEEu, 0x0Au},
 343:.\Generated_Source\PSoC5/cyfitter_cfg.c **** 			{0xEEu, 0x0Au},
 344:.\Generated_Source\PSoC5/cyfitter_cfg.c **** 			{0x33u, 0x80u},
 345:.\Generated_Source\PSoC5/cyfitter_cfg.c **** 			{0x36u, 0x40u},
 346:.\Generated_Source\PSoC5/cyfitter_cfg.c **** 			{0xCCu, 0x30u},
 347:.\Generated_Source\PSoC5/cyfitter_cfg.c **** 			{0xA6u, 0x40u},
 348:.\Generated_Source\PSoC5/cyfitter_cfg.c **** 			{0xA7u, 0x80u},
 349:.\Generated_Source\PSoC5/cyfitter_cfg.c **** 			{0xA6u, 0x40u},
 350:.\Generated_Source\PSoC5/cyfitter_cfg.c **** 			{0xA7u, 0x80u},
 351:.\Generated_Source\PSoC5/cyfitter_cfg.c **** 			{0xA6u, 0x40u},
 352:.\Generated_Source\PSoC5/cyfitter_cfg.c **** 			{0xA7u, 0x80u},
 353:.\Generated_Source\PSoC5/cyfitter_cfg.c **** 			{0x08u, 0x08u},
 354:.\Generated_Source\PSoC5/cyfitter_cfg.c **** 			{0x0Fu, 0x40u},
 355:.\Generated_Source\PSoC5/cyfitter_cfg.c **** 			{0xC2u, 0x0Cu},
 356:.\Generated_Source\PSoC5/cyfitter_cfg.c **** 			{0xAEu, 0x40u},
 357:.\Generated_Source\PSoC5/cyfitter_cfg.c **** 			{0xAFu, 0x80u},
 358:.\Generated_Source\PSoC5/cyfitter_cfg.c **** 			{0xEEu, 0x50u},
 359:.\Generated_Source\PSoC5/cyfitter_cfg.c **** 			{0xACu, 0x08u},
 360:.\Generated_Source\PSoC5/cyfitter_cfg.c **** 			{0xAFu, 0x40u},
 361:.\Generated_Source\PSoC5/cyfitter_cfg.c **** 			{0x00u, 0x0Au},
 362:.\Generated_Source\PSoC5/cyfitter_cfg.c **** 		};
 363:.\Generated_Source\PSoC5/cyfitter_cfg.c **** 
 364:.\Generated_Source\PSoC5/cyfitter_cfg.c **** 
 365:.\Generated_Source\PSoC5/cyfitter_cfg.c **** 
ARM GAS  C:\Users\PANXIA~1\AppData\Local\Temp\cchsV8S1.s 			page 15


 366:.\Generated_Source\PSoC5/cyfitter_cfg.c **** 		CYPACKED typedef struct {
 367:.\Generated_Source\PSoC5/cyfitter_cfg.c **** 			void CYFAR *address;
 368:.\Generated_Source\PSoC5/cyfitter_cfg.c **** 			uint16 size;
 369:.\Generated_Source\PSoC5/cyfitter_cfg.c **** 		} CYPACKED_ATTR cfg_memset_t;
 370:.\Generated_Source\PSoC5/cyfitter_cfg.c **** 
 371:.\Generated_Source\PSoC5/cyfitter_cfg.c **** 		static const cfg_memset_t CYCODE cfg_memset_list [] = {
 372:.\Generated_Source\PSoC5/cyfitter_cfg.c **** 			/* address, size */
 373:.\Generated_Source\PSoC5/cyfitter_cfg.c **** 			{(void CYFAR *)(CYREG_PRT0_DR), 48u},
 374:.\Generated_Source\PSoC5/cyfitter_cfg.c **** 			{(void CYFAR *)(CYREG_PRT4_DR), 48u},
 375:.\Generated_Source\PSoC5/cyfitter_cfg.c **** 			{(void CYFAR *)(CYREG_PRT12_DR), 16u},
 376:.\Generated_Source\PSoC5/cyfitter_cfg.c **** 			{(void CYFAR *)(CYDEV_UCFG_B0_P0_U0_BASE), 4096u},
 377:.\Generated_Source\PSoC5/cyfitter_cfg.c **** 			{(void CYFAR *)(CYDEV_UCFG_B1_P2_U0_BASE), 2048u},
 378:.\Generated_Source\PSoC5/cyfitter_cfg.c **** 			{(void CYFAR *)(CYDEV_UCFG_DSI0_BASE), 2560u},
 379:.\Generated_Source\PSoC5/cyfitter_cfg.c **** 			{(void CYFAR *)(CYDEV_UCFG_DSI12_BASE), 512u},
 380:.\Generated_Source\PSoC5/cyfitter_cfg.c **** 			{(void CYFAR *)(CYREG_BCTL0_MDCLK_EN), 32u},
 381:.\Generated_Source\PSoC5/cyfitter_cfg.c **** 		};
 382:.\Generated_Source\PSoC5/cyfitter_cfg.c **** 
 383:.\Generated_Source\PSoC5/cyfitter_cfg.c **** 		uint8 CYDATA i;
 384:.\Generated_Source\PSoC5/cyfitter_cfg.c **** 
 385:.\Generated_Source\PSoC5/cyfitter_cfg.c **** 		/* Zero out critical memory blocks before beginning configuration */
 386:.\Generated_Source\PSoC5/cyfitter_cfg.c **** 		for (i = 0u; i < (sizeof(cfg_memset_list)/sizeof(cfg_memset_list[0])); i++)
 403              		.loc 1 386 0
 404 000e 0024     		movs	r4, #0
 405 0010 0CE0     		b	.L30
 406              	.LVL32:
 407              	.L31:
 408              	.LBB4:
 387:.\Generated_Source\PSoC5/cyfitter_cfg.c **** 		{
 388:.\Generated_Source\PSoC5/cyfitter_cfg.c **** 			const cfg_memset_t CYCODE * CYDATA ms = &cfg_memset_list[i];
 389:.\Generated_Source\PSoC5/cyfitter_cfg.c **** 			CYMEMZERO(ms->address, (size_t)(uint32)(ms->size));
 409              		.loc 1 389 0 discriminator 3
 410 0012 2749     		ldr	r1, .L33+4
 411 0014 6300     		lsls	r3, r4, #1
 412 0016 1A19     		adds	r2, r3, r4
 413 0018 5200     		lsls	r2, r2, #1
 414 001a 0A44     		add	r2, r2, r1
 415 001c 2344     		add	r3, r3, r4
 416 001e 5B00     		lsls	r3, r3, #1
 417 0020 C858     		ldr	r0, [r1, r3]	@ unaligned
 418 0022 9188     		ldrh	r1, [r2, #4]
 419 0024 FFF7FEFF 		bl	CYMEMZERO
 420              	.LVL33:
 421              	.LBE4:
 386:.\Generated_Source\PSoC5/cyfitter_cfg.c **** 		{
 422              		.loc 1 386 0 discriminator 3
 423 0028 0134     		adds	r4, r4, #1
 424              	.LVL34:
 425 002a E4B2     		uxtb	r4, r4
 426              	.LVL35:
 427              	.L30:
 386:.\Generated_Source\PSoC5/cyfitter_cfg.c **** 		{
 428              		.loc 1 386 0 is_stmt 0 discriminator 1
 429 002c 072C     		cmp	r4, #7
 430 002e F0D9     		bls	.L31
 390:.\Generated_Source\PSoC5/cyfitter_cfg.c **** 		}
 391:.\Generated_Source\PSoC5/cyfitter_cfg.c **** 
 392:.\Generated_Source\PSoC5/cyfitter_cfg.c **** 		cfg_write_bytes32(cy_cfg_addr_table, cy_cfg_data_table);
ARM GAS  C:\Users\PANXIA~1\AppData\Local\Temp\cchsV8S1.s 			page 16


 431              		.loc 1 392 0 is_stmt 1
 432 0030 1F4C     		ldr	r4, .L33+4
 433              	.LVL36:
 434 0032 04F13000 		add	r0, r4, #48
 435 0036 04F16001 		add	r1, r4, #96
 436 003a FFF7FEFF 		bl	cfg_write_bytes32
 437              	.LVL37:
 393:.\Generated_Source\PSoC5/cyfitter_cfg.c **** 
 394:.\Generated_Source\PSoC5/cyfitter_cfg.c **** 		/* Enable digital routing */
 395:.\Generated_Source\PSoC5/cyfitter_cfg.c **** 		CY_SET_XTND_REG8((void CYFAR *)CYREG_BCTL0_BANK_CTL, CY_GET_XTND_REG8((void CYFAR *)CYREG_BCTL0_B
 438              		.loc 1 395 0
 439 003e 1D4A     		ldr	r2, .L33+8
 440 0040 1378     		ldrb	r3, [r2]	@ zero_extendqisi2
 441 0042 43F00203 		orr	r3, r3, #2
 442 0046 1370     		strb	r3, [r2]
 396:.\Generated_Source\PSoC5/cyfitter_cfg.c **** 		CY_SET_XTND_REG8((void CYFAR *)CYREG_BCTL1_BANK_CTL, CY_GET_XTND_REG8((void CYFAR *)CYREG_BCTL1_B
 443              		.loc 1 396 0
 444 0048 1032     		adds	r2, r2, #16
 445 004a 1378     		ldrb	r3, [r2]	@ zero_extendqisi2
 446 004c 43F00203 		orr	r3, r3, #2
 447 0050 1370     		strb	r3, [r2]
 397:.\Generated_Source\PSoC5/cyfitter_cfg.c **** 
 398:.\Generated_Source\PSoC5/cyfitter_cfg.c **** 		/* Enable UDB array */
 399:.\Generated_Source\PSoC5/cyfitter_cfg.c **** 		CY_SET_XTND_REG8((void CYFAR *)CYREG_PM_ACT_CFG0, CY_GET_XTND_REG8((void CYFAR *)CYREG_PM_ACT_CFG
 448              		.loc 1 399 0
 449 0052 194D     		ldr	r5, .L33+12
 450 0054 2B78     		ldrb	r3, [r5]	@ zero_extendqisi2
 451 0056 43F04003 		orr	r3, r3, #64
 452 005a 2B70     		strb	r3, [r5]
 400:.\Generated_Source\PSoC5/cyfitter_cfg.c **** 		CY_SET_XTND_REG8((void CYFAR *)CYREG_PM_AVAIL_CR2, CY_GET_XTND_REG8((void CYFAR *)CYREG_PM_AVAIL_
 453              		.loc 1 400 0
 454 005c A2F58632 		sub	r2, r2, #68608
 455 0060 513A     		subs	r2, r2, #81
 456 0062 1378     		ldrb	r3, [r2]	@ zero_extendqisi2
 457 0064 43F01003 		orr	r3, r3, #16
 458 0068 1370     		strb	r3, [r2]
 459              	.LBE3:
 401:.\Generated_Source\PSoC5/cyfitter_cfg.c **** 	}
 402:.\Generated_Source\PSoC5/cyfitter_cfg.c **** 
 403:.\Generated_Source\PSoC5/cyfitter_cfg.c **** 
 404:.\Generated_Source\PSoC5/cyfitter_cfg.c **** 	/* Perform second pass device configuration. These items must be configured in specific order afte
 405:.\Generated_Source\PSoC5/cyfitter_cfg.c **** 	CYCONFIGCPYCODE((void CYFAR *)(CYREG_PRT15_DR), (const void CYCODE *)(BS_IOPINS0_8_VAL), 10u);
 460              		.loc 1 405 0
 461 006a 1448     		ldr	r0, .L33+16
 462 006c 04F18C01 		add	r1, r4, #140
 463 0070 0A22     		movs	r2, #10
 464 0072 FFF7FEFF 		bl	CYCONFIGCPYCODE
 465              	.LVL38:
 406:.\Generated_Source\PSoC5/cyfitter_cfg.c **** 	CYCONFIGCPYCODE((void CYFAR *)(CYREG_PRT3_DM0), (const void CYCODE *)(BS_IOPINS0_3_VAL), 8u);
 466              		.loc 1 406 0
 467 0076 1248     		ldr	r0, .L33+20
 468 0078 04F19801 		add	r1, r4, #152
 469 007c 0822     		movs	r2, #8
 470 007e FFF7FEFF 		bl	CYCONFIGCPYCODE
 471              	.LVL39:
 407:.\Generated_Source\PSoC5/cyfitter_cfg.c **** 	/* Switch Boost to the precision bandgap reference from its internal reference */
 408:.\Generated_Source\PSoC5/cyfitter_cfg.c **** 	CY_SET_REG8((void CYXDATA *)CYREG_BOOST_CR2, (CY_GET_REG8((void CYXDATA *)CYREG_BOOST_CR2) | 0x08u
ARM GAS  C:\Users\PANXIA~1\AppData\Local\Temp\cchsV8S1.s 			page 17


 472              		.loc 1 408 0
 473 0082 104A     		ldr	r2, .L33+24
 474 0084 1378     		ldrb	r3, [r2]	@ zero_extendqisi2
 475 0086 43F00803 		orr	r3, r3, #8
 476 008a 1370     		strb	r3, [r2]
 409:.\Generated_Source\PSoC5/cyfitter_cfg.c **** 
 410:.\Generated_Source\PSoC5/cyfitter_cfg.c **** 	/* Set Flash Cycles based on max possible frequency in case a glitch occurs during ClockSetup(). *
 411:.\Generated_Source\PSoC5/cyfitter_cfg.c **** 	CY_SET_XTND_REG8((void CYFAR *)(CYREG_CACHE_CC_CTL), (((CYDEV_INSTRUCT_CACHE_ENABLED) != 0) ? 0x61
 477              		.loc 1 411 0
 478 008c 0E4C     		ldr	r4, .L33+28
 479 008e 6123     		movs	r3, #97
 480 0090 2370     		strb	r3, [r4]
 412:.\Generated_Source\PSoC5/cyfitter_cfg.c **** 	/* Setup clocks based on selections from Clock DWR */
 413:.\Generated_Source\PSoC5/cyfitter_cfg.c **** 	ClockSetup();
 481              		.loc 1 413 0
 482 0092 FFF7FEFF 		bl	ClockSetup
 483              	.LVL40:
 414:.\Generated_Source\PSoC5/cyfitter_cfg.c **** 	/* Set Flash Cycles based on newly configured 24.00MHz Bus Clock. */
 415:.\Generated_Source\PSoC5/cyfitter_cfg.c **** 	CY_SET_XTND_REG8((void CYFAR *)(CYREG_CACHE_CC_CTL), (((CYDEV_INSTRUCT_CACHE_ENABLED) != 0) ? 0x81
 484              		.loc 1 415 0
 485 0096 8123     		movs	r3, #129
 486 0098 2370     		strb	r3, [r4]
 416:.\Generated_Source\PSoC5/cyfitter_cfg.c **** 
 417:.\Generated_Source\PSoC5/cyfitter_cfg.c **** 	/* Perform basic analog initialization to defaults */
 418:.\Generated_Source\PSoC5/cyfitter_cfg.c **** 	AnalogSetDefault();
 487              		.loc 1 418 0
 488 009a FFF7FEFF 		bl	AnalogSetDefault
 489              	.LVL41:
 419:.\Generated_Source\PSoC5/cyfitter_cfg.c **** 
 420:.\Generated_Source\PSoC5/cyfitter_cfg.c **** 	/* Configure alternate active mode */
 421:.\Generated_Source\PSoC5/cyfitter_cfg.c **** 	CYCONFIGCPY((void CYFAR *)CYDEV_PM_STBY_BASE, (const void CYFAR *)CYDEV_PM_ACT_BASE, 14u);
 490              		.loc 1 421 0
 491 009e 0B48     		ldr	r0, .L33+32
 492 00a0 2946     		mov	r1, r5
 493 00a2 0E22     		movs	r2, #14
 494 00a4 FFF7FEFF 		bl	CYCONFIGCPY
 495              	.LVL42:
 496 00a8 38BD     		pop	{r3, r4, r5, pc}
 497              	.L34:
 498 00aa 00BF     		.align	2
 499              	.L33:
 500 00ac E8460040 		.word	1073759976
 501 00b0 00000000 		.word	.LANCHOR0
 502 00b4 03500140 		.word	1073827843
 503 00b8 A0430040 		.word	1073759136
 504 00bc F0510040 		.word	1073762800
 505 00c0 32510040 		.word	1073762610
 506 00c4 22430040 		.word	1073759010
 507 00c8 00480040 		.word	1073760256
 508 00cc B0430040 		.word	1073759152
 509              		.cfi_endproc
 510              	.LFE8:
 511              		.size	cyfitter_cfg, .-cyfitter_cfg
 512              		.section	.rodata
 513              		.align	2
 514              		.set	.LANCHOR0,. + 0
 515              		.type	cfg_memset_list.4884, %object
ARM GAS  C:\Users\PANXIA~1\AppData\Local\Temp\cchsV8S1.s 			page 18


 516              		.size	cfg_memset_list.4884, 48
 517              	cfg_memset_list.4884:
 518 0000 00510040 		.word	1073762560
 519 0004 3000     		.short	48
 520 0006 40510040 		.4byte	1073762624
 521 000a 3000     		.short	48
 522 000c C0510040 		.word	1073762752
 523 0010 1000     		.short	16
 524 0012 00000140 		.4byte	1073807360
 525 0016 0010     		.short	4096
 526 0018 00140140 		.word	1073812480
 527 001c 0008     		.short	2048
 528 001e 00400140 		.4byte	1073823744
 529 0022 000A     		.short	2560
 530 0024 004C0140 		.word	1073826816
 531 0028 0002     		.short	512
 532 002a 00500140 		.4byte	1073827840
 533 002e 2000     		.short	32
 534              		.type	cy_cfg_addr_table.4878, %object
 535              		.size	cy_cfg_addr_table.4878, 48
 536              	cy_cfg_addr_table.4878:
 537 0030 01450040 		.word	1073759489
 538 0034 01520040 		.word	1073762817
 539 0038 01170140 		.word	1073813249
 540 003c 01190140 		.word	1073813761
 541 0040 03400140 		.word	1073823747
 542 0044 02410140 		.word	1073824002
 543 0048 02420140 		.word	1073824258
 544 004c 02430140 		.word	1073824514
 545 0050 03470140 		.word	1073825539
 546 0054 03480140 		.word	1073825795
 547 0058 024C0140 		.word	1073826818
 548 005c 01510140 		.word	1073828097
 549              		.type	cy_cfg_data_table.4879, %object
 550              		.size	cy_cfg_data_table.4879, 44
 551              	cy_cfg_data_table.4879:
 552 0060 7E       		.byte	126
 553 0061 02       		.byte	2
 554 0062 7C       		.byte	124
 555 0063 40       		.byte	64
 556 0064 EE       		.byte	-18
 557 0065 0A       		.byte	10
 558 0066 EE       		.byte	-18
 559 0067 0A       		.byte	10
 560 0068 33       		.byte	51
 561 0069 80       		.byte	-128
 562 006a 36       		.byte	54
 563 006b 40       		.byte	64
 564 006c CC       		.byte	-52
 565 006d 30       		.byte	48
 566 006e A6       		.byte	-90
 567 006f 40       		.byte	64
 568 0070 A7       		.byte	-89
 569 0071 80       		.byte	-128
 570 0072 A6       		.byte	-90
 571 0073 40       		.byte	64
 572 0074 A7       		.byte	-89
ARM GAS  C:\Users\PANXIA~1\AppData\Local\Temp\cchsV8S1.s 			page 19


 573 0075 80       		.byte	-128
 574 0076 A6       		.byte	-90
 575 0077 40       		.byte	64
 576 0078 A7       		.byte	-89
 577 0079 80       		.byte	-128
 578 007a 08       		.byte	8
 579 007b 08       		.byte	8
 580 007c 0F       		.byte	15
 581 007d 40       		.byte	64
 582 007e C2       		.byte	-62
 583 007f 0C       		.byte	12
 584 0080 AE       		.byte	-82
 585 0081 40       		.byte	64
 586 0082 AF       		.byte	-81
 587 0083 80       		.byte	-128
 588 0084 EE       		.byte	-18
 589 0085 50       		.byte	80
 590 0086 AC       		.byte	-84
 591 0087 08       		.byte	8
 592 0088 AF       		.byte	-81
 593 0089 40       		.byte	64
 594 008a 00       		.byte	0
 595 008b 0A       		.byte	10
 596              		.type	BS_IOPINS0_8_VAL.4876, %object
 597              		.size	BS_IOPINS0_8_VAL.4876, 10
 598              	BS_IOPINS0_8_VAL.4876:
 599 008c 00       		.byte	0
 600 008d 00       		.byte	0
 601 008e 00       		.byte	0
 602 008f 00       		.byte	0
 603 0090 00       		.byte	0
 604 0091 00       		.byte	0
 605 0092 00       		.byte	0
 606 0093 00       		.byte	0
 607 0094 C0       		.byte	-64
 608 0095 00       		.byte	0
 609 0096 0000     		.space	2
 610              		.type	BS_IOPINS0_3_VAL.4877, %object
 611              		.size	BS_IOPINS0_3_VAL.4877, 8
 612              	BS_IOPINS0_3_VAL.4877:
 613 0098 00       		.byte	0
 614 0099 7F       		.byte	127
 615 009a 7F       		.byte	127
 616 009b 00       		.byte	0
 617 009c 00       		.byte	0
 618 009d 00       		.byte	0
 619 009e 00       		.byte	0
 620 009f 00       		.byte	0
 621              		.text
 622              	.Letext0:
 623              		.file 2 "c:\\program files (x86)\\cypress\\psoc creator\\3.3\\psoc creator\\import\\gnu\\arm\\4.9.
 624              		.file 3 ".\\Generated_Source\\PSoC5\\cytypes.h"
 625              		.file 4 ".\\Generated_Source\\PSoC5\\CyLib.h"