ARM GAS  C:\Users\PANXIA~1\AppData\Local\Temp\cch9b1Kj.s 			page 1


   1              		.syntax unified
   2              		.cpu cortex-m3
   3              		.fpu softvfp
   4              		.eabi_attribute 20, 1
   5              		.eabi_attribute 21, 1
   6              		.eabi_attribute 23, 3
   7              		.eabi_attribute 24, 1
   8              		.eabi_attribute 25, 1
   9              		.eabi_attribute 26, 1
  10              		.eabi_attribute 30, 1
  11              		.eabi_attribute 34, 1
  12              		.eabi_attribute 18, 4
  13              		.thumb
  14              		.file	"canfestival.c"
  15              		.text
  16              	.Ltext0:
  17              		.cfi_sections	.debug_frame
  18              		.section	.text.setTimer,"ax",%progbits
  19              		.align	2
  20              		.global	setTimer
  21              		.thumb
  22              		.thumb_func
  23              		.type	setTimer, %function
  24              	setTimer:
  25              	.LFB0:
  26              		.file 1 ".\\canfestival.c"
   1:.\canfestival.c **** /* ========================================
   2:.\canfestival.c ****  *
   3:.\canfestival.c ****  * Copyright YOUR COMPANY, THE YEAR
   4:.\canfestival.c ****  * All Rights Reserved
   5:.\canfestival.c ****  * UNPUBLISHED, LICENSED SOFTWARE.
   6:.\canfestival.c ****  *
   7:.\canfestival.c ****  * CONFIDENTIAL AND PROPRIETARY INFORMATION
   8:.\canfestival.c ****  * WHICH IS THE PROPERTY OF your company.
   9:.\canfestival.c ****  *
  10:.\canfestival.c ****  * ========================================
  11:.\canfestival.c **** */
  12:.\canfestival.c **** #include "canfestival.h"
  13:.\canfestival.c **** 
  14:.\canfestival.c **** 
  15:.\canfestival.c **** unsigned int TimeCNT=0;//时间计数
  16:.\canfestival.c **** unsigned int NextTime=0;//下一次触发时间计数
  17:.\canfestival.c **** unsigned int TIMER_MAX_COUNT=70000;//最大时间计数
  18:.\canfestival.c **** static TIMEVAL last_time_set = TIMEVAL_MAX;//上一次的时间计数
  19:.\canfestival.c **** 
  20:.\canfestival.c **** 
  21:.\canfestival.c **** 
  22:.\canfestival.c **** #define CAN_RTR_DATA     ((unsigned int )0x00000000)
  23:.\canfestival.c **** #define CAN_RTR_REMOTE   ((unsigned int )0x00000002)
  24:.\canfestival.c **** #define CAN_ID_STD       ((unsigned int)0x00000000)
  25:.\canfestival.c **** 
  26:.\canfestival.c **** 
  27:.\canfestival.c **** void setTimer(TIMEVAL value)
  28:.\canfestival.c **** {
  27              		.loc 1 28 0
  28              		.cfi_startproc
  29              		@ args = 0, pretend = 0, frame = 0
ARM GAS  C:\Users\PANXIA~1\AppData\Local\Temp\cch9b1Kj.s 			page 2


  30              		@ frame_needed = 0, uses_anonymous_args = 0
  31              		@ link register save eliminated.
  32              	.LVL0:
  29:.\canfestival.c ****     NextTime=TimeCNT+value;
  33              		.loc 1 29 0
  34 0000 024A     		ldr	r2, .L2
  35 0002 1368     		ldr	r3, [r2]
  36 0004 1844     		add	r0, r0, r3
  37              	.LVL1:
  38 0006 5060     		str	r0, [r2, #4]
  39 0008 7047     		bx	lr
  40              	.L3:
  41 000a 00BF     		.align	2
  42              	.L2:
  43 000c 00000000 		.word	.LANCHOR0
  44              		.cfi_endproc
  45              	.LFE0:
  46              		.size	setTimer, .-setTimer
  47              		.section	.text.getElapsedTime,"ax",%progbits
  48              		.align	2
  49              		.global	getElapsedTime
  50              		.thumb
  51              		.thumb_func
  52              		.type	getElapsedTime, %function
  53              	getElapsedTime:
  54              	.LFB1:
  30:.\canfestival.c **** }
  31:.\canfestival.c **** TIMEVAL getElapsedTime(void)
  32:.\canfestival.c **** {
  55              		.loc 1 32 0
  56              		.cfi_startproc
  57              		@ args = 0, pretend = 0, frame = 0
  58              		@ frame_needed = 0, uses_anonymous_args = 0
  59              		@ link register save eliminated.
  60              	.LVL2:
  33:.\canfestival.c ****         int ret=0;
  34:.\canfestival.c ****       //  ret = TimeCNT> last_time_set ? TimeCNT - last_time_set : TimeCNT + TIMER_MAX_COUNT - last
  35:.\canfestival.c ****         ret = TimeCNT> last_time_set ? TimeCNT - last_time_set :   last_time_set - TimeCNT ;
  61              		.loc 1 35 0
  62 0000 054B     		ldr	r3, .L7
  63 0002 1B68     		ldr	r3, [r3]
  64 0004 054A     		ldr	r2, .L7+4
  65 0006 1068     		ldr	r0, [r2]
  66 0008 8342     		cmp	r3, r0
  67 000a 01D9     		bls	.L5
  68              		.loc 1 35 0 is_stmt 0 discriminator 1
  69 000c 181A     		subs	r0, r3, r0
  70 000e 00E0     		b	.L6
  71              	.L5:
  72              		.loc 1 35 0 discriminator 2
  73 0010 C01A     		subs	r0, r0, r3
  74              	.L6:
  75              	.LVL3:
  36:.\canfestival.c ****         last_time_set = TimeCNT;
  76              		.loc 1 36 0 is_stmt 1 discriminator 4
  77 0012 024A     		ldr	r2, .L7+4
  78 0014 1360     		str	r3, [r2]
ARM GAS  C:\Users\PANXIA~1\AppData\Local\Temp\cch9b1Kj.s 			page 3


  37:.\canfestival.c ****         return ret;
  38:.\canfestival.c **** }
  79              		.loc 1 38 0 discriminator 4
  80 0016 7047     		bx	lr
  81              	.L8:
  82              		.align	2
  83              	.L7:
  84 0018 00000000 		.word	.LANCHOR0
  85 001c 00000000 		.word	.LANCHOR1
  86              		.cfi_endproc
  87              	.LFE1:
  88              		.size	getElapsedTime, .-getElapsedTime
  89              		.section	.text.timerForCan,"ax",%progbits
  90              		.align	2
  91              		.global	timerForCan
  92              		.thumb
  93              		.thumb_func
  94              		.type	timerForCan, %function
  95              	timerForCan:
  96              	.LFB2:
  39:.\canfestival.c **** void timerForCan()
  40:.\canfestival.c **** {
  97              		.loc 1 40 0
  98              		.cfi_startproc
  99              		@ args = 0, pretend = 0, frame = 0
 100              		@ frame_needed = 0, uses_anonymous_args = 0
 101 0000 08B5     		push	{r3, lr}
 102              		.cfi_def_cfa_offset 8
 103              		.cfi_offset 3, -8
 104              		.cfi_offset 14, -4
  41:.\canfestival.c ****         
  42:.\canfestival.c ****         if (TimeCNT>=TIMER_MAX_COUNT)
 105              		.loc 1 42 0
 106 0002 0A4B     		ldr	r3, .L13
 107 0004 1A68     		ldr	r2, [r3]
 108 0006 0A4B     		ldr	r3, .L13+4
 109 0008 5B68     		ldr	r3, [r3, #4]
 110 000a 9A42     		cmp	r2, r3
 111 000c 02D3     		bcc	.L10
  43:.\canfestival.c ****         {
  44:.\canfestival.c ****                 TimeCNT=0;
 112              		.loc 1 44 0
 113 000e 0022     		movs	r2, #0
 114 0010 064B     		ldr	r3, .L13
 115 0012 1A60     		str	r2, [r3]
 116              	.L10:
  45:.\canfestival.c ****         }
  46:.\canfestival.c ****         if (TimeCNT==NextTime)
 117              		.loc 1 46 0
 118 0014 054B     		ldr	r3, .L13
 119 0016 1A68     		ldr	r2, [r3]
 120 0018 5B68     		ldr	r3, [r3, #4]
 121 001a 9A42     		cmp	r2, r3
 122 001c 01D1     		bne	.L11
  47:.\canfestival.c ****         {
  48:.\canfestival.c ****                 TimeDispatch();
 123              		.loc 1 48 0
ARM GAS  C:\Users\PANXIA~1\AppData\Local\Temp\cch9b1Kj.s 			page 4


 124 001e FFF7FEFF 		bl	TimeDispatch
 125              	.LVL4:
 126              	.L11:
  49:.\canfestival.c ****         }
  50:.\canfestival.c ****         TimeCNT++;
 127              		.loc 1 50 0
 128 0022 024A     		ldr	r2, .L13
 129 0024 1368     		ldr	r3, [r2]
 130 0026 0133     		adds	r3, r3, #1
 131 0028 1360     		str	r3, [r2]
 132 002a 08BD     		pop	{r3, pc}
 133              	.L14:
 134              		.align	2
 135              	.L13:
 136 002c 00000000 		.word	.LANCHOR0
 137 0030 00000000 		.word	.LANCHOR1
 138              		.cfi_endproc
 139              	.LFE2:
 140              		.size	timerForCan, .-timerForCan
 141              		.global	TIMER_MAX_COUNT
 142              		.global	NextTime
 143              		.global	TimeCNT
 144              		.data
 145              		.align	2
 146              		.set	.LANCHOR1,. + 0
 147              		.type	last_time_set, %object
 148              		.size	last_time_set, 4
 149              	last_time_set:
 150 0000 FFFF0000 		.word	65535
 151              		.type	TIMER_MAX_COUNT, %object
 152              		.size	TIMER_MAX_COUNT, 4
 153              	TIMER_MAX_COUNT:
 154 0004 70110100 		.word	70000
 155              		.bss
 156              		.align	2
 157              		.set	.LANCHOR0,. + 0
 158              		.type	TimeCNT, %object
 159              		.size	TimeCNT, 4
 160              	TimeCNT:
 161 0000 00000000 		.space	4
 162              		.type	NextTime, %object
 163              		.size	NextTime, 4
 164              	NextTime:
 165 0004 00000000 		.space	4
 166              		.text
 167              	.Letext0:
 168              		.file 2 ".\\timer.h"