ARM GAS  C:\Users\TN02\AppData\Local\Temp\ccwE7zfc.s 			page 1


   1              		.syntax unified
   2              		.cpu cortex-m3
   3              		.fpu softvfp
   4              		.eabi_attribute 20, 1
   5              		.eabi_attribute 21, 1
   6              		.eabi_attribute 23, 3
   7              		.eabi_attribute 24, 1
   8              		.eabi_attribute 25, 1
   9              		.eabi_attribute 26, 1
  10              		.eabi_attribute 30, 1
  11              		.eabi_attribute 34, 1
  12              		.eabi_attribute 18, 4
  13              		.thumb
  14              		.file	"dcf.c"
  15              		.text
  16              	.Ltext0:
  17              		.cfi_sections	.debug_frame
  18              		.section	.text.init_consise_dcf,"ax",%progbits
  19              		.align	2
  20              		.global	init_consise_dcf
  21              		.thumb
  22              		.thumb_func
  23              		.type	init_consise_dcf, %function
  24              	init_consise_dcf:
  25              	.LFB2:
  26              		.file 1 ".\\dcf.c"
   1:.\dcf.c       **** /* ========================================
   2:.\dcf.c       ****  *
   3:.\dcf.c       ****  * Copyright YOUR COMPANY, THE YEAR
   4:.\dcf.c       ****  * All Rights Reserved
   5:.\dcf.c       ****  * UNPUBLISHED, LICENSED SOFTWARE.
   6:.\dcf.c       ****  *
   7:.\dcf.c       ****  * CONFIDENTIAL AND PROPRIETARY INFORMATION
   8:.\dcf.c       ****  * WHICH IS THE PROPERTY OF your company.
   9:.\dcf.c       ****  *
  10:.\dcf.c       ****  * ========================================
  11:.\dcf.c       **** */
  12:.\dcf.c       **** 
  13:.\dcf.c       **** /* [] END OF FILE */
  14:.\dcf.c       **** 
  15:.\dcf.c       **** ///*
  16:.\dcf.c       **** //  This file is part of CanFestival, a library implementing CanOpen
  17:.\dcf.c       **** //  Stack.
  18:.\dcf.c       **** 
  19:.\dcf.c       **** //  Copyright (C): Edouard TISSERANT and Francis DUPIN
  20:.\dcf.c       **** 
  21:.\dcf.c       **** //  See COPYING file for copyrights details.
  22:.\dcf.c       **** 
  23:.\dcf.c       **** //  This library is free software; you can redistribute it and/or
  24:.\dcf.c       **** //  modify it under the terms of the GNU Lesser General Public
  25:.\dcf.c       **** //  License as published by the Free Software Foundation; either
  26:.\dcf.c       **** //  version 2.1 of the License, or (at your option) any later version.
  27:.\dcf.c       **** 
  28:.\dcf.c       **** //  This library is distributed in the hope that it will be useful,
  29:.\dcf.c       **** //  but WITHOUT ANY WARRANTY; without even the implied warranty of
  30:.\dcf.c       **** //  MERCHANTABILITY or FITNESS FOR A PARTICULAR PURPOSE.  See the GNU
  31:.\dcf.c       **** //  Lesser General Public License for more details.
ARM GAS  C:\Users\TN02\AppData\Local\Temp\ccwE7zfc.s 			page 2


  32:.\dcf.c       **** 
  33:.\dcf.c       **** //  You should have received a copy of the GNU Lesser General Public
  34:.\dcf.c       **** //  License along with this library; if not, write to the Free Software
  35:.\dcf.c       **** //  Foundation, Inc., 59 Temple Place, Suite 330, Boston, MA  02111-1307
  36:.\dcf.c       **** //  USA
  37:.\dcf.c       **** //*/
  38:.\dcf.c       **** 
  39:.\dcf.c       **** 
  40:.\dcf.c       **** ///**
  41:.\dcf.c       **** //** @file   dcf.c
  42:.\dcf.c       **** //** @author Edouard TISSERANT and Francis DUPIN
  43:.\dcf.c       **** //** @date   Mon Jun  4 17:06:12 2007
  44:.\dcf.c       **** //**
  45:.\dcf.c       **** //** @brief EXEMPLE OF SOMMARY
  46:.\dcf.c       **** //**
  47:.\dcf.c       **** //**
  48:.\dcf.c       **** //*/
  49:.\dcf.c       **** 
  50:.\dcf.c       **** 
  51:.\dcf.c       **** //#include "data.h"
  52:.\dcf.c       **** //#include "sysdep.h"
  53:.\dcf.c       **** //#include "dcf.h"
  54:.\dcf.c       **** 
  55:.\dcf.c       **** //typedef struct {
  56:.\dcf.c       **** //    UNS16 Index;
  57:.\dcf.c       **** //    UNS8 Subindex;
  58:.\dcf.c       **** //    UNS32 Size;
  59:.\dcf.c       **** //    UNS8 *Data;
  60:.\dcf.c       **** //} dcf_entry_t;
  61:.\dcf.c       **** 
  62:.\dcf.c       **** //void SaveNode(CO_Data* d, UNS8 nodeId);
  63:.\dcf.c       **** //static UNS8 read_consise_dcf_next_entry(CO_Data* d, UNS8 nodeId);
  64:.\dcf.c       **** //static UNS8 write_consise_dcf_next_entry(CO_Data* d, UNS8 nodeId);
  65:.\dcf.c       **** //UNS8 init_consise_dcf(CO_Data* d,UNS8 nodeId);
  66:.\dcf.c       **** 
  67:.\dcf.c       **** ///**
  68:.\dcf.c       **** //** @brief Function to be called from post_SlaveBootup
  69:.\dcf.c       **** //**
  70:.\dcf.c       **** //** @param d
  71:.\dcf.c       **** //** @param nodeId
  72:.\dcf.c       **** //*/
  73:.\dcf.c       **** //UNS8 check_and_start_node(CO_Data* d, UNS8 nodeId)
  74:.\dcf.c       **** //{
  75:.\dcf.c       **** //    if(d->dcf_status != DCF_STATUS_INIT)
  76:.\dcf.c       **** //        return 0;
  77:.\dcf.c       **** //    if((init_consise_dcf(d, nodeId) == 0) || (read_consise_dcf_next_entry(d, nodeId) == 0)){
  78:.\dcf.c       **** //	    /* Ask slave node to go in operational mode */
  79:.\dcf.c       **** //        masterSendNMTstateChange (d, nodeId, NMT_Start_Node);
  80:.\dcf.c       **** //        d->NMTable[nodeId] = Operational;
  81:.\dcf.c       **** //        return 1;
  82:.\dcf.c       **** //    }
  83:.\dcf.c       **** //    d->dcf_status = DCF_STATUS_READ_CHECK;
  84:.\dcf.c       **** //    return 2;
  85:.\dcf.c       **** //}
  86:.\dcf.c       **** 
  87:.\dcf.c       **** ///**
  88:.\dcf.c       **** //**
ARM GAS  C:\Users\TN02\AppData\Local\Temp\ccwE7zfc.s 			page 3


  89:.\dcf.c       **** //**
  90:.\dcf.c       **** //** @param d
  91:.\dcf.c       **** //** @param nodeId
  92:.\dcf.c       **** //*/
  93:.\dcf.c       **** //static void CheckSDOAndContinue(CO_Data* d, UNS8 nodeId)
  94:.\dcf.c       **** //{
  95:.\dcf.c       **** //    UNS32 abortCode = 0;
  96:.\dcf.c       **** //    UNS8 buf[4], match = 0, node;
  97:.\dcf.c       **** //    UNS32 size=4;
  98:.\dcf.c       **** //    if(d->dcf_status == DCF_STATUS_READ_CHECK){
  99:.\dcf.c       **** //        // printf("DCF_STATUS_READ_CHECK \n");
 100:.\dcf.c       **** //        if(getReadResultNetworkDict (d, nodeId, buf, &size, &abortCode) != SDO_FINISHED)
 101:.\dcf.c       **** //            goto dcferror;
 102:.\dcf.c       **** //        /* Check if data received match the DCF */
 103:.\dcf.c       **** //        if(size == d->dcf_size){
 104:.\dcf.c       **** //            match = 1;
 105:.\dcf.c       **** //            while(size--)
 106:.\dcf.c       **** //                if(buf[size] != d->dcf_data[size])
 107:.\dcf.c       **** //                    match = 0;
 108:.\dcf.c       **** //        }
 109:.\dcf.c       **** //        if(match) {
 110:.\dcf.c       **** //            if(read_consise_dcf_next_entry(d, nodeId) == 0){
 111:.\dcf.c       **** //                masterSendNMTstateChange (d, nodeId, NMT_Start_Node);
 112:.\dcf.c       **** //                d->NMTable[nodeId] = Operational;
 113:.\dcf.c       **** //                d->dcf_status = DCF_STATUS_INIT;
 114:.\dcf.c       **** //                /* Look for other nodes waiting to be started */
 115:.\dcf.c       **** //                for(node = 0 ; node<NMT_MAX_NODE_ID ; node++){
 116:.\dcf.c       **** //                    if(d->NMTable[node] != Initialisation)
 117:.\dcf.c       **** //                        continue;
 118:.\dcf.c       **** //                    if(check_and_start_node(d, node) == 2)
 119:.\dcf.c       **** //                        break;
 120:.\dcf.c       **** //                }
 121:.\dcf.c       **** //            }
 122:.\dcf.c       **** //        }
 123:.\dcf.c       **** //        else { /* Data received does not match : start rewriting all */
 124:.\dcf.c       **** //            if((init_consise_dcf(d, nodeId) == 0) || (write_consise_dcf_next_entry(d, nodeId) == 
 125:.\dcf.c       **** //                goto dcferror;
 126:.\dcf.c       **** //            d->dcf_status = DCF_STATUS_WRITE;
 127:.\dcf.c       **** //        }
 128:.\dcf.c       **** //    }
 129:.\dcf.c       **** //    else if(d->dcf_status == DCF_STATUS_WRITE){
 130:.\dcf.c       **** //        // printf("DCF_STATUS_WRITE \n");
 131:.\dcf.c       **** //        if(getWriteResultNetworkDict (d, nodeId, &abortCode) != SDO_FINISHED)
 132:.\dcf.c       **** //            goto dcferror;
 133:.\dcf.c       **** //        if(write_consise_dcf_next_entry(d, nodeId) == 0){
 134:.\dcf.c       **** //#ifdef DCF_SAVE_NODE
 135:.\dcf.c       **** //            SaveNode(d, nodeId);
 136:.\dcf.c       **** //            d->dcf_status = DCF_STATUS_SAVED;
 137:.\dcf.c       **** //#else //DCF_SAVE_NODE
 138:.\dcf.c       **** //           masterSendNMTstateChange (d, nodeId, NMT_Start_Node);
 139:.\dcf.c       **** //           d->NMTable[nodeId] = Operational;
 140:.\dcf.c       **** //           d->dcf_status = DCF_STATUS_INIT;
 141:.\dcf.c       **** //           /* Look for other nodes waiting to be started */
 142:.\dcf.c       **** //           for(node = 0 ; node<NMT_MAX_NODE_ID ; node++){
 143:.\dcf.c       **** //               if(d->NMTable[node] != Initialisation)
 144:.\dcf.c       **** //                   continue;
 145:.\dcf.c       **** //               if(check_and_start_node(d, node) == 2)
ARM GAS  C:\Users\TN02\AppData\Local\Temp\ccwE7zfc.s 			page 4


 146:.\dcf.c       **** //                   break;
 147:.\dcf.c       **** //           }
 148:.\dcf.c       **** //#endif //DCF_SAVE_NODE
 149:.\dcf.c       **** //        }
 150:.\dcf.c       **** //    }
 151:.\dcf.c       **** //    else if(d->dcf_status == DCF_STATUS_SAVED){
 152:.\dcf.c       **** //        // printf("DCF_STATUS_SAVED \n");
 153:.\dcf.c       **** //        if(getWriteResultNetworkDict (d, nodeId, &abortCode) != SDO_FINISHED)
 154:.\dcf.c       **** //            goto dcferror;
 155:.\dcf.c       **** //        masterSendNMTstateChange (d, nodeId, NMT_Reset_Node);
 156:.\dcf.c       **** //        d->dcf_status = DCF_STATUS_INIT;
 157:.\dcf.c       **** //        d->NMTable[nodeId] = Unknown_state;
 158:.\dcf.c       **** //    }
 159:.\dcf.c       **** //    return;
 160:.\dcf.c       **** //dcferror:
 161:.\dcf.c       **** //    MSG_ERR(0x1A01, "SDO error in consise DCF", abortCode);
 162:.\dcf.c       **** //    MSG_WAR(0x2A02, "server node : ", nodeId);
 163:.\dcf.c       **** //    d->NMTable[nodeId] = Unknown_state;
 164:.\dcf.c       **** //}
 165:.\dcf.c       **** 
 166:.\dcf.c       **** ///**
 167:.\dcf.c       **** //**
 168:.\dcf.c       **** //**
 169:.\dcf.c       **** //** @param d
 170:.\dcf.c       **** //** @param nodeId
 171:.\dcf.c       **** //**
 172:.\dcf.c       **** //** @return
 173:.\dcf.c       **** //*/
 174:.\dcf.c       **** //UNS8 init_consise_dcf(CO_Data* d,UNS8 nodeId)
 175:.\dcf.c       **** //{
 176:.\dcf.c       **** //    /* Fetch DCF OD entry */
 177:.\dcf.c       **** //    UNS32 errorCode;
 178:.\dcf.c       **** //    ODCallback_t *Callback;
 179:.\dcf.c       **** //    UNS8* dcf;
 180:.\dcf.c       **** //    d->dcf_odentry = (*d->scanIndexOD)(0x1F22, &errorCode, &Callback);
 181:.\dcf.c       **** //    /* If DCF entry do not exist... Nothing to do.*/
 182:.\dcf.c       **** //    if (errorCode != OD_SUCCESSFUL) goto DCF_finish;
 183:.\dcf.c       **** //    /* Fix DCF table overflow */
 184:.\dcf.c       **** //    if(nodeId > d->dcf_odentry->bSubCount) goto DCF_finish;
 185:.\dcf.c       **** //    /* If DCF empty... Nothing to do */
 186:.\dcf.c       **** //    if(! d->dcf_odentry->pSubindex[nodeId].size) goto DCF_finish;
 187:.\dcf.c       **** //    dcf = *(UNS8**)d->dcf_odentry->pSubindex[nodeId].pObject;
 188:.\dcf.c       **** //    // printf("%.2x %.2x %.2x %.2x\n",dcf[0],dcf[1],dcf[2],dcf[3]);
 189:.\dcf.c       **** //    d->dcf_cursor = dcf + 4;
 190:.\dcf.c       **** //    d->dcf_entries_count = 0;
 191:.\dcf.c       **** //    d->dcf_status = DCF_STATUS_INIT;
 192:.\dcf.c       **** //    return 1;
 193:.\dcf.c       **** //    DCF_finish:
 194:.\dcf.c       **** //    return 0;
 195:.\dcf.c       **** //}
 196:.\dcf.c       **** 
 197:.\dcf.c       **** //UNS8 get_next_DCF_data(CO_Data* d, dcf_entry_t *dcf_entry, UNS8 nodeId)
 198:.\dcf.c       **** //{
 199:.\dcf.c       **** //  UNS8* dcfend;
 200:.\dcf.c       **** //  UNS32 nb_entries;
 201:.\dcf.c       **** //  UNS32 szData;
 202:.\dcf.c       **** //  UNS8* dcf;
ARM GAS  C:\Users\TN02\AppData\Local\Temp\ccwE7zfc.s 			page 5


 203:.\dcf.c       **** //  if(!d->dcf_odentry)
 204:.\dcf.c       **** //     return 0;
 205:.\dcf.c       **** //  if(nodeId > d->dcf_odentry->bSubCount)
 206:.\dcf.c       **** //     return 0;
 207:.\dcf.c       **** //  szData = d->dcf_odentry->pSubindex[nodeId].size;
 208:.\dcf.c       **** //  dcf = *(UNS8**)d->dcf_odentry->pSubindex[nodeId].pObject;
 209:.\dcf.c       **** //  nb_entries = UNS32_LE(*((UNS32*)dcf));
 210:.\dcf.c       **** //  dcfend = dcf + szData;
 211:.\dcf.c       **** //  if((UNS8*)d->dcf_cursor + 7 < (UNS8*)dcfend && d->dcf_entries_count < nb_entries){
 212:.\dcf.c       **** //    /* DCF data may not be 32/16b aligned,
 213:.\dcf.c       **** //    * we cannot directly dereference d->dcf_cursor
 214:.\dcf.c       **** //    * as UNS16 or UNS32
 215:.\dcf.c       **** //    * Do it byte per byte taking care on endianess*/
 216:.\dcf.c       **** //#ifdef CANOPEN_BIG_ENDIAN
 217:.\dcf.c       **** //    dcf_entry->Index = *(d->dcf_cursor++) << 8 |
 218:.\dcf.c       **** //     	               *(d->dcf_cursor++);
 219:.\dcf.c       **** //#else
 220:.\dcf.c       **** //    memcpy(&dcf_entry->Index, d->dcf_cursor,2);
 221:.\dcf.c       **** //       	d->dcf_cursor+=2;
 222:.\dcf.c       **** //#endif
 223:.\dcf.c       **** //    dcf_entry->Subindex = *(d->dcf_cursor++);
 224:.\dcf.c       **** //#ifdef CANOPEN_BIG_ENDIAN
 225:.\dcf.c       **** //    dcf_entry->Size = *(d->dcf_cursor++) << 24 |
 226:.\dcf.c       **** //     	              *(d->dcf_cursor++) << 16 |
 227:.\dcf.c       **** //        	          *(d->dcf_cursor++) << 8 |
 228:.\dcf.c       **** //        	          *(d->dcf_cursor++);
 229:.\dcf.c       **** //#else
 230:.\dcf.c       **** //    memcpy(&dcf_entry->Size, d->dcf_cursor,4);
 231:.\dcf.c       **** //    d->dcf_cursor+=4;
 232:.\dcf.c       **** //#endif
 233:.\dcf.c       **** //    d->dcf_data = dcf_entry->Data = d->dcf_cursor;
 234:.\dcf.c       **** //    d->dcf_size = dcf_entry->Size;
 235:.\dcf.c       **** //    d->dcf_cursor += dcf_entry->Size;
 236:.\dcf.c       **** //    d->dcf_entries_count++;
 237:.\dcf.c       **** //    return 1;
 238:.\dcf.c       **** //  }
 239:.\dcf.c       **** //  return 0;
 240:.\dcf.c       **** //}
 241:.\dcf.c       **** 
 242:.\dcf.c       **** //static UNS8 write_consise_dcf_next_entry(CO_Data* d, UNS8 nodeId)
 243:.\dcf.c       **** //{
 244:.\dcf.c       **** //    UNS8 Ret;
 245:.\dcf.c       **** //    dcf_entry_t dcf_entry;
 246:.\dcf.c       **** //    if(!get_next_DCF_data(d, &dcf_entry, nodeId))
 247:.\dcf.c       **** //        return 0;
 248:.\dcf.c       **** //    Ret = writeNetworkDictCallBackAI(d, /* CO_Data* d*/
 249:.\dcf.c       **** //                    nodeId, /* UNS8 nodeId*/
 250:.\dcf.c       **** //                    dcf_entry.Index, /* UNS16 index*/
 251:.\dcf.c       **** //                    dcf_entry.Subindex, /* UNS8 subindex*/
 252:.\dcf.c       **** //                    (UNS8)dcf_entry.Size, /* UNS8 count*/
 253:.\dcf.c       **** //                    0, /* UNS8 dataType*/
 254:.\dcf.c       **** //                    dcf_entry.Data,/* void *data*/
 255:.\dcf.c       **** //                    CheckSDOAndContinue,/* Callback*/
 256:.\dcf.c       **** //                    0,   /* no endianize*/
 257:.\dcf.c       **** //                    0); /* no block mode */
 258:.\dcf.c       **** //    if(Ret)
 259:.\dcf.c       **** //        MSG_ERR(0x1A02,"Erreur writeNetworkDictCallBackAI",Ret);
ARM GAS  C:\Users\TN02\AppData\Local\Temp\ccwE7zfc.s 			page 6


 260:.\dcf.c       **** //    return 1;
 261:.\dcf.c       **** //}
 262:.\dcf.c       **** 
 263:.\dcf.c       **** //static UNS8 read_consise_dcf_next_entry(CO_Data* d, UNS8 nodeId)
 264:.\dcf.c       **** //{
 265:.\dcf.c       **** //    UNS8 Ret;
 266:.\dcf.c       **** //    dcf_entry_t dcf_entry;
 267:.\dcf.c       **** //    if(!get_next_DCF_data(d, &dcf_entry, nodeId))
 268:.\dcf.c       **** //        return 0;
 269:.\dcf.c       **** //    Ret = readNetworkDictCallbackAI(d, /* CO_Data* d*/
 270:.\dcf.c       **** //                   nodeId, /* UNS8 nodeId*/
 271:.\dcf.c       **** //                   dcf_entry.Index, /* UNS16 index*/
 272:.\dcf.c       **** //                   dcf_entry.Subindex, /* UNS8 subindex*/
 273:.\dcf.c       **** //                   0, /* UNS8 dataType*/
 274:.\dcf.c       **** //                   CheckSDOAndContinue,/* Callback*/
 275:.\dcf.c       **** //                   0); /* no block mode */
 276:.\dcf.c       **** //    if(Ret)
 277:.\dcf.c       **** //        MSG_ERR(0x1A03,"Erreur readNetworkDictCallbackAI",Ret);
 278:.\dcf.c       **** //    return 1;
 279:.\dcf.c       **** //}
 280:.\dcf.c       **** 
 281:.\dcf.c       **** //void SaveNode(CO_Data* d, UNS8 nodeId)
 282:.\dcf.c       **** //{
 283:.\dcf.c       **** //    UNS8 Ret;
 284:.\dcf.c       **** //    UNS32 data=0x65766173;
 285:.\dcf.c       **** //    Ret = writeNetworkDictCallBackAI(d, /* CO_Data* d*/
 286:.\dcf.c       **** //                    nodeId, /* UNS8 nodeId*/
 287:.\dcf.c       **** //                    0x1010, /* UNS16 index*/
 288:.\dcf.c       **** //                    1, /* UNS8 subindex*/
 289:.\dcf.c       **** //                    4, /* UNS8 count*/
 290:.\dcf.c       **** //                    0, /* UNS8 dataType*/
 291:.\dcf.c       **** //                    (void *)&data,/* void *data*/
 292:.\dcf.c       **** //                    CheckSDOAndContinue,/* Callback*/
 293:.\dcf.c       **** //                    0,   /* no endianize*/
 294:.\dcf.c       **** //                    0); /* no block mode */
 295:.\dcf.c       **** //    if(Ret)
 296:.\dcf.c       **** //        MSG_ERR(0x1A04,"Erreur writeNetworkDictCallBackAI",Ret);
 297:.\dcf.c       **** //}
 298:.\dcf.c       **** 
 299:.\dcf.c       **** 
 300:.\dcf.c       **** 
 301:.\dcf.c       **** /*
 302:.\dcf.c       ****   This file is part of CanFestival, a library implementing CanOpen
 303:.\dcf.c       ****   Stack.
 304:.\dcf.c       **** 
 305:.\dcf.c       ****   Copyright (C): Edouard TISSERANT and Francis DUPIN
 306:.\dcf.c       **** 
 307:.\dcf.c       ****   See COPYING file for copyrights details.
 308:.\dcf.c       **** 
 309:.\dcf.c       ****   This library is free software; you can redistribute it and/or
 310:.\dcf.c       ****   modify it under the terms of the GNU Lesser General Public
 311:.\dcf.c       ****   License as published by the Free Software Foundation; either
 312:.\dcf.c       ****   version 2.1 of the License, or (at your option) any later version.
 313:.\dcf.c       **** 
 314:.\dcf.c       ****   This library is distributed in the hope that it will be useful,
 315:.\dcf.c       ****   but WITHOUT ANY WARRANTY; without even the implied warranty of
 316:.\dcf.c       ****   MERCHANTABILITY or FITNESS FOR A PARTICULAR PURPOSE.  See the GNU
ARM GAS  C:\Users\TN02\AppData\Local\Temp\ccwE7zfc.s 			page 7


 317:.\dcf.c       ****   Lesser General Public License for more details.
 318:.\dcf.c       **** 
 319:.\dcf.c       ****   You should have received a copy of the GNU Lesser General Public
 320:.\dcf.c       ****   License along with this library; if not, write to the Free Software
 321:.\dcf.c       ****   Foundation, Inc., 59 Temple Place, Suite 330, Boston, MA  02111-1307
 322:.\dcf.c       ****   USA
 323:.\dcf.c       **** */
 324:.\dcf.c       **** 
 325:.\dcf.c       **** 
 326:.\dcf.c       **** /**
 327:.\dcf.c       **** ** @file   dcf.c
 328:.\dcf.c       **** ** @author Edouard TISSERANT and Francis DUPIN
 329:.\dcf.c       **** ** @date   Mon Jun  4 17:06:12 2007
 330:.\dcf.c       **** **
 331:.\dcf.c       **** ** @brief EXEMPLE OF SOMMARY
 332:.\dcf.c       **** **
 333:.\dcf.c       **** **
 334:.\dcf.c       **** */
 335:.\dcf.c       **** 
 336:.\dcf.c       **** 
 337:.\dcf.c       **** #include "data.h"
 338:.\dcf.c       **** #include "sysdep.h"
 339:.\dcf.c       **** #include "dcf.h"
 340:.\dcf.c       **** 
 341:.\dcf.c       **** typedef struct {
 342:.\dcf.c       ****     UNS16 Index;
 343:.\dcf.c       ****     UNS8 Subindex;
 344:.\dcf.c       ****     UNS32 Size;
 345:.\dcf.c       ****     UNS8 *Data;
 346:.\dcf.c       **** } dcf_entry_t;
 347:.\dcf.c       **** 
 348:.\dcf.c       **** void SaveNode(CO_Data* d, UNS8 nodeId);
 349:.\dcf.c       **** static UNS8 read_consise_dcf_next_entry(CO_Data* d, UNS8 nodeId);
 350:.\dcf.c       **** static UNS8 write_consise_dcf_next_entry(CO_Data* d, UNS8 nodeId);
 351:.\dcf.c       **** UNS8 init_consise_dcf(CO_Data* d,UNS8 nodeId);
 352:.\dcf.c       **** 
 353:.\dcf.c       **** /**
 354:.\dcf.c       **** ** @brief Function to be called from post_SlaveBootup
 355:.\dcf.c       **** **
 356:.\dcf.c       **** ** @param d
 357:.\dcf.c       **** ** @param nodeId
 358:.\dcf.c       **** */
 359:.\dcf.c       **** UNS8 check_and_start_node(CO_Data* d, UNS8 nodeId)
 360:.\dcf.c       **** {
 361:.\dcf.c       ****     if(d->dcf_status != DCF_STATUS_INIT)
 362:.\dcf.c       ****         return 0;
 363:.\dcf.c       ****     if((init_consise_dcf(d, nodeId) == 0) || (read_consise_dcf_next_entry(d, nodeId) == 0)){
 364:.\dcf.c       ****         /* Ask slave node to go in operational mode */
 365:.\dcf.c       ****         masterSendNMTstateChange (d, nodeId, NMT_Start_Node);
 366:.\dcf.c       ****         d->NMTable[nodeId] = Operational;
 367:.\dcf.c       ****         return 1;
 368:.\dcf.c       ****     }
 369:.\dcf.c       ****     d->dcf_status = DCF_STATUS_READ_CHECK;
 370:.\dcf.c       ****     return 2;
 371:.\dcf.c       **** }
 372:.\dcf.c       **** 
 373:.\dcf.c       **** /**
ARM GAS  C:\Users\TN02\AppData\Local\Temp\ccwE7zfc.s 			page 8


 374:.\dcf.c       **** **
 375:.\dcf.c       **** **
 376:.\dcf.c       **** ** @param d
 377:.\dcf.c       **** ** @param nodeId
 378:.\dcf.c       **** */
 379:.\dcf.c       **** static void CheckSDOAndContinue(CO_Data* d, UNS8 nodeId)
 380:.\dcf.c       **** {
 381:.\dcf.c       ****     UNS32 abortCode = 0;
 382:.\dcf.c       ****     UNS8 buf[4], match = 0, node;
 383:.\dcf.c       ****     UNS32 size=4;
 384:.\dcf.c       ****     if(d->dcf_status == DCF_STATUS_READ_CHECK){
 385:.\dcf.c       ****         // printf("DCF_STATUS_READ_CHECK \n");
 386:.\dcf.c       ****         if(getReadResultNetworkDict (d, nodeId, buf, &size, &abortCode) != SDO_FINISHED)
 387:.\dcf.c       ****             goto dcferror;
 388:.\dcf.c       ****         /* Check if data received match the DCF */
 389:.\dcf.c       ****         if(size == d->dcf_size){
 390:.\dcf.c       ****             match = 1;
 391:.\dcf.c       ****             while(size--)
 392:.\dcf.c       ****                 if(buf[size] != d->dcf_data[size])
 393:.\dcf.c       ****                     match = 0;
 394:.\dcf.c       ****         }
 395:.\dcf.c       ****         if(match) {
 396:.\dcf.c       ****             if(read_consise_dcf_next_entry(d, nodeId) == 0){
 397:.\dcf.c       ****                 masterSendNMTstateChange (d, nodeId, NMT_Start_Node);
 398:.\dcf.c       ****                 d->NMTable[nodeId] = Operational;
 399:.\dcf.c       ****                 d->dcf_status = DCF_STATUS_INIT;
 400:.\dcf.c       ****                 /* Look for other nodes waiting to be started */
 401:.\dcf.c       ****                 for(node = 0 ; node<NMT_MAX_NODE_ID ; node++){
 402:.\dcf.c       ****                     if(d->NMTable[node] != Initialisation)
 403:.\dcf.c       ****                         continue;
 404:.\dcf.c       ****                     if(check_and_start_node(d, node) == 2)
 405:.\dcf.c       ****                         break;
 406:.\dcf.c       ****                 }
 407:.\dcf.c       ****             }
 408:.\dcf.c       ****         }
 409:.\dcf.c       ****         else { /* Data received does not match : start rewriting all */
 410:.\dcf.c       ****             if((init_consise_dcf(d, nodeId) == 0) || (write_consise_dcf_next_entry(d, nodeId) == 0)
 411:.\dcf.c       ****                 goto dcferror;
 412:.\dcf.c       ****             d->dcf_status = DCF_STATUS_WRITE;
 413:.\dcf.c       ****         }
 414:.\dcf.c       ****     }
 415:.\dcf.c       ****     else if(d->dcf_status == DCF_STATUS_WRITE){
 416:.\dcf.c       ****         // printf("DCF_STATUS_WRITE \n");
 417:.\dcf.c       ****         if(getWriteResultNetworkDict (d, nodeId, &abortCode) != SDO_FINISHED)
 418:.\dcf.c       ****             goto dcferror;
 419:.\dcf.c       ****         if(write_consise_dcf_next_entry(d, nodeId) == 0){
 420:.\dcf.c       **** #ifdef DCF_SAVE_NODE
 421:.\dcf.c       ****             SaveNode(d, nodeId);
 422:.\dcf.c       ****             d->dcf_status = DCF_STATUS_SAVED;
 423:.\dcf.c       **** #else //DCF_SAVE_NODE
 424:.\dcf.c       ****            masterSendNMTstateChange (d, nodeId, NMT_Start_Node);
 425:.\dcf.c       ****            d->NMTable[nodeId] = Operational;
 426:.\dcf.c       ****            d->dcf_status = DCF_STATUS_INIT;
 427:.\dcf.c       ****            /* Look for other nodes waiting to be started */
 428:.\dcf.c       ****            for(node = 0 ; node<NMT_MAX_NODE_ID ; node++){
 429:.\dcf.c       ****                if(d->NMTable[node] != Initialisation)
 430:.\dcf.c       ****                    continue;
ARM GAS  C:\Users\TN02\AppData\Local\Temp\ccwE7zfc.s 			page 9


 431:.\dcf.c       ****                if(check_and_start_node(d, node) == 2)
 432:.\dcf.c       ****                    break;
 433:.\dcf.c       ****            }
 434:.\dcf.c       **** #endif //DCF_SAVE_NODE
 435:.\dcf.c       ****         }
 436:.\dcf.c       ****     }
 437:.\dcf.c       ****     else if(d->dcf_status == DCF_STATUS_SAVED){
 438:.\dcf.c       ****         // printf("DCF_STATUS_SAVED \n");
 439:.\dcf.c       ****         if(getWriteResultNetworkDict (d, nodeId, &abortCode) != SDO_FINISHED)
 440:.\dcf.c       ****             goto dcferror;
 441:.\dcf.c       ****         masterSendNMTstateChange (d, nodeId, NMT_Reset_Node);
 442:.\dcf.c       ****         d->dcf_status = DCF_STATUS_INIT;
 443:.\dcf.c       ****         d->NMTable[nodeId] = Unknown_state;
 444:.\dcf.c       ****     }
 445:.\dcf.c       ****     return;
 446:.\dcf.c       **** dcferror:
 447:.\dcf.c       ****     MSG_ERR(0x1A01, "SDO error in consise DCF", abortCode);
 448:.\dcf.c       ****     MSG_WAR(0x2A02, "server node : ", nodeId);
 449:.\dcf.c       ****     d->NMTable[nodeId] = Unknown_state;
 450:.\dcf.c       **** }
 451:.\dcf.c       **** 
 452:.\dcf.c       **** /**
 453:.\dcf.c       **** **
 454:.\dcf.c       **** **
 455:.\dcf.c       **** ** @param d
 456:.\dcf.c       **** ** @param nodeId
 457:.\dcf.c       **** **
 458:.\dcf.c       **** ** @return
 459:.\dcf.c       **** */
 460:.\dcf.c       **** UNS8 init_consise_dcf(CO_Data* d,UNS8 nodeId)
 461:.\dcf.c       **** {
  27              		.loc 1 461 0
  28              		.cfi_startproc
  29              		@ args = 0, pretend = 0, frame = 8
  30              		@ frame_needed = 0, uses_anonymous_args = 0
  31              	.LVL0:
  32 0000 30B5     		push	{r4, r5, lr}
  33              		.cfi_def_cfa_offset 12
  34              		.cfi_offset 4, -12
  35              		.cfi_offset 5, -8
  36              		.cfi_offset 14, -4
  37 0002 83B0     		sub	sp, sp, #12
  38              		.cfi_def_cfa_offset 24
  39 0004 0546     		mov	r5, r0
  40 0006 0C46     		mov	r4, r1
 462:.\dcf.c       ****     /* Fetch DCF OD entry */
 463:.\dcf.c       ****     UNS32 errorCode;
 464:.\dcf.c       ****     ODCallback_t *Callback;
 465:.\dcf.c       ****     UNS8* dcf;
 466:.\dcf.c       ****     d->dcf_odentry = (*d->scanIndexOD)(0x1F22, &errorCode, &Callback);
  41              		.loc 1 466 0
  42 0008 D0F85431 		ldr	r3, [r0, #340]
  43 000c 41F62270 		movw	r0, #7970
  44              	.LVL1:
  45 0010 01A9     		add	r1, sp, #4
  46              	.LVL2:
  47 0012 6A46     		mov	r2, sp
ARM GAS  C:\Users\TN02\AppData\Local\Temp\ccwE7zfc.s 			page 10


  48 0014 9847     		blx	r3
  49              	.LVL3:
  50 0016 C5F85C01 		str	r0, [r5, #348]
 467:.\dcf.c       ****     /* If DCF entry do not exist... Nothing to do.*/
 468:.\dcf.c       ****     if (errorCode != OD_SUCCESSFUL) goto DCF_finish;
  51              		.loc 1 468 0
  52 001a 019B     		ldr	r3, [sp, #4]
  53 001c ABB9     		cbnz	r3, .L3
 469:.\dcf.c       ****     /* Fix DCF table overflow */
 470:.\dcf.c       ****     if(nodeId > d->dcf_odentry->bSubCount) goto DCF_finish;
  54              		.loc 1 470 0
  55 001e 0379     		ldrb	r3, [r0, #4]	@ zero_extendqisi2
  56 0020 A342     		cmp	r3, r4
  57 0022 14D3     		bcc	.L4
 471:.\dcf.c       ****     /* If DCF empty... Nothing to do */
 472:.\dcf.c       ****     if(! d->dcf_odentry->pSubindex[nodeId].size) goto DCF_finish;
  58              		.loc 1 472 0
  59 0024 0368     		ldr	r3, [r0]
  60 0026 04EB4404 		add	r4, r4, r4, lsl #1
  61 002a A400     		lsls	r4, r4, #2
  62 002c 1C44     		add	r4, r4, r3
  63 002e 6368     		ldr	r3, [r4, #4]
  64 0030 7BB1     		cbz	r3, .L5
 473:.\dcf.c       ****     dcf = *(UNS8**)d->dcf_odentry->pSubindex[nodeId].pObject;
  65              		.loc 1 473 0
  66 0032 A368     		ldr	r3, [r4, #8]
  67 0034 1B68     		ldr	r3, [r3]
  68              	.LVL4:
 474:.\dcf.c       ****     // printf("%.2x %.2x %.2x %.2x\n",dcf[0],dcf[1],dcf[2],dcf[3]);
 475:.\dcf.c       ****     d->dcf_cursor = dcf + 4;
  69              		.loc 1 475 0
  70 0036 0433     		adds	r3, r3, #4
  71              	.LVL5:
  72 0038 C5F86031 		str	r3, [r5, #352]
  73              	.LVL6:
 476:.\dcf.c       ****     d->dcf_entries_count = 0;
  74              		.loc 1 476 0
  75 003c 0023     		movs	r3, #0
  76              	.LVL7:
  77 003e C5F86431 		str	r3, [r5, #356]
 477:.\dcf.c       ****     d->dcf_status = DCF_STATUS_INIT;
  78              		.loc 1 477 0
  79 0042 85F86831 		strb	r3, [r5, #360]
 478:.\dcf.c       ****     return 1;
  80              		.loc 1 478 0
  81 0046 0120     		movs	r0, #1
  82 0048 04E0     		b	.L2
  83              	.LVL8:
  84              	.L3:
 479:.\dcf.c       ****     DCF_finish:
 480:.\dcf.c       ****     return 0;
  85              		.loc 1 480 0
  86 004a 0020     		movs	r0, #0
  87 004c 02E0     		b	.L2
  88              	.L4:
  89 004e 0020     		movs	r0, #0
  90 0050 00E0     		b	.L2
ARM GAS  C:\Users\TN02\AppData\Local\Temp\ccwE7zfc.s 			page 11


  91              	.L5:
  92 0052 0020     		movs	r0, #0
  93              	.L2:
 481:.\dcf.c       **** }
  94              		.loc 1 481 0
  95 0054 03B0     		add	sp, sp, #12
  96              		.cfi_def_cfa_offset 12
  97              		@ sp needed
  98 0056 30BD     		pop	{r4, r5, pc}
  99              		.cfi_endproc
 100              	.LFE2:
 101              		.size	init_consise_dcf, .-init_consise_dcf
 102              		.section	.text.get_next_DCF_data,"ax",%progbits
 103              		.align	2
 104              		.global	get_next_DCF_data
 105              		.thumb
 106              		.thumb_func
 107              		.type	get_next_DCF_data, %function
 108              	get_next_DCF_data:
 109              	.LFB3:
 482:.\dcf.c       **** 
 483:.\dcf.c       **** UNS8 get_next_DCF_data(CO_Data* d, dcf_entry_t *dcf_entry, UNS8 nodeId)
 484:.\dcf.c       **** {
 110              		.loc 1 484 0
 111              		.cfi_startproc
 112              		@ args = 0, pretend = 0, frame = 0
 113              		@ frame_needed = 0, uses_anonymous_args = 0
 114              		@ link register save eliminated.
 115              	.LVL9:
 485:.\dcf.c       ****   UNS8* dcfend;
 486:.\dcf.c       ****   UNS32 nb_entries;
 487:.\dcf.c       ****   UNS32 szData;
 488:.\dcf.c       ****   UNS8* dcf;
 489:.\dcf.c       ****   if(!d->dcf_odentry)
 116              		.loc 1 489 0
 117 0000 D0F85C31 		ldr	r3, [r0, #348]
 118 0004 002B     		cmp	r3, #0
 119 0006 3BD0     		beq	.L9
 484:.\dcf.c       ****   UNS8* dcfend;
 120              		.loc 1 484 0
 121 0008 30B4     		push	{r4, r5}
 122              		.cfi_def_cfa_offset 8
 123              		.cfi_offset 4, -8
 124              		.cfi_offset 5, -4
 490:.\dcf.c       ****      return 0;
 491:.\dcf.c       ****   if(nodeId > d->dcf_odentry->bSubCount)
 125              		.loc 1 491 0
 126 000a 1C79     		ldrb	r4, [r3, #4]	@ zero_extendqisi2
 127 000c 9442     		cmp	r4, r2
 128 000e 39D3     		bcc	.L10
 492:.\dcf.c       ****      return 0;
 493:.\dcf.c       ****   szData = d->dcf_odentry->pSubindex[nodeId].size;
 129              		.loc 1 493 0
 130 0010 1B68     		ldr	r3, [r3]
 131 0012 02EB4202 		add	r2, r2, r2, lsl #1
 132              	.LVL10:
 133 0016 9200     		lsls	r2, r2, #2
ARM GAS  C:\Users\TN02\AppData\Local\Temp\ccwE7zfc.s 			page 12


 134 0018 1A44     		add	r2, r2, r3
 135 001a 5368     		ldr	r3, [r2, #4]
 136              	.LVL11:
 494:.\dcf.c       ****   dcf = *(UNS8**)d->dcf_odentry->pSubindex[nodeId].pObject;
 137              		.loc 1 494 0
 138 001c 9268     		ldr	r2, [r2, #8]
 139 001e 1268     		ldr	r2, [r2]
 140              	.LVL12:
 495:.\dcf.c       ****   nb_entries = UNS32_LE(*((UNS32*)dcf));
 141              		.loc 1 495 0
 142 0020 1568     		ldr	r5, [r2]
 143              	.LVL13:
 496:.\dcf.c       ****   dcfend = dcf + szData;
 144              		.loc 1 496 0
 145 0022 1344     		add	r3, r3, r2
 146              	.LVL14:
 497:.\dcf.c       ****   if((UNS8*)d->dcf_cursor + 7 < (UNS8*)dcfend && d->dcf_entries_count < nb_entries){
 147              		.loc 1 497 0
 148 0024 D0F86021 		ldr	r2, [r0, #352]
 149              	.LVL15:
 150 0028 D41D     		adds	r4, r2, #7
 151 002a 9C42     		cmp	r4, r3
 152 002c 2CD2     		bcs	.L11
 153              		.loc 1 497 0 is_stmt 0 discriminator 1
 154 002e D0F86431 		ldr	r3, [r0, #356]
 155              	.LVL16:
 156 0032 AB42     		cmp	r3, r5
 157 0034 2AD2     		bcs	.L12
 498:.\dcf.c       ****     /* DCF data may not be 32/16b aligned,
 499:.\dcf.c       ****     * we cannot directly dereference d->dcf_cursor
 500:.\dcf.c       ****     * as UNS16 or UNS32
 501:.\dcf.c       ****     * Do it byte per byte taking care on endianess*/
 502:.\dcf.c       **** #ifdef CANOPEN_BIG_ENDIAN
 503:.\dcf.c       ****     dcf_entry->Index = *(d->dcf_cursor++) << 8 |
 504:.\dcf.c       ****                        *(d->dcf_cursor++);
 505:.\dcf.c       **** #else
 506:.\dcf.c       ****     memcpy(&dcf_entry->Index, d->dcf_cursor,2);
 158              		.loc 1 506 0 is_stmt 1
 159 0036 1388     		ldrh	r3, [r2]	@ unaligned
 160 0038 0B80     		strh	r3, [r1]	@ unaligned
 507:.\dcf.c       ****         d->dcf_cursor+=2;
 161              		.loc 1 507 0
 162 003a D0F86031 		ldr	r3, [r0, #352]
 508:.\dcf.c       **** #endif
 509:.\dcf.c       ****     dcf_entry->Subindex = *(d->dcf_cursor++);
 163              		.loc 1 509 0
 164 003e DA1C     		adds	r2, r3, #3
 165 0040 C0F86021 		str	r2, [r0, #352]
 166 0044 9B78     		ldrb	r3, [r3, #2]	@ zero_extendqisi2
 167 0046 8B70     		strb	r3, [r1, #2]
 510:.\dcf.c       **** #ifdef CANOPEN_BIG_ENDIAN
 511:.\dcf.c       ****     dcf_entry->Size = *(d->dcf_cursor++) << 24 |
 512:.\dcf.c       ****                       *(d->dcf_cursor++) << 16 |
 513:.\dcf.c       ****                       *(d->dcf_cursor++) << 8 |
 514:.\dcf.c       ****                       *(d->dcf_cursor++);
 515:.\dcf.c       **** #else
 516:.\dcf.c       ****     memcpy(&dcf_entry->Size, d->dcf_cursor,4);
ARM GAS  C:\Users\TN02\AppData\Local\Temp\ccwE7zfc.s 			page 13


 168              		.loc 1 516 0
 169 0048 D0F86031 		ldr	r3, [r0, #352]
 170 004c 1B68     		ldr	r3, [r3]	@ unaligned
 171 004e 4B60     		str	r3, [r1, #4]	@ unaligned
 517:.\dcf.c       ****     d->dcf_cursor+=4;
 172              		.loc 1 517 0
 173 0050 D0F86031 		ldr	r3, [r0, #352]
 174 0054 0433     		adds	r3, r3, #4
 175 0056 C0F86031 		str	r3, [r0, #352]
 518:.\dcf.c       **** #endif
 519:.\dcf.c       ****     d->dcf_data = dcf_entry->Data = d->dcf_cursor;
 176              		.loc 1 519 0
 177 005a 8B60     		str	r3, [r1, #8]
 178 005c C0F87031 		str	r3, [r0, #368]
 520:.\dcf.c       ****     d->dcf_size = dcf_entry->Size;
 179              		.loc 1 520 0
 180 0060 4B68     		ldr	r3, [r1, #4]
 181 0062 C0F86C31 		str	r3, [r0, #364]
 521:.\dcf.c       ****     d->dcf_cursor += dcf_entry->Size;
 182              		.loc 1 521 0
 183 0066 D0F86021 		ldr	r2, [r0, #352]
 184 006a 4B68     		ldr	r3, [r1, #4]
 185 006c 1344     		add	r3, r3, r2
 186 006e C0F86031 		str	r3, [r0, #352]
 522:.\dcf.c       ****     d->dcf_entries_count++;
 187              		.loc 1 522 0
 188 0072 D0F86431 		ldr	r3, [r0, #356]
 189 0076 0133     		adds	r3, r3, #1
 190 0078 C0F86431 		str	r3, [r0, #356]
 523:.\dcf.c       ****     return 1;
 191              		.loc 1 523 0
 192 007c 0120     		movs	r0, #1
 193              	.LVL17:
 194 007e 06E0     		b	.L8
 195              	.LVL18:
 196              	.L9:
 197              		.cfi_def_cfa_offset 0
 198              		.cfi_restore 4
 199              		.cfi_restore 5
 490:.\dcf.c       ****   if(nodeId > d->dcf_odentry->bSubCount)
 200              		.loc 1 490 0
 201 0080 0020     		movs	r0, #0
 202              	.LVL19:
 524:.\dcf.c       ****   }
 525:.\dcf.c       ****   return 0;
 526:.\dcf.c       **** }
 203              		.loc 1 526 0
 204 0082 7047     		bx	lr
 205              	.LVL20:
 206              	.L10:
 207              		.cfi_def_cfa_offset 8
 208              		.cfi_offset 4, -8
 209              		.cfi_offset 5, -4
 492:.\dcf.c       ****   szData = d->dcf_odentry->pSubindex[nodeId].size;
 210              		.loc 1 492 0
 211 0084 0020     		movs	r0, #0
 212              	.LVL21:
ARM GAS  C:\Users\TN02\AppData\Local\Temp\ccwE7zfc.s 			page 14


 213 0086 02E0     		b	.L8
 214              	.LVL22:
 215              	.L11:
 525:.\dcf.c       **** }
 216              		.loc 1 525 0
 217 0088 0020     		movs	r0, #0
 218              	.LVL23:
 219 008a 00E0     		b	.L8
 220              	.LVL24:
 221              	.L12:
 222 008c 0020     		movs	r0, #0
 223              	.LVL25:
 224              	.L8:
 225              		.loc 1 526 0
 226 008e 30BC     		pop	{r4, r5}
 227              		.cfi_restore 5
 228              		.cfi_restore 4
 229              		.cfi_def_cfa_offset 0
 230 0090 7047     		bx	lr
 231              		.cfi_endproc
 232              	.LFE3:
 233              		.size	get_next_DCF_data, .-get_next_DCF_data
 234 0092 00BF     		.section	.text.read_consise_dcf_next_entry,"ax",%progbits
 235              		.align	2
 236              		.thumb
 237              		.thumb_func
 238              		.type	read_consise_dcf_next_entry, %function
 239              	read_consise_dcf_next_entry:
 240              	.LFB5:
 527:.\dcf.c       **** 
 528:.\dcf.c       **** static UNS8 write_consise_dcf_next_entry(CO_Data* d, UNS8 nodeId)
 529:.\dcf.c       **** {
 530:.\dcf.c       ****     UNS8 Ret;
 531:.\dcf.c       ****     dcf_entry_t dcf_entry;
 532:.\dcf.c       ****     if(!get_next_DCF_data(d, &dcf_entry, nodeId))
 533:.\dcf.c       ****         return 0;
 534:.\dcf.c       ****     Ret = writeNetworkDictCallBackAI(d, /* CO_Data* d*/
 535:.\dcf.c       ****                     nodeId, /* UNS8 nodeId*/
 536:.\dcf.c       ****                     dcf_entry.Index, /* UNS16 index*/
 537:.\dcf.c       ****                     dcf_entry.Subindex, /* UNS8 subindex*/
 538:.\dcf.c       ****                     (UNS8)dcf_entry.Size, /* UNS8 count*/
 539:.\dcf.c       ****                     0, /* UNS8 dataType*/
 540:.\dcf.c       ****                     dcf_entry.Data,/* void *data*/
 541:.\dcf.c       ****                     CheckSDOAndContinue,/* Callback*/
 542:.\dcf.c       ****                     0,   /* no endianize*/
 543:.\dcf.c       ****                     0); /* no block mode */
 544:.\dcf.c       ****     if(Ret)
 545:.\dcf.c       ****         MSG_ERR(0x1A02,"Erreur writeNetworkDictCallBackAI",Ret);
 546:.\dcf.c       ****     return 1;
 547:.\dcf.c       **** }
 548:.\dcf.c       **** 
 549:.\dcf.c       **** static UNS8 read_consise_dcf_next_entry(CO_Data* d, UNS8 nodeId)
 550:.\dcf.c       **** {
 241              		.loc 1 550 0
 242              		.cfi_startproc
 243              		@ args = 0, pretend = 0, frame = 16
 244              		@ frame_needed = 0, uses_anonymous_args = 0
ARM GAS  C:\Users\TN02\AppData\Local\Temp\ccwE7zfc.s 			page 15


 245              	.LVL26:
 246 0000 30B5     		push	{r4, r5, lr}
 247              		.cfi_def_cfa_offset 12
 248              		.cfi_offset 4, -12
 249              		.cfi_offset 5, -8
 250              		.cfi_offset 14, -4
 251 0002 89B0     		sub	sp, sp, #36
 252              		.cfi_def_cfa_offset 48
 253 0004 0546     		mov	r5, r0
 254 0006 0C46     		mov	r4, r1
 551:.\dcf.c       ****     UNS8 Ret;
 552:.\dcf.c       ****     dcf_entry_t dcf_entry;
 553:.\dcf.c       ****     if(!get_next_DCF_data(d, &dcf_entry, nodeId))
 255              		.loc 1 553 0
 256 0008 05A9     		add	r1, sp, #20
 257              	.LVL27:
 258 000a 2246     		mov	r2, r4
 259 000c FFF7FEFF 		bl	get_next_DCF_data
 260              	.LVL28:
 261 0010 0346     		mov	r3, r0
 262 0012 68B1     		cbz	r0, .L15
 554:.\dcf.c       ****         return 0;
 555:.\dcf.c       ****     Ret = readNetworkDictCallbackAI(d, /* CO_Data* d*/
 263              		.loc 1 555 0
 264 0014 BDF81420 		ldrh	r2, [sp, #20]
 265 0018 9DF81630 		ldrb	r3, [sp, #22]	@ zero_extendqisi2
 266 001c 0021     		movs	r1, #0
 267 001e 0091     		str	r1, [sp]
 268 0020 0548     		ldr	r0, .L17
 269 0022 0190     		str	r0, [sp, #4]
 270 0024 0291     		str	r1, [sp, #8]
 271 0026 2846     		mov	r0, r5
 272 0028 2146     		mov	r1, r4
 273 002a FFF7FEFF 		bl	readNetworkDictCallbackAI
 274              	.LVL29:
 556:.\dcf.c       ****                    nodeId, /* UNS8 nodeId*/
 557:.\dcf.c       ****                    dcf_entry.Index, /* UNS16 index*/
 558:.\dcf.c       ****                    dcf_entry.Subindex, /* UNS8 subindex*/
 559:.\dcf.c       ****                    0, /* UNS8 dataType*/
 560:.\dcf.c       ****                    CheckSDOAndContinue,/* Callback*/
 561:.\dcf.c       ****                    0); /* no block mode */
 562:.\dcf.c       ****     if(Ret)
 563:.\dcf.c       ****         MSG_ERR(0x1A03,"Erreur readNetworkDictCallbackAI",Ret);
 564:.\dcf.c       ****     return 1;
 275              		.loc 1 564 0
 276 002e 0123     		movs	r3, #1
 277              	.L15:
 565:.\dcf.c       **** }
 278              		.loc 1 565 0
 279 0030 1846     		mov	r0, r3
 280 0032 09B0     		add	sp, sp, #36
 281              		.cfi_def_cfa_offset 12
 282              		@ sp needed
 283 0034 30BD     		pop	{r4, r5, pc}
 284              	.LVL30:
 285              	.L18:
 286 0036 00BF     		.align	2
ARM GAS  C:\Users\TN02\AppData\Local\Temp\ccwE7zfc.s 			page 16


 287              	.L17:
 288 0038 00000000 		.word	CheckSDOAndContinue
 289              		.cfi_endproc
 290              	.LFE5:
 291              		.size	read_consise_dcf_next_entry, .-read_consise_dcf_next_entry
 292              		.section	.text.check_and_start_node,"ax",%progbits
 293              		.align	2
 294              		.global	check_and_start_node
 295              		.thumb
 296              		.thumb_func
 297              		.type	check_and_start_node, %function
 298              	check_and_start_node:
 299              	.LFB0:
 360:.\dcf.c       ****     if(d->dcf_status != DCF_STATUS_INIT)
 300              		.loc 1 360 0
 301              		.cfi_startproc
 302              		@ args = 0, pretend = 0, frame = 0
 303              		@ frame_needed = 0, uses_anonymous_args = 0
 304              	.LVL31:
 305 0000 38B5     		push	{r3, r4, r5, lr}
 306              		.cfi_def_cfa_offset 16
 307              		.cfi_offset 3, -16
 308              		.cfi_offset 4, -12
 309              		.cfi_offset 5, -8
 310              		.cfi_offset 14, -4
 361:.\dcf.c       ****         return 0;
 311              		.loc 1 361 0
 312 0002 90F86831 		ldrb	r3, [r0, #360]	@ zero_extendqisi2
 313 0006 CBB9     		cbnz	r3, .L23
 314 0008 0D46     		mov	r5, r1
 315 000a 0446     		mov	r4, r0
 363:.\dcf.c       ****         /* Ask slave node to go in operational mode */
 316              		.loc 1 363 0
 317 000c FFF7FEFF 		bl	init_consise_dcf
 318              	.LVL32:
 319 0010 20B1     		cbz	r0, .L21
 363:.\dcf.c       ****         /* Ask slave node to go in operational mode */
 320              		.loc 1 363 0 is_stmt 0 discriminator 1
 321 0012 2046     		mov	r0, r4
 322 0014 2946     		mov	r1, r5
 323 0016 FFF7FEFF 		bl	read_consise_dcf_next_entry
 324              	.LVL33:
 325 001a 50B9     		cbnz	r0, .L22
 326              	.L21:
 365:.\dcf.c       ****         d->NMTable[nodeId] = Operational;
 327              		.loc 1 365 0 is_stmt 1
 328 001c 2046     		mov	r0, r4
 329 001e 2946     		mov	r1, r5
 330 0020 0122     		movs	r2, #1
 331 0022 FFF7FEFF 		bl	masterSendNMTstateChange
 332              	.LVL34:
 366:.\dcf.c       ****         return 1;
 333              		.loc 1 366 0
 334 0026 6019     		adds	r0, r4, r5
 335 0028 0523     		movs	r3, #5
 336 002a 80F8B030 		strb	r3, [r0, #176]
 367:.\dcf.c       ****     }
ARM GAS  C:\Users\TN02\AppData\Local\Temp\ccwE7zfc.s 			page 17


 337              		.loc 1 367 0
 338 002e 0120     		movs	r0, #1
 339 0030 38BD     		pop	{r3, r4, r5, pc}
 340              	.LVL35:
 341              	.L22:
 369:.\dcf.c       ****     return 2;
 342              		.loc 1 369 0
 343 0032 0123     		movs	r3, #1
 344 0034 84F86831 		strb	r3, [r4, #360]
 370:.\dcf.c       **** }
 345              		.loc 1 370 0
 346 0038 0220     		movs	r0, #2
 347 003a 38BD     		pop	{r3, r4, r5, pc}
 348              	.LVL36:
 349              	.L23:
 362:.\dcf.c       ****     if((init_consise_dcf(d, nodeId) == 0) || (read_consise_dcf_next_entry(d, nodeId) == 0)){
 350              		.loc 1 362 0
 351 003c 0020     		movs	r0, #0
 352              	.LVL37:
 371:.\dcf.c       **** 
 353              		.loc 1 371 0
 354 003e 38BD     		pop	{r3, r4, r5, pc}
 355              		.cfi_endproc
 356              	.LFE0:
 357              		.size	check_and_start_node, .-check_and_start_node
 358              		.section	.text.write_consise_dcf_next_entry,"ax",%progbits
 359              		.align	2
 360              		.thumb
 361              		.thumb_func
 362              		.type	write_consise_dcf_next_entry, %function
 363              	write_consise_dcf_next_entry:
 364              	.LFB4:
 529:.\dcf.c       ****     UNS8 Ret;
 365              		.loc 1 529 0
 366              		.cfi_startproc
 367              		@ args = 0, pretend = 0, frame = 16
 368              		@ frame_needed = 0, uses_anonymous_args = 0
 369              	.LVL38:
 370 0000 30B5     		push	{r4, r5, lr}
 371              		.cfi_def_cfa_offset 12
 372              		.cfi_offset 4, -12
 373              		.cfi_offset 5, -8
 374              		.cfi_offset 14, -4
 375 0002 8BB0     		sub	sp, sp, #44
 376              		.cfi_def_cfa_offset 56
 377 0004 0546     		mov	r5, r0
 378 0006 0C46     		mov	r4, r1
 532:.\dcf.c       ****         return 0;
 379              		.loc 1 532 0
 380 0008 07A9     		add	r1, sp, #28
 381              	.LVL39:
 382 000a 2246     		mov	r2, r4
 383 000c FFF7FEFF 		bl	get_next_DCF_data
 384              	.LVL40:
 385 0010 0346     		mov	r3, r0
 386 0012 98B1     		cbz	r0, .L26
 534:.\dcf.c       ****                     nodeId, /* UNS8 nodeId*/
ARM GAS  C:\Users\TN02\AppData\Local\Temp\ccwE7zfc.s 			page 18


 387              		.loc 1 534 0
 388 0014 BDF81C20 		ldrh	r2, [sp, #28]
 389 0018 9DF81E30 		ldrb	r3, [sp, #30]	@ zero_extendqisi2
 390 001c 9DF82010 		ldrb	r1, [sp, #32]	@ zero_extendqisi2
 391 0020 0091     		str	r1, [sp]
 392 0022 0021     		movs	r1, #0
 393 0024 0191     		str	r1, [sp, #4]
 394 0026 0998     		ldr	r0, [sp, #36]
 395 0028 0290     		str	r0, [sp, #8]
 396 002a 0648     		ldr	r0, .L28
 397 002c 0390     		str	r0, [sp, #12]
 398 002e 0491     		str	r1, [sp, #16]
 399 0030 0591     		str	r1, [sp, #20]
 400 0032 2846     		mov	r0, r5
 401 0034 2146     		mov	r1, r4
 402 0036 FFF7FEFF 		bl	writeNetworkDictCallBackAI
 403              	.LVL41:
 546:.\dcf.c       **** }
 404              		.loc 1 546 0
 405 003a 0123     		movs	r3, #1
 406              	.L26:
 547:.\dcf.c       **** 
 407              		.loc 1 547 0
 408 003c 1846     		mov	r0, r3
 409 003e 0BB0     		add	sp, sp, #44
 410              		.cfi_def_cfa_offset 12
 411              		@ sp needed
 412 0040 30BD     		pop	{r4, r5, pc}
 413              	.LVL42:
 414              	.L29:
 415 0042 00BF     		.align	2
 416              	.L28:
 417 0044 00000000 		.word	CheckSDOAndContinue
 418              		.cfi_endproc
 419              	.LFE4:
 420              		.size	write_consise_dcf_next_entry, .-write_consise_dcf_next_entry
 421              		.section	.text.CheckSDOAndContinue,"ax",%progbits
 422              		.align	2
 423              		.thumb
 424              		.thumb_func
 425              		.type	CheckSDOAndContinue, %function
 426              	CheckSDOAndContinue:
 427              	.LFB1:
 380:.\dcf.c       ****     UNS32 abortCode = 0;
 428              		.loc 1 380 0
 429              		.cfi_startproc
 430              		@ args = 0, pretend = 0, frame = 16
 431              		@ frame_needed = 0, uses_anonymous_args = 0
 432              	.LVL43:
 433 0000 30B5     		push	{r4, r5, lr}
 434              		.cfi_def_cfa_offset 12
 435              		.cfi_offset 4, -12
 436              		.cfi_offset 5, -8
 437              		.cfi_offset 14, -4
 438 0002 87B0     		sub	sp, sp, #28
 439              		.cfi_def_cfa_offset 40
 440 0004 0446     		mov	r4, r0
ARM GAS  C:\Users\TN02\AppData\Local\Temp\ccwE7zfc.s 			page 19


 441 0006 0D46     		mov	r5, r1
 381:.\dcf.c       ****     UNS8 buf[4], match = 0, node;
 442              		.loc 1 381 0
 443 0008 0023     		movs	r3, #0
 444 000a 0593     		str	r3, [sp, #20]
 445              	.LVL44:
 383:.\dcf.c       ****     if(d->dcf_status == DCF_STATUS_READ_CHECK){
 446              		.loc 1 383 0
 447 000c 0423     		movs	r3, #4
 448 000e 0393     		str	r3, [sp, #12]
 384:.\dcf.c       ****         // printf("DCF_STATUS_READ_CHECK \n");
 449              		.loc 1 384 0
 450 0010 90F86831 		ldrb	r3, [r0, #360]	@ zero_extendqisi2
 451 0014 012B     		cmp	r3, #1
 452 0016 54D1     		bne	.L31
 386:.\dcf.c       ****             goto dcferror;
 453              		.loc 1 386 0
 454 0018 05AB     		add	r3, sp, #20
 455 001a 0093     		str	r3, [sp]
 456 001c 04AA     		add	r2, sp, #16
 457 001e 03AB     		add	r3, sp, #12
 458 0020 FFF7FEFF 		bl	getReadResultNetworkDict
 459              	.LVL45:
 460 0024 0128     		cmp	r0, #1
 461 0026 40F08980 		bne	.L32
 389:.\dcf.c       ****             match = 1;
 462              		.loc 1 389 0
 463 002a D4F86C21 		ldr	r2, [r4, #364]
 464 002e 039B     		ldr	r3, [sp, #12]
 465 0030 9A42     		cmp	r2, r3
 466 0032 0CD0     		beq	.L47
 382:.\dcf.c       ****     UNS32 size=4;
 467              		.loc 1 382 0
 468 0034 0020     		movs	r0, #0
 469 0036 10E0     		b	.L34
 470              	.LVL46:
 471              	.L36:
 392:.\dcf.c       ****                     match = 0;
 472              		.loc 1 392 0
 473 0038 06AA     		add	r2, sp, #24
 474 003a 1A44     		add	r2, r2, r3
 475 003c 12F8082C 		ldrb	r2, [r2, #-8]	@ zero_extendqisi2
 476 0040 D4F87011 		ldr	r1, [r4, #368]
 477 0044 CB5C     		ldrb	r3, [r1, r3]	@ zero_extendqisi2
 478 0046 9A42     		cmp	r2, r3
 479 0048 02D0     		beq	.L33
 393:.\dcf.c       ****         }
 480              		.loc 1 393 0
 481 004a 0020     		movs	r0, #0
 482              	.LVL47:
 483 004c 00E0     		b	.L33
 484              	.LVL48:
 485              	.L47:
 486 004e 0120     		movs	r0, #1
 487              	.LVL49:
 488              	.L33:
 391:.\dcf.c       ****                 if(buf[size] != d->dcf_data[size])
ARM GAS  C:\Users\TN02\AppData\Local\Temp\ccwE7zfc.s 			page 20


 489              		.loc 1 391 0
 490 0050 039A     		ldr	r2, [sp, #12]
 491 0052 531E     		subs	r3, r2, #1
 492 0054 0393     		str	r3, [sp, #12]
 493 0056 002A     		cmp	r2, #0
 494 0058 EED1     		bne	.L36
 495              	.LVL50:
 496              	.L34:
 395:.\dcf.c       ****             if(read_consise_dcf_next_entry(d, nodeId) == 0){
 497              		.loc 1 395 0
 498 005a 10B3     		cbz	r0, .L37
 396:.\dcf.c       ****                 masterSendNMTstateChange (d, nodeId, NMT_Start_Node);
 499              		.loc 1 396 0
 500 005c 2046     		mov	r0, r4
 501              	.LVL51:
 502 005e 2946     		mov	r1, r5
 503 0060 FFF7FEFF 		bl	read_consise_dcf_next_entry
 504              	.LVL52:
 505 0064 0028     		cmp	r0, #0
 506 0066 6DD1     		bne	.L30
 397:.\dcf.c       ****                 d->NMTable[nodeId] = Operational;
 507              		.loc 1 397 0
 508 0068 2046     		mov	r0, r4
 509 006a 2946     		mov	r1, r5
 510 006c 0122     		movs	r2, #1
 511 006e FFF7FEFF 		bl	masterSendNMTstateChange
 512              	.LVL53:
 398:.\dcf.c       ****                 d->dcf_status = DCF_STATUS_INIT;
 513              		.loc 1 398 0
 514 0072 2544     		add	r5, r5, r4
 515 0074 0523     		movs	r3, #5
 516 0076 85F8B030 		strb	r3, [r5, #176]
 399:.\dcf.c       ****                 /* Look for other nodes waiting to be started */
 517              		.loc 1 399 0
 518 007a 0025     		movs	r5, #0
 519 007c 84F86851 		strb	r5, [r4, #360]
 520              	.LVL54:
 401:.\dcf.c       ****                     if(d->NMTable[node] != Initialisation)
 521              		.loc 1 401 0
 522 0080 0BE0     		b	.L39
 523              	.LVL55:
 524              	.L41:
 402:.\dcf.c       ****                         continue;
 525              		.loc 1 402 0
 526 0082 6319     		adds	r3, r4, r5
 527 0084 93F8B030 		ldrb	r3, [r3, #176]	@ zero_extendqisi2
 528 0088 2BB9     		cbnz	r3, .L40
 404:.\dcf.c       ****                         break;
 529              		.loc 1 404 0
 530 008a 2046     		mov	r0, r4
 531 008c 2946     		mov	r1, r5
 532 008e FFF7FEFF 		bl	check_and_start_node
 533              	.LVL56:
 534 0092 0228     		cmp	r0, #2
 535 0094 56D0     		beq	.L30
 536              	.L40:
 401:.\dcf.c       ****                     if(d->NMTable[node] != Initialisation)
ARM GAS  C:\Users\TN02\AppData\Local\Temp\ccwE7zfc.s 			page 21


 537              		.loc 1 401 0 discriminator 2
 538 0096 0135     		adds	r5, r5, #1
 539              	.LVL57:
 540 0098 EDB2     		uxtb	r5, r5
 541              	.LVL58:
 542              	.L39:
 401:.\dcf.c       ****                     if(d->NMTable[node] != Initialisation)
 543              		.loc 1 401 0 is_stmt 0 discriminator 1
 544 009a 15F0800F 		tst	r5, #128
 545 009e F0D0     		beq	.L41
 546 00a0 50E0     		b	.L30
 547              	.LVL59:
 548              	.L37:
 410:.\dcf.c       ****                 goto dcferror;
 549              		.loc 1 410 0 is_stmt 1
 550 00a2 2046     		mov	r0, r4
 551              	.LVL60:
 552 00a4 2946     		mov	r1, r5
 553 00a6 FFF7FEFF 		bl	init_consise_dcf
 554              	.LVL61:
 555 00aa 0028     		cmp	r0, #0
 556 00ac 46D0     		beq	.L32
 410:.\dcf.c       ****                 goto dcferror;
 557              		.loc 1 410 0 is_stmt 0 discriminator 1
 558 00ae 2046     		mov	r0, r4
 559 00b0 2946     		mov	r1, r5
 560 00b2 FFF7FEFF 		bl	write_consise_dcf_next_entry
 561              	.LVL62:
 562 00b6 0028     		cmp	r0, #0
 563 00b8 40D0     		beq	.L32
 412:.\dcf.c       ****         }
 564              		.loc 1 412 0 is_stmt 1
 565 00ba 0223     		movs	r3, #2
 566 00bc 84F86831 		strb	r3, [r4, #360]
 567 00c0 40E0     		b	.L30
 568              	.LVL63:
 569              	.L31:
 415:.\dcf.c       ****         // printf("DCF_STATUS_WRITE \n");
 570              		.loc 1 415 0
 571 00c2 022B     		cmp	r3, #2
 572 00c4 26D1     		bne	.L42
 417:.\dcf.c       ****             goto dcferror;
 573              		.loc 1 417 0
 574 00c6 05AA     		add	r2, sp, #20
 575 00c8 FFF7FEFF 		bl	getWriteResultNetworkDict
 576              	.LVL64:
 577 00cc 0128     		cmp	r0, #1
 578 00ce 35D1     		bne	.L32
 419:.\dcf.c       **** #ifdef DCF_SAVE_NODE
 579              		.loc 1 419 0
 580 00d0 2046     		mov	r0, r4
 581 00d2 2946     		mov	r1, r5
 582 00d4 FFF7FEFF 		bl	write_consise_dcf_next_entry
 583              	.LVL65:
 584 00d8 A0BB     		cbnz	r0, .L30
 424:.\dcf.c       ****            d->NMTable[nodeId] = Operational;
 585              		.loc 1 424 0
ARM GAS  C:\Users\TN02\AppData\Local\Temp\ccwE7zfc.s 			page 22


 586 00da 2046     		mov	r0, r4
 587 00dc 2946     		mov	r1, r5
 588 00de 0122     		movs	r2, #1
 589 00e0 FFF7FEFF 		bl	masterSendNMTstateChange
 590              	.LVL66:
 425:.\dcf.c       ****            d->dcf_status = DCF_STATUS_INIT;
 591              		.loc 1 425 0
 592 00e4 2544     		add	r5, r5, r4
 593 00e6 0523     		movs	r3, #5
 594 00e8 85F8B030 		strb	r3, [r5, #176]
 426:.\dcf.c       ****            /* Look for other nodes waiting to be started */
 595              		.loc 1 426 0
 596 00ec 0025     		movs	r5, #0
 597 00ee 84F86851 		strb	r5, [r4, #360]
 598              	.LVL67:
 428:.\dcf.c       ****                if(d->NMTable[node] != Initialisation)
 599              		.loc 1 428 0
 600 00f2 0BE0     		b	.L43
 601              	.LVL68:
 602              	.L45:
 429:.\dcf.c       ****                    continue;
 603              		.loc 1 429 0
 604 00f4 6319     		adds	r3, r4, r5
 605 00f6 93F8B030 		ldrb	r3, [r3, #176]	@ zero_extendqisi2
 606 00fa 2BB9     		cbnz	r3, .L44
 431:.\dcf.c       ****                    break;
 607              		.loc 1 431 0
 608 00fc 2046     		mov	r0, r4
 609 00fe 2946     		mov	r1, r5
 610 0100 FFF7FEFF 		bl	check_and_start_node
 611              	.LVL69:
 612 0104 0228     		cmp	r0, #2
 613 0106 1DD0     		beq	.L30
 614              	.L44:
 428:.\dcf.c       ****                if(d->NMTable[node] != Initialisation)
 615              		.loc 1 428 0 discriminator 2
 616 0108 0135     		adds	r5, r5, #1
 617              	.LVL70:
 618 010a EDB2     		uxtb	r5, r5
 619              	.LVL71:
 620              	.L43:
 428:.\dcf.c       ****                if(d->NMTable[node] != Initialisation)
 621              		.loc 1 428 0 is_stmt 0 discriminator 1
 622 010c 15F0800F 		tst	r5, #128
 623 0110 F0D0     		beq	.L45
 624 0112 17E0     		b	.L30
 625              	.LVL72:
 626              	.L42:
 437:.\dcf.c       ****         // printf("DCF_STATUS_SAVED \n");
 627              		.loc 1 437 0 is_stmt 1
 628 0114 032B     		cmp	r3, #3
 629 0116 15D1     		bne	.L30
 439:.\dcf.c       ****             goto dcferror;
 630              		.loc 1 439 0
 631 0118 05AA     		add	r2, sp, #20
 632 011a FFF7FEFF 		bl	getWriteResultNetworkDict
 633              	.LVL73:
ARM GAS  C:\Users\TN02\AppData\Local\Temp\ccwE7zfc.s 			page 23


 634 011e 0128     		cmp	r0, #1
 635 0120 0CD1     		bne	.L32
 441:.\dcf.c       ****         d->dcf_status = DCF_STATUS_INIT;
 636              		.loc 1 441 0
 637 0122 2046     		mov	r0, r4
 638 0124 2946     		mov	r1, r5
 639 0126 8122     		movs	r2, #129
 640 0128 FFF7FEFF 		bl	masterSendNMTstateChange
 641              	.LVL74:
 442:.\dcf.c       ****         d->NMTable[nodeId] = Unknown_state;
 642              		.loc 1 442 0
 643 012c 0023     		movs	r3, #0
 644 012e 84F86831 		strb	r3, [r4, #360]
 443:.\dcf.c       ****     }
 645              		.loc 1 443 0
 646 0132 2C44     		add	r4, r4, r5
 647              	.LVL75:
 648 0134 0F23     		movs	r3, #15
 649 0136 84F8B030 		strb	r3, [r4, #176]
 650 013a 03E0     		b	.L30
 651              	.LVL76:
 652              	.L32:
 449:.\dcf.c       **** }
 653              		.loc 1 449 0
 654 013c 2C44     		add	r4, r4, r5
 655              	.LVL77:
 656 013e 0F23     		movs	r3, #15
 657 0140 84F8B030 		strb	r3, [r4, #176]
 658              	.L30:
 450:.\dcf.c       **** 
 659              		.loc 1 450 0
 660 0144 07B0     		add	sp, sp, #28
 661              		.cfi_def_cfa_offset 12
 662              		@ sp needed
 663 0146 30BD     		pop	{r4, r5, pc}
 664              		.cfi_endproc
 665              	.LFE1:
 666              		.size	CheckSDOAndContinue, .-CheckSDOAndContinue
 667              		.section	.text.SaveNode,"ax",%progbits
 668              		.align	2
 669              		.global	SaveNode
 670              		.thumb
 671              		.thumb_func
 672              		.type	SaveNode, %function
 673              	SaveNode:
 674              	.LFB6:
 566:.\dcf.c       **** 
 567:.\dcf.c       **** void SaveNode(CO_Data* d, UNS8 nodeId)
 568:.\dcf.c       **** {
 675              		.loc 1 568 0
 676              		.cfi_startproc
 677              		@ args = 0, pretend = 0, frame = 8
 678              		@ frame_needed = 0, uses_anonymous_args = 0
 679              	.LVL78:
 680 0000 00B5     		push	{lr}
 681              		.cfi_def_cfa_offset 4
 682              		.cfi_offset 14, -4
ARM GAS  C:\Users\TN02\AppData\Local\Temp\ccwE7zfc.s 			page 24


 683 0002 89B0     		sub	sp, sp, #36
 684              		.cfi_def_cfa_offset 40
 569:.\dcf.c       ****     UNS8 Ret;
 570:.\dcf.c       ****     UNS32 data=0x65766173;
 685              		.loc 1 570 0
 686 0004 08AA     		add	r2, sp, #32
 687 0006 0A4B     		ldr	r3, .L52
 688 0008 42F8043D 		str	r3, [r2, #-4]!
 571:.\dcf.c       ****     Ret = writeNetworkDictCallBackAI(d, /* CO_Data* d*/
 689              		.loc 1 571 0
 690 000c 0423     		movs	r3, #4
 691 000e 0093     		str	r3, [sp]
 692 0010 0023     		movs	r3, #0
 693 0012 0193     		str	r3, [sp, #4]
 694 0014 0292     		str	r2, [sp, #8]
 695 0016 074A     		ldr	r2, .L52+4
 696 0018 0392     		str	r2, [sp, #12]
 697 001a 0493     		str	r3, [sp, #16]
 698 001c 0593     		str	r3, [sp, #20]
 699 001e 41F21002 		movw	r2, #4112
 700 0022 0123     		movs	r3, #1
 701 0024 FFF7FEFF 		bl	writeNetworkDictCallBackAI
 702              	.LVL79:
 572:.\dcf.c       ****                     nodeId, /* UNS8 nodeId*/
 573:.\dcf.c       ****                     0x1010, /* UNS16 index*/
 574:.\dcf.c       ****                     1, /* UNS8 subindex*/
 575:.\dcf.c       ****                     4, /* UNS8 count*/
 576:.\dcf.c       ****                     0, /* UNS8 dataType*/
 577:.\dcf.c       ****                     (void *)&data,/* void *data*/
 578:.\dcf.c       ****                     CheckSDOAndContinue,/* Callback*/
 579:.\dcf.c       ****                     0,   /* no endianize*/
 580:.\dcf.c       ****                     0); /* no block mode */
 581:.\dcf.c       ****     if(Ret)
 582:.\dcf.c       ****         MSG_ERR(0x1A04,"Erreur writeNetworkDictCallBackAI",Ret);
 583:.\dcf.c       **** }
 703              		.loc 1 583 0
 704 0028 09B0     		add	sp, sp, #36
 705              		.cfi_def_cfa_offset 4
 706              		@ sp needed
 707 002a 5DF804FB 		ldr	pc, [sp], #4
 708              	.L53:
 709 002e 00BF     		.align	2
 710              	.L52:
 711 0030 73617665 		.word	1702257011
 712 0034 00000000 		.word	CheckSDOAndContinue
 713              		.cfi_endproc
 714              	.LFE6:
 715              		.size	SaveNode, .-SaveNode
 716              		.text
 717              	.Letext0:
 718              		.file 2 ".\\data.h"
 719              		.file 3 ".\\can.h"
 720              		.file 4 ".\\applicfg.h"
 721              		.file 5 ".\\objdictdef.h"
 722              		.file 6 ".\\objacces.h"
 723              		.file 7 ".\\sdo.h"
 724              		.file 8 ".\\pdo.h"
ARM GAS  C:\Users\TN02\AppData\Local\Temp\ccwE7zfc.s 			page 25


 725              		.file 9 ".\\states.h"
 726              		.file 10 ".\\lifegrd.h"
 727              		.file 11 ".\\sync.h"
 728              		.file 12 ".\\emcy.h"
 729              		.file 13 ".\\nmtMaster.h"