ARM GAS  C:\Users\pxc\AppData\Local\Temp\ccJl84gv.s 			page 1


   1              		.syntax unified
   2              		.cpu cortex-m3
   3              		.fpu softvfp
   4              		.eabi_attribute 20, 1
   5              		.eabi_attribute 21, 1
   6              		.eabi_attribute 23, 3
   7              		.eabi_attribute 24, 1
   8              		.eabi_attribute 25, 1
   9              		.eabi_attribute 26, 1
  10              		.eabi_attribute 30, 1
  11              		.eabi_attribute 34, 1
  12              		.eabi_attribute 18, 4
  13              		.thumb
  14              		.file	"main.c"
  15              		.text
  16              	.Ltext0:
  17              		.cfi_sections	.debug_frame
  18              		.section	.text.canSend,"ax",%progbits
  19              		.align	2
  20              		.global	canSend
  21              		.thumb
  22              		.thumb_func
  23              		.type	canSend, %function
  24              	canSend:
  25              	.LFB63:
  26              		.file 1 ".\\main.c"
   1:.\main.c      **** /* ========================================
   2:.\main.c      ****  *
   3:.\main.c      ****  * Copyright YOUR COMPANY, THE YEAR
   4:.\main.c      ****  * All Rights Reserved
   5:.\main.c      ****  * UNPUBLISHED, LICENSED SOFTWARE.
   6:.\main.c      ****  *
   7:.\main.c      ****  * CONFIDENTIAL AND PROPRIETARY INFORMATION
   8:.\main.c      ****  * WHICH IS THE PROPERTY OF your company.
   9:.\main.c      ****  *
  10:.\main.c      ****  * ========================================
  11:.\main.c      **** */
  12:.\main.c      **** 
  13:.\main.c      **** #include "product.h"
  14:.\main.c      **** #include <ISR_Stroke_Timer.h>
  15:.\main.c      **** #include "TestSlave.h"
  16:.\main.c      **** #include "canfestival.h"
  17:.\main.c      **** #include "CanopenDictConfig.h"
  18:.\main.c      **** #include "TLC5616.h"
  19:.\main.c      **** #include "Valve_Control.h"
  20:.\main.c      **** #define CAN_RTR_DATA     ((unsigned int )0x00000000)
  21:.\main.c      **** #define CAN_RTR_REMOTE   ((unsigned int )0x00000002)
  22:.\main.c      **** #define CAN_ID_STD       ((unsigned int) 0x00000000)
  23:.\main.c      **** extern int ISR_Stroke_Timer_states;
  24:.\main.c      **** extern uint8 const CYCODE LCD_Char_1_customFonts[];
  25:.\main.c      **** uint8  key_count = 0;
  26:.\main.c      **** uint8 test_count;
  27:.\main.c      **** uint8 test_pin ;
  28:.\main.c      **** uint8 mode_dis_cur;
  29:.\main.c      **** uint8 mode_dis_pre;
  30:.\main.c      **** extern uint8 Dis_time_flag;
  31:.\main.c      **** extern int Dis_Step ;
ARM GAS  C:\Users\pxc\AppData\Local\Temp\ccJl84gv.s 			page 2


  32:.\main.c      **** extern uint8 Dis_time_flag;
  33:.\main.c      **** extern int Dis_content ;
  34:.\main.c      **** unsigned char  receiveData[8]; 
  35:.\main.c      **** 
  36:.\main.c      **** CAN_1_TX_MSG CAN_message;     /* Declares Data as structure variable of type DATA_BYTES_MSG */  
  37:.\main.c      **** 
  38:.\main.c      **** CAN_1_DATA_BYTES_MSG Data;
  39:.\main.c      **** 
  40:.\main.c      **** unsigned char receiveData[8]; 
  41:.\main.c      **** 
  42:.\main.c      **** 
  43:.\main.c      **** 
  44:.\main.c      **** unsigned char canSend(CAN_PORT notused, Message *m)
  45:.\main.c      **** {
  27              		.loc 1 45 0
  28              		.cfi_startproc
  29              		@ args = 0, pretend = 0, frame = 24
  30              		@ frame_needed = 0, uses_anonymous_args = 0
  31              	.LVL0:
  32 0000 30B5     		push	{r4, r5, lr}
  33              		.cfi_def_cfa_offset 12
  34              		.cfi_offset 4, -12
  35              		.cfi_offset 5, -8
  36              		.cfi_offset 14, -4
  37 0002 87B0     		sub	sp, sp, #28
  38              		.cfi_def_cfa_offset 40
  39              	.LVL1:
  46:.\main.c      ****     uint32_t i,index;
  47:.\main.c      ****     CanTxMsg TxMessage;
  48:.\main.c      ****     CanTxMsg *ptx_msg=&TxMessage;
  49:.\main.c      ****     ptx_msg->StdId = m->cob_id;
  40              		.loc 1 49 0
  41 0004 0D88     		ldrh	r5, [r1]
  50:.\main.c      **** 
  51:.\main.c      ****     ptx_msg->RTR = CAN_RTR_DATA;
  52:.\main.c      **** 
  53:.\main.c      ****     ptx_msg->IDE = CAN_ID_STD;
  54:.\main.c      **** 
  55:.\main.c      ****     ptx_msg->DLC = m->len;
  42              		.loc 1 55 0
  43 0006 CA78     		ldrb	r2, [r1, #3]	@ zero_extendqisi2
  44              	.LVL2:
  56:.\main.c      ****     for(i = 0; i < m->len; i++)
  45              		.loc 1 56 0
  46 0008 0023     		movs	r3, #0
  47 000a 06E0     		b	.L2
  48              	.LVL3:
  49              	.L3:
  57:.\main.c      ****     ptx_msg->Data[i] = m->data[i];
  50              		.loc 1 57 0 discriminator 3
  51 000c C818     		adds	r0, r1, r3
  52 000e 0479     		ldrb	r4, [r0, #4]	@ zero_extendqisi2
  53 0010 06A8     		add	r0, sp, #24
  54 0012 1844     		add	r0, r0, r3
  55 0014 00F8094C 		strb	r4, [r0, #-9]
  56:.\main.c      ****     for(i = 0; i < m->len; i++)
  56              		.loc 1 56 0 discriminator 3
ARM GAS  C:\Users\pxc\AppData\Local\Temp\ccJl84gv.s 			page 3


  57 0018 0133     		adds	r3, r3, #1
  58              	.LVL4:
  59              	.L2:
  56:.\main.c      ****     for(i = 0; i < m->len; i++)
  60              		.loc 1 56 0 is_stmt 0 discriminator 1
  61 001a C878     		ldrb	r0, [r1, #3]	@ zero_extendqisi2
  62 001c 9842     		cmp	r0, r3
  63 001e F5D8     		bhi	.L3
  58:.\main.c      **** 
  59:.\main.c      ****     CAN_message.dlc = ptx_msg->DLC;
  64              		.loc 1 59 0 is_stmt 1
  65 0020 0F49     		ldr	r1, .L9
  66              	.LVL5:
  67 0022 8A71     		strb	r2, [r1, #6]
  60:.\main.c      ****             
  61:.\main.c      ****     CAN_message.id =  ptx_msg->StdId;
  68              		.loc 1 61 0
  69 0024 0D60     		str	r5, [r1]
  62:.\main.c      ****             
  63:.\main.c      ****     CAN_message.ide= ptx_msg->IDE;
  70              		.loc 1 63 0
  71 0026 0023     		movs	r3, #0
  72              	.LVL6:
  73 0028 4B71     		strb	r3, [r1, #5]
  74              	.LVL7:
  64:.\main.c      ****             
  65:.\main.c      ****     for (index=0;index<CAN_message.dlc ;index++)
  75              		.loc 1 65 0
  76 002a 06E0     		b	.L4
  77              	.LVL8:
  78              	.L5:
  66:.\main.c      ****     {
  67:.\main.c      ****        receiveData[index] =ptx_msg->Data[index]  ; 
  79              		.loc 1 67 0 discriminator 3
  80 002c 06A9     		add	r1, sp, #24
  81 002e 1944     		add	r1, r1, r3
  82 0030 11F8090C 		ldrb	r0, [r1, #-9]	@ zero_extendqisi2
  83 0034 0B49     		ldr	r1, .L9+4
  84 0036 C854     		strb	r0, [r1, r3]
  65:.\main.c      ****     {
  85              		.loc 1 65 0 discriminator 3
  86 0038 0133     		adds	r3, r3, #1
  87              	.LVL9:
  88              	.L4:
  65:.\main.c      ****     {
  89              		.loc 1 65 0 is_stmt 0 discriminator 1
  90 003a 1146     		mov	r1, r2
  91 003c 9A42     		cmp	r2, r3
  92 003e F5D8     		bhi	.L5
  93 0040 0023     		movs	r3, #0
  94              	.LVL10:
  95 0042 04E0     		b	.L6
  96              	.LVL11:
  97              	.L7:
  68:.\main.c      ****     }
  69:.\main.c      ****             
  70:.\main.c      ****     for(index=0;index<CAN_message.dlc ;index++)
ARM GAS  C:\Users\pxc\AppData\Local\Temp\ccJl84gv.s 			page 4


  71:.\main.c      ****     {   
  72:.\main.c      ****         Data.byte[index] = receiveData[index];
  98              		.loc 1 72 0 is_stmt 1 discriminator 3
  99 0044 074A     		ldr	r2, .L9+4
 100 0046 D05C     		ldrb	r0, [r2, r3]	@ zero_extendqisi2
 101 0048 074A     		ldr	r2, .L9+8
 102 004a D054     		strb	r0, [r2, r3]
  70:.\main.c      ****     {   
 103              		.loc 1 70 0 discriminator 3
 104 004c 0133     		adds	r3, r3, #1
 105              	.LVL12:
 106              	.L6:
  70:.\main.c      ****     {   
 107              		.loc 1 70 0 is_stmt 0 discriminator 1
 108 004e 8B42     		cmp	r3, r1
 109 0050 F8D3     		bcc	.L7
  73:.\main.c      ****     }
  74:.\main.c      ****     CAN_1_SendMsg(&CAN_message);
 110              		.loc 1 74 0 is_stmt 1
 111 0052 0348     		ldr	r0, .L9
 112 0054 FFF7FEFF 		bl	CAN_1_SendMsg
 113              	.LVL13:
  75:.\main.c      ****     
  76:.\main.c      ****     return 0;           
  77:.\main.c      **** }
 114              		.loc 1 77 0
 115 0058 0020     		movs	r0, #0
 116 005a 07B0     		add	sp, sp, #28
 117              		.cfi_def_cfa_offset 12
 118              		@ sp needed
 119 005c 30BD     		pop	{r4, r5, pc}
 120              	.LVL14:
 121              	.L10:
 122 005e 00BF     		.align	2
 123              	.L9:
 124 0060 00000000 		.word	CAN_message
 125 0064 00000000 		.word	receiveData
 126 0068 00000000 		.word	Data
 127              		.cfi_endproc
 128              	.LFE63:
 129              		.size	canSend, .-canSend
 130              		.section	.text.main,"ax",%progbits
 131              		.align	2
 132              		.global	main
 133              		.thumb
 134              		.thumb_func
 135              		.type	main, %function
 136              	main:
 137              	.LFB64:
  78:.\main.c      **** 
  79:.\main.c      **** 
  80:.\main.c      **** 
  81:.\main.c      **** int main()
  82:.\main.c      **** {
 138              		.loc 1 82 0
 139              		.cfi_startproc
 140              		@ Volatile: function does not return.
ARM GAS  C:\Users\pxc\AppData\Local\Temp\ccJl84gv.s 			page 5


 141              		@ args = 0, pretend = 0, frame = 0
 142              		@ frame_needed = 0, uses_anonymous_args = 0
 143 0000 08B5     		push	{r3, lr}
 144              		.cfi_def_cfa_offset 8
 145              		.cfi_offset 3, -8
 146              		.cfi_offset 14, -4
  83:.\main.c      ****     
  84:.\main.c      ****     Init_Stroke_Timer(); 
 147              		.loc 1 84 0
 148 0002 FFF7FEFF 		bl	Init_Stroke_Timer
 149              	.LVL15:
  85:.\main.c      ****     Init_TLC5616();
 150              		.loc 1 85 0
 151 0006 FFF7FEFF 		bl	Init_TLC5616
 152              	.LVL16:
  86:.\main.c      ****     LCD_Char_1_Init();
 153              		.loc 1 86 0
 154 000a FFF7FEFF 		bl	LCD_Char_1_Init
 155              	.LVL17:
  87:.\main.c      ****     LCD_Char_1_LoadCustomFonts(LCD_Char_1_customFonts) ; 
 156              		.loc 1 87 0
 157 000e A748     		ldr	r0, .L45
 158 0010 FFF7FEFF 		bl	LCD_Char_1_LoadCustomFonts
 159              	.LVL18:
  88:.\main.c      ****     CyDelay(20); 
 160              		.loc 1 88 0
 161 0014 1420     		movs	r0, #20
 162 0016 FFF7FEFF 		bl	CyDelay
 163              	.LVL19:
  89:.\main.c      ****     /* Enable global interrupts. */
  90:.\main.c      ****     LCD_Char_1_Position(0,0) ;
 164              		.loc 1 90 0
 165 001a 0020     		movs	r0, #0
 166 001c 0146     		mov	r1, r0
 167 001e FFF7FEFF 		bl	LCD_Char_1_Position
 168              	.LVL20:
  91:.\main.c      ****     LCD_Char_1_PrintString("StartUp");
 169              		.loc 1 91 0
 170 0022 A348     		ldr	r0, .L45+4
 171 0024 FFF7FEFF 		bl	LCD_Char_1_PrintString
 172              	.LVL21:
  92:.\main.c      ****     LCD_Char_1_Position(1,0) ;
 173              		.loc 1 92 0
 174 0028 0120     		movs	r0, #1
 175 002a 0021     		movs	r1, #0
 176 002c FFF7FEFF 		bl	LCD_Char_1_Position
 177              	.LVL22:
  93:.\main.c      ****     LCD_Char_1_PrintString("Ver-1.02");
 178              		.loc 1 93 0
 179 0030 A048     		ldr	r0, .L45+8
 180 0032 FFF7FEFF 		bl	LCD_Char_1_PrintString
 181              	.LVL23:
  94:.\main.c      ****     CyDelay(800); 
 182              		.loc 1 94 0
 183 0036 4FF44870 		mov	r0, #800
 184 003a FFF7FEFF 		bl	CyDelay
 185              	.LVL24:
ARM GAS  C:\Users\pxc\AppData\Local\Temp\ccJl84gv.s 			page 6


  95:.\main.c      ****     LCD_Char_1_WriteData(0x01);
 186              		.loc 1 95 0
 187 003e 0120     		movs	r0, #1
 188 0040 FFF7FEFF 		bl	LCD_Char_1_WriteData
 189              	.LVL25:
  96:.\main.c      ****     CyGlobalIntEnable; 
 190              		.loc 1 96 0
 191              	@ 96 ".\main.c" 1
 192 0044 62B6     		CPSIE   i
 193              	@ 0 "" 2
  97:.\main.c      ****     
  98:.\main.c      ****     CAN_1_Start();   
 194              		.loc 1 98 0
 195              		.thumb
 196 0046 FFF7FEFF 		bl	CAN_1_Start
 197              	.LVL26:
  99:.\main.c      ****     CanopenInit();
 198              		.loc 1 99 0
 199 004a FFF7FEFF 		bl	CanopenInit
 200              	.LVL27:
 100:.\main.c      ****     CyDelay(100); 
 201              		.loc 1 100 0
 202 004e 6420     		movs	r0, #100
 203 0050 FFF7FEFF 		bl	CyDelay
 204              	.LVL28:
 101:.\main.c      ****     CutReg.SToDotFlag = 0;
 205              		.loc 1 101 0
 206 0054 984C     		ldr	r4, .L45+12
 207 0056 0025     		movs	r5, #0
 208 0058 A575     		strb	r5, [r4, #22]
 102:.\main.c      ****     
 103:.\main.c      ****     Control_LED_Write(5);
 209              		.loc 1 103 0
 210 005a 0520     		movs	r0, #5
 211 005c FFF7FEFF 		bl	Control_LED_Write
 212              	.LVL29:
 104:.\main.c      ****     ValveOut(CutReg.Action[VStop]);
 213              		.loc 1 104 0
 214 0060 607B     		ldrb	r0, [r4, #13]	@ zero_extendqisi2
 215 0062 FFF7FEFF 		bl	Control_Reg_1_Write
 216              	.LVL30:
 217 0066 627B     		ldrb	r2, [r4, #13]	@ zero_extendqisi2
 218 0068 944B     		ldr	r3, .L45+16
 219 006a 1A70     		strb	r2, [r3]
 220              	.LBB2:
 105:.\main.c      ****     LED_WRITE(LED_Status[VStop]);
 221              		.loc 1 105 0
 222 006c 944B     		ldr	r3, .L45+20
 223 006e 5879     		ldrb	r0, [r3, #5]	@ zero_extendqisi2
 224 0070 944B     		ldr	r3, .L45+24
 225 0072 1870     		strb	r0, [r3]
 226 0074 FFF7FEFF 		bl	LCD_DISPLAY
 227              	.LVL31:
 228 0078 FFF7FEFF 		bl	LCD_DISPLAY_MODE
 229              	.LVL32:
 230              	.LBE2:
 106:.\main.c      ****    
ARM GAS  C:\Users\pxc\AppData\Local\Temp\ccJl84gv.s 			page 7


 107:.\main.c      **** //    TLC5616_Write(1,1023);
 108:.\main.c      **** 
 109:.\main.c      **** ///////////////////ceshi fucha//////////////
 110:.\main.c      **** //    CutReg.Action[VFast]   =   0x01;
 111:.\main.c      **** //    CutReg.Action[VSlow]   =   0x01;
 112:.\main.c      **** //    CutReg.Action[VKeep]   =   0x01;
 113:.\main.c      **** //    CutReg.Action[VUnload] =   0x00;
 114:.\main.c      **** //    CutReg.Action[VBack]   =   0x02;
 115:.\main.c      **** //    CutReg.Action[VStop]   =   0x00;
 116:.\main.c      **** //    CutReg.KeepTime        =   600;
 117:.\main.c      **** //    CutReg.UnloadTime      =   500;  
 118:.\main.c      **** /////////////////////////////////////////////
 119:.\main.c      ****     config_para.isConfig_para_state = 0;
 231              		.loc 1 119 0
 232 007c 924B     		ldr	r3, .L45+28
 233 007e 9D72     		strb	r5, [r3, #10]
 234              	.L32:
 120:.\main.c      ****     
 121:.\main.c      ****   //   System_enable = Enter_Start;
 122:.\main.c      ****     for(;;)
 123:.\main.c      ****     {    
 124:.\main.c      ****         //增加了 配置回复模式 如果开始没有在上止点就进入此模式
 125:.\main.c      ****         if(config_para.isConfig_para_state ==  EnterConfig )
 235              		.loc 1 125 0
 236 0080 914B     		ldr	r3, .L45+28
 237 0082 9B7A     		ldrb	r3, [r3, #10]	@ zero_extendqisi2
 238 0084 AA2B     		cmp	r3, #170
 239 0086 07D1     		bne	.L12
 240              	.LBB3:
 126:.\main.c      ****          { 
 127:.\main.c      ****             Write_config();
 241              		.loc 1 127 0
 242 0088 FFF7FEFF 		bl	Write_config
 243              	.LVL33:
 128:.\main.c      ****             config_para.isConfig_para_state =  FinsihConfig;
 244              		.loc 1 128 0
 245 008c A022     		movs	r2, #160
 246 008e 8E4B     		ldr	r3, .L45+28
 247 0090 9A72     		strb	r2, [r3, #10]
 129:.\main.c      ****             mode_dis_pre = 0;
 248              		.loc 1 129 0
 249 0092 0022     		movs	r2, #0
 250 0094 8D4B     		ldr	r3, .L45+32
 251 0096 1A70     		strb	r2, [r3]
 252              	.L12:
 253              	.LBE3:
 130:.\main.c      ****          }
 131:.\main.c      **** 
 132:.\main.c      ****         if(!PumpSignal())
 254              		.loc 1 132 0
 255 0098 FFF7FEFF 		bl	Status_Reg_1_Read
 256              	.LVL34:
 257 009c 10F0100F 		tst	r0, #16
 258 00a0 13D0     		beq	.L13
 133:.\main.c      **** 		{
 134:.\main.c      **** 			ISR_Stroke_Timer_states = 0x01;
 259              		.loc 1 134 0
ARM GAS  C:\Users\pxc\AppData\Local\Temp\ccJl84gv.s 			page 8


 260 00a2 0126     		movs	r6, #1
 261 00a4 8A4B     		ldr	r3, .L45+36
 262 00a6 1E60     		str	r6, [r3]
 135:.\main.c      **** 			CutReg.CutStatus = StrokeStart;
 263              		.loc 1 135 0
 264 00a8 834C     		ldr	r4, .L45+12
 265 00aa 0025     		movs	r5, #0
 266 00ac 2574     		strb	r5, [r4, #16]
 136:.\main.c      **** 			CutReg.ModeRunFlag = 0;
 267              		.loc 1 136 0
 268 00ae 2575     		strb	r5, [r4, #20]
 269              	.LBB4:
 137:.\main.c      ****             
 138:.\main.c      ****             LED_WRITE(LED_Status[VStop]);
 270              		.loc 1 138 0
 271 00b0 834B     		ldr	r3, .L45+20
 272 00b2 5879     		ldrb	r0, [r3, #5]	@ zero_extendqisi2
 273 00b4 834B     		ldr	r3, .L45+24
 274 00b6 1870     		strb	r0, [r3]
 275 00b8 FFF7FEFF 		bl	LCD_DISPLAY
 276              	.LVL35:
 277 00bc FFF7FEFF 		bl	LCD_DISPLAY_MODE
 278              	.LVL36:
 279              	.LBE4:
 139:.\main.c      ****             
 140:.\main.c      ****             CutReg.Cnt = 0;
 280              		.loc 1 140 0
 281 00c0 E581     		strh	r5, [r4, #14]	@ movhi
 141:.\main.c      **** 			CutReg.CutTimeStatus = VFast;   //结束  
 282              		.loc 1 141 0
 283 00c2 6574     		strb	r5, [r4, #17]
 142:.\main.c      ****               mode_dis_pre = 1;
 284              		.loc 1 142 0
 285 00c4 814B     		ldr	r3, .L45+32
 286 00c6 1E70     		strb	r6, [r3]
 287 00c8 11E0     		b	.L14
 288              	.L13:
 143:.\main.c      **** 		}
 144:.\main.c      **** 		else if((System_enable == Enter_Start ||System_enable == Enter_CUTJMODE || CutReg.OneWorkFinshSta
 289              		.loc 1 144 0
 290 00ca 824B     		ldr	r3, .L45+40
 291 00cc 1B78     		ldrb	r3, [r3]	@ zero_extendqisi2
 292 00ce AA2B     		cmp	r3, #170
 293 00d0 06D0     		beq	.L15
 294              		.loc 1 144 0 is_stmt 0 discriminator 2
 295 00d2 402B     		cmp	r3, #64
 296 00d4 04D0     		beq	.L15
 297              		.loc 1 144 0 discriminator 4
 298 00d6 784A     		ldr	r2, .L45+12
 299 00d8 D27D     		ldrb	r2, [r2, #23]	@ zero_extendqisi2
 300 00da D2B2     		uxtb	r2, r2
 301 00dc 112A     		cmp	r2, #17
 302 00de 06D1     		bne	.L14
 303              	.L15:
 304              		.loc 1 144 0 discriminator 5
 305 00e0 A02B     		cmp	r3, #160
 306 00e2 04D0     		beq	.L14
ARM GAS  C:\Users\pxc\AppData\Local\Temp\ccJl84gv.s 			page 9


 145:.\main.c      **** 		{
 146:.\main.c      **** 			Stroke_Process();
 307              		.loc 1 146 0 is_stmt 1
 308 00e4 FFF7FEFF 		bl	Stroke_Process
 309              	.LVL37:
 147:.\main.c      ****              mode_dis_pre = 2;
 310              		.loc 1 147 0
 311 00e8 0222     		movs	r2, #2
 312 00ea 784B     		ldr	r3, .L45+32
 313 00ec 1A70     		strb	r2, [r3]
 314              	.L14:
 148:.\main.c      **** 		}
 149:.\main.c      ****         
 150:.\main.c      ****         if(System_enable == Enter_QUIT) //停止一切活动20160825*/
 315              		.loc 1 150 0
 316 00ee 794B     		ldr	r3, .L45+40
 317 00f0 1B78     		ldrb	r3, [r3]	@ zero_extendqisi2
 318 00f2 A02B     		cmp	r3, #160
 319 00f4 14D1     		bne	.L16
 151:.\main.c      ****         {
 152:.\main.c      ****             ValveOut(CutReg.Action[VStop]); 
 320              		.loc 1 152 0
 321 00f6 704C     		ldr	r4, .L45+12
 322 00f8 607B     		ldrb	r0, [r4, #13]	@ zero_extendqisi2
 323 00fa FFF7FEFF 		bl	Control_Reg_1_Write
 324              	.LVL38:
 325 00fe 627B     		ldrb	r2, [r4, #13]	@ zero_extendqisi2
 326 0100 6E4B     		ldr	r3, .L45+16
 327 0102 1A70     		strb	r2, [r3]
 153:.\main.c      ****             CutReg.OneWorkFinshState = One_Work_Finish;
 328              		.loc 1 153 0
 329 0104 FF23     		movs	r3, #255
 330 0106 E375     		strb	r3, [r4, #23]
 154:.\main.c      ****             FootStart_state=0x01;
 331              		.loc 1 154 0
 332 0108 0123     		movs	r3, #1
 333 010a 734A     		ldr	r2, .L45+44
 334 010c 1370     		strb	r3, [r2]
 155:.\main.c      ****             CutReg.CutStatus = StrokeStart;
 335              		.loc 1 155 0
 336 010e 0022     		movs	r2, #0
 337 0110 2274     		strb	r2, [r4, #16]
 156:.\main.c      ****             CutReg.CutTimeStatus = VStop;
 338              		.loc 1 156 0
 339 0112 0522     		movs	r2, #5
 340 0114 6274     		strb	r2, [r4, #17]
 157:.\main.c      ****             ISR_Stroke_Timer_states = 0x01;
 341              		.loc 1 157 0
 342 0116 6E4A     		ldr	r2, .L45+36
 343 0118 1360     		str	r3, [r2]
 158:.\main.c      ****             mode_dis_pre = 3;
 344              		.loc 1 158 0
 345 011a 0322     		movs	r2, #3
 346 011c 6B4B     		ldr	r3, .L45+32
 347 011e 1A70     		strb	r2, [r3]
 348              	.L16:
 159:.\main.c      ****      
ARM GAS  C:\Users\pxc\AppData\Local\Temp\ccJl84gv.s 			page 10


 160:.\main.c      ****         }
 161:.\main.c      ****         if(System_enable == Enter_return)/*20160825进入回复模式*/
 349              		.loc 1 161 0
 350 0120 6C4B     		ldr	r3, .L45+40
 351 0122 1B78     		ldrb	r3, [r3]	@ zero_extendqisi2
 352 0124 882B     		cmp	r3, #136
 353 0126 0CD1     		bne	.L17
 162:.\main.c      ****         {
 163:.\main.c      ****            FootStart_state = 0x00;                   //不允许往下只能回到上止点
 354              		.loc 1 163 0
 355 0128 0021     		movs	r1, #0
 356 012a 6B4A     		ldr	r2, .L45+44
 357 012c 1170     		strb	r1, [r2]
 164:.\main.c      ****            CutReg.CutTimeStatus = VStop;
 358              		.loc 1 164 0
 359 012e 624A     		ldr	r2, .L45+12
 360 0130 0521     		movs	r1, #5
 361 0132 5174     		strb	r1, [r2, #17]
 165:.\main.c      ****            CutReg.CutStatus = JOGMODE;
 362              		.loc 1 165 0
 363 0134 0121     		movs	r1, #1
 364 0136 1174     		strb	r1, [r2, #16]
 166:.\main.c      ****            CutReg.OneWorkFinshState = One_Work_Runing;
 365              		.loc 1 166 0
 366 0138 1121     		movs	r1, #17
 367 013a D175     		strb	r1, [r2, #23]
 167:.\main.c      ****            mode_dis_pre = 4;
 368              		.loc 1 167 0
 369 013c 0421     		movs	r1, #4
 370 013e 634A     		ldr	r2, .L45+32
 371 0140 1170     		strb	r1, [r2]
 372              	.L17:
 168:.\main.c      ****         }
 169:.\main.c      ****         if(System_enable == Enter_Start)
 373              		.loc 1 169 0
 374 0142 AA2B     		cmp	r3, #170
 375 0144 05D1     		bne	.L18
 170:.\main.c      ****         {
 171:.\main.c      ****             FootStart_state = 0x01;
 376              		.loc 1 171 0
 377 0146 0121     		movs	r1, #1
 378 0148 634A     		ldr	r2, .L45+44
 379 014a 1170     		strb	r1, [r2]
 172:.\main.c      ****             mode_dis_pre = 5;
 380              		.loc 1 172 0
 381 014c 0521     		movs	r1, #5
 382 014e 5F4A     		ldr	r2, .L45+32
 383 0150 1170     		strb	r1, [r2]
 384              	.L18:
 173:.\main.c      ****         }
 174:.\main.c      ****         if(System_enable == Enter_Config_Test)
 385              		.loc 1 174 0
 386 0152 302B     		cmp	r3, #48
 387 0154 0AD1     		bne	.L19
 175:.\main.c      ****         {
 176:.\main.c      ****             ValveOut(Config_Test_Value);  
 388              		.loc 1 176 0
ARM GAS  C:\Users\pxc\AppData\Local\Temp\ccJl84gv.s 			page 11


 389 0156 614C     		ldr	r4, .L45+48
 390 0158 2078     		ldrb	r0, [r4]	@ zero_extendqisi2
 391 015a FFF7FEFF 		bl	Control_Reg_1_Write
 392              	.LVL39:
 393 015e 2278     		ldrb	r2, [r4]	@ zero_extendqisi2
 394 0160 564B     		ldr	r3, .L45+16
 395 0162 1A70     		strb	r2, [r3]
 177:.\main.c      ****             mode_dis_pre = 6;
 396              		.loc 1 177 0
 397 0164 0622     		movs	r2, #6
 398 0166 594B     		ldr	r3, .L45+32
 399 0168 1A70     		strb	r2, [r3]
 400 016a 0CE0     		b	.L20
 401              	.L19:
 178:.\main.c      ****         }
 179:.\main.c      ****         else if(System_enable == Quit_Config_Test)
 402              		.loc 1 179 0
 403 016c 312B     		cmp	r3, #49
 404 016e 0AD1     		bne	.L20
 180:.\main.c      ****         {
 181:.\main.c      ****             Config_Test_Value = 0x00;
 405              		.loc 1 181 0
 406 0170 5A4C     		ldr	r4, .L45+48
 407 0172 0020     		movs	r0, #0
 408 0174 2070     		strb	r0, [r4]
 182:.\main.c      ****             ValveOut(Config_Test_Value);
 409              		.loc 1 182 0
 410 0176 FFF7FEFF 		bl	Control_Reg_1_Write
 411              	.LVL40:
 412 017a 2278     		ldrb	r2, [r4]	@ zero_extendqisi2
 413 017c 4F4B     		ldr	r3, .L45+16
 414 017e 1A70     		strb	r2, [r3]
 183:.\main.c      ****             mode_dis_pre = 7;
 415              		.loc 1 183 0
 416 0180 0722     		movs	r2, #7
 417 0182 524B     		ldr	r3, .L45+32
 418 0184 1A70     		strb	r2, [r3]
 419              	.L20:
 184:.\main.c      ****         }
 185:.\main.c      ****    //     test_pin = test_Read();
 186:.\main.c      **** //        
 187:.\main.c      **** //        if(test_pin == 0 )
 188:.\main.c      **** //        {
 189:.\main.c      **** //            CyDelay(500);
 190:.\main.c      **** //            if(test_count == 0)
 191:.\main.c      **** //            {
 192:.\main.c      **** //                
 193:.\main.c      **** //                System_enable = Enter_Start;
 194:.\main.c      **** //                test_count = 1;
 195:.\main.c      **** //                LCD_Char_1_Position(1,0) ;
 196:.\main.c      **** //                LCD_Char_1_PrintString("ON");
 197:.\main.c      **** //                CyDelay(500);
 198:.\main.c      **** //            }
 199:.\main.c      **** //            else
 200:.\main.c      **** //            {
 201:.\main.c      **** //                test_count =0;
 202:.\main.c      **** //                System_enable = Enter_QUIT;
ARM GAS  C:\Users\pxc\AppData\Local\Temp\ccJl84gv.s 			page 12


 203:.\main.c      **** //                    test_count = 1;
 204:.\main.c      **** //                LCD_Char_1_Position(1,0) ;
 205:.\main.c      **** //               LCD_Char_1_PrintString("OF");
 206:.\main.c      **** //             CyDelay(500);
 207:.\main.c      **** //            }
 208:.\main.c      **** //           
 209:.\main.c      ****   //      }
 210:.\main.c      ****         ///
 211:.\main.c      ****         if(mode_dis_pre != mode_dis_cur)
 420              		.loc 1 211 0
 421 0186 514B     		ldr	r3, .L45+32
 422 0188 1B78     		ldrb	r3, [r3]	@ zero_extendqisi2
 423 018a 554A     		ldr	r2, .L45+52
 424 018c 1278     		ldrb	r2, [r2]	@ zero_extendqisi2
 425 018e 9342     		cmp	r3, r2
 426 0190 4AD0     		beq	.L21
 212:.\main.c      ****         {
 213:.\main.c      ****            switch(mode_dis_pre)
 427              		.loc 1 213 0
 428 0192 072B     		cmp	r3, #7
 429 0194 44D8     		bhi	.L22
 430 0196 DFE803F0 		tbb	[pc, r3]
 431              	.L24:
 432 019a 04       		.byte	(.L23-.L24)/2
 433 019b 0C       		.byte	(.L25-.L24)/2
 434 019c 14       		.byte	(.L26-.L24)/2
 435 019d 1C       		.byte	(.L27-.L24)/2
 436 019e 24       		.byte	(.L28-.L24)/2
 437 019f 2C       		.byte	(.L29-.L24)/2
 438 01a0 34       		.byte	(.L30-.L24)/2
 439 01a1 3C       		.byte	(.L31-.L24)/2
 440              		.p2align 1
 441              	.L23:
 214:.\main.c      ****            {
 215:.\main.c      ****             case 0 :            {LCD_Char_1_Position(1,0) ; LCD_Char_1_PrintString("0");break;}
 442              		.loc 1 215 0
 443 01a2 0120     		movs	r0, #1
 444 01a4 0021     		movs	r1, #0
 445 01a6 FFF7FEFF 		bl	LCD_Char_1_Position
 446              	.LVL41:
 447 01aa 4E48     		ldr	r0, .L45+56
 448 01ac FFF7FEFF 		bl	LCD_Char_1_PrintString
 449              	.LVL42:
 450 01b0 36E0     		b	.L22
 451              	.L25:
 216:.\main.c      ****             case 1 :            {LCD_Char_1_Position(1,0) ; LCD_Char_1_PrintString("1");break;}
 452              		.loc 1 216 0
 453 01b2 0120     		movs	r0, #1
 454 01b4 0021     		movs	r1, #0
 455 01b6 FFF7FEFF 		bl	LCD_Char_1_Position
 456              	.LVL43:
 457 01ba 4B48     		ldr	r0, .L45+60
 458 01bc FFF7FEFF 		bl	LCD_Char_1_PrintString
 459              	.LVL44:
 460 01c0 2EE0     		b	.L22
 461              	.L26:
 217:.\main.c      ****             case 2 :            {LCD_Char_1_Position(1,0) ; LCD_Char_1_PrintString("2");break;}
ARM GAS  C:\Users\pxc\AppData\Local\Temp\ccJl84gv.s 			page 13


 462              		.loc 1 217 0
 463 01c2 0120     		movs	r0, #1
 464 01c4 0021     		movs	r1, #0
 465 01c6 FFF7FEFF 		bl	LCD_Char_1_Position
 466              	.LVL45:
 467 01ca 4848     		ldr	r0, .L45+64
 468 01cc FFF7FEFF 		bl	LCD_Char_1_PrintString
 469              	.LVL46:
 470 01d0 26E0     		b	.L22
 471              	.L27:
 218:.\main.c      ****             case 3 :            {LCD_Char_1_Position(1,0) ; LCD_Char_1_PrintString("3");break;}
 472              		.loc 1 218 0
 473 01d2 0120     		movs	r0, #1
 474 01d4 0021     		movs	r1, #0
 475 01d6 FFF7FEFF 		bl	LCD_Char_1_Position
 476              	.LVL47:
 477 01da 4548     		ldr	r0, .L45+68
 478 01dc FFF7FEFF 		bl	LCD_Char_1_PrintString
 479              	.LVL48:
 480 01e0 1EE0     		b	.L22
 481              	.L28:
 219:.\main.c      ****             case 4 :            {LCD_Char_1_Position(1,0) ; LCD_Char_1_PrintString("4");break;}
 482              		.loc 1 219 0
 483 01e2 0120     		movs	r0, #1
 484 01e4 0021     		movs	r1, #0
 485 01e6 FFF7FEFF 		bl	LCD_Char_1_Position
 486              	.LVL49:
 487 01ea 4248     		ldr	r0, .L45+72
 488 01ec FFF7FEFF 		bl	LCD_Char_1_PrintString
 489              	.LVL50:
 490 01f0 16E0     		b	.L22
 491              	.L29:
 220:.\main.c      ****             case 5 :            {LCD_Char_1_Position(1,0) ; LCD_Char_1_PrintString("5");break;}
 492              		.loc 1 220 0
 493 01f2 0120     		movs	r0, #1
 494 01f4 0021     		movs	r1, #0
 495 01f6 FFF7FEFF 		bl	LCD_Char_1_Position
 496              	.LVL51:
 497 01fa 3F48     		ldr	r0, .L45+76
 498 01fc FFF7FEFF 		bl	LCD_Char_1_PrintString
 499              	.LVL52:
 500 0200 0EE0     		b	.L22
 501              	.L30:
 221:.\main.c      ****             case 6 :            {LCD_Char_1_Position(1,0) ; LCD_Char_1_PrintString("6");break;}
 502              		.loc 1 221 0
 503 0202 0120     		movs	r0, #1
 504 0204 0021     		movs	r1, #0
 505 0206 FFF7FEFF 		bl	LCD_Char_1_Position
 506              	.LVL53:
 507 020a 3C48     		ldr	r0, .L45+80
 508 020c FFF7FEFF 		bl	LCD_Char_1_PrintString
 509              	.LVL54:
 510 0210 06E0     		b	.L22
 511              	.L31:
 222:.\main.c      ****             case 7 :            {LCD_Char_1_Position(1,0) ; LCD_Char_1_PrintString("7");break;}
 512              		.loc 1 222 0
 513 0212 0120     		movs	r0, #1
ARM GAS  C:\Users\pxc\AppData\Local\Temp\ccJl84gv.s 			page 14


 514 0214 0021     		movs	r1, #0
 515 0216 FFF7FEFF 		bl	LCD_Char_1_Position
 516              	.LVL55:
 517 021a 3948     		ldr	r0, .L45+84
 518 021c FFF7FEFF 		bl	LCD_Char_1_PrintString
 519              	.LVL56:
 520              	.L22:
 223:.\main.c      ****            }
 224:.\main.c      ****             mode_dis_cur = mode_dis_pre;
 521              		.loc 1 224 0
 522 0220 2A4B     		ldr	r3, .L45+32
 523 0222 1A78     		ldrb	r2, [r3]	@ zero_extendqisi2
 524 0224 2E4B     		ldr	r3, .L45+52
 525 0226 1A70     		strb	r2, [r3]
 526              	.L21:
 225:.\main.c      ****         }
 226:.\main.c      ****         if(Dis_time_flag == 1)
 527              		.loc 1 226 0
 528 0228 364B     		ldr	r3, .L45+88
 529 022a 1B78     		ldrb	r3, [r3]	@ zero_extendqisi2
 530 022c 012B     		cmp	r3, #1
 531 022e 7FF427AF 		bne	.L32
 227:.\main.c      ****         {       Dis_Step++;
 532              		.loc 1 227 0
 533 0232 354A     		ldr	r2, .L45+92
 534 0234 1368     		ldr	r3, [r2]
 535 0236 0133     		adds	r3, r3, #1
 536 0238 1360     		str	r3, [r2]
 228:.\main.c      ****             switch(Dis_Step)
 537              		.loc 1 228 0
 538 023a 072B     		cmp	r3, #7
 539 023c 27D8     		bhi	.L33
 540 023e DFE803F0 		tbb	[pc, r3]
 541              	.L35:
 542 0242 04       		.byte	(.L34-.L35)/2
 543 0243 08       		.byte	(.L36-.L35)/2
 544 0244 0C       		.byte	(.L37-.L35)/2
 545 0245 10       		.byte	(.L38-.L35)/2
 546 0246 14       		.byte	(.L39-.L35)/2
 547 0247 18       		.byte	(.L40-.L35)/2
 548 0248 1C       		.byte	(.L41-.L35)/2
 549 0249 20       		.byte	(.L42-.L35)/2
 550              		.p2align 1
 551              	.L34:
 229:.\main.c      ****         {
 230:.\main.c      ****             case 0:Dis_content = LCD_Char_1_CUSTOM_0; break;
 552              		.loc 1 230 0
 553 024a 0022     		movs	r2, #0
 554 024c 2F4B     		ldr	r3, .L45+96
 555 024e 1A60     		str	r2, [r3]
 556 0250 1DE0     		b	.L33
 557              	.L36:
 231:.\main.c      ****             case 1:Dis_content = LCD_Char_1_CUSTOM_1; break;
 558              		.loc 1 231 0
 559 0252 0122     		movs	r2, #1
 560 0254 2D4B     		ldr	r3, .L45+96
 561 0256 1A60     		str	r2, [r3]
ARM GAS  C:\Users\pxc\AppData\Local\Temp\ccJl84gv.s 			page 15


 562 0258 19E0     		b	.L33
 563              	.L37:
 232:.\main.c      ****             case 2:Dis_content = LCD_Char_1_CUSTOM_2; break;
 564              		.loc 1 232 0
 565 025a 0222     		movs	r2, #2
 566 025c 2B4B     		ldr	r3, .L45+96
 567 025e 1A60     		str	r2, [r3]
 568 0260 15E0     		b	.L33
 569              	.L38:
 233:.\main.c      ****             case 3:Dis_content = LCD_Char_1_CUSTOM_3; break;
 570              		.loc 1 233 0
 571 0262 0322     		movs	r2, #3
 572 0264 294B     		ldr	r3, .L45+96
 573 0266 1A60     		str	r2, [r3]
 574 0268 11E0     		b	.L33
 575              	.L39:
 234:.\main.c      ****             case 4:Dis_content = LCD_Char_1_CUSTOM_4; break;
 576              		.loc 1 234 0
 577 026a 0422     		movs	r2, #4
 578 026c 274B     		ldr	r3, .L45+96
 579 026e 1A60     		str	r2, [r3]
 580 0270 0DE0     		b	.L33
 581              	.L40:
 235:.\main.c      ****             case 5:Dis_content = LCD_Char_1_CUSTOM_5; break;
 582              		.loc 1 235 0
 583 0272 0522     		movs	r2, #5
 584 0274 254B     		ldr	r3, .L45+96
 585 0276 1A60     		str	r2, [r3]
 586 0278 09E0     		b	.L33
 587              	.L41:
 236:.\main.c      ****             case 6:Dis_content = LCD_Char_1_CUSTOM_6; break;
 588              		.loc 1 236 0
 589 027a 0622     		movs	r2, #6
 590 027c 234B     		ldr	r3, .L45+96
 591 027e 1A60     		str	r2, [r3]
 592 0280 05E0     		b	.L33
 593              	.L42:
 237:.\main.c      ****             case 7:Dis_content = LCD_Char_1_CUSTOM_7; Dis_Step = 0;break;
 594              		.loc 1 237 0
 595 0282 0722     		movs	r2, #7
 596 0284 214B     		ldr	r3, .L45+96
 597 0286 1A60     		str	r2, [r3]
 598 0288 0022     		movs	r2, #0
 599 028a 1F4B     		ldr	r3, .L45+92
 600 028c 1A60     		str	r2, [r3]
 601              	.L33:
 238:.\main.c      ****         }
 239:.\main.c      ****         LCD_Char_1_Position(0,0);                                                                //
 602              		.loc 1 239 0
 603 028e 0020     		movs	r0, #0
 604 0290 0146     		mov	r1, r0
 605 0292 FFF7FEFF 		bl	LCD_Char_1_Position
 606              	.LVL57:
 240:.\main.c      ****         LCD_Char_1_PutChar(Dis_content) ;  
 607              		.loc 1 240 0
 608 0296 1D4B     		ldr	r3, .L45+96
 609 0298 1878     		ldrb	r0, [r3]	@ zero_extendqisi2
ARM GAS  C:\Users\pxc\AppData\Local\Temp\ccJl84gv.s 			page 16


 610 029a FFF7FEFF 		bl	LCD_Char_1_PutChar
 611              	.LVL58:
 241:.\main.c      ****         LCD_DISPLAY_MODE();
 612              		.loc 1 241 0
 613 029e FFF7FEFF 		bl	LCD_DISPLAY_MODE
 614              	.LVL59:
 242:.\main.c      ****        Dis_time_flag = 0;
 615              		.loc 1 242 0
 616 02a2 0022     		movs	r2, #0
 617 02a4 174B     		ldr	r3, .L45+88
 618 02a6 1A70     		strb	r2, [r3]
 619 02a8 EAE6     		b	.L32
 620              	.L46:
 621 02aa 00BF     		.align	2
 622              	.L45:
 623 02ac 00000000 		.word	LCD_Char_1_customFonts
 624 02b0 00000000 		.word	.LC0
 625 02b4 08000000 		.word	.LC1
 626 02b8 00000000 		.word	CutReg
 627 02bc 00000000 		.word	TPDO_OUT_Status
 628 02c0 00000000 		.word	LED_Status
 629 02c4 00000000 		.word	TPDO_PROCESS_Status
 630 02c8 00000000 		.word	config_para
 631 02cc 00000000 		.word	mode_dis_pre
 632 02d0 00000000 		.word	ISR_Stroke_Timer_states
 633 02d4 00000000 		.word	System_enable
 634 02d8 00000000 		.word	FootStart_state
 635 02dc 00000000 		.word	Config_Test_Value
 636 02e0 00000000 		.word	mode_dis_cur
 637 02e4 14000000 		.word	.LC2
 638 02e8 18000000 		.word	.LC3
 639 02ec 1C000000 		.word	.LC4
 640 02f0 20000000 		.word	.LC5
 641 02f4 24000000 		.word	.LC6
 642 02f8 28000000 		.word	.LC7
 643 02fc 2C000000 		.word	.LC8
 644 0300 30000000 		.word	.LC9
 645 0304 00000000 		.word	Dis_time_flag
 646 0308 00000000 		.word	Dis_Step
 647 030c 00000000 		.word	Dis_content
 648              		.cfi_endproc
 649              	.LFE64:
 650              		.size	main, .-main
 651              		.comm	Data,8,4
 652              		.comm	CAN_message,12,4
 653              		.comm	receiveData,8,4
 654              		.comm	mode_dis_pre,1,1
 655              		.comm	mode_dis_cur,1,1
 656              		.comm	test_pin,1,1
 657              		.comm	test_count,1,1
 658              		.global	key_count
 659              		.section	.rodata.str1.4,"aMS",%progbits,1
 660              		.align	2
 661              	.LC0:
 662 0000 53746172 		.ascii	"StartUp\000"
 662      74557000 
 663              	.LC1:
ARM GAS  C:\Users\pxc\AppData\Local\Temp\ccJl84gv.s 			page 17


 664 0008 5665722D 		.ascii	"Ver-1.02\000"
 664      312E3032 
 664      00
 665 0011 000000   		.space	3
 666              	.LC2:
 667 0014 3000     		.ascii	"0\000"
 668 0016 0000     		.space	2
 669              	.LC3:
 670 0018 3100     		.ascii	"1\000"
 671 001a 0000     		.space	2
 672              	.LC4:
 673 001c 3200     		.ascii	"2\000"
 674 001e 0000     		.space	2
 675              	.LC5:
 676 0020 3300     		.ascii	"3\000"
 677 0022 0000     		.space	2
 678              	.LC6:
 679 0024 3400     		.ascii	"4\000"
 680 0026 0000     		.space	2
 681              	.LC7:
 682 0028 3500     		.ascii	"5\000"
 683 002a 0000     		.space	2
 684              	.LC8:
 685 002c 3600     		.ascii	"6\000"
 686 002e 0000     		.space	2
 687              	.LC9:
 688 0030 3700     		.ascii	"7\000"
 689 0032 0000     		.bss
 690              		.type	key_count, %object
 691              		.size	key_count, 1
 692              	key_count:
 693 0000 00       		.space	1
 694              		.text
 695              	.Letext0:
 696              		.file 2 "c:\\program files (x86)\\cypress\\psoc creator\\3.3\\psoc creator\\import\\gnu\\arm\\4.9.
 697              		.file 3 "c:\\program files (x86)\\cypress\\psoc creator\\3.3\\psoc creator\\import\\gnu\\arm\\4.9.
 698              		.file 4 "Generated_Source\\PSoC5/cytypes.h"
 699              		.file 5 "Generated_Source\\PSoC5/CAN_1.h"
 700              		.file 6 ".\\Valve_Control.h"
 701              		.file 7 ".\\can.h"
 702              		.file 8 ".\\applicfg.h"
 703              		.file 9 ".\\TestSlave.h"
 704              		.file 10 ".\\canfestival.h"
 705              		.file 11 "Generated_Source\\PSoC5/core_cm3.h"
 706              		.file 12 ".\\TLC5616.h"
 707              		.file 13 "Generated_Source\\PSoC5/LCD_Char_1.h"
 708              		.file 14 "Generated_Source\\PSoC5/CyLib.h"
 709              		.file 15 ".\\CanopenDictConfig.h"
 710              		.file 16 ".\\led.h"
 711              		.file 17 "Generated_Source\\PSoC5/Control_Reg_1.h"
 712              		.file 18 "Generated_Source\\PSoC5/Status_Reg_1.h"