ARM GAS  C:\Users\PANXIA~1\AppData\Local\Temp\ccBOlqFn.s 			page 1


   1              		.syntax unified
   2              		.cpu cortex-m3
   3              		.fpu softvfp
   4              		.eabi_attribute 20, 1
   5              		.eabi_attribute 21, 1
   6              		.eabi_attribute 23, 3
   7              		.eabi_attribute 24, 1
   8              		.eabi_attribute 25, 1
   9              		.eabi_attribute 26, 1
  10              		.eabi_attribute 30, 1
  11              		.eabi_attribute 34, 1
  12              		.eabi_attribute 18, 4
  13              		.thumb
  14              		.file	"nmtSlave.c"
  15              		.text
  16              	.Ltext0:
  17              		.cfi_sections	.debug_frame
  18              		.section	.text.proceedNMTstateChange,"ax",%progbits
  19              		.align	2
  20              		.global	proceedNMTstateChange
  21              		.thumb
  22              		.thumb_func
  23              		.type	proceedNMTstateChange, %function
  24              	proceedNMTstateChange:
  25              	.LFB0:
  26              		.file 1 ".\\nmtSlave.c"
   1:.\nmtSlave.c  **** /* ========================================
   2:.\nmtSlave.c  ****  *
   3:.\nmtSlave.c  ****  * Copyright YOUR COMPANY, THE YEAR
   4:.\nmtSlave.c  ****  * All Rights Reserved
   5:.\nmtSlave.c  ****  * UNPUBLISHED, LICENSED SOFTWARE.
   6:.\nmtSlave.c  ****  *
   7:.\nmtSlave.c  ****  * CONFIDENTIAL AND PROPRIETARY INFORMATION
   8:.\nmtSlave.c  ****  * WHICH IS THE PROPERTY OF your company.
   9:.\nmtSlave.c  ****  *
  10:.\nmtSlave.c  ****  * ========================================
  11:.\nmtSlave.c  **** */
  12:.\nmtSlave.c  **** 
  13:.\nmtSlave.c  **** /* [] END OF FILE */
  14:.\nmtSlave.c  **** 
  15:.\nmtSlave.c  **** ///*
  16:.\nmtSlave.c  **** //  This file is part of CanFestival, a library implementing CanOpen
  17:.\nmtSlave.c  **** //  Stack.
  18:.\nmtSlave.c  **** 
  19:.\nmtSlave.c  **** //  Copyright (C): Edouard TISSERANT and Francis DUPIN
  20:.\nmtSlave.c  **** 
  21:.\nmtSlave.c  **** //  See COPYING file for copyrights details.
  22:.\nmtSlave.c  **** 
  23:.\nmtSlave.c  **** //  This library is free software; you can redistribute it and/or
  24:.\nmtSlave.c  **** //  modify it under the terms of the GNU Lesser General Public
  25:.\nmtSlave.c  **** //  License as published by the Free Software Foundation; either
  26:.\nmtSlave.c  **** //  version 2.1 of the License, or (at your option) any later version.
  27:.\nmtSlave.c  **** 
  28:.\nmtSlave.c  **** //  This library is distributed in the hope that it will be useful,
  29:.\nmtSlave.c  **** //  but WITHOUT ANY WARRANTY; without even the implied warranty of
  30:.\nmtSlave.c  **** //  MERCHANTABILITY or FITNESS FOR A PARTICULAR PURPOSE.  See the GNU
  31:.\nmtSlave.c  **** //  Lesser General Public License for more details.
ARM GAS  C:\Users\PANXIA~1\AppData\Local\Temp\ccBOlqFn.s 			page 2


  32:.\nmtSlave.c  **** 
  33:.\nmtSlave.c  **** //  You should have received a copy of the GNU Lesser General Public
  34:.\nmtSlave.c  **** //  License along with this library; if not, write to the Free Software
  35:.\nmtSlave.c  **** //  Foundation, Inc., 59 Temple Place, Suite 330, Boston, MA  02111-1307
  36:.\nmtSlave.c  **** //  USA
  37:.\nmtSlave.c  **** //*/
  38:.\nmtSlave.c  **** ///*!
  39:.\nmtSlave.c  **** //** @file   nmtSlave.c
  40:.\nmtSlave.c  **** //** @author Edouard TISSERANT and Francis DUPIN
  41:.\nmtSlave.c  **** //** @date   Tue Jun  5 08:50:53 2007
  42:.\nmtSlave.c  **** //**
  43:.\nmtSlave.c  **** //** @brief
  44:.\nmtSlave.c  **** //**
  45:.\nmtSlave.c  **** //**
  46:.\nmtSlave.c  **** //*/
  47:.\nmtSlave.c  **** //#include "nmtSlave.h"
  48:.\nmtSlave.c  **** //#include "states.h"
  49:.\nmtSlave.c  **** //#include "canfestival.h"
  50:.\nmtSlave.c  **** //#include "sysdep.h"
  51:.\nmtSlave.c  **** 
  52:.\nmtSlave.c  **** ///*!
  53:.\nmtSlave.c  **** //** put the slave in the state wanted by the master
  54:.\nmtSlave.c  **** //**
  55:.\nmtSlave.c  **** //** @param d
  56:.\nmtSlave.c  **** //** @param m
  57:.\nmtSlave.c  **** //**/
  58:.\nmtSlave.c  **** //void proceedNMTstateChange(CO_Data* d, Message *m)
  59:.\nmtSlave.c  **** //{
  60:.\nmtSlave.c  **** //  if( d->nodeState == Pre_operational ||
  61:.\nmtSlave.c  **** //      d->nodeState == Operational ||
  62:.\nmtSlave.c  **** //      d->nodeState == Stopped ) {
  63:.\nmtSlave.c  **** 
  64:.\nmtSlave.c  **** //    MSG_WAR(0x3400, "NMT received. for node :  ", (*m).data[1]);
  65:.\nmtSlave.c  **** 
  66:.\nmtSlave.c  **** //    /* Check if this NMT-message is for this node */
  67:.\nmtSlave.c  **** //    /* byte 1 = 0 : all the nodes are concerned (broadcast) */
  68:.\nmtSlave.c  **** 
  69:.\nmtSlave.c  **** //    if( ( (*m).data[1] == 0 ) || ( (*m).data[1] == *d->bDeviceNodeId ) ){
  70:.\nmtSlave.c  **** 
  71:.\nmtSlave.c  **** //      switch( (*m).data[0]){ /* command specifier (cs) */
  72:.\nmtSlave.c  **** //      case NMT_Start_Node:
  73:.\nmtSlave.c  **** //        if ( (d->nodeState == Pre_operational) || (d->nodeState == Stopped) )
  74:.\nmtSlave.c  **** //          setState(d,Operational);
  75:.\nmtSlave.c  **** //        break;
  76:.\nmtSlave.c  **** 
  77:.\nmtSlave.c  **** //      case NMT_Stop_Node:
  78:.\nmtSlave.c  **** //        if ( d->nodeState == Pre_operational ||
  79:.\nmtSlave.c  **** //             d->nodeState == Operational )
  80:.\nmtSlave.c  **** //          setState(d,Stopped);
  81:.\nmtSlave.c  **** //        break;
  82:.\nmtSlave.c  **** 
  83:.\nmtSlave.c  **** //      case NMT_Enter_PreOperational:
  84:.\nmtSlave.c  **** //        if ( d->nodeState == Operational ||
  85:.\nmtSlave.c  **** //             d->nodeState == Stopped )
  86:.\nmtSlave.c  **** //          setState(d,Pre_operational);
  87:.\nmtSlave.c  **** //        break;
  88:.\nmtSlave.c  **** 
ARM GAS  C:\Users\PANXIA~1\AppData\Local\Temp\ccBOlqFn.s 			page 3


  89:.\nmtSlave.c  **** //      case NMT_Reset_Node:
  90:.\nmtSlave.c  **** //         if(d->NMT_Slave_Node_Reset_Callback != NULL)
  91:.\nmtSlave.c  **** //            d->NMT_Slave_Node_Reset_Callback(d);
  92:.\nmtSlave.c  **** //        setState(d,Initialisation);
  93:.\nmtSlave.c  **** //        break;
  94:.\nmtSlave.c  **** 
  95:.\nmtSlave.c  **** //      case NMT_Reset_Comunication:
  96:.\nmtSlave.c  **** //         {
  97:.\nmtSlave.c  **** //         UNS8 currentNodeId = getNodeId(d);
  98:.\nmtSlave.c  **** //
  99:.\nmtSlave.c  **** //            if(d->NMT_Slave_Communications_Reset_Callback != NULL)
 100:.\nmtSlave.c  **** //               d->NMT_Slave_Communications_Reset_Callback(d);
 101:.\nmtSlave.c  **** //#ifdef CO_ENABLE_LSS
 102:.\nmtSlave.c  **** //            // LSS changes NodeId here in case lss_transfer.nodeID doesn't
 103:.\nmtSlave.c  **** //            // match current getNodeId()
 104:.\nmtSlave.c  **** //            if(currentNodeId!=d->lss_transfer.nodeID)
 105:.\nmtSlave.c  **** //               currentNodeId = d->lss_transfer.nodeID;
 106:.\nmtSlave.c  **** //#endif
 107:.\nmtSlave.c  **** 
 108:.\nmtSlave.c  **** //            // clear old NodeId to make SetNodeId reinitializing
 109:.\nmtSlave.c  **** //            // SDO, EMCY and other COB Ids
 110:.\nmtSlave.c  **** //            *d->bDeviceNodeId = 0xFF;
 111:.\nmtSlave.c  **** //
 112:.\nmtSlave.c  **** //            setNodeId(d, currentNodeId);
 113:.\nmtSlave.c  **** //         }
 114:.\nmtSlave.c  **** //         setState(d,Initialisation);
 115:.\nmtSlave.c  **** //         break;
 116:.\nmtSlave.c  **** 
 117:.\nmtSlave.c  **** //      }/* end switch */
 118:.\nmtSlave.c  **** 
 119:.\nmtSlave.c  **** //    }/* end if( ( (*m).data[1] == 0 ) || ( (*m).data[1] ==
 120:.\nmtSlave.c  **** //        bDeviceNodeId ) ) */
 121:.\nmtSlave.c  **** //  }
 122:.\nmtSlave.c  **** //}
 123:.\nmtSlave.c  **** 
 124:.\nmtSlave.c  **** 
 125:.\nmtSlave.c  **** ///*!
 126:.\nmtSlave.c  **** //**
 127:.\nmtSlave.c  **** //**
 128:.\nmtSlave.c  **** //** @param d
 129:.\nmtSlave.c  **** //**
 130:.\nmtSlave.c  **** //** @return
 131:.\nmtSlave.c  **** //**/
 132:.\nmtSlave.c  **** //UNS8 slaveSendBootUp(CO_Data* d)
 133:.\nmtSlave.c  **** //{
 134:.\nmtSlave.c  **** //  Message m;
 135:.\nmtSlave.c  **** 
 136:.\nmtSlave.c  **** //#ifdef CO_ENABLE_LSS
 137:.\nmtSlave.c  **** //  if(*d->bDeviceNodeId==0xFF)return 0;
 138:.\nmtSlave.c  **** //#endif
 139:.\nmtSlave.c  **** 
 140:.\nmtSlave.c  **** //  MSG_WAR(0x3407, "Send a Boot-Up msg ", 0);
 141:.\nmtSlave.c  **** 
 142:.\nmtSlave.c  **** //  /* message configuration */
 143:.\nmtSlave.c  **** //  {
 144:.\nmtSlave.c  **** //	  UNS16 tmp = NODE_GUARD << 7 | *d->bDeviceNodeId;
 145:.\nmtSlave.c  **** //	  m.cob_id = UNS16_LE(tmp);
ARM GAS  C:\Users\PANXIA~1\AppData\Local\Temp\ccBOlqFn.s 			page 4


 146:.\nmtSlave.c  **** //  }
 147:.\nmtSlave.c  **** //  m.rtr = NOT_A_REQUEST;
 148:.\nmtSlave.c  **** //  m.len = 1;
 149:.\nmtSlave.c  **** //  m.data[0] = 0x00;
 150:.\nmtSlave.c  **** 
 151:.\nmtSlave.c  **** //  return canSend(d->canHandle,&m);
 152:.\nmtSlave.c  **** //}
 153:.\nmtSlave.c  **** 
 154:.\nmtSlave.c  **** /*
 155:.\nmtSlave.c  ****   This file is part of CanFestival, a library implementing CanOpen
 156:.\nmtSlave.c  ****   Stack.
 157:.\nmtSlave.c  **** 
 158:.\nmtSlave.c  ****   Copyright (C): Edouard TISSERANT and Francis DUPIN
 159:.\nmtSlave.c  **** 
 160:.\nmtSlave.c  ****   See COPYING file for copyrights details.
 161:.\nmtSlave.c  **** 
 162:.\nmtSlave.c  ****   This library is free software; you can redistribute it and/or
 163:.\nmtSlave.c  ****   modify it under the terms of the GNU Lesser General Public
 164:.\nmtSlave.c  ****   License as published by the Free Software Foundation; either
 165:.\nmtSlave.c  ****   version 2.1 of the License, or (at your option) any later version.
 166:.\nmtSlave.c  **** 
 167:.\nmtSlave.c  ****   This library is distributed in the hope that it will be useful,
 168:.\nmtSlave.c  ****   but WITHOUT ANY WARRANTY; without even the implied warranty of
 169:.\nmtSlave.c  ****   MERCHANTABILITY or FITNESS FOR A PARTICULAR PURPOSE.  See the GNU
 170:.\nmtSlave.c  ****   Lesser General Public License for more details.
 171:.\nmtSlave.c  **** 
 172:.\nmtSlave.c  ****   You should have received a copy of the GNU Lesser General Public
 173:.\nmtSlave.c  ****   License along with this library; if not, write to the Free Software
 174:.\nmtSlave.c  ****   Foundation, Inc., 59 Temple Place, Suite 330, Boston, MA  02111-1307
 175:.\nmtSlave.c  ****   USA
 176:.\nmtSlave.c  **** */
 177:.\nmtSlave.c  **** /*!
 178:.\nmtSlave.c  **** ** @file   nmtSlave.c
 179:.\nmtSlave.c  **** ** @author Edouard TISSERANT and Francis DUPIN
 180:.\nmtSlave.c  **** ** @date   Tue Jun  5 08:50:53 2007
 181:.\nmtSlave.c  **** **
 182:.\nmtSlave.c  **** ** @brief
 183:.\nmtSlave.c  **** **
 184:.\nmtSlave.c  **** **
 185:.\nmtSlave.c  **** */
 186:.\nmtSlave.c  **** #include "nmtSlave.h"
 187:.\nmtSlave.c  **** #include "states.h"
 188:.\nmtSlave.c  **** #include "canfestival.h"
 189:.\nmtSlave.c  **** #include "sysdep.h"
 190:.\nmtSlave.c  **** 
 191:.\nmtSlave.c  **** /*!
 192:.\nmtSlave.c  **** ** put the slave in the state wanted by the master
 193:.\nmtSlave.c  **** **
 194:.\nmtSlave.c  **** ** @param d
 195:.\nmtSlave.c  **** ** @param m
 196:.\nmtSlave.c  **** **/
 197:.\nmtSlave.c  **** void proceedNMTstateChange(CO_Data* d, Message *m)
 198:.\nmtSlave.c  **** {
  27              		.loc 1 198 0
  28              		.cfi_startproc
  29              		@ args = 0, pretend = 0, frame = 0
  30              		@ frame_needed = 0, uses_anonymous_args = 0
ARM GAS  C:\Users\PANXIA~1\AppData\Local\Temp\ccBOlqFn.s 			page 5


  31              	.LVL0:
  32 0000 38B5     		push	{r3, r4, r5, lr}
  33              		.cfi_def_cfa_offset 16
  34              		.cfi_offset 3, -16
  35              		.cfi_offset 4, -12
  36              		.cfi_offset 5, -8
  37              		.cfi_offset 14, -4
 199:.\nmtSlave.c  ****   if( d->nodeState == Pre_operational ||
  38              		.loc 1 199 0
  39 0002 90F87830 		ldrb	r3, [r0, #120]	@ zero_extendqisi2
  40 0006 7F2B     		cmp	r3, #127
  41 0008 03D0     		beq	.L2
  42              		.loc 1 199 0 is_stmt 0 discriminator 1
  43 000a 052B     		cmp	r3, #5
  44 000c 01D0     		beq	.L2
 200:.\nmtSlave.c  ****       d->nodeState == Operational ||
  45              		.loc 1 200 0 is_stmt 1
  46 000e 042B     		cmp	r3, #4
  47 0010 4AD1     		bne	.L1
  48              	.L2:
 201:.\nmtSlave.c  ****       d->nodeState == Stopped ) {
 202:.\nmtSlave.c  **** 
 203:.\nmtSlave.c  ****     MSG_WAR(0x3400, "NMT received. for node :  ", (*m).data[1]);
 204:.\nmtSlave.c  **** 
 205:.\nmtSlave.c  ****     /* Check if this NMT-message is for this node */
 206:.\nmtSlave.c  ****     /* byte 1 = 0 : all the nodes are concerned (broadcast) */
 207:.\nmtSlave.c  **** 
 208:.\nmtSlave.c  ****     if( ( (*m).data[1] == 0 ) || ( (*m).data[1] == *d->bDeviceNodeId ) ){
  49              		.loc 1 208 0
  50 0012 4A79     		ldrb	r2, [r1, #5]	@ zero_extendqisi2
  51 0014 1AB1     		cbz	r2, .L4
  52              		.loc 1 208 0 is_stmt 0 discriminator 1
  53 0016 0468     		ldr	r4, [r0]
  54 0018 2478     		ldrb	r4, [r4]	@ zero_extendqisi2
  55 001a A242     		cmp	r2, r4
  56 001c 44D1     		bne	.L1
  57              	.L4:
  58 001e 0446     		mov	r4, r0
 209:.\nmtSlave.c  **** 
 210:.\nmtSlave.c  ****       switch( (*m).data[0]){ /* command specifier (cs) */
  59              		.loc 1 210 0 is_stmt 1
  60 0020 0A79     		ldrb	r2, [r1, #4]	@ zero_extendqisi2
  61 0022 802A     		cmp	r2, #128
  62 0024 1CD0     		beq	.L5
  63 0026 04D8     		bhi	.L6
  64 0028 012A     		cmp	r2, #1
  65 002a 07D0     		beq	.L7
  66 002c 022A     		cmp	r2, #2
  67 002e 0ED0     		beq	.L8
  68 0030 38BD     		pop	{r3, r4, r5, pc}
  69              	.L6:
  70 0032 812A     		cmp	r2, #129
  71 0034 1CD0     		beq	.L9
  72 0036 822A     		cmp	r2, #130
  73 0038 23D0     		beq	.L10
  74 003a 38BD     		pop	{r3, r4, r5, pc}
  75              	.L7:
ARM GAS  C:\Users\PANXIA~1\AppData\Local\Temp\ccBOlqFn.s 			page 6


 211:.\nmtSlave.c  ****       case NMT_Start_Node:
 212:.\nmtSlave.c  ****         if ( (d->nodeState == Pre_operational) || (d->nodeState == Stopped) )
  76              		.loc 1 212 0
  77 003c 7F2B     		cmp	r3, #127
  78 003e 01D0     		beq	.L11
  79              		.loc 1 212 0 is_stmt 0 discriminator 1
  80 0040 042B     		cmp	r3, #4
  81 0042 31D1     		bne	.L1
  82              	.L11:
 213:.\nmtSlave.c  ****           setState(d,Operational);
  83              		.loc 1 213 0 is_stmt 1
  84 0044 2046     		mov	r0, r4
  85              	.LVL1:
  86 0046 0521     		movs	r1, #5
  87              	.LVL2:
  88 0048 FFF7FEFF 		bl	setState
  89              	.LVL3:
  90 004c 38BD     		pop	{r3, r4, r5, pc}
  91              	.LVL4:
  92              	.L8:
 214:.\nmtSlave.c  ****         break;
 215:.\nmtSlave.c  **** 
 216:.\nmtSlave.c  ****       case NMT_Stop_Node:
 217:.\nmtSlave.c  ****         if ( d->nodeState == Pre_operational ||
  93              		.loc 1 217 0
  94 004e 7F2B     		cmp	r3, #127
  95 0050 01D0     		beq	.L12
  96              		.loc 1 217 0 is_stmt 0 discriminator 1
  97 0052 052B     		cmp	r3, #5
  98 0054 28D1     		bne	.L1
  99              	.L12:
 218:.\nmtSlave.c  ****              d->nodeState == Operational )
 219:.\nmtSlave.c  ****           setState(d,Stopped);
 100              		.loc 1 219 0 is_stmt 1
 101 0056 2046     		mov	r0, r4
 102              	.LVL5:
 103 0058 0421     		movs	r1, #4
 104              	.LVL6:
 105 005a FFF7FEFF 		bl	setState
 106              	.LVL7:
 107 005e 38BD     		pop	{r3, r4, r5, pc}
 108              	.LVL8:
 109              	.L5:
 220:.\nmtSlave.c  ****         break;
 221:.\nmtSlave.c  **** 
 222:.\nmtSlave.c  ****       case NMT_Enter_PreOperational:
 223:.\nmtSlave.c  ****         if ( d->nodeState == Operational ||
 110              		.loc 1 223 0
 111 0060 043B     		subs	r3, r3, #4
 112 0062 DBB2     		uxtb	r3, r3
 113 0064 012B     		cmp	r3, #1
 114 0066 1FD8     		bhi	.L1
 224:.\nmtSlave.c  ****              d->nodeState == Stopped )
 225:.\nmtSlave.c  ****           setState(d,Pre_operational);
 115              		.loc 1 225 0
 116 0068 7F21     		movs	r1, #127
 117              	.LVL9:
ARM GAS  C:\Users\PANXIA~1\AppData\Local\Temp\ccBOlqFn.s 			page 7


 118 006a FFF7FEFF 		bl	setState
 119              	.LVL10:
 120 006e 38BD     		pop	{r3, r4, r5, pc}
 121              	.LVL11:
 122              	.L9:
 226:.\nmtSlave.c  ****         break;
 227:.\nmtSlave.c  **** 
 228:.\nmtSlave.c  ****       case NMT_Reset_Node:
 229:.\nmtSlave.c  ****          if(d->NMT_Slave_Node_Reset_Callback != NULL)
 123              		.loc 1 229 0
 124 0070 D0F89030 		ldr	r3, [r0, #144]
 125 0074 03B1     		cbz	r3, .L13
 230:.\nmtSlave.c  ****             d->NMT_Slave_Node_Reset_Callback(d);
 126              		.loc 1 230 0
 127 0076 9847     		blx	r3
 128              	.LVL12:
 129              	.L13:
 231:.\nmtSlave.c  ****         setState(d,Initialisation);
 130              		.loc 1 231 0
 131 0078 2046     		mov	r0, r4
 132 007a 0021     		movs	r1, #0
 133 007c FFF7FEFF 		bl	setState
 134              	.LVL13:
 232:.\nmtSlave.c  ****         break;
 135              		.loc 1 232 0
 136 0080 38BD     		pop	{r3, r4, r5, pc}
 137              	.LVL14:
 138              	.L10:
 139              	.LBB2:
 233:.\nmtSlave.c  **** 
 234:.\nmtSlave.c  ****       case NMT_Reset_Comunication:
 235:.\nmtSlave.c  ****          {
 236:.\nmtSlave.c  ****          UNS8 currentNodeId = getNodeId(d);
 140              		.loc 1 236 0
 141 0082 FFF7FEFF 		bl	getNodeId
 142              	.LVL15:
 143 0086 0546     		mov	r5, r0
 144              	.LVL16:
 237:.\nmtSlave.c  **** 
 238:.\nmtSlave.c  ****             if(d->NMT_Slave_Communications_Reset_Callback != NULL)
 145              		.loc 1 238 0
 146 0088 D4F89430 		ldr	r3, [r4, #148]
 147 008c 0BB1     		cbz	r3, .L14
 239:.\nmtSlave.c  ****                d->NMT_Slave_Communications_Reset_Callback(d);
 148              		.loc 1 239 0
 149 008e 2046     		mov	r0, r4
 150 0090 9847     		blx	r3
 151              	.LVL17:
 152              	.L14:
 240:.\nmtSlave.c  **** #ifdef CO_ENABLE_LSS
 241:.\nmtSlave.c  ****             // LSS changes NodeId here in case lss_transfer.nodeID doesn't
 242:.\nmtSlave.c  ****             // match current getNodeId()
 243:.\nmtSlave.c  ****             if(currentNodeId!=d->lss_transfer.nodeID)
 244:.\nmtSlave.c  ****                currentNodeId = d->lss_transfer.nodeID;
 245:.\nmtSlave.c  **** #endif
 246:.\nmtSlave.c  **** 
 247:.\nmtSlave.c  ****             // clear old NodeId to make SetNodeId reinitializing
ARM GAS  C:\Users\PANXIA~1\AppData\Local\Temp\ccBOlqFn.s 			page 8


 248:.\nmtSlave.c  ****             // SDO, EMCY and other COB Ids
 249:.\nmtSlave.c  ****             *d->bDeviceNodeId = 0xFF;
 153              		.loc 1 249 0
 154 0092 2368     		ldr	r3, [r4]
 155 0094 FF22     		movs	r2, #255
 156 0096 1A70     		strb	r2, [r3]
 250:.\nmtSlave.c  **** 
 251:.\nmtSlave.c  ****             setNodeId(d, currentNodeId);
 157              		.loc 1 251 0
 158 0098 2046     		mov	r0, r4
 159 009a 2946     		mov	r1, r5
 160 009c FFF7FEFF 		bl	setNodeId
 161              	.LVL18:
 162              	.LBE2:
 252:.\nmtSlave.c  ****          }
 253:.\nmtSlave.c  ****          setState(d,Initialisation);
 163              		.loc 1 253 0
 164 00a0 2046     		mov	r0, r4
 165 00a2 0021     		movs	r1, #0
 166 00a4 FFF7FEFF 		bl	setState
 167              	.LVL19:
 168              	.L1:
 169 00a8 38BD     		pop	{r3, r4, r5, pc}
 170              		.cfi_endproc
 171              	.LFE0:
 172              		.size	proceedNMTstateChange, .-proceedNMTstateChange
 173 00aa 00BF     		.section	.text.slaveSendBootUp,"ax",%progbits
 174              		.align	2
 175              		.global	slaveSendBootUp
 176              		.thumb
 177              		.thumb_func
 178              		.type	slaveSendBootUp, %function
 179              	slaveSendBootUp:
 180              	.LFB1:
 254:.\nmtSlave.c  ****          break;
 255:.\nmtSlave.c  **** 
 256:.\nmtSlave.c  ****       }/* end switch */
 257:.\nmtSlave.c  **** 
 258:.\nmtSlave.c  ****     }/* end if( ( (*m).data[1] == 0 ) || ( (*m).data[1] ==
 259:.\nmtSlave.c  ****         bDeviceNodeId ) ) */
 260:.\nmtSlave.c  ****   }
 261:.\nmtSlave.c  **** }
 262:.\nmtSlave.c  **** 
 263:.\nmtSlave.c  **** 
 264:.\nmtSlave.c  **** /*!
 265:.\nmtSlave.c  **** **
 266:.\nmtSlave.c  **** **
 267:.\nmtSlave.c  **** ** @param d
 268:.\nmtSlave.c  **** **
 269:.\nmtSlave.c  **** ** @return
 270:.\nmtSlave.c  **** **/
 271:.\nmtSlave.c  **** UNS8 slaveSendBootUp(CO_Data* d)
 272:.\nmtSlave.c  **** {
 181              		.loc 1 272 0
 182              		.cfi_startproc
 183              		@ args = 0, pretend = 0, frame = 16
 184              		@ frame_needed = 0, uses_anonymous_args = 0
ARM GAS  C:\Users\PANXIA~1\AppData\Local\Temp\ccBOlqFn.s 			page 9


 185              	.LVL20:
 186 0000 00B5     		push	{lr}
 187              		.cfi_def_cfa_offset 4
 188              		.cfi_offset 14, -4
 189 0002 85B0     		sub	sp, sp, #20
 190              		.cfi_def_cfa_offset 24
 191              	.LBB3:
 273:.\nmtSlave.c  ****   Message m;
 274:.\nmtSlave.c  **** 
 275:.\nmtSlave.c  **** #ifdef CO_ENABLE_LSS
 276:.\nmtSlave.c  ****   if(*d->bDeviceNodeId==0xFF)return 0;
 277:.\nmtSlave.c  **** #endif
 278:.\nmtSlave.c  **** 
 279:.\nmtSlave.c  ****   MSG_WAR(0x3407, "Send a Boot-Up msg ", 0);
 280:.\nmtSlave.c  **** 
 281:.\nmtSlave.c  ****   /* message configuration */
 282:.\nmtSlave.c  ****   {
 283:.\nmtSlave.c  ****       UNS16 tmp = NODE_GUARD << 7 | *d->bDeviceNodeId;
 192              		.loc 1 283 0
 193 0004 0368     		ldr	r3, [r0]
 194 0006 1B78     		ldrb	r3, [r3]	@ zero_extendqisi2
 195 0008 43F4E063 		orr	r3, r3, #1792
 196              	.LVL21:
 284:.\nmtSlave.c  ****       m.cob_id = UNS16_LE(tmp);
 197              		.loc 1 284 0
 198 000c ADF80430 		strh	r3, [sp, #4]	@ movhi
 199              	.LBE3:
 285:.\nmtSlave.c  ****   }
 286:.\nmtSlave.c  ****   m.rtr = NOT_A_REQUEST;
 200              		.loc 1 286 0
 201 0010 0023     		movs	r3, #0
 202              	.LVL22:
 203 0012 8DF80630 		strb	r3, [sp, #6]
 287:.\nmtSlave.c  ****   m.len = 1;
 204              		.loc 1 287 0
 205 0016 0122     		movs	r2, #1
 206 0018 8DF80720 		strb	r2, [sp, #7]
 288:.\nmtSlave.c  ****   m.data[0] = 0x00;
 207              		.loc 1 288 0
 208 001c 8DF80830 		strb	r3, [sp, #8]
 289:.\nmtSlave.c  **** 
 290:.\nmtSlave.c  ****   return canSend(d->canHandle,&m);
 209              		.loc 1 290 0
 210 0020 D0F85001 		ldr	r0, [r0, #336]
 211              	.LVL23:
 212 0024 01A9     		add	r1, sp, #4
 213              	.LVL24:
 214 0026 FFF7FEFF 		bl	canSend
 215              	.LVL25:
 291:.\nmtSlave.c  **** }
 216              		.loc 1 291 0
 217 002a 05B0     		add	sp, sp, #20
 218              		.cfi_def_cfa_offset 4
 219              		@ sp needed
 220 002c 5DF804FB 		ldr	pc, [sp], #4
 221              		.cfi_endproc
 222              	.LFE1:
ARM GAS  C:\Users\PANXIA~1\AppData\Local\Temp\ccBOlqFn.s 			page 10


 223              		.size	slaveSendBootUp, .-slaveSendBootUp
 224              		.text
 225              	.Letext0:
 226              		.file 2 "./can.h"
 227              		.file 3 "./applicfg.h"
 228              		.file 4 ".\\data.h"
 229              		.file 5 ".\\objdictdef.h"
 230              		.file 6 ".\\objacces.h"
 231              		.file 7 ".\\sdo.h"
 232              		.file 8 ".\\pdo.h"
 233              		.file 9 ".\\states.h"
 234              		.file 10 ".\\lifegrd.h"
 235              		.file 11 ".\\sync.h"
 236              		.file 12 ".\\emcy.h"
 237              		.file 13 ".\\canfestival.h"