ARM GAS  C:\Users\TN02\AppData\Local\Temp\cceGwFeK.s 			page 1


   1              		.syntax unified
   2              		.cpu cortex-m3
   3              		.fpu softvfp
   4              		.eabi_attribute 20, 1
   5              		.eabi_attribute 21, 1
   6              		.eabi_attribute 23, 3
   7              		.eabi_attribute 24, 1
   8              		.eabi_attribute 25, 1
   9              		.eabi_attribute 26, 1
  10              		.eabi_attribute 30, 1
  11              		.eabi_attribute 34, 1
  12              		.eabi_attribute 18, 4
  13              		.thumb
  14              		.file	"objacces.c"
  15              		.text
  16              	.Ltext0:
  17              		.cfi_sections	.debug_frame
  18              		.section	.text.accessDictionaryError,"ax",%progbits
  19              		.align	2
  20              		.global	accessDictionaryError
  21              		.thumb
  22              		.thumb_func
  23              		.type	accessDictionaryError, %function
  24              	accessDictionaryError:
  25              	.LFB0:
  26              		.file 1 ".\\objacces.c"
   1:.\objacces.c  **** /* ========================================
   2:.\objacces.c  ****  *
   3:.\objacces.c  ****  * Copyright YOUR COMPANY, THE YEAR
   4:.\objacces.c  ****  * All Rights Reserved
   5:.\objacces.c  ****  * UNPUBLISHED, LICENSED SOFTWARE.
   6:.\objacces.c  ****  *
   7:.\objacces.c  ****  * CONFIDENTIAL AND PROPRIETARY INFORMATION
   8:.\objacces.c  ****  * WHICH IS THE PROPERTY OF your company.
   9:.\objacces.c  ****  *
  10:.\objacces.c  ****  * ========================================
  11:.\objacces.c  **** */
  12:.\objacces.c  **** 
  13:.\objacces.c  **** /* [] END OF FILE */
  14:.\objacces.c  **** 
  15:.\objacces.c  **** ///*
  16:.\objacces.c  **** //  This file is part of CanFestival, a library implementing CanOpen
  17:.\objacces.c  **** //  Stack.
  18:.\objacces.c  **** 
  19:.\objacces.c  **** //  Copyright (C): Edouard TISSERANT and Francis DUPIN
  20:.\objacces.c  **** 
  21:.\objacces.c  **** //  See COPYING file for copyrights details.
  22:.\objacces.c  **** 
  23:.\objacces.c  **** //  This library is free software; you can redistribute it and/or
  24:.\objacces.c  **** //  modify it under the terms of the GNU Lesser General Public
  25:.\objacces.c  **** //  License as published by the Free Software Foundation; either
  26:.\objacces.c  **** //  version 2.1 of the License, or (at your option) any later version.
  27:.\objacces.c  **** 
  28:.\objacces.c  **** //  This library is distributed in the hope that it will be useful,
  29:.\objacces.c  **** //  but WITHOUT ANY WARRANTY; without even the implied warranty of
  30:.\objacces.c  **** //  MERCHANTABILITY or FITNESS FOR A PARTICULAR PURPOSE.  See the GNU
  31:.\objacces.c  **** //  Lesser General Public License for more details.
ARM GAS  C:\Users\TN02\AppData\Local\Temp\cceGwFeK.s 			page 2


  32:.\objacces.c  **** 
  33:.\objacces.c  **** //  You should have received a copy of the GNU Lesser General Public
  34:.\objacces.c  **** //  License along with this library; if not, write to the Free Software
  35:.\objacces.c  **** //  Foundation, Inc., 59 Temple Place, Suite 330, Boston, MA  02111-1307
  36:.\objacces.c  **** //  USA
  37:.\objacces.c  **** //*/
  38:.\objacces.c  **** ///*!
  39:.\objacces.c  **** //** @file   objacces.c
  40:.\objacces.c  **** //** @author Edouard TISSERANT and Francis DUPIN
  41:.\objacces.c  **** //** @date   Tue Jun  5 08:55:23 2007
  42:.\objacces.c  **** //**
  43:.\objacces.c  **** //** @brief
  44:.\objacces.c  **** //**
  45:.\objacces.c  **** //**
  46:.\objacces.c  **** //*/
  47:.\objacces.c  **** 
  48:.\objacces.c  **** 
  49:.\objacces.c  **** 
  50:.\objacces.c  **** 
  51:.\objacces.c  **** ///* #define DEBUG_WAR_CONSOLE_ON */
  52:.\objacces.c  **** ///* #define DEBUG_ERR_CONSOLE_ON */
  53:.\objacces.c  **** 
  54:.\objacces.c  **** 
  55:.\objacces.c  **** //#include "data.h"
  56:.\objacces.c  **** 
  57:.\objacces.c  **** ////We need the function implementation for linking
  58:.\objacces.c  **** ////Only a placeholder with a define isnt enough!
  59:.\objacces.c  **** //UNS8 accessDictionaryError(UNS16 index, UNS8 subIndex,
  60:.\objacces.c  **** //                           UNS32 sizeDataDict, UNS32 sizeDataGiven, UNS32 code)
  61:.\objacces.c  **** //{
  62:.\objacces.c  **** //#ifdef DEBUG_WAR_CONSOLE_ON
  63:.\objacces.c  **** //  MSG_WAR(0x2B09,"Dictionary index : ", index);
  64:.\objacces.c  **** //  MSG_WAR(0X2B10,"           subindex : ", subIndex);
  65:.\objacces.c  **** //  switch (code) {
  66:.\objacces.c  **** //  case  OD_NO_SUCH_OBJECT:
  67:.\objacces.c  **** //    MSG_WAR(0x2B11,"Index not found ", index);
  68:.\objacces.c  **** //    break;
  69:.\objacces.c  **** //  case OD_NO_SUCH_SUBINDEX :
  70:.\objacces.c  **** //    MSG_WAR(0x2B12,"SubIndex not found ", subIndex);
  71:.\objacces.c  **** //    break;
  72:.\objacces.c  **** //  case OD_WRITE_NOT_ALLOWED :
  73:.\objacces.c  **** //    MSG_WAR(0x2B13,"Write not allowed, data is read only ", index);
  74:.\objacces.c  **** //    break;
  75:.\objacces.c  **** //  case OD_LENGTH_DATA_INVALID :
  76:.\objacces.c  **** //    MSG_WAR(0x2B14,"Conflict size data. Should be (bytes)  : ", sizeDataDict);
  77:.\objacces.c  **** //    MSG_WAR(0x2B15,"But you have given the size  : ", sizeDataGiven);
  78:.\objacces.c  **** //    break;
  79:.\objacces.c  **** //  case OD_NOT_MAPPABLE :
  80:.\objacces.c  **** //    MSG_WAR(0x2B16,"Not mappable data in a PDO at index    : ", index);
  81:.\objacces.c  **** //    break;
  82:.\objacces.c  **** //  case OD_VALUE_TOO_LOW :
  83:.\objacces.c  **** //    MSG_WAR(0x2B17,"Value range error : value too low. SDOabort : ", code);
  84:.\objacces.c  **** //    break;
  85:.\objacces.c  **** //  case OD_VALUE_TOO_HIGH :
  86:.\objacces.c  **** //    MSG_WAR(0x2B18,"Value range error : value too high. SDOabort : ", code);
  87:.\objacces.c  **** //    break;
  88:.\objacces.c  **** //  default :
ARM GAS  C:\Users\TN02\AppData\Local\Temp\cceGwFeK.s 			page 3


  89:.\objacces.c  **** //    MSG_WAR(0x2B20, "Unknown error code : ", code);
  90:.\objacces.c  **** //  }
  91:.\objacces.c  **** //  #endif
  92:.\objacces.c  **** 
  93:.\objacces.c  **** //  return 0;
  94:.\objacces.c  **** //}
  95:.\objacces.c  **** 
  96:.\objacces.c  **** //UNS32 _getODentry( CO_Data* d,
  97:.\objacces.c  **** //                   UNS16 wIndex,
  98:.\objacces.c  **** //                   UNS8 bSubindex,
  99:.\objacces.c  **** //                   void * pDestData,
 100:.\objacces.c  **** //                   UNS32 * pExpectedSize,
 101:.\objacces.c  **** //                   UNS8 * pDataType,
 102:.\objacces.c  **** //                   UNS8 checkAccess,
 103:.\objacces.c  **** //                   UNS8 endianize)
 104:.\objacces.c  **** //{ /* DO NOT USE MSG_ERR because the macro may send a PDO -> infinite
 105:.\objacces.c  **** //    loop if it fails. */
 106:.\objacces.c  **** //  UNS32 errorCode;
 107:.\objacces.c  **** //  UNS32 szData;
 108:.\objacces.c  **** //  const indextable *ptrTable;
 109:.\objacces.c  **** //  ODCallback_t *Callback;
 110:.\objacces.c  **** 
 111:.\objacces.c  **** //  ptrTable = (*d->scanIndexOD)(wIndex, &errorCode, &Callback);
 112:.\objacces.c  **** 
 113:.\objacces.c  **** //  if (errorCode != OD_SUCCESSFUL)
 114:.\objacces.c  **** //    return errorCode;
 115:.\objacces.c  **** //  if( ptrTable->bSubCount <= bSubindex ) {
 116:.\objacces.c  **** //    /* Subindex not found */
 117:.\objacces.c  **** //    accessDictionaryError(wIndex, bSubindex, 0, 0, OD_NO_SUCH_SUBINDEX);
 118:.\objacces.c  **** //    return OD_NO_SUCH_SUBINDEX;
 119:.\objacces.c  **** //  }
 120:.\objacces.c  **** 
 121:.\objacces.c  **** //  if (checkAccess && (ptrTable->pSubindex[bSubindex].bAccessType & WO)) {
 122:.\objacces.c  **** //    MSG_WAR(0x2B30, "Access Type : ", ptrTable->pSubindex[bSubindex].bAccessType);
 123:.\objacces.c  **** //    accessDictionaryError(wIndex, bSubindex, 0, 0, OD_READ_NOT_ALLOWED);
 124:.\objacces.c  **** //    return OD_READ_NOT_ALLOWED;
 125:.\objacces.c  **** //  }
 126:.\objacces.c  **** 
 127:.\objacces.c  **** //  if (pDestData == 0) {
 128:.\objacces.c  **** //    return SDOABT_GENERAL_ERROR;
 129:.\objacces.c  **** //  }
 130:.\objacces.c  **** 
 131:.\objacces.c  **** //  if (ptrTable->pSubindex[bSubindex].size > *pExpectedSize) {
 132:.\objacces.c  **** //    /* Requested variable is too large to fit into a transfer line, inform    *
 133:.\objacces.c  **** //     * the caller about the real size of the requested variable.              */
 134:.\objacces.c  **** //    *pExpectedSize = ptrTable->pSubindex[bSubindex].size;
 135:.\objacces.c  **** //    return SDOABT_OUT_OF_MEMORY;
 136:.\objacces.c  **** //  }
 137:.\objacces.c  **** 
 138:.\objacces.c  **** //  *pDataType = ptrTable->pSubindex[bSubindex].bDataType;
 139:.\objacces.c  **** //  szData = ptrTable->pSubindex[bSubindex].size;
 140:.\objacces.c  **** 
 141:.\objacces.c  **** //#  ifdef CANOPEN_BIG_ENDIAN
 142:.\objacces.c  **** //  if(endianize && *pDataType > boolean && !(
 143:.\objacces.c  **** //         *pDataType >= visible_string &&
 144:.\objacces.c  **** //         *pDataType <= domain)) {
 145:.\objacces.c  **** //    /* data must be transmited with low byte first */
ARM GAS  C:\Users\TN02\AppData\Local\Temp\cceGwFeK.s 			page 4


 146:.\objacces.c  **** //    UNS8 i, j = 0;
 147:.\objacces.c  **** //    MSG_WAR(boolean, "data type ", *pDataType);
 148:.\objacces.c  **** //    MSG_WAR(visible_string, "data type ", *pDataType);
 149:.\objacces.c  **** //    for ( i = szData ; i > 0 ; i--) {
 150:.\objacces.c  **** //      MSG_WAR(i," ", j);
 151:.\objacces.c  **** //      ((UNS8*)pDestData)[j++] =
 152:.\objacces.c  **** //        ((UNS8*)ptrTable->pSubindex[bSubindex].pObject)[i-1];
 153:.\objacces.c  **** //    }
 154:.\objacces.c  **** //    *pExpectedSize = szData;
 155:.\objacces.c  **** //  }
 156:.\objacces.c  **** //  else /* no endianisation change */
 157:.\objacces.c  **** //#  endif
 158:.\objacces.c  **** 
 159:.\objacces.c  **** //  if(*pDataType != visible_string) {
 160:.\objacces.c  **** //      memcpy(pDestData, ptrTable->pSubindex[bSubindex].pObject,szData);
 161:.\objacces.c  **** //      *pExpectedSize = szData;
 162:.\objacces.c  **** //  }else{
 163:.\objacces.c  **** //      /* TODO : CONFORM TO DS-301 :
 164:.\objacces.c  **** //       *  - stop using NULL terminated strings
 165:.\objacces.c  **** //       *  - store string size in td_subindex
 166:.\objacces.c  **** //       * */
 167:.\objacces.c  **** //      /* Copy null terminated string to user, and return discovered size */
 168:.\objacces.c  **** //      UNS8 *ptr = (UNS8*)ptrTable->pSubindex[bSubindex].pObject;
 169:.\objacces.c  **** //      UNS8 *ptr_start = ptr;
 170:.\objacces.c  **** //      /* *pExpectedSize IS < szData . if null, use szData */
 171:.\objacces.c  **** //      UNS8 *ptr_end = ptr + (*pExpectedSize ? *pExpectedSize : szData) ;
 172:.\objacces.c  **** //      UNS8 *ptr_dest = (UNS8*)pDestData;
 173:.\objacces.c  **** //      while( *ptr && ptr < ptr_end){
 174:.\objacces.c  **** //          *(ptr_dest++) = *(ptr++);
 175:.\objacces.c  **** //      }
 176:.\objacces.c  **** 
 177:.\objacces.c  **** //    *pExpectedSize = (UNS32) (ptr - ptr_start);
 178:.\objacces.c  **** //    /* terminate string if not maximum length */
 179:.\objacces.c  **** //    if (*pExpectedSize < szData)
 180:.\objacces.c  **** //            *(ptr) = 0;
 181:.\objacces.c  **** //  }
 182:.\objacces.c  **** 
 183:.\objacces.c  **** //  return OD_SUCCESSFUL;
 184:.\objacces.c  **** //}
 185:.\objacces.c  **** 
 186:.\objacces.c  **** //UNS32 _setODentry( CO_Data* d,
 187:.\objacces.c  **** //                   UNS16 wIndex,
 188:.\objacces.c  **** //                   UNS8 bSubindex,
 189:.\objacces.c  **** //                   void * pSourceData,
 190:.\objacces.c  **** //                   UNS32 * pExpectedSize,
 191:.\objacces.c  **** //                   UNS8 checkAccess,
 192:.\objacces.c  **** //                   UNS8 endianize)
 193:.\objacces.c  **** //{
 194:.\objacces.c  **** //  UNS32 szData;
 195:.\objacces.c  **** //  UNS8 dataType;
 196:.\objacces.c  **** //  UNS32 errorCode;
 197:.\objacces.c  **** //  const indextable *ptrTable;
 198:.\objacces.c  **** //  ODCallback_t *Callback;
 199:.\objacces.c  **** 
 200:.\objacces.c  **** //  ptrTable =(*d->scanIndexOD)(wIndex, &errorCode, &Callback);
 201:.\objacces.c  **** //  if (errorCode != OD_SUCCESSFUL)
 202:.\objacces.c  **** //    return errorCode;
ARM GAS  C:\Users\TN02\AppData\Local\Temp\cceGwFeK.s 			page 5


 203:.\objacces.c  **** 
 204:.\objacces.c  **** //  if( ptrTable->bSubCount <= bSubindex ) {
 205:.\objacces.c  **** //    /* Subindex not found */
 206:.\objacces.c  **** //    accessDictionaryError(wIndex, bSubindex, 0, *pExpectedSize, OD_NO_SUCH_SUBINDEX);
 207:.\objacces.c  **** //    return OD_NO_SUCH_SUBINDEX;
 208:.\objacces.c  **** //  }
 209:.\objacces.c  **** //  if (checkAccess && (ptrTable->pSubindex[bSubindex].bAccessType == RO)) {
 210:.\objacces.c  **** //    MSG_WAR(0x2B25, "Access Type : ", ptrTable->pSubindex[bSubindex].bAccessType);
 211:.\objacces.c  **** //    accessDictionaryError(wIndex, bSubindex, 0, *pExpectedSize, OD_WRITE_NOT_ALLOWED);
 212:.\objacces.c  **** //    return OD_WRITE_NOT_ALLOWED;
 213:.\objacces.c  **** //  }
 214:.\objacces.c  **** 
 215:.\objacces.c  **** 
 216:.\objacces.c  **** //  dataType = ptrTable->pSubindex[bSubindex].bDataType;
 217:.\objacces.c  **** //  szData = ptrTable->pSubindex[bSubindex].size;
 218:.\objacces.c  **** 
 219:.\objacces.c  **** //  if( *pExpectedSize == 0 ||
 220:.\objacces.c  **** //      *pExpectedSize == szData ||
 221:.\objacces.c  **** //      /* allow to store a shorter string than entry size */
 222:.\objacces.c  **** //      (dataType == visible_string && *pExpectedSize < szData))
 223:.\objacces.c  **** //    {
 224:.\objacces.c  **** //#ifdef CANOPEN_BIG_ENDIAN
 225:.\objacces.c  **** //      /* re-endianize do not occur for bool, strings time and domains */
 226:.\objacces.c  **** //      if(endianize && dataType > boolean && !(
 227:.\objacces.c  **** //            dataType >= visible_string &&
 228:.\objacces.c  **** //            dataType <= domain))
 229:.\objacces.c  **** //        {
 230:.\objacces.c  **** //          /* we invert the data source directly. This let us do range
 231:.\objacces.c  **** //            testing without */
 232:.\objacces.c  **** //          /* additional temp variable */
 233:.\objacces.c  **** //          UNS8 i;
 234:.\objacces.c  **** //          for ( i = 0 ; i < ( ptrTable->pSubindex[bSubindex].size >> 1)  ; i++)
 235:.\objacces.c  **** //            {
 236:.\objacces.c  **** //              UNS8 tmp =((UNS8 *)pSourceData) [(ptrTable->pSubindex[bSubindex].size - 1) - i];
 237:.\objacces.c  **** //              ((UNS8 *)pSourceData) [(ptrTable->pSubindex[bSubindex].size - 1) - i] = ((UNS8 *)pS
 238:.\objacces.c  **** //              ((UNS8 *)pSourceData)[i] = tmp;
 239:.\objacces.c  **** //            }
 240:.\objacces.c  **** //        }
 241:.\objacces.c  **** //#endif
 242:.\objacces.c  **** //      errorCode = (*d->valueRangeTest)(dataType, pSourceData);
 243:.\objacces.c  **** //      if (errorCode) {
 244:.\objacces.c  **** //        accessDictionaryError(wIndex, bSubindex, szData, *pExpectedSize, errorCode);
 245:.\objacces.c  **** //        return errorCode;
 246:.\objacces.c  **** //      }
 247:.\objacces.c  **** //      memcpy(ptrTable->pSubindex[bSubindex].pObject,pSourceData, *pExpectedSize);
 248:.\objacces.c  **** //     /* TODO : CONFORM TO DS-301 :
 249:.\objacces.c  **** //      *  - stop using NULL terminated strings
 250:.\objacces.c  **** //      *  - store string size in td_subindex
 251:.\objacces.c  **** //      * */
 252:.\objacces.c  **** //      /* terminate visible_string with '\0' */
 253:.\objacces.c  **** //      if(dataType == visible_string && *pExpectedSize < szData)
 254:.\objacces.c  **** //        ((UNS8*)ptrTable->pSubindex[bSubindex].pObject)[*pExpectedSize] = 0;
 255:.\objacces.c  **** //
 256:.\objacces.c  **** //      *pExpectedSize = szData;
 257:.\objacces.c  **** 
 258:.\objacces.c  **** //      /* Callbacks */
 259:.\objacces.c  **** //      if(Callback && Callback[bSubindex]){
ARM GAS  C:\Users\TN02\AppData\Local\Temp\cceGwFeK.s 			page 6


 260:.\objacces.c  **** //        errorCode = (Callback[bSubindex])(d, ptrTable, bSubindex);
 261:.\objacces.c  **** //        if(errorCode != OD_SUCCESSFUL)
 262:.\objacces.c  **** //        {
 263:.\objacces.c  **** //            return errorCode;
 264:.\objacces.c  **** //        }
 265:.\objacces.c  **** //       }
 266:.\objacces.c  **** 
 267:.\objacces.c  **** //      /* TODO : Store dans NVRAM */
 268:.\objacces.c  **** //      if (ptrTable->pSubindex[bSubindex].bAccessType & TO_BE_SAVE){
 269:.\objacces.c  **** //        (*d->storeODSubIndex)(d, wIndex, bSubindex);
 270:.\objacces.c  **** //      }
 271:.\objacces.c  **** //      return OD_SUCCESSFUL;
 272:.\objacces.c  **** //    }else{
 273:.\objacces.c  **** //      *pExpectedSize = szData;
 274:.\objacces.c  **** //      accessDictionaryError(wIndex, bSubindex, szData, *pExpectedSize, OD_LENGTH_DATA_INVALID);
 275:.\objacces.c  **** //      return OD_LENGTH_DATA_INVALID;
 276:.\objacces.c  **** //    }
 277:.\objacces.c  **** //}
 278:.\objacces.c  **** 
 279:.\objacces.c  **** //const indextable * scanIndexOD (CO_Data* d, UNS16 wIndex, UNS32 *errorCode, ODCallback_t **Callba
 280:.\objacces.c  **** //{
 281:.\objacces.c  **** //  return (*d->scanIndexOD)(wIndex, errorCode, Callback);
 282:.\objacces.c  **** //}
 283:.\objacces.c  **** 
 284:.\objacces.c  **** //UNS32 RegisterSetODentryCallBack(CO_Data* d, UNS16 wIndex, UNS8 bSubindex, ODCallback_t Callback)
 285:.\objacces.c  **** //{
 286:.\objacces.c  **** //UNS32 errorCode;
 287:.\objacces.c  **** //ODCallback_t *CallbackList;
 288:.\objacces.c  **** //const indextable *odentry;
 289:.\objacces.c  **** 
 290:.\objacces.c  **** //  odentry = scanIndexOD (d, wIndex, &errorCode, &CallbackList);
 291:.\objacces.c  **** //  if(errorCode == OD_SUCCESSFUL  &&  CallbackList  &&  bSubindex < odentry->bSubCount)
 292:.\objacces.c  **** //    CallbackList[bSubindex] = Callback;
 293:.\objacces.c  **** //  return errorCode;
 294:.\objacces.c  **** //}
 295:.\objacces.c  **** 
 296:.\objacces.c  **** //void _storeODSubIndex (CO_Data* d, UNS16 wIndex, UNS8 bSubindex){}
 297:.\objacces.c  **** 
 298:.\objacces.c  **** /*
 299:.\objacces.c  ****   This file is part of CanFestival, a library implementing CanOpen
 300:.\objacces.c  ****   Stack.
 301:.\objacces.c  **** 
 302:.\objacces.c  ****   Copyright (C): Edouard TISSERANT and Francis DUPIN
 303:.\objacces.c  **** 
 304:.\objacces.c  ****   See COPYING file for copyrights details.
 305:.\objacces.c  **** 
 306:.\objacces.c  ****   This library is free software; you can redistribute it and/or
 307:.\objacces.c  ****   modify it under the terms of the GNU Lesser General Public
 308:.\objacces.c  ****   License as published by the Free Software Foundation; either
 309:.\objacces.c  ****   version 2.1 of the License, or (at your option) any later version.
 310:.\objacces.c  **** 
 311:.\objacces.c  ****   This library is distributed in the hope that it will be useful,
 312:.\objacces.c  ****   but WITHOUT ANY WARRANTY; without even the implied warranty of
 313:.\objacces.c  ****   MERCHANTABILITY or FITNESS FOR A PARTICULAR PURPOSE.  See the GNU
 314:.\objacces.c  ****   Lesser General Public License for more details.
 315:.\objacces.c  **** 
 316:.\objacces.c  ****   You should have received a copy of the GNU Lesser General Public
ARM GAS  C:\Users\TN02\AppData\Local\Temp\cceGwFeK.s 			page 7


 317:.\objacces.c  ****   License along with this library; if not, write to the Free Software
 318:.\objacces.c  ****   Foundation, Inc., 59 Temple Place, Suite 330, Boston, MA  02111-1307
 319:.\objacces.c  ****   USA
 320:.\objacces.c  **** */
 321:.\objacces.c  **** /*!
 322:.\objacces.c  **** ** @file   objacces.c
 323:.\objacces.c  **** ** @author Edouard TISSERANT and Francis DUPIN
 324:.\objacces.c  **** ** @date   Tue Jun  5 08:55:23 2007
 325:.\objacces.c  **** **
 326:.\objacces.c  **** ** @brief
 327:.\objacces.c  **** **
 328:.\objacces.c  **** **
 329:.\objacces.c  **** */
 330:.\objacces.c  **** 
 331:.\objacces.c  **** 
 332:.\objacces.c  **** 
 333:.\objacces.c  **** 
 334:.\objacces.c  **** /* #define DEBUG_WAR_CONSOLE_ON */
 335:.\objacces.c  **** /* #define DEBUG_ERR_CONSOLE_ON */
 336:.\objacces.c  **** 
 337:.\objacces.c  **** 
 338:.\objacces.c  **** #include "data.h"
 339:.\objacces.c  **** 
 340:.\objacces.c  **** //We need the function implementation for linking
 341:.\objacces.c  **** //Only a placeholder with a define isnt enough!
 342:.\objacces.c  **** UNS8 accessDictionaryError(UNS16 index, UNS8 subIndex,
 343:.\objacces.c  ****                            UNS32 sizeDataDict, UNS32 sizeDataGiven, UNS32 code)
 344:.\objacces.c  **** {
  27              		.loc 1 344 0
  28              		.cfi_startproc
  29              		@ args = 4, pretend = 0, frame = 0
  30              		@ frame_needed = 0, uses_anonymous_args = 0
  31              		@ link register save eliminated.
  32              	.LVL0:
 345:.\objacces.c  **** #ifdef DEBUG_WAR_CONSOLE_ON
 346:.\objacces.c  ****   MSG_WAR(0x2B09,"Dictionary index : ", index);
 347:.\objacces.c  ****   MSG_WAR(0X2B10,"           subindex : ", subIndex);
 348:.\objacces.c  ****   switch (code) {
 349:.\objacces.c  ****   case  OD_NO_SUCH_OBJECT:
 350:.\objacces.c  ****     MSG_WAR(0x2B11,"Index not found ", index);
 351:.\objacces.c  ****     break;
 352:.\objacces.c  ****   case OD_NO_SUCH_SUBINDEX :
 353:.\objacces.c  ****     MSG_WAR(0x2B12,"SubIndex not found ", subIndex);
 354:.\objacces.c  ****     break;
 355:.\objacces.c  ****   case OD_WRITE_NOT_ALLOWED :
 356:.\objacces.c  ****     MSG_WAR(0x2B13,"Write not allowed, data is read only ", index);
 357:.\objacces.c  ****     break;
 358:.\objacces.c  ****   case OD_LENGTH_DATA_INVALID :
 359:.\objacces.c  ****     MSG_WAR(0x2B14,"Conflict size data. Should be (bytes)  : ", sizeDataDict);
 360:.\objacces.c  ****     MSG_WAR(0x2B15,"But you have given the size  : ", sizeDataGiven);
 361:.\objacces.c  ****     break;
 362:.\objacces.c  ****   case OD_NOT_MAPPABLE :
 363:.\objacces.c  ****     MSG_WAR(0x2B16,"Not mappable data in a PDO at index    : ", index);
 364:.\objacces.c  ****     break;
 365:.\objacces.c  ****   case OD_VALUE_TOO_LOW :
 366:.\objacces.c  ****     MSG_WAR(0x2B17,"Value range error : value too low. SDOabort : ", code);
 367:.\objacces.c  ****     break;
ARM GAS  C:\Users\TN02\AppData\Local\Temp\cceGwFeK.s 			page 8


 368:.\objacces.c  ****   case OD_VALUE_TOO_HIGH :
 369:.\objacces.c  ****     MSG_WAR(0x2B18,"Value range error : value too high. SDOabort : ", code);
 370:.\objacces.c  ****     break;
 371:.\objacces.c  ****   default :
 372:.\objacces.c  ****     MSG_WAR(0x2B20, "Unknown error code : ", code);
 373:.\objacces.c  ****   }
 374:.\objacces.c  ****   #endif
 375:.\objacces.c  **** 
 376:.\objacces.c  ****   return 0;
 377:.\objacces.c  **** }
  33              		.loc 1 377 0
  34 0000 0020     		movs	r0, #0
  35              	.LVL1:
  36 0002 7047     		bx	lr
  37              		.cfi_endproc
  38              	.LFE0:
  39              		.size	accessDictionaryError, .-accessDictionaryError
  40              		.section	.text._getODentry,"ax",%progbits
  41              		.align	2
  42              		.global	_getODentry
  43              		.thumb
  44              		.thumb_func
  45              		.type	_getODentry, %function
  46              	_getODentry:
  47              	.LFB1:
 378:.\objacces.c  **** 
 379:.\objacces.c  **** UNS32 _getODentry( CO_Data* d,
 380:.\objacces.c  ****                    UNS16 wIndex,
 381:.\objacces.c  ****                    UNS8 bSubindex,
 382:.\objacces.c  ****                    void * pDestData,
 383:.\objacces.c  ****                    UNS32 * pExpectedSize,
 384:.\objacces.c  ****                    UNS8 * pDataType,
 385:.\objacces.c  ****                    UNS8 checkAccess,
 386:.\objacces.c  ****                    UNS8 endianize)
 387:.\objacces.c  **** { /* DO NOT USE MSG_ERR because the macro may send a PDO -> infinite
  48              		.loc 1 387 0
  49              		.cfi_startproc
  50              		@ args = 16, pretend = 0, frame = 8
  51              		@ frame_needed = 0, uses_anonymous_args = 0
  52              	.LVL2:
  53 0000 F0B5     		push	{r4, r5, r6, r7, lr}
  54              		.cfi_def_cfa_offset 20
  55              		.cfi_offset 4, -20
  56              		.cfi_offset 5, -16
  57              		.cfi_offset 6, -12
  58              		.cfi_offset 7, -8
  59              		.cfi_offset 14, -4
  60 0002 83B0     		sub	sp, sp, #12
  61              		.cfi_def_cfa_offset 32
  62 0004 1546     		mov	r5, r2
  63 0006 1E46     		mov	r6, r3
 388:.\objacces.c  ****     loop if it fails. */
 389:.\objacces.c  ****   UNS32 errorCode;
 390:.\objacces.c  ****   UNS32 szData;
 391:.\objacces.c  ****   const indextable *ptrTable;
 392:.\objacces.c  ****   ODCallback_t *Callback;
 393:.\objacces.c  **** 
ARM GAS  C:\Users\TN02\AppData\Local\Temp\cceGwFeK.s 			page 9


 394:.\objacces.c  ****   ptrTable = (*d->scanIndexOD)(wIndex, &errorCode, &Callback);
  64              		.loc 1 394 0
  65 0008 D0F85431 		ldr	r3, [r0, #340]
  66              	.LVL3:
  67 000c 0846     		mov	r0, r1
  68              	.LVL4:
  69 000e 01A9     		add	r1, sp, #4
  70              	.LVL5:
  71 0010 6A46     		mov	r2, sp
  72              	.LVL6:
  73 0012 9847     		blx	r3
  74              	.LVL7:
 395:.\objacces.c  **** 
 396:.\objacces.c  ****   if (errorCode != OD_SUCCESSFUL)
  75              		.loc 1 396 0
  76 0014 019C     		ldr	r4, [sp, #4]
  77 0016 002C     		cmp	r4, #0
  78 0018 4AD1     		bne	.L3
 397:.\objacces.c  ****     return errorCode;
 398:.\objacces.c  ****   if( ptrTable->bSubCount <= bSubindex ) {
  79              		.loc 1 398 0
  80 001a 0379     		ldrb	r3, [r0, #4]	@ zero_extendqisi2
  81 001c AB42     		cmp	r3, r5
  82 001e 41D9     		bls	.L11
 399:.\objacces.c  ****     /* Subindex not found */
 400:.\objacces.c  ****     accessDictionaryError(wIndex, bSubindex, 0, 0, OD_NO_SUCH_SUBINDEX);
 401:.\objacces.c  ****     return OD_NO_SUCH_SUBINDEX;
 402:.\objacces.c  ****   }
 403:.\objacces.c  **** 
 404:.\objacces.c  ****   if (checkAccess && (ptrTable->pSubindex[bSubindex].bAccessType & WO)) {
  83              		.loc 1 404 0
  84 0020 9DF82830 		ldrb	r3, [sp, #40]	@ zero_extendqisi2
  85 0024 3BB1     		cbz	r3, .L4
  86              		.loc 1 404 0 is_stmt 0 discriminator 1
  87 0026 0268     		ldr	r2, [r0]
  88 0028 05EB4503 		add	r3, r5, r5, lsl #1
  89 002c 9B00     		lsls	r3, r3, #2
  90 002e D35C     		ldrb	r3, [r2, r3]	@ zero_extendqisi2
  91 0030 13F0010F 		tst	r3, #1
  92 0034 38D1     		bne	.L12
  93              	.L4:
 405:.\objacces.c  ****     MSG_WAR(0x2B30, "Access Type : ", ptrTable->pSubindex[bSubindex].bAccessType);
 406:.\objacces.c  ****     accessDictionaryError(wIndex, bSubindex, 0, 0, OD_READ_NOT_ALLOWED);
 407:.\objacces.c  ****     return OD_READ_NOT_ALLOWED;
 408:.\objacces.c  ****   }
 409:.\objacces.c  **** 
 410:.\objacces.c  ****   if (pDestData == 0) {
  94              		.loc 1 410 0 is_stmt 1
  95 0036 002E     		cmp	r6, #0
  96 0038 38D0     		beq	.L13
 411:.\objacces.c  ****     return SDOABT_GENERAL_ERROR;
 412:.\objacces.c  ****   }
 413:.\objacces.c  **** 
 414:.\objacces.c  ****   if (ptrTable->pSubindex[bSubindex].size > *pExpectedSize) {
  97              		.loc 1 414 0
  98 003a 0368     		ldr	r3, [r0]
  99 003c 05EB4505 		add	r5, r5, r5, lsl #1
ARM GAS  C:\Users\TN02\AppData\Local\Temp\cceGwFeK.s 			page 10


 100 0040 AD00     		lsls	r5, r5, #2
 101 0042 2B44     		add	r3, r3, r5
 102 0044 5A68     		ldr	r2, [r3, #4]
 103 0046 0899     		ldr	r1, [sp, #32]
 104 0048 0968     		ldr	r1, [r1]
 105 004a 8A42     		cmp	r2, r1
 106 004c 03D9     		bls	.L5
 415:.\objacces.c  ****     /* Requested variable is too large to fit into a transfer line, inform    *
 416:.\objacces.c  ****      * the caller about the real size of the requested variable.              */
 417:.\objacces.c  ****     *pExpectedSize = ptrTable->pSubindex[bSubindex].size;
 107              		.loc 1 417 0
 108 004e 089B     		ldr	r3, [sp, #32]
 109 0050 1A60     		str	r2, [r3]
 418:.\objacces.c  ****     return SDOABT_OUT_OF_MEMORY;
 110              		.loc 1 418 0
 111 0052 194C     		ldr	r4, .L16
 112 0054 2CE0     		b	.L3
 113              	.L5:
 419:.\objacces.c  ****   }
 420:.\objacces.c  **** 
 421:.\objacces.c  ****   *pDataType = ptrTable->pSubindex[bSubindex].bDataType;
 114              		.loc 1 421 0
 115 0056 5B78     		ldrb	r3, [r3, #1]	@ zero_extendqisi2
 116 0058 099A     		ldr	r2, [sp, #36]
 117 005a 1370     		strb	r3, [r2]
 422:.\objacces.c  ****   szData = ptrTable->pSubindex[bSubindex].size;
 118              		.loc 1 422 0
 119 005c 0268     		ldr	r2, [r0]
 120 005e 1544     		add	r5, r5, r2
 121 0060 6F68     		ldr	r7, [r5, #4]
 122              	.LVL8:
 423:.\objacces.c  **** 
 424:.\objacces.c  **** #  ifdef CANOPEN_BIG_ENDIAN
 425:.\objacces.c  ****   if(endianize && *pDataType > boolean && !(
 426:.\objacces.c  ****          *pDataType >= visible_string &&
 427:.\objacces.c  ****          *pDataType <= domain)) {
 428:.\objacces.c  ****     /* data must be transmited with low byte first */
 429:.\objacces.c  ****     UNS8 i, j = 0;
 430:.\objacces.c  ****     MSG_WAR(boolean, "data type ", *pDataType);
 431:.\objacces.c  ****     MSG_WAR(visible_string, "data type ", *pDataType);
 432:.\objacces.c  ****     for ( i = szData ; i > 0 ; i--) {
 433:.\objacces.c  ****       MSG_WAR(i," ", j);
 434:.\objacces.c  ****       ((UNS8*)pDestData)[j++] =
 435:.\objacces.c  ****         ((UNS8*)ptrTable->pSubindex[bSubindex].pObject)[i-1];
 436:.\objacces.c  ****     }
 437:.\objacces.c  ****     *pExpectedSize = szData;
 438:.\objacces.c  ****   }
 439:.\objacces.c  ****   else /* no endianisation change */
 440:.\objacces.c  **** #  endif
 441:.\objacces.c  **** 
 442:.\objacces.c  ****   if(*pDataType != visible_string) {
 123              		.loc 1 442 0
 124 0062 092B     		cmp	r3, #9
 125 0064 07D0     		beq	.L6
 443:.\objacces.c  ****       memcpy(pDestData, ptrTable->pSubindex[bSubindex].pObject,szData);
 126              		.loc 1 443 0
 127 0066 3046     		mov	r0, r6
ARM GAS  C:\Users\TN02\AppData\Local\Temp\cceGwFeK.s 			page 11


 128              	.LVL9:
 129 0068 A968     		ldr	r1, [r5, #8]
 130 006a 3A46     		mov	r2, r7
 131 006c FFF7FEFF 		bl	memcpy
 132              	.LVL10:
 444:.\objacces.c  ****       *pExpectedSize = szData;
 133              		.loc 1 444 0
 134 0070 089B     		ldr	r3, [sp, #32]
 135 0072 1F60     		str	r7, [r3]
 136 0074 1CE0     		b	.L3
 137              	.LVL11:
 138              	.L6:
 139              	.LBB2:
 445:.\objacces.c  ****   }else{
 446:.\objacces.c  ****       /* TODO : CONFORM TO DS-301 :
 447:.\objacces.c  ****        *  - stop using NULL terminated strings
 448:.\objacces.c  ****        *  - store string size in td_subindex
 449:.\objacces.c  ****        * */
 450:.\objacces.c  ****       /* Copy null terminated string to user, and return discovered size */
 451:.\objacces.c  ****       UNS8 *ptr = (UNS8*)ptrTable->pSubindex[bSubindex].pObject;
 140              		.loc 1 451 0
 141 0076 A868     		ldr	r0, [r5, #8]
 142              	.LVL12:
 452:.\objacces.c  ****       UNS8 *ptr_start = ptr;
 453:.\objacces.c  ****       /* *pExpectedSize IS < szData . if null, use szData */
 454:.\objacces.c  ****       UNS8 *ptr_end = ptr + (*pExpectedSize ? *pExpectedSize : szData) ;
 143              		.loc 1 454 0
 144 0078 089B     		ldr	r3, [sp, #32]
 145 007a 1968     		ldr	r1, [r3]
 146 007c 01B9     		cbnz	r1, .L7
 147 007e 3946     		mov	r1, r7
 148              	.L7:
 149              		.loc 1 454 0 is_stmt 0 discriminator 4
 150 0080 0144     		add	r1, r1, r0
 151              	.LVL13:
 451:.\objacces.c  ****       UNS8 *ptr_start = ptr;
 152              		.loc 1 451 0 is_stmt 1 discriminator 4
 153 0082 0346     		mov	r3, r0
 455:.\objacces.c  ****       UNS8 *ptr_dest = (UNS8*)pDestData;
 456:.\objacces.c  ****       while( *ptr && ptr < ptr_end){
 154              		.loc 1 456 0 discriminator 4
 155 0084 02E0     		b	.L8
 156              	.LVL14:
 157              	.L10:
 457:.\objacces.c  ****           *(ptr_dest++) = *(ptr++);
 158              		.loc 1 457 0
 159 0086 0133     		adds	r3, r3, #1
 160              	.LVL15:
 161 0088 3270     		strb	r2, [r6]
 162 008a 0136     		adds	r6, r6, #1
 163              	.LVL16:
 164              	.L8:
 456:.\objacces.c  ****           *(ptr_dest++) = *(ptr++);
 165              		.loc 1 456 0
 166 008c 1A78     		ldrb	r2, [r3]	@ zero_extendqisi2
 167 008e 0AB1     		cbz	r2, .L9
 456:.\objacces.c  ****           *(ptr_dest++) = *(ptr++);
ARM GAS  C:\Users\TN02\AppData\Local\Temp\cceGwFeK.s 			page 12


 168              		.loc 1 456 0 is_stmt 0 discriminator 1
 169 0090 8B42     		cmp	r3, r1
 170 0092 F8D3     		bcc	.L10
 171              	.L9:
 458:.\objacces.c  ****       }
 459:.\objacces.c  **** 
 460:.\objacces.c  ****     *pExpectedSize = (UNS32) (ptr - ptr_start);
 172              		.loc 1 460 0 is_stmt 1
 173 0094 181A     		subs	r0, r3, r0
 174              	.LVL17:
 175 0096 089A     		ldr	r2, [sp, #32]
 176 0098 1060     		str	r0, [r2]
 461:.\objacces.c  ****     /* terminate string if not maximum length */
 462:.\objacces.c  ****     if (*pExpectedSize < szData)
 177              		.loc 1 462 0
 178 009a 8742     		cmp	r7, r0
 179 009c 08D9     		bls	.L3
 463:.\objacces.c  ****             *(ptr) = 0;
 180              		.loc 1 463 0
 181 009e 0022     		movs	r2, #0
 182 00a0 1A70     		strb	r2, [r3]
 183 00a2 05E0     		b	.L3
 184              	.LVL18:
 185              	.L11:
 186              	.LBE2:
 401:.\objacces.c  ****   }
 187              		.loc 1 401 0
 188 00a4 054C     		ldr	r4, .L16+4
 189 00a6 03E0     		b	.L3
 190              	.L12:
 407:.\objacces.c  ****   }
 191              		.loc 1 407 0
 192 00a8 054C     		ldr	r4, .L16+8
 193 00aa 01E0     		b	.L3
 194              	.L13:
 411:.\objacces.c  ****   }
 195              		.loc 1 411 0
 196 00ac 4FF00064 		mov	r4, #134217728
 197              	.LVL19:
 198              	.L3:
 464:.\objacces.c  ****   }
 465:.\objacces.c  **** 
 466:.\objacces.c  ****   return OD_SUCCESSFUL;
 467:.\objacces.c  **** }
 199              		.loc 1 467 0
 200 00b0 2046     		mov	r0, r4
 201 00b2 03B0     		add	sp, sp, #12
 202              		.cfi_def_cfa_offset 20
 203              		@ sp needed
 204 00b4 F0BD     		pop	{r4, r5, r6, r7, pc}
 205              	.LVL20:
 206              	.L17:
 207 00b6 00BF     		.align	2
 208              	.L16:
 209 00b8 05000405 		.word	84148229
 210 00bc 11000906 		.word	101253137
 211 00c0 01000106 		.word	100728833
ARM GAS  C:\Users\TN02\AppData\Local\Temp\cceGwFeK.s 			page 13


 212              		.cfi_endproc
 213              	.LFE1:
 214              		.size	_getODentry, .-_getODentry
 215              		.section	.text._setODentry,"ax",%progbits
 216              		.align	2
 217              		.global	_setODentry
 218              		.thumb
 219              		.thumb_func
 220              		.type	_setODentry, %function
 221              	_setODentry:
 222              	.LFB2:
 468:.\objacces.c  **** 
 469:.\objacces.c  **** UNS32 _setODentry( CO_Data* d,
 470:.\objacces.c  ****                    UNS16 wIndex,
 471:.\objacces.c  ****                    UNS8 bSubindex,
 472:.\objacces.c  ****                    void * pSourceData,
 473:.\objacces.c  ****                    UNS32 * pExpectedSize,
 474:.\objacces.c  ****                    UNS8 checkAccess,
 475:.\objacces.c  ****                    UNS8 endianize)
 476:.\objacces.c  **** {
 223              		.loc 1 476 0
 224              		.cfi_startproc
 225              		@ args = 12, pretend = 0, frame = 16
 226              		@ frame_needed = 0, uses_anonymous_args = 0
 227              	.LVL21:
 228 0000 2DE9F04F 		push	{r4, r5, r6, r7, r8, r9, r10, fp, lr}
 229              		.cfi_def_cfa_offset 36
 230              		.cfi_offset 4, -36
 231              		.cfi_offset 5, -32
 232              		.cfi_offset 6, -28
 233              		.cfi_offset 7, -24
 234              		.cfi_offset 8, -20
 235              		.cfi_offset 9, -16
 236              		.cfi_offset 10, -12
 237              		.cfi_offset 11, -8
 238              		.cfi_offset 14, -4
 239 0004 85B0     		sub	sp, sp, #20
 240              		.cfi_def_cfa_offset 56
 241 0006 0646     		mov	r6, r0
 242 0008 0F46     		mov	r7, r1
 243 000a 1546     		mov	r5, r2
 244 000c 0193     		str	r3, [sp, #4]
 477:.\objacces.c  ****   UNS32 szData;
 478:.\objacces.c  ****   UNS8 dataType;
 479:.\objacces.c  ****   UNS32 errorCode;
 480:.\objacces.c  ****   const indextable *ptrTable;
 481:.\objacces.c  ****   ODCallback_t *Callback;
 482:.\objacces.c  **** 
 483:.\objacces.c  ****   ptrTable =(*d->scanIndexOD)(wIndex, &errorCode, &Callback);
 245              		.loc 1 483 0
 246 000e D0F85431 		ldr	r3, [r0, #340]
 247              	.LVL22:
 248 0012 0846     		mov	r0, r1
 249              	.LVL23:
 250 0014 03A9     		add	r1, sp, #12
 251              	.LVL24:
 252 0016 02AA     		add	r2, sp, #8
ARM GAS  C:\Users\TN02\AppData\Local\Temp\cceGwFeK.s 			page 14


 253              	.LVL25:
 254 0018 9847     		blx	r3
 255              	.LVL26:
 484:.\objacces.c  ****   if (errorCode != OD_SUCCESSFUL)
 256              		.loc 1 484 0
 257 001a 039C     		ldr	r4, [sp, #12]
 258 001c 002C     		cmp	r4, #0
 259 001e 66D1     		bne	.L19
 260 0020 8046     		mov	r8, r0
 261              	.LVL27:
 485:.\objacces.c  ****     return errorCode;
 486:.\objacces.c  **** 
 487:.\objacces.c  ****   if( ptrTable->bSubCount <= bSubindex ) {
 262              		.loc 1 487 0
 263 0022 0379     		ldrb	r3, [r0, #4]	@ zero_extendqisi2
 264 0024 AB42     		cmp	r3, r5
 265 0026 5DD9     		bls	.L25
 488:.\objacces.c  ****     /* Subindex not found */
 489:.\objacces.c  ****     accessDictionaryError(wIndex, bSubindex, 0, *pExpectedSize, OD_NO_SUCH_SUBINDEX);
 490:.\objacces.c  ****     return OD_NO_SUCH_SUBINDEX;
 491:.\objacces.c  ****   }
 492:.\objacces.c  ****   if (checkAccess && (ptrTable->pSubindex[bSubindex].bAccessType == RO)) {
 266              		.loc 1 492 0
 267 0028 9DF83C30 		ldrb	r3, [sp, #60]	@ zero_extendqisi2
 268 002c 33B1     		cbz	r3, .L20
 269              		.loc 1 492 0 is_stmt 0 discriminator 1
 270 002e 0268     		ldr	r2, [r0]
 271 0030 05EB4503 		add	r3, r5, r5, lsl #1
 272 0034 9B00     		lsls	r3, r3, #2
 273 0036 D35C     		ldrb	r3, [r2, r3]	@ zero_extendqisi2
 274 0038 022B     		cmp	r3, #2
 275 003a 55D0     		beq	.L26
 276              	.L20:
 493:.\objacces.c  ****     MSG_WAR(0x2B25, "Access Type : ", ptrTable->pSubindex[bSubindex].bAccessType);
 494:.\objacces.c  ****     accessDictionaryError(wIndex, bSubindex, 0, *pExpectedSize, OD_WRITE_NOT_ALLOWED);
 495:.\objacces.c  ****     return OD_WRITE_NOT_ALLOWED;
 496:.\objacces.c  ****   }
 497:.\objacces.c  **** 
 498:.\objacces.c  **** 
 499:.\objacces.c  ****   dataType = ptrTable->pSubindex[bSubindex].bDataType;
 277              		.loc 1 499 0 is_stmt 1
 278 003c D8F80030 		ldr	r3, [r8]
 279 0040 05EB4509 		add	r9, r5, r5, lsl #1
 280 0044 4FEA8909 		lsl	r9, r9, #2
 281 0048 4B44     		add	r3, r3, r9
 282 004a 93F801B0 		ldrb	fp, [r3, #1]	@ zero_extendqisi2
 283              	.LVL28:
 500:.\objacces.c  ****   szData = ptrTable->pSubindex[bSubindex].size;
 284              		.loc 1 500 0
 285 004e D3F804A0 		ldr	r10, [r3, #4]
 286              	.LVL29:
 501:.\objacces.c  **** 
 502:.\objacces.c  ****   if( *pExpectedSize == 0 ||
 287              		.loc 1 502 0
 288 0052 0E9B     		ldr	r3, [sp, #56]
 289 0054 1B68     		ldr	r3, [r3]
 290 0056 33B1     		cbz	r3, .L21
ARM GAS  C:\Users\TN02\AppData\Local\Temp\cceGwFeK.s 			page 15


 291              		.loc 1 502 0 is_stmt 0 discriminator 1
 292 0058 9A45     		cmp	r10, r3
 293 005a 04D0     		beq	.L21
 503:.\objacces.c  ****       *pExpectedSize == szData ||
 294              		.loc 1 503 0 is_stmt 1
 295 005c BBF1090F 		cmp	fp, #9
 296 0060 3BD1     		bne	.L22
 504:.\objacces.c  ****       /* allow to store a shorter string than entry size */
 505:.\objacces.c  ****       (dataType == visible_string && *pExpectedSize < szData))
 297              		.loc 1 505 0
 298 0062 9A45     		cmp	r10, r3
 299 0064 39D9     		bls	.L22
 300              	.L21:
 506:.\objacces.c  ****     {
 507:.\objacces.c  **** #ifdef CANOPEN_BIG_ENDIAN
 508:.\objacces.c  ****       /* re-endianize do not occur for bool, strings time and domains */
 509:.\objacces.c  ****       if(endianize && dataType > boolean && !(
 510:.\objacces.c  ****             dataType >= visible_string &&
 511:.\objacces.c  ****             dataType <= domain))
 512:.\objacces.c  ****         {
 513:.\objacces.c  ****           /* we invert the data source directly. This let us do range
 514:.\objacces.c  ****             testing without */
 515:.\objacces.c  ****           /* additional temp variable */
 516:.\objacces.c  ****           UNS8 i;
 517:.\objacces.c  ****           for ( i = 0 ; i < ( ptrTable->pSubindex[bSubindex].size >> 1)  ; i++)
 518:.\objacces.c  ****             {
 519:.\objacces.c  ****               UNS8 tmp =((UNS8 *)pSourceData) [(ptrTable->pSubindex[bSubindex].size - 1) - i];
 520:.\objacces.c  ****               ((UNS8 *)pSourceData) [(ptrTable->pSubindex[bSubindex].size - 1) - i] = ((UNS8 *)pSou
 521:.\objacces.c  ****               ((UNS8 *)pSourceData)[i] = tmp;
 522:.\objacces.c  ****             }
 523:.\objacces.c  ****         }
 524:.\objacces.c  **** #endif
 525:.\objacces.c  ****       errorCode = (*d->valueRangeTest)(dataType, pSourceData);
 301              		.loc 1 525 0
 302 0066 736A     		ldr	r3, [r6, #36]
 303 0068 5846     		mov	r0, fp
 304 006a 0199     		ldr	r1, [sp, #4]
 305 006c 9847     		blx	r3
 306              	.LVL30:
 307 006e 0446     		mov	r4, r0
 308 0070 0390     		str	r0, [sp, #12]
 526:.\objacces.c  ****       if (errorCode) {
 309              		.loc 1 526 0
 310 0072 0028     		cmp	r0, #0
 311 0074 3BD1     		bne	.L19
 527:.\objacces.c  ****         accessDictionaryError(wIndex, bSubindex, szData, *pExpectedSize, errorCode);
 528:.\objacces.c  ****         return errorCode;
 529:.\objacces.c  ****       }
 530:.\objacces.c  ****       memcpy(ptrTable->pSubindex[bSubindex].pObject,pSourceData, *pExpectedSize);
 312              		.loc 1 530 0
 313 0076 D8F80030 		ldr	r3, [r8]
 314 007a 4B44     		add	r3, r3, r9
 315 007c 9868     		ldr	r0, [r3, #8]
 316 007e 0199     		ldr	r1, [sp, #4]
 317 0080 0E9B     		ldr	r3, [sp, #56]
 318 0082 1A68     		ldr	r2, [r3]
 319 0084 FFF7FEFF 		bl	memcpy
ARM GAS  C:\Users\TN02\AppData\Local\Temp\cceGwFeK.s 			page 16


 320              	.LVL31:
 531:.\objacces.c  ****      /* TODO : CONFORM TO DS-301 :
 532:.\objacces.c  ****       *  - stop using NULL terminated strings
 533:.\objacces.c  ****       *  - store string size in td_subindex
 534:.\objacces.c  ****       * */
 535:.\objacces.c  ****       /* terminate visible_string with '\0' */
 536:.\objacces.c  ****       if(dataType == visible_string && *pExpectedSize < szData)
 321              		.loc 1 536 0
 322 0088 BBF1090F 		cmp	fp, #9
 323 008c 09D1     		bne	.L23
 324              		.loc 1 536 0 is_stmt 0 discriminator 1
 325 008e 0E9B     		ldr	r3, [sp, #56]
 326 0090 1B68     		ldr	r3, [r3]
 327 0092 5345     		cmp	r3, r10
 328 0094 05D2     		bcs	.L23
 537:.\objacces.c  ****         ((UNS8*)ptrTable->pSubindex[bSubindex].pObject)[*pExpectedSize] = 0;
 329              		.loc 1 537 0 is_stmt 1
 330 0096 D8F80020 		ldr	r2, [r8]
 331 009a 4A44     		add	r2, r2, r9
 332 009c 9268     		ldr	r2, [r2, #8]
 333 009e 0021     		movs	r1, #0
 334 00a0 D154     		strb	r1, [r2, r3]
 335              	.L23:
 538:.\objacces.c  **** 
 539:.\objacces.c  ****       *pExpectedSize = szData;
 336              		.loc 1 539 0
 337 00a2 0E9B     		ldr	r3, [sp, #56]
 338 00a4 C3F800A0 		str	r10, [r3]
 540:.\objacces.c  **** 
 541:.\objacces.c  ****       /* Callbacks */
 542:.\objacces.c  ****       if(Callback && Callback[bSubindex]){
 339              		.loc 1 542 0
 340 00a8 029B     		ldr	r3, [sp, #8]
 341 00aa 43B1     		cbz	r3, .L24
 342              		.loc 1 542 0 is_stmt 0 discriminator 1
 343 00ac 53F82530 		ldr	r3, [r3, r5, lsl #2]
 344 00b0 2BB1     		cbz	r3, .L24
 543:.\objacces.c  ****         errorCode = (Callback[bSubindex])(d, ptrTable, bSubindex);
 345              		.loc 1 543 0 is_stmt 1
 346 00b2 3046     		mov	r0, r6
 347 00b4 4146     		mov	r1, r8
 348 00b6 2A46     		mov	r2, r5
 349 00b8 9847     		blx	r3
 350              	.LVL32:
 351 00ba 0390     		str	r0, [sp, #12]
 544:.\objacces.c  ****         if(errorCode != OD_SUCCESSFUL)
 352              		.loc 1 544 0
 353 00bc B0B9     		cbnz	r0, .L27
 354              	.L24:
 545:.\objacces.c  ****         {
 546:.\objacces.c  ****             return errorCode;
 547:.\objacces.c  ****         }
 548:.\objacces.c  ****        }
 549:.\objacces.c  **** 
 550:.\objacces.c  ****       /* TODO : Store dans NVRAM */
 551:.\objacces.c  ****       if (ptrTable->pSubindex[bSubindex].bAccessType & TO_BE_SAVE){
 355              		.loc 1 551 0
ARM GAS  C:\Users\TN02\AppData\Local\Temp\cceGwFeK.s 			page 17


 356 00be D8F80030 		ldr	r3, [r8]
 357 00c2 13F80930 		ldrb	r3, [r3, r9]	@ zero_extendqisi2
 358 00c6 13F0040F 		tst	r3, #4
 359 00ca 10D0     		beq	.L19
 552:.\objacces.c  ****         (*d->storeODSubIndex)(d, wIndex, bSubindex);
 360              		.loc 1 552 0
 361 00cc D6F85831 		ldr	r3, [r6, #344]
 362 00d0 3046     		mov	r0, r6
 363 00d2 3946     		mov	r1, r7
 364 00d4 2A46     		mov	r2, r5
 365 00d6 9847     		blx	r3
 366              	.LVL33:
 367 00d8 09E0     		b	.L19
 368              	.L22:
 553:.\objacces.c  ****       }
 554:.\objacces.c  ****       return OD_SUCCESSFUL;
 555:.\objacces.c  ****     }else{
 556:.\objacces.c  ****       *pExpectedSize = szData;
 369              		.loc 1 556 0
 370 00da 0E9B     		ldr	r3, [sp, #56]
 371 00dc C3F800A0 		str	r10, [r3]
 557:.\objacces.c  ****       accessDictionaryError(wIndex, bSubindex, szData, *pExpectedSize, OD_LENGTH_DATA_INVALID);
 558:.\objacces.c  ****       return OD_LENGTH_DATA_INVALID;
 372              		.loc 1 558 0
 373 00e0 054C     		ldr	r4, .L29
 374 00e2 04E0     		b	.L19
 375              	.LVL34:
 376              	.L25:
 490:.\objacces.c  ****   }
 377              		.loc 1 490 0
 378 00e4 054C     		ldr	r4, .L29+4
 379 00e6 02E0     		b	.L19
 380              	.L26:
 495:.\objacces.c  ****   }
 381              		.loc 1 495 0
 382 00e8 054C     		ldr	r4, .L29+8
 383 00ea 00E0     		b	.L19
 384              	.LVL35:
 385              	.L27:
 546:.\objacces.c  ****         }
 386              		.loc 1 546 0
 387 00ec 0446     		mov	r4, r0
 388              	.LVL36:
 389              	.L19:
 559:.\objacces.c  ****     }
 560:.\objacces.c  **** }
 390              		.loc 1 560 0
 391 00ee 2046     		mov	r0, r4
 392 00f0 05B0     		add	sp, sp, #20
 393              		.cfi_def_cfa_offset 36
 394              		@ sp needed
 395 00f2 BDE8F08F 		pop	{r4, r5, r6, r7, r8, r9, r10, fp, pc}
 396              	.LVL37:
 397              	.L30:
 398 00f6 00BF     		.align	2
 399              	.L29:
 400 00f8 10000706 		.word	101122064
ARM GAS  C:\Users\TN02\AppData\Local\Temp\cceGwFeK.s 			page 18


 401 00fc 11000906 		.word	101253137
 402 0100 02000106 		.word	100728834
 403              		.cfi_endproc
 404              	.LFE2:
 405              		.size	_setODentry, .-_setODentry
 406              		.section	.text.scanIndexOD,"ax",%progbits
 407              		.align	2
 408              		.global	scanIndexOD
 409              		.thumb
 410              		.thumb_func
 411              		.type	scanIndexOD, %function
 412              	scanIndexOD:
 413              	.LFB3:
 561:.\objacces.c  **** 
 562:.\objacces.c  **** const indextable * scanIndexOD (CO_Data* d, UNS16 wIndex, UNS32 *errorCode, ODCallback_t **Callback
 563:.\objacces.c  **** {
 414              		.loc 1 563 0
 415              		.cfi_startproc
 416              		@ args = 0, pretend = 0, frame = 0
 417              		@ frame_needed = 0, uses_anonymous_args = 0
 418              	.LVL38:
 419 0000 10B5     		push	{r4, lr}
 420              		.cfi_def_cfa_offset 8
 421              		.cfi_offset 4, -8
 422              		.cfi_offset 14, -4
 564:.\objacces.c  ****   return (*d->scanIndexOD)(wIndex, errorCode, Callback);
 423              		.loc 1 564 0
 424 0002 D0F85441 		ldr	r4, [r0, #340]
 425 0006 0846     		mov	r0, r1
 426              	.LVL39:
 427 0008 1146     		mov	r1, r2
 428              	.LVL40:
 429 000a 1A46     		mov	r2, r3
 430              	.LVL41:
 431 000c A047     		blx	r4
 432              	.LVL42:
 565:.\objacces.c  **** }
 433              		.loc 1 565 0
 434 000e 10BD     		pop	{r4, pc}
 435              		.cfi_endproc
 436              	.LFE3:
 437              		.size	scanIndexOD, .-scanIndexOD
 438              		.section	.text.RegisterSetODentryCallBack,"ax",%progbits
 439              		.align	2
 440              		.global	RegisterSetODentryCallBack
 441              		.thumb
 442              		.thumb_func
 443              		.type	RegisterSetODentryCallBack, %function
 444              	RegisterSetODentryCallBack:
 445              	.LFB4:
 566:.\objacces.c  **** 
 567:.\objacces.c  **** UNS32 RegisterSetODentryCallBack(CO_Data* d, UNS16 wIndex, UNS8 bSubindex, ODCallback_t Callback)
 568:.\objacces.c  **** {
 446              		.loc 1 568 0
 447              		.cfi_startproc
 448              		@ args = 0, pretend = 0, frame = 8
 449              		@ frame_needed = 0, uses_anonymous_args = 0
ARM GAS  C:\Users\TN02\AppData\Local\Temp\cceGwFeK.s 			page 19


 450              	.LVL43:
 451 0000 30B5     		push	{r4, r5, lr}
 452              		.cfi_def_cfa_offset 12
 453              		.cfi_offset 4, -12
 454              		.cfi_offset 5, -8
 455              		.cfi_offset 14, -4
 456 0002 83B0     		sub	sp, sp, #12
 457              		.cfi_def_cfa_offset 24
 458 0004 1446     		mov	r4, r2
 459 0006 1D46     		mov	r5, r3
 569:.\objacces.c  **** UNS32 errorCode;
 570:.\objacces.c  **** ODCallback_t *CallbackList;
 571:.\objacces.c  **** const indextable *odentry;
 572:.\objacces.c  **** 
 573:.\objacces.c  ****   odentry = scanIndexOD (d, wIndex, &errorCode, &CallbackList);
 460              		.loc 1 573 0
 461 0008 01AA     		add	r2, sp, #4
 462              	.LVL44:
 463 000a 6B46     		mov	r3, sp
 464              	.LVL45:
 465 000c FFF7FEFF 		bl	scanIndexOD
 466              	.LVL46:
 574:.\objacces.c  ****   if(errorCode == OD_SUCCESSFUL  &&  CallbackList  &&  bSubindex < odentry->bSubCount)
 467              		.loc 1 574 0
 468 0010 019B     		ldr	r3, [sp, #4]
 469 0012 33B9     		cbnz	r3, .L34
 470              		.loc 1 574 0 is_stmt 0 discriminator 1
 471 0014 009B     		ldr	r3, [sp]
 472 0016 23B1     		cbz	r3, .L34
 473              		.loc 1 574 0 discriminator 2
 474 0018 0279     		ldrb	r2, [r0, #4]	@ zero_extendqisi2
 475 001a A242     		cmp	r2, r4
 476 001c 01D9     		bls	.L34
 575:.\objacces.c  ****     CallbackList[bSubindex] = Callback;
 477              		.loc 1 575 0 is_stmt 1
 478 001e 43F82450 		str	r5, [r3, r4, lsl #2]
 479              	.L34:
 576:.\objacces.c  ****   return errorCode;
 577:.\objacces.c  **** }
 480              		.loc 1 577 0
 481 0022 0198     		ldr	r0, [sp, #4]
 482              	.LVL47:
 483 0024 03B0     		add	sp, sp, #12
 484              		.cfi_def_cfa_offset 12
 485              		@ sp needed
 486 0026 30BD     		pop	{r4, r5, pc}
 487              		.cfi_endproc
 488              	.LFE4:
 489              		.size	RegisterSetODentryCallBack, .-RegisterSetODentryCallBack
 490              		.section	.text._storeODSubIndex,"ax",%progbits
 491              		.align	2
 492              		.global	_storeODSubIndex
 493              		.thumb
 494              		.thumb_func
 495              		.type	_storeODSubIndex, %function
 496              	_storeODSubIndex:
 497              	.LFB5:
ARM GAS  C:\Users\TN02\AppData\Local\Temp\cceGwFeK.s 			page 20


 578:.\objacces.c  **** 
 579:.\objacces.c  **** void _storeODSubIndex (CO_Data* d, UNS16 wIndex, UNS8 bSubindex){}
 498              		.loc 1 579 0
 499              		.cfi_startproc
 500              		@ args = 0, pretend = 0, frame = 0
 501              		@ frame_needed = 0, uses_anonymous_args = 0
 502              		@ link register save eliminated.
 503              	.LVL48:
 504 0000 7047     		bx	lr
 505              		.cfi_endproc
 506              	.LFE5:
 507              		.size	_storeODSubIndex, .-_storeODSubIndex
 508 0002 00BF     		.text
 509              	.Letext0:
 510              		.file 2 ".\\data.h"
 511              		.file 3 ".\\can.h"
 512              		.file 4 ".\\applicfg.h"
 513              		.file 5 ".\\objdictdef.h"
 514              		.file 6 ".\\objacces.h"
 515              		.file 7 ".\\sdo.h"
 516              		.file 8 ".\\pdo.h"
 517              		.file 9 ".\\states.h"
 518              		.file 10 ".\\lifegrd.h"
 519              		.file 11 ".\\sync.h"
 520              		.file 12 ".\\emcy.h"