ARM GAS  C:\Users\PANXIA~1\AppData\Local\Temp\cczfv69T.s 			page 1


   1              		.syntax unified
   2              		.cpu cortex-m3
   3              		.fpu softvfp
   4              		.eabi_attribute 20, 1
   5              		.eabi_attribute 21, 1
   6              		.eabi_attribute 23, 3
   7              		.eabi_attribute 24, 1
   8              		.eabi_attribute 25, 1
   9              		.eabi_attribute 26, 1
  10              		.eabi_attribute 30, 1
  11              		.eabi_attribute 34, 1
  12              		.eabi_attribute 18, 4
  13              		.thumb
  14              		.file	"pdo.c"
  15              		.text
  16              	.Ltext0:
  17              		.cfi_sections	.debug_frame
  18              		.section	.text.sendPdo,"ax",%progbits
  19              		.align	2
  20              		.thumb
  21              		.thumb_func
  22              		.type	sendPdo, %function
  23              	sendPdo:
  24              	.LFB4:
  25              		.file 1 ".\\pdo.c"
   1:.\pdo.c       **** /* ========================================
   2:.\pdo.c       ****  *
   3:.\pdo.c       ****  * Copyright YOUR COMPANY, THE YEAR
   4:.\pdo.c       ****  * All Rights Reserved
   5:.\pdo.c       ****  * UNPUBLISHED, LICENSED SOFTWARE.
   6:.\pdo.c       ****  *
   7:.\pdo.c       ****  * CONFIDENTIAL AND PROPRIETARY INFORMATION
   8:.\pdo.c       ****  * WHICH IS THE PROPERTY OF your company.
   9:.\pdo.c       ****  *
  10:.\pdo.c       ****  * ========================================
  11:.\pdo.c       **** */
  12:.\pdo.c       **** 
  13:.\pdo.c       **** /* [] END OF FILE */
  14:.\pdo.c       **** 
  15:.\pdo.c       **** ///*
  16:.\pdo.c       **** //  This file is part of CanFestival, a library implementing CanOpen
  17:.\pdo.c       **** //  Stack.
  18:.\pdo.c       **** 
  19:.\pdo.c       **** //  Copyright (C): Edouard TISSERANT and Francis DUPIN
  20:.\pdo.c       **** 
  21:.\pdo.c       **** //  See COPYING file for copyrights details.
  22:.\pdo.c       **** 
  23:.\pdo.c       **** //  This library is free software; you can redistribute it and/or
  24:.\pdo.c       **** //  modify it under the terms of the GNU Lesser General Public
  25:.\pdo.c       **** //  License as published by the Free Software Foundation; either
  26:.\pdo.c       **** //  version 2.1 of the License, or (at your option) any later version.
  27:.\pdo.c       **** 
  28:.\pdo.c       **** //  This library is distributed in the hope that it will be useful,
  29:.\pdo.c       **** //  but WITHOUT ANY WARRANTY; without even the implied warranty of
  30:.\pdo.c       **** //  MERCHANTABILITY or FITNESS FOR A PARTICULAR PURPOSE.  See the GNU
  31:.\pdo.c       **** //  Lesser General Public License for more details.
  32:.\pdo.c       **** 
ARM GAS  C:\Users\PANXIA~1\AppData\Local\Temp\cczfv69T.s 			page 2


  33:.\pdo.c       **** //  You should have received a copy of the GNU Lesser General Public
  34:.\pdo.c       **** //  License along with this library; if not, write to the Free Software
  35:.\pdo.c       **** //  Foundation, Inc., 59 Temple Place, Suite 330, Boston, MA  02111-1307
  36:.\pdo.c       **** //  USA
  37:.\pdo.c       **** //*/
  38:.\pdo.c       **** //#include "pdo.h"
  39:.\pdo.c       **** //#include "objacces.h"
  40:.\pdo.c       **** //#include "canfestival.h"
  41:.\pdo.c       **** //#include "sysdep.h"
  42:.\pdo.c       **** 
  43:.\pdo.c       **** ///*!
  44:.\pdo.c       **** //** @file   pdo.c
  45:.\pdo.c       **** //** @author Edouard TISSERANT and Francis DUPIN
  46:.\pdo.c       **** //** @date   Tue Jun  5 09:32:32 2007
  47:.\pdo.c       **** //**
  48:.\pdo.c       **** //** @brief
  49:.\pdo.c       **** //**
  50:.\pdo.c       **** //**
  51:.\pdo.c       **** //*/
  52:.\pdo.c       **** 
  53:.\pdo.c       **** ///*!
  54:.\pdo.c       **** //**
  55:.\pdo.c       **** //**
  56:.\pdo.c       **** //** @param d
  57:.\pdo.c       **** //** @param TPDO_com TPDO communication parameters OD entry
  58:.\pdo.c       **** //** @param TPDO_map TPDO mapping parameters OD entry
  59:.\pdo.c       **** //**
  60:.\pdo.c       **** //** @return
  61:.\pdo.c       **** //**/
  62:.\pdo.c       **** 
  63:.\pdo.c       **** //UNS8 buildPDO (CO_Data * d, UNS8 numPdo, Message * pdo)
  64:.\pdo.c       **** //{
  65:.\pdo.c       **** //  const indextable *TPDO_com = d->objdict + d->firstIndex->PDO_TRS + numPdo;
  66:.\pdo.c       **** //  const indextable *TPDO_map = d->objdict + d->firstIndex->PDO_TRS_MAP + numPdo;
  67:.\pdo.c       **** 
  68:.\pdo.c       **** //  UNS8 prp_j = 0x00;
  69:.\pdo.c       **** //  UNS32 offset = 0x00000000;
  70:.\pdo.c       **** //  const UNS8 *pMappingCount = (UNS8 *) TPDO_map->pSubindex[0].pObject;
  71:.\pdo.c       **** 
  72:.\pdo.c       **** //  pdo->cob_id = (UNS16) UNS16_LE(*(UNS32*)TPDO_com->pSubindex[1].pObject & 0x7FF);
  73:.\pdo.c       **** //  pdo->rtr = NOT_A_REQUEST;
  74:.\pdo.c       **** 
  75:.\pdo.c       **** //  MSG_WAR (0x3009, "  PDO CobId is : ",
  76:.\pdo.c       **** //           *(UNS32 *) TPDO_com->pSubindex[1].pObject);
  77:.\pdo.c       **** //  MSG_WAR (0x300D, "  Number of objects mapped : ", *pMappingCount);
  78:.\pdo.c       **** 
  79:.\pdo.c       **** //  do
  80:.\pdo.c       **** //    {
  81:.\pdo.c       **** //      UNS8 dataType;            /* Unused */
  82:.\pdo.c       **** //      UNS8 tmp[] = { 0, 0, 0, 0, 0, 0, 0, 0 };  /* temporary space to hold bits */
  83:.\pdo.c       **** 
  84:.\pdo.c       **** //      /* pointer fo the var which holds the mapping parameter of an mapping entry  */
  85:.\pdo.c       **** //      UNS32 *pMappingParameter =
  86:.\pdo.c       **** //        (UNS32 *) TPDO_map->pSubindex[prp_j + 1].pObject;
  87:.\pdo.c       **** //      UNS16 index = (UNS16) ((*pMappingParameter) >> 16);
  88:.\pdo.c       **** //      UNS32 Size = (UNS32) (*pMappingParameter & (UNS32) 0x000000FF);     /* Size in bits */
  89:.\pdo.c       **** 
ARM GAS  C:\Users\PANXIA~1\AppData\Local\Temp\cczfv69T.s 			page 3


  90:.\pdo.c       **** //      /* get variable only if Size != 0 and Size is lower than remaining bits in the PDO */
  91:.\pdo.c       **** //      if (Size && ((offset + Size) <= 64))
  92:.\pdo.c       **** //        {
  93:.\pdo.c       **** //          UNS32 ByteSize = 1 + ((Size - 1) >> 3);        /*1->8 => 1 ; 9->16 => 2, ... */
  94:.\pdo.c       **** //          UNS8 subIndex =
  95:.\pdo.c       **** //            (UNS8) (((*pMappingParameter) >> (UNS8) 8) & (UNS32) 0x000000FF);
  96:.\pdo.c       **** 
  97:.\pdo.c       **** //          MSG_WAR (0x300F, "  got mapping parameter : ", *pMappingParameter);
  98:.\pdo.c       **** //          MSG_WAR (0x3050, "    at index : ", TPDO_map->index);
  99:.\pdo.c       **** //          MSG_WAR (0x3051, "    sub-index : ", prp_j + 1);
 100:.\pdo.c       **** 
 101:.\pdo.c       **** //          if (getODentry (d, index, subIndex, tmp, &ByteSize, &dataType, 0) !=
 102:.\pdo.c       **** //              OD_SUCCESSFUL)
 103:.\pdo.c       **** //            {
 104:.\pdo.c       **** //              MSG_ERR (0x1013,
 105:.\pdo.c       **** //                       " Couldn't find mapped variable at index-subindex-size : ",
 106:.\pdo.c       **** //                       (UNS32) (*pMappingParameter));
 107:.\pdo.c       **** //              return 0xFF;
 108:.\pdo.c       **** //            }
 109:.\pdo.c       **** //          /* copy bit per bit in little endian */
 110:.\pdo.c       **** //          CopyBits ((UNS8) Size, ((UNS8 *) tmp), 0, 0,
 111:.\pdo.c       **** //                    (UNS8 *) & pdo->data[offset >> 3], (UNS8)(offset % 8), 0);
 112:.\pdo.c       **** 
 113:.\pdo.c       **** //          offset += Size;
 114:.\pdo.c       **** //        }
 115:.\pdo.c       **** //      prp_j++;
 116:.\pdo.c       **** //    }
 117:.\pdo.c       **** //  while (prp_j < *pMappingCount);
 118:.\pdo.c       **** 
 119:.\pdo.c       **** //  pdo->len = (UNS8)(1 + ((offset - 1) >> 3));
 120:.\pdo.c       **** 
 121:.\pdo.c       **** //  MSG_WAR (0x3015, "  End scan mapped variable", 0);
 122:.\pdo.c       **** 
 123:.\pdo.c       **** //  return 0;
 124:.\pdo.c       **** //}
 125:.\pdo.c       **** 
 126:.\pdo.c       **** ///*!
 127:.\pdo.c       **** //**
 128:.\pdo.c       **** //**
 129:.\pdo.c       **** //** @param d
 130:.\pdo.c       **** //** @param cobId
 131:.\pdo.c       **** //**
 132:.\pdo.c       **** //** @return
 133:.\pdo.c       **** //**/
 134:.\pdo.c       **** //UNS8
 135:.\pdo.c       **** //sendPDOrequest (CO_Data * d, UNS16 RPDOIndex)
 136:.\pdo.c       **** //{
 137:.\pdo.c       **** //  UNS32 *pwCobId;
 138:.\pdo.c       **** //  UNS16 offset = d->firstIndex->PDO_RCV;
 139:.\pdo.c       **** //  UNS16 lastIndex = d->lastIndex->PDO_RCV;
 140:.\pdo.c       **** 
 141:.\pdo.c       **** //  if (!d->CurrentCommunicationState.csPDO)
 142:.\pdo.c       **** //    {
 143:.\pdo.c       **** //      return 0;
 144:.\pdo.c       **** //    }
 145:.\pdo.c       **** 
 146:.\pdo.c       **** //  /* Sending the request only if the cobid have been found on the PDO
ARM GAS  C:\Users\PANXIA~1\AppData\Local\Temp\cczfv69T.s 			page 4


 147:.\pdo.c       **** //     receive */
 148:.\pdo.c       **** //  /* part dictionary */
 149:.\pdo.c       **** 
 150:.\pdo.c       **** //  MSG_WAR (0x3930, "sendPDOrequest RPDO Index : ", RPDOIndex);
 151:.\pdo.c       **** 
 152:.\pdo.c       **** //  if (offset && RPDOIndex >= 0x1400)
 153:.\pdo.c       **** //    {
 154:.\pdo.c       **** //      offset += RPDOIndex - 0x1400;
 155:.\pdo.c       **** //      if (offset <= lastIndex)
 156:.\pdo.c       **** //        {
 157:.\pdo.c       **** //          /* get the CobId */
 158:.\pdo.c       **** //          pwCobId = d->objdict[offset].pSubindex[1].pObject;
 159:.\pdo.c       **** 
 160:.\pdo.c       **** //          MSG_WAR (0x3930, "sendPDOrequest cobId is : ", *pwCobId);
 161:.\pdo.c       **** //          {
 162:.\pdo.c       **** //            Message pdo;
 163:.\pdo.c       **** //            pdo.cob_id = (UNS16)UNS16_LE(*pwCobId);
 164:.\pdo.c       **** //            pdo.rtr = REQUEST;
 165:.\pdo.c       **** //            pdo.len = 0;
 166:.\pdo.c       **** //            return canSend (d->canHandle, &pdo);
 167:.\pdo.c       **** //          }
 168:.\pdo.c       **** //        }
 169:.\pdo.c       **** //    }
 170:.\pdo.c       **** //  MSG_ERR (0x1931, "sendPDOrequest : RPDO Index not found : ", RPDOIndex);
 171:.\pdo.c       **** //  return 0xFF;
 172:.\pdo.c       **** //}
 173:.\pdo.c       **** 
 174:.\pdo.c       **** 
 175:.\pdo.c       **** ///*!
 176:.\pdo.c       **** //**
 177:.\pdo.c       **** //**
 178:.\pdo.c       **** //** @param d
 179:.\pdo.c       **** //** @param m
 180:.\pdo.c       **** //**
 181:.\pdo.c       **** //** @return
 182:.\pdo.c       **** //**/
 183:.\pdo.c       **** //UNS8
 184:.\pdo.c       **** //proceedPDO (CO_Data * d, Message * m)
 185:.\pdo.c       **** //{
 186:.\pdo.c       **** //  UNS8 numPdo;
 187:.\pdo.c       **** //  UNS8 numMap;                  /* Number of the mapped varable */
 188:.\pdo.c       **** //  UNS8 *pMappingCount = NULL;   /* count of mapped objects... */
 189:.\pdo.c       **** //  /* pointer to the var which is mapped to a pdo... */
 190:.\pdo.c       **** //  /*  void *     pMappedAppObject = NULL;   */
 191:.\pdo.c       **** //  /* pointer fo the var which holds the mapping parameter of an
 192:.\pdo.c       **** //     mapping entry */
 193:.\pdo.c       **** //  UNS32 *pMappingParameter = NULL;
 194:.\pdo.c       **** //  UNS8 *pTransmissionType = NULL;       /* pointer to the transmission
 195:.\pdo.c       **** //                                           type */
 196:.\pdo.c       **** //  UNS32 *pwCobId = NULL;
 197:.\pdo.c       **** //  UNS8 Size;
 198:.\pdo.c       **** //  UNS8 offset;
 199:.\pdo.c       **** //  UNS8 status;
 200:.\pdo.c       **** //  UNS32 objDict;
 201:.\pdo.c       **** //  UNS16 offsetObjdict;
 202:.\pdo.c       **** //  UNS16 lastIndex;
 203:.\pdo.c       **** //  TIMEVAL EventTimerDuration = 0;
ARM GAS  C:\Users\PANXIA~1\AppData\Local\Temp\cczfv69T.s 			page 5


 204:.\pdo.c       **** 
 205:.\pdo.c       **** //  status = state2;
 206:.\pdo.c       **** 
 207:.\pdo.c       **** //  MSG_WAR (0x3935, "proceedPDO, cobID : ", (UNS16_LE(m->cob_id) & 0x7ff));
 208:.\pdo.c       **** //  offset = 0x00;
 209:.\pdo.c       **** //  numPdo = 0;
 210:.\pdo.c       **** //  numMap = 0;
 211:.\pdo.c       **** //  if ((*m).rtr == NOT_A_REQUEST)
 212:.\pdo.c       **** //    {                           /* The PDO received is not a
 213:.\pdo.c       **** //                                   request. */
 214:.\pdo.c       **** 
 215:.\pdo.c       **** //      offsetObjdict = d->firstIndex->PDO_RCV;
 216:.\pdo.c       **** //      lastIndex = d->lastIndex->PDO_RCV;
 217:.\pdo.c       **** 
 218:.\pdo.c       **** //      /* study of all the PDO stored in the dictionary */
 219:.\pdo.c       **** //      if (offsetObjdict)
 220:.\pdo.c       **** //        while (offsetObjdict <= lastIndex)
 221:.\pdo.c       **** //          {
 222:.\pdo.c       **** 
 223:.\pdo.c       **** //            switch (status)
 224:.\pdo.c       **** //              {
 225:.\pdo.c       **** 
 226:.\pdo.c       **** //              case state2:
 227:.\pdo.c       **** //                /* get CobId of the dictionary correspondant to the received
 228:.\pdo.c       **** //                   PDO */
 229:.\pdo.c       **** //                pwCobId =
 230:.\pdo.c       **** //                  d->objdict[offsetObjdict].pSubindex[1].pObject;
 231:.\pdo.c       **** //                /* check the CobId coherance */
 232:.\pdo.c       **** //                /*pwCobId is the cobId read in the dictionary at the state 3
 233:.\pdo.c       **** //                 */
 234:.\pdo.c       **** //                if (*pwCobId == UNS16_LE(m->cob_id))
 235:.\pdo.c       **** //                  {
 236:.\pdo.c       **** //                    /* The cobId is recognized */
 237:.\pdo.c       **** //                    status = state4;
 238:.\pdo.c       **** //                    EventTimerDuration = *(UNS16 *)d->objdict[offsetObjdict].pSubindex[5].pObject
 239:.\pdo.c       **** //                    MSG_WAR (0x3936, "cobId found at index ",
 240:.\pdo.c       **** //                             0x1400 + numPdo);
 241:.\pdo.c       **** //                    break;
 242:.\pdo.c       **** //                  }
 243:.\pdo.c       **** //                else
 244:.\pdo.c       **** //                  {
 245:.\pdo.c       **** //                    /* cobId received does not match with those write in the
 246:.\pdo.c       **** //                       dictionnary */
 247:.\pdo.c       **** //                    numPdo++;
 248:.\pdo.c       **** //                    offsetObjdict++;
 249:.\pdo.c       **** //                    status = state2;
 250:.\pdo.c       **** //                    break;
 251:.\pdo.c       **** //                  }
 252:.\pdo.c       **** 
 253:.\pdo.c       **** //              case state4:     /* Get Mapped Objects Number */
 254:.\pdo.c       **** //                /* The cobId of the message received has been found in the
 255:.\pdo.c       **** //                   dictionnary. */
 256:.\pdo.c       **** //                offsetObjdict = d->firstIndex->PDO_RCV_MAP;
 257:.\pdo.c       **** //                lastIndex = d->lastIndex->PDO_RCV_MAP;
 258:.\pdo.c       **** //                pMappingCount =
 259:.\pdo.c       **** //                  (UNS8 *) (d->objdict + offsetObjdict +
 260:.\pdo.c       **** //                            numPdo)->pSubindex[0].pObject;
ARM GAS  C:\Users\PANXIA~1\AppData\Local\Temp\cczfv69T.s 			page 6


 261:.\pdo.c       **** //                numMap = 0;
 262:.\pdo.c       **** //                while (numMap < *pMappingCount)
 263:.\pdo.c       **** //                  {
 264:.\pdo.c       **** //                    UNS8 tmp[] = { 0, 0, 0, 0, 0, 0, 0, 0 };
 265:.\pdo.c       **** //                    UNS32 ByteSize;
 266:.\pdo.c       **** //                    pMappingParameter =
 267:.\pdo.c       **** //                      (UNS32 *) (d->objdict + offsetObjdict +
 268:.\pdo.c       **** //                                 numPdo)->pSubindex[numMap + 1].pObject;
 269:.\pdo.c       **** //                    if (pMappingParameter == NULL)
 270:.\pdo.c       **** //                      {
 271:.\pdo.c       **** //                        MSG_ERR (0x1937, "Couldn't get mapping parameter : ",
 272:.\pdo.c       **** //                                 numMap + 1);
 273:.\pdo.c       **** //                        return 0xFF;
 274:.\pdo.c       **** //                      }
 275:.\pdo.c       **** //                    /* Get the addresse of the mapped variable. */
 276:.\pdo.c       **** //                    /* detail of *pMappingParameter : */
 277:.\pdo.c       **** //                    /* The 16 hight bits contains the index, the medium 8 bits
 278:.\pdo.c       **** //                       contains the subindex, */
 279:.\pdo.c       **** //                    /* and the lower 8 bits contains the size of the mapped
 280:.\pdo.c       **** //                       variable. */
 281:.\pdo.c       **** 
 282:.\pdo.c       **** //                    Size = (UNS8) (*pMappingParameter & (UNS32) 0x000000FF);
 283:.\pdo.c       **** 
 284:.\pdo.c       **** //                    /* set variable only if Size != 0 and
 285:.\pdo.c       **** //                     * Size is lower than remaining bits in the PDO */
 286:.\pdo.c       **** //                    if (Size && ((offset + Size) <= (m->len << 3)))
 287:.\pdo.c       **** //                      {
 288:.\pdo.c       **** //                        /* copy bit per bit in little endian */
 289:.\pdo.c       **** //                        CopyBits (Size, (UNS8 *) & m->data[offset >> 3],
 290:.\pdo.c       **** //                                  offset % 8, 0, ((UNS8 *) tmp), 0, 0);
 291:.\pdo.c       **** //                        /*1->8 => 1 ; 9->16 =>2, ... */
 292:.\pdo.c       **** //                        ByteSize = (UNS32)(1 + ((Size - 1) >> 3));
 293:.\pdo.c       **** 
 294:.\pdo.c       **** //                        objDict =
 295:.\pdo.c       **** //                          setODentry (d, (UNS16) ((*pMappingParameter) >> 16),
 296:.\pdo.c       **** //                                      (UNS8) (((*pMappingParameter) >> 8) &
 297:.\pdo.c       **** //                                              0xFF), tmp, &ByteSize, 0);
 298:.\pdo.c       **** 
 299:.\pdo.c       **** //                        if (objDict != OD_SUCCESSFUL)
 300:.\pdo.c       **** //                          {
 301:.\pdo.c       **** //                            MSG_ERR (0x1938,
 302:.\pdo.c       **** //                                     "error accessing to the mapped var : ",
 303:.\pdo.c       **** //                                     numMap + 1);
 304:.\pdo.c       **** //                            MSG_WAR (0x2939, "         Mapped at index : ",
 305:.\pdo.c       **** //                                     (*pMappingParameter) >> 16);
 306:.\pdo.c       **** //                            MSG_WAR (0x2940, "                subindex : ",
 307:.\pdo.c       **** //                                     ((*pMappingParameter) >> 8) & 0xFF);
 308:.\pdo.c       **** //                            return 0xFF;
 309:.\pdo.c       **** //                          }
 310:.\pdo.c       **** 
 311:.\pdo.c       **** //                        MSG_WAR (0x3942,
 312:.\pdo.c       **** //                                 "Variable updated by PDO cobid : ",
 313:.\pdo.c       **** //                                 UNS16_LE(m->cob_id));
 314:.\pdo.c       **** //                        MSG_WAR (0x3943, "         Mapped at index : ",
 315:.\pdo.c       **** //                                 (*pMappingParameter) >> 16);
 316:.\pdo.c       **** //                        MSG_WAR (0x3944, "                subindex : ",
 317:.\pdo.c       **** //                                 ((*pMappingParameter) >> 8) & 0xFF);
ARM GAS  C:\Users\PANXIA~1\AppData\Local\Temp\cczfv69T.s 			page 7


 318:.\pdo.c       **** //                        offset += Size;
 319:.\pdo.c       **** //                      }
 320:.\pdo.c       **** //                    numMap++;
 321:.\pdo.c       **** //                  }             /* end loop while on mapped variables */
 322:.\pdo.c       **** //                if (EventTimerDuration && d->RxPDO_EventTimers)
 323:.\pdo.c       **** //                {
 324:.\pdo.c       **** //                    DelAlarm (d->RxPDO_EventTimers[numPdo]);
 325:.\pdo.c       **** //                    d->RxPDO_EventTimers[numPdo] = SetAlarm (d, numPdo, d->RxPDO_EventTimers_Hand
 326:.\pdo.c       **** //                    MS_TO_TIMEVAL (EventTimerDuration), 0);
 327:.\pdo.c       **** //                }
 328:.\pdo.c       **** //                return 0;
 329:.\pdo.c       **** 
 330:.\pdo.c       **** //              }                 /* end switch status */
 331:.\pdo.c       **** //          }                     /* end while */
 332:.\pdo.c       **** //    }                           /* end if Donnees */
 333:.\pdo.c       **** //  else if ((*m).rtr == REQUEST)
 334:.\pdo.c       **** //    {
 335:.\pdo.c       **** //      MSG_WAR (0x3946, "Receive a PDO request cobId : ", UNS16_LE(m->cob_id));
 336:.\pdo.c       **** //      status = state1;
 337:.\pdo.c       **** //      offsetObjdict = d->firstIndex->PDO_TRS;
 338:.\pdo.c       **** //      lastIndex = d->lastIndex->PDO_TRS;
 339:.\pdo.c       **** //      if (offsetObjdict)
 340:.\pdo.c       **** //        while (offsetObjdict <= lastIndex)
 341:.\pdo.c       **** //          {
 342:.\pdo.c       **** //            /* study of all PDO stored in the objects dictionary */
 343:.\pdo.c       **** 
 344:.\pdo.c       **** //            switch (status)
 345:.\pdo.c       **** //              {
 346:.\pdo.c       **** 
 347:.\pdo.c       **** //              case state1:     /* check the CobId */
 348:.\pdo.c       **** //                /* get CobId of the dictionary which match to the received PDO
 349:.\pdo.c       **** //                 */
 350:.\pdo.c       **** //                pwCobId =
 351:.\pdo.c       **** //                   (d->objdict +
 352:.\pdo.c       **** //                             offsetObjdict)->pSubindex[1].pObject;
 353:.\pdo.c       **** //                if (*pwCobId == UNS16_LE(m->cob_id))
 354:.\pdo.c       **** //                  {
 355:.\pdo.c       **** //                    status = state4;
 356:.\pdo.c       **** //                    break;
 357:.\pdo.c       **** //                  }
 358:.\pdo.c       **** //                else
 359:.\pdo.c       **** //                  {
 360:.\pdo.c       **** //                    numPdo++;
 361:.\pdo.c       **** //                    offsetObjdict++;
 362:.\pdo.c       **** //                  }
 363:.\pdo.c       **** //                status = state1;
 364:.\pdo.c       **** //                break;
 365:.\pdo.c       **** 
 366:.\pdo.c       **** 
 367:.\pdo.c       **** //              case state4:     /* check transmission type */
 368:.\pdo.c       **** //                pTransmissionType =
 369:.\pdo.c       **** //                  (UNS8 *) d->objdict[offsetObjdict].pSubindex[2].pObject;
 370:.\pdo.c       **** //                /* If PDO is to be sampled and send on RTR, do it */
 371:.\pdo.c       **** //                if ((*pTransmissionType == TRANS_RTR))
 372:.\pdo.c       **** //                  {
 373:.\pdo.c       **** //                    status = state5;
 374:.\pdo.c       **** //                    break;
ARM GAS  C:\Users\PANXIA~1\AppData\Local\Temp\cczfv69T.s 			page 8


 375:.\pdo.c       **** //                  }
 376:.\pdo.c       **** //                /* RTR_SYNC means data prepared at SYNC, transmitted on RTR */
 377:.\pdo.c       **** //                else if ((*pTransmissionType == TRANS_RTR_SYNC))
 378:.\pdo.c       **** //                  {
 379:.\pdo.c       **** //                    if (d->PDO_status[numPdo].
 380:.\pdo.c       **** //                        transmit_type_parameter & PDO_RTR_SYNC_READY)
 381:.\pdo.c       **** //                      {
 382:.\pdo.c       **** //                        /*Data ready, just send */
 383:.\pdo.c       **** //                        canSend(d->canHandle,&d->PDO_status[numPdo].last_message);
 384:.\pdo.c       **** //                        return 0;
 385:.\pdo.c       **** //                      }
 386:.\pdo.c       **** //                    else
 387:.\pdo.c       **** //                      {
 388:.\pdo.c       **** //                        /* if SYNC did never occur, transmit current data */
 389:.\pdo.c       **** //                        /* DS301 do not tell what to do in such a case... */
 390:.\pdo.c       **** //                        MSG_ERR (0x1947,
 391:.\pdo.c       **** //                                 "Not ready RTR_SYNC TPDO send current data : ",
 392:.\pdo.c       **** //                                 UNS16_LE(m->cob_id));
 393:.\pdo.c       **** //                        status = state5;
 394:.\pdo.c       **** //                      }
 395:.\pdo.c       **** //                    break;
 396:.\pdo.c       **** //                  }
 397:.\pdo.c       **** //                else if ((*pTransmissionType == TRANS_EVENT_PROFILE) ||
 398:.\pdo.c       **** //                         (*pTransmissionType == TRANS_EVENT_SPECIFIC))
 399:.\pdo.c       **** //                  {
 400:.\pdo.c       **** //                    /* Zap all timers and inhibit flag */
 401:.\pdo.c       **** //                    d->PDO_status[numPdo].event_timer =
 402:.\pdo.c       **** //                      DelAlarm (d->PDO_status[numPdo].event_timer);
 403:.\pdo.c       **** //                    d->PDO_status[numPdo].inhibit_timer =
 404:.\pdo.c       **** //                      DelAlarm (d->PDO_status[numPdo].inhibit_timer);
 405:.\pdo.c       **** //                    d->PDO_status[numPdo].transmit_type_parameter &=
 406:.\pdo.c       **** //                      ~PDO_INHIBITED;
 407:.\pdo.c       **** //                    /* Call  PDOEventTimerAlarm for this TPDO,
 408:.\pdo.c       **** //                     * this will trigger emission et reset timers */
 409:.\pdo.c       **** //                    PDOEventTimerAlarm (d, numPdo);
 410:.\pdo.c       **** //                    return 0;
 411:.\pdo.c       **** //                  }
 412:.\pdo.c       **** //                else
 413:.\pdo.c       **** //                  {
 414:.\pdo.c       **** //                    /* The requested PDO is not to send on request. So, does
 415:.\pdo.c       **** //                       nothing. */
 416:.\pdo.c       **** //                    MSG_WAR (0x2947, "PDO is not to send on request : ",
 417:.\pdo.c       **** //                             UNS16_LE(m->cob_id));
 418:.\pdo.c       **** //                    return 0xFF;
 419:.\pdo.c       **** //                  }
 420:.\pdo.c       **** 
 421:.\pdo.c       **** //              case state5:     /* build and send requested PDO */
 422:.\pdo.c       **** //                {
 423:.\pdo.c       **** //                  Message pdo;
 424:.\pdo.c       **** //                  if (buildPDO (d, numPdo, &pdo))
 425:.\pdo.c       **** //                    {
 426:.\pdo.c       **** //                      MSG_ERR (0x1948, " Couldn't build TPDO number : ", numPdo);
 427:.\pdo.c       **** //                      return 0xFF;
 428:.\pdo.c       **** //                    }
 429:.\pdo.c       **** //                  canSend (d->canHandle, &pdo);
 430:.\pdo.c       **** //                  return 0;
 431:.\pdo.c       **** //                }
ARM GAS  C:\Users\PANXIA~1\AppData\Local\Temp\cczfv69T.s 			page 9


 432:.\pdo.c       **** //              }                 /* end switch status */
 433:.\pdo.c       **** //          }                     /* end while */
 434:.\pdo.c       **** //    }                           /* end if Requete */
 435:.\pdo.c       **** 
 436:.\pdo.c       **** //  return 0;
 437:.\pdo.c       **** //}
 438:.\pdo.c       **** 
 439:.\pdo.c       **** ///*!
 440:.\pdo.c       **** //**
 441:.\pdo.c       **** //**
 442:.\pdo.c       **** //** @param NbBits
 443:.\pdo.c       **** //** @param SrcByteIndex
 444:.\pdo.c       **** //** @param SrcBitIndex
 445:.\pdo.c       **** //** @param SrcBigEndian
 446:.\pdo.c       **** //** @param DestByteIndex
 447:.\pdo.c       **** //** @param DestBitIndex
 448:.\pdo.c       **** //** @param DestBigEndian
 449:.\pdo.c       **** //**/
 450:.\pdo.c       **** //void
 451:.\pdo.c       **** //CopyBits (UNS8 NbBits, UNS8 * SrcByteIndex, UNS8 SrcBitIndex,
 452:.\pdo.c       **** //          UNS8 SrcBigEndian, UNS8 * DestByteIndex, UNS8 DestBitIndex,
 453:.\pdo.c       **** //          UNS8 DestBigEndian)
 454:.\pdo.c       **** //{
 455:.\pdo.c       **** //  /* This loop copy as many bits that it can each time, crossing */
 456:.\pdo.c       **** //  /* successively bytes */
 457:.\pdo.c       **** //  // boundaries from LSB to MSB.
 458:.\pdo.c       **** //  while (NbBits > 0)
 459:.\pdo.c       **** //    {
 460:.\pdo.c       **** //      /* Bit missalignement between src and dest */
 461:.\pdo.c       **** //      INTEGER8 Vect = DestBitIndex - SrcBitIndex;
 462:.\pdo.c       **** 
 463:.\pdo.c       **** //      /* We can now get src and align it to dest */
 464:.\pdo.c       **** //      UNS8 Aligned =
 465:.\pdo.c       **** //        Vect > 0 ? *SrcByteIndex << Vect : *SrcByteIndex >> -Vect;
 466:.\pdo.c       **** 
 467:.\pdo.c       **** //      /* Compute the nb of bit we will be able to copy */
 468:.\pdo.c       **** //      UNS8 BoudaryLimit = (Vect > 0 ? 8 - DestBitIndex : 8 - SrcBitIndex);
 469:.\pdo.c       **** //      UNS8 BitsToCopy = BoudaryLimit > NbBits ? NbBits : BoudaryLimit;
 470:.\pdo.c       **** 
 471:.\pdo.c       **** //      /* Create a mask that will serve in: */
 472:.\pdo.c       **** //      UNS8 Mask =
 473:.\pdo.c       **** //        ((0xff << (DestBitIndex + BitsToCopy)) |
 474:.\pdo.c       **** //         (0xff >> (8 - DestBitIndex)));
 475:.\pdo.c       **** 
 476:.\pdo.c       **** //      /* - Filtering src */
 477:.\pdo.c       **** //      UNS8 Filtered = Aligned & ~Mask;
 478:.\pdo.c       **** 
 479:.\pdo.c       **** //      /* - and erase bits where we write, preserve where we don't */
 480:.\pdo.c       **** //      *DestByteIndex &= Mask;
 481:.\pdo.c       **** 
 482:.\pdo.c       **** //      /* Then write. */
 483:.\pdo.c       **** //      *DestByteIndex |= Filtered;
 484:.\pdo.c       **** 
 485:.\pdo.c       **** //      /*Compute next time cursors for src */
 486:.\pdo.c       **** //      if ((SrcBitIndex += BitsToCopy) > 7)      /* cross boundary ? */
 487:.\pdo.c       **** //        {
 488:.\pdo.c       **** //          SrcBitIndex = 0;      /* First bit */
ARM GAS  C:\Users\PANXIA~1\AppData\Local\Temp\cczfv69T.s 			page 10


 489:.\pdo.c       **** //          SrcByteIndex += (SrcBigEndian ? -1 : 1);      /* Next byte */
 490:.\pdo.c       **** //        }
 491:.\pdo.c       **** 
 492:.\pdo.c       **** 
 493:.\pdo.c       **** //      /*Compute next time cursors for dest */
 494:.\pdo.c       **** //      if ((DestBitIndex += BitsToCopy) > 7)
 495:.\pdo.c       **** //        {
 496:.\pdo.c       **** //          DestBitIndex = 0;     /* First bit */
 497:.\pdo.c       **** //          DestByteIndex += (DestBigEndian ? -1 : 1);    /* Next byte */
 498:.\pdo.c       **** //        }
 499:.\pdo.c       **** 
 500:.\pdo.c       **** //      /*And decrement counter. */
 501:.\pdo.c       **** //      NbBits -= BitsToCopy;
 502:.\pdo.c       **** //    }
 503:.\pdo.c       **** 
 504:.\pdo.c       **** //}
 505:.\pdo.c       **** 
 506:.\pdo.c       **** //static void sendPdo(CO_Data * d, UNS32 pdoNum, Message * pdo)
 507:.\pdo.c       **** //{
 508:.\pdo.c       **** //  /*store_as_last_message */
 509:.\pdo.c       **** //  d->PDO_status[pdoNum].last_message = *pdo;
 510:.\pdo.c       **** //  MSG_WAR (0x396D, "sendPDO cobId :", UNS16_LE(pdo->cob_id));
 511:.\pdo.c       **** //  MSG_WAR (0x396E, "     Nb octets  : ", pdo->len);
 512:.\pdo.c       **** 
 513:.\pdo.c       **** //  canSend (d->canHandle, pdo);
 514:.\pdo.c       **** //}
 515:.\pdo.c       **** 
 516:.\pdo.c       **** 
 517:.\pdo.c       **** ///*!
 518:.\pdo.c       **** //**
 519:.\pdo.c       **** //**
 520:.\pdo.c       **** //** @param d
 521:.\pdo.c       **** //**
 522:.\pdo.c       **** //** @return
 523:.\pdo.c       **** //**/
 524:.\pdo.c       **** 
 525:.\pdo.c       **** //UNS8
 526:.\pdo.c       **** //sendPDOevent (CO_Data * d)
 527:.\pdo.c       **** //{
 528:.\pdo.c       **** //  /* Calls _sendPDOevent specifying it is not a sync event */
 529:.\pdo.c       **** //  return _sendPDOevent (d, 0);
 530:.\pdo.c       **** //}
 531:.\pdo.c       **** 
 532:.\pdo.c       **** //UNS8
 533:.\pdo.c       **** //sendOnePDOevent (CO_Data * d, UNS8 pdoNum)
 534:.\pdo.c       **** //{
 535:.\pdo.c       **** //  UNS16 offsetObjdict;
 536:.\pdo.c       **** //  Message pdo;
 537:.\pdo.c       **** //  if (!d->CurrentCommunicationState.csPDO ||
 538:.\pdo.c       **** //      (d->PDO_status[pdoNum].transmit_type_parameter & PDO_INHIBITED))
 539:.\pdo.c       **** //    {
 540:.\pdo.c       **** //      return 0;
 541:.\pdo.c       **** //    }
 542:.\pdo.c       **** 
 543:.\pdo.c       **** //  offsetObjdict = (UNS16) (d->firstIndex->PDO_TRS + pdoNum);
 544:.\pdo.c       **** 
 545:.\pdo.c       **** //  MSG_WAR (0x3968, "  PDO is on EVENT. Trans type : ",
ARM GAS  C:\Users\PANXIA~1\AppData\Local\Temp\cczfv69T.s 			page 11


 546:.\pdo.c       **** //           *((UNS8 *) d->objdict[offsetObjdict].pSubindex[2].pObject));
 547:.\pdo.c       **** //
 548:.\pdo.c       **** //  memset(&pdo, 0, sizeof(pdo));
 549:.\pdo.c       **** //  if (buildPDO (d, pdoNum, &pdo))
 550:.\pdo.c       **** //    {
 551:.\pdo.c       **** //      MSG_ERR (0x3907, " Couldn't build TPDO number : ",
 552:.\pdo.c       **** //               pdoNum);
 553:.\pdo.c       **** //      return 0;
 554:.\pdo.c       **** //    }
 555:.\pdo.c       **** 
 556:.\pdo.c       **** //  /*Compare new and old PDO */
 557:.\pdo.c       **** //  if (d->PDO_status[pdoNum].last_message.cob_id == pdo.cob_id
 558:.\pdo.c       **** //      && d->PDO_status[pdoNum].last_message.len == pdo.len
 559:.\pdo.c       **** //      && memcmp(d->PDO_status[pdoNum].last_message.data,
 560:.\pdo.c       **** //					pdo.data, 8) == 0
 561:.\pdo.c       **** //    )
 562:.\pdo.c       **** //    {
 563:.\pdo.c       **** //      /* No changes -> go to next pdo */
 564:.\pdo.c       **** //      return 0;
 565:.\pdo.c       **** //    }
 566:.\pdo.c       **** //  else
 567:.\pdo.c       **** //    {
 568:.\pdo.c       **** 
 569:.\pdo.c       **** //      TIMEVAL EventTimerDuration;
 570:.\pdo.c       **** //      TIMEVAL InhibitTimerDuration;
 571:.\pdo.c       **** 
 572:.\pdo.c       **** //      MSG_WAR (0x306A, "Changes TPDO number : ", pdoNum);
 573:.\pdo.c       **** //      /* Changes detected -> transmit message */
 574:.\pdo.c       **** //      EventTimerDuration =
 575:.\pdo.c       **** //        *(UNS16 *) d->objdict[offsetObjdict].pSubindex[5].
 576:.\pdo.c       **** //        pObject;
 577:.\pdo.c       **** //      InhibitTimerDuration =
 578:.\pdo.c       **** //        *(UNS16 *) d->objdict[offsetObjdict].pSubindex[3].
 579:.\pdo.c       **** //        pObject;
 580:.\pdo.c       **** 
 581:.\pdo.c       **** //      /* Start both event_timer and inhibit_timer */
 582:.\pdo.c       **** //      if (EventTimerDuration)
 583:.\pdo.c       **** //        {
 584:.\pdo.c       **** //          DelAlarm (d->PDO_status[pdoNum].event_timer);
 585:.\pdo.c       **** //          d->PDO_status[pdoNum].event_timer =
 586:.\pdo.c       **** //            SetAlarm (d, pdoNum, &PDOEventTimerAlarm,
 587:.\pdo.c       **** //                      MS_TO_TIMEVAL (EventTimerDuration), 0);
 588:.\pdo.c       **** //        }
 589:.\pdo.c       **** 
 590:.\pdo.c       **** //      if (InhibitTimerDuration)
 591:.\pdo.c       **** //        {
 592:.\pdo.c       **** //          DelAlarm (d->PDO_status[pdoNum].inhibit_timer);
 593:.\pdo.c       **** //          d->PDO_status[pdoNum].inhibit_timer =
 594:.\pdo.c       **** //            SetAlarm (d, pdoNum, &PDOInhibitTimerAlarm,
 595:.\pdo.c       **** //                      US_TO_TIMEVAL (InhibitTimerDuration *
 596:.\pdo.c       **** //                                     100), 0);
 597:.\pdo.c       **** //          /* and inhibit TPDO */
 598:.\pdo.c       **** //          d->PDO_status[pdoNum].transmit_type_parameter |=
 599:.\pdo.c       **** //            PDO_INHIBITED;
 600:.\pdo.c       **** //        }
 601:.\pdo.c       **** 
 602:.\pdo.c       **** //      sendPdo(d, pdoNum, &pdo);
ARM GAS  C:\Users\PANXIA~1\AppData\Local\Temp\cczfv69T.s 			page 12


 603:.\pdo.c       **** //    }
 604:.\pdo.c       **** //    return 1;
 605:.\pdo.c       **** //}
 606:.\pdo.c       **** 
 607:.\pdo.c       **** //void
 608:.\pdo.c       **** //PDOEventTimerAlarm (CO_Data * d, UNS32 pdoNum)
 609:.\pdo.c       **** //{
 610:.\pdo.c       **** //  /* This is needed to avoid deletion of re-attribuated timer */
 611:.\pdo.c       **** //  d->PDO_status[pdoNum].event_timer = TIMER_NONE;
 612:.\pdo.c       **** //  /* force emission of PDO by artificially changing last emitted */
 613:.\pdo.c       **** //  d->PDO_status[pdoNum].last_message.cob_id = 0;
 614:.\pdo.c       **** //  sendOnePDOevent (d, (UNS8) pdoNum);
 615:.\pdo.c       **** //}
 616:.\pdo.c       **** 
 617:.\pdo.c       **** //void
 618:.\pdo.c       **** //PDOInhibitTimerAlarm (CO_Data * d, UNS32 pdoNum)
 619:.\pdo.c       **** //{
 620:.\pdo.c       **** //  /* This is needed to avoid deletion of re-attribuated timer */
 621:.\pdo.c       **** //  d->PDO_status[pdoNum].inhibit_timer = TIMER_NONE;
 622:.\pdo.c       **** //  /* Remove inhibit flag */
 623:.\pdo.c       **** //  d->PDO_status[pdoNum].transmit_type_parameter &= ~PDO_INHIBITED;
 624:.\pdo.c       **** //  sendOnePDOevent (d, (UNS8) pdoNum);
 625:.\pdo.c       **** //}
 626:.\pdo.c       **** 
 627:.\pdo.c       **** //void
 628:.\pdo.c       **** //_RxPDO_EventTimers_Handler(CO_Data *d, UNS32 pdoNum)
 629:.\pdo.c       **** //{
 630:.\pdo.c       **** //}
 631:.\pdo.c       **** 
 632:.\pdo.c       **** ///*!
 633:.\pdo.c       **** //**
 634:.\pdo.c       **** //**
 635:.\pdo.c       **** //** @param d
 636:.\pdo.c       **** //** @param isSyncEvent
 637:.\pdo.c       **** //**
 638:.\pdo.c       **** //** @return
 639:.\pdo.c       **** //**/
 640:.\pdo.c       **** 
 641:.\pdo.c       **** //UNS8
 642:.\pdo.c       **** //_sendPDOevent (CO_Data * d, UNS8 isSyncEvent)
 643:.\pdo.c       **** //{
 644:.\pdo.c       **** //  UNS8 pdoNum = 0x00;           /* number of the actual processed pdo-nr. */
 645:.\pdo.c       **** //  UNS8 *pTransmissionType = NULL;
 646:.\pdo.c       **** //  UNS8 status = state3;
 647:.\pdo.c       **** //  UNS16 offsetObjdict = d->firstIndex->PDO_TRS;
 648:.\pdo.c       **** //  UNS16 offsetObjdictMap = d->firstIndex->PDO_TRS_MAP;
 649:.\pdo.c       **** //  UNS16 lastIndex = d->lastIndex->PDO_TRS;
 650:.\pdo.c       **** 
 651:.\pdo.c       **** //  if (!d->CurrentCommunicationState.csPDO)
 652:.\pdo.c       **** //    {
 653:.\pdo.c       **** //      return 0;
 654:.\pdo.c       **** //    }
 655:.\pdo.c       **** 
 656:.\pdo.c       **** 
 657:.\pdo.c       **** //  /* study all PDO stored in the objects dictionary */
 658:.\pdo.c       **** //  if (offsetObjdict)
 659:.\pdo.c       **** //    {
ARM GAS  C:\Users\PANXIA~1\AppData\Local\Temp\cczfv69T.s 			page 13


 660:.\pdo.c       **** //      Message pdo;/* = Message_Initializer;*/
 661:.\pdo.c       **** //      memset(&pdo, 0, sizeof(pdo));
 662:.\pdo.c       **** //      while (offsetObjdict <= lastIndex)
 663:.\pdo.c       **** //        {
 664:.\pdo.c       **** //          switch (status)
 665:.\pdo.c       **** //            {
 666:.\pdo.c       **** //            case state3:
 667:.\pdo.c       **** //              if ( /* bSubCount always 5 with objdictedit -> check disabled */
 668:.\pdo.c       **** //                   /*d->objdict[offsetObjdict].bSubCount < 5 ||*/
 669:.\pdo.c       **** //                   /* check if TPDO is not valid */
 670:.\pdo.c       **** //                   *(UNS32 *) d->objdict[offsetObjdict].pSubindex[1].
 671:.\pdo.c       **** //                   pObject & 0x80000000)
 672:.\pdo.c       **** //                {
 673:.\pdo.c       **** //                  MSG_WAR (0x3960, "Not a valid PDO ", 0x1800 + pdoNum);
 674:.\pdo.c       **** //                  /*Go next TPDO */
 675:.\pdo.c       **** //                  status = state11;
 676:.\pdo.c       **** //                  break;
 677:.\pdo.c       **** //                }
 678:.\pdo.c       **** //              /* get the PDO transmission type */
 679:.\pdo.c       **** //              pTransmissionType =
 680:.\pdo.c       **** //                (UNS8 *) d->objdict[offsetObjdict].pSubindex[2].pObject;
 681:.\pdo.c       **** //              MSG_WAR (0x3962, "Reading PDO at index : ", 0x1800 + pdoNum);
 682:.\pdo.c       **** 
 683:.\pdo.c       **** //              /* check if transmission type is SYNCRONOUS */
 684:.\pdo.c       **** //              /* message transmited every n SYNC with n=TransmissionType */
 685:.\pdo.c       **** //              if (isSyncEvent &&
 686:.\pdo.c       **** //                  (*pTransmissionType >= TRANS_SYNC_MIN) &&
 687:.\pdo.c       **** //                  (*pTransmissionType <= TRANS_SYNC_MAX) &&
 688:.\pdo.c       **** //                  (++d->PDO_status[pdoNum].transmit_type_parameter ==
 689:.\pdo.c       **** //                   *pTransmissionType))
 690:.\pdo.c       **** //                {
 691:.\pdo.c       **** //                  /*Reset count of SYNC */
 692:.\pdo.c       **** //                  d->PDO_status[pdoNum].transmit_type_parameter = 0;
 693:.\pdo.c       **** //                  MSG_WAR (0x3964, "  PDO is on SYNCHRO. Trans type : ",
 694:.\pdo.c       **** //                           *pTransmissionType);
 695:.\pdo.c       **** //                  memset(&pdo, 0, sizeof(pdo));
 696:.\pdo.c       **** //                  /*{
 697:.\pdo.c       **** //                    Message msg_init = Message_Initializer;
 698:.\pdo.c       **** //                    pdo = msg_init;
 699:.\pdo.c       **** //                  }*/
 700:.\pdo.c       **** //                  if (buildPDO (d, pdoNum, &pdo))
 701:.\pdo.c       **** //                    {
 702:.\pdo.c       **** //                      MSG_ERR (0x1906, " Couldn't build TPDO number : ",
 703:.\pdo.c       **** //                               pdoNum);
 704:.\pdo.c       **** //                      status = state11;
 705:.\pdo.c       **** //                      break;
 706:.\pdo.c       **** //                    }
 707:.\pdo.c       **** //                  status = state5;
 708:.\pdo.c       **** //                  /* If transmission RTR, with data sampled on SYNC */
 709:.\pdo.c       **** //                }
 710:.\pdo.c       **** //              else if (isSyncEvent && (*pTransmissionType == TRANS_RTR_SYNC))
 711:.\pdo.c       **** //                {
 712:.\pdo.c       **** //                  if (buildPDO
 713:.\pdo.c       **** //                      (d, pdoNum, &d->PDO_status[pdoNum].last_message))
 714:.\pdo.c       **** //                    {
 715:.\pdo.c       **** //                      MSG_ERR (0x1966, " Couldn't build TPDO number : ",
 716:.\pdo.c       **** //                               pdoNum);
ARM GAS  C:\Users\PANXIA~1\AppData\Local\Temp\cczfv69T.s 			page 14


 717:.\pdo.c       **** //                      d->PDO_status[pdoNum].transmit_type_parameter &=
 718:.\pdo.c       **** //                        ~PDO_RTR_SYNC_READY;
 719:.\pdo.c       **** //                    }
 720:.\pdo.c       **** //                  else
 721:.\pdo.c       **** //                    {
 722:.\pdo.c       **** //                      d->PDO_status[pdoNum].transmit_type_parameter |=
 723:.\pdo.c       **** //                        PDO_RTR_SYNC_READY;
 724:.\pdo.c       **** //                    }
 725:.\pdo.c       **** //                  status = state11;
 726:.\pdo.c       **** //                  break;
 727:.\pdo.c       **** //                  /* If transmission on Event and not inhibited, check for changes */
 728:.\pdo.c       **** //                }
 729:.\pdo.c       **** //              else
 730:.\pdo.c       **** //                if ( (isSyncEvent && (*pTransmissionType == TRANS_SYNC_ACYCLIC))
 731:.\pdo.c       **** //                     ||
 732:.\pdo.c       **** //                     (!isSyncEvent && (*pTransmissionType == TRANS_EVENT_PROFILE || *pTransmissio
 733:.\pdo.c       **** //                       && !(d->PDO_status[pdoNum].transmit_type_parameter & PDO_INHIBITED)))
 734:.\pdo.c       **** //                {
 735:.\pdo.c       **** //                  sendOnePDOevent(d, pdoNum);
 736:.\pdo.c       **** //                  status = state11;
 737:.\pdo.c       **** //                }
 738:.\pdo.c       **** //              else
 739:.\pdo.c       **** //                {
 740:.\pdo.c       **** //                  MSG_WAR (0x306C,
 741:.\pdo.c       **** //                           "  PDO is not on EVENT or synchro or not at this SYNC. Trans type : ",
 742:.\pdo.c       **** //                           *pTransmissionType);
 743:.\pdo.c       **** //                  status = state11;
 744:.\pdo.c       **** //                }
 745:.\pdo.c       **** //              break;
 746:.\pdo.c       **** //            case state5:       /*Send the pdo */
 747:.\pdo.c       **** //              sendPdo(d, pdoNum, &pdo);
 748:.\pdo.c       **** //              status = state11;
 749:.\pdo.c       **** //              break;
 750:.\pdo.c       **** //            case state11:      /*Go to next TPDO */
 751:.\pdo.c       **** //              pdoNum++;
 752:.\pdo.c       **** //              offsetObjdict++;
 753:.\pdo.c       **** //              offsetObjdictMap++;
 754:.\pdo.c       **** //              MSG_WAR (0x3970, "next pdo index : ", pdoNum);
 755:.\pdo.c       **** //              status = state3;
 756:.\pdo.c       **** //              break;
 757:.\pdo.c       **** 
 758:.\pdo.c       **** //            default:
 759:.\pdo.c       **** //              MSG_ERR (0x1972, "Unknown state has been reached :", status);
 760:.\pdo.c       **** //              return 0xFF;
 761:.\pdo.c       **** //            }                   /* end switch case */
 762:.\pdo.c       **** 
 763:.\pdo.c       **** //        }                       /* end while */
 764:.\pdo.c       **** //    }
 765:.\pdo.c       **** //  return 0;
 766:.\pdo.c       **** //}
 767:.\pdo.c       **** 
 768:.\pdo.c       **** ///*!
 769:.\pdo.c       **** //**
 770:.\pdo.c       **** //**
 771:.\pdo.c       **** //** @param d
 772:.\pdo.c       **** //** @param OD_entry
 773:.\pdo.c       **** //** @param bSubindex
ARM GAS  C:\Users\PANXIA~1\AppData\Local\Temp\cczfv69T.s 			page 15


 774:.\pdo.c       **** //** @return always 0
 775:.\pdo.c       **** //**/
 776:.\pdo.c       **** 
 777:.\pdo.c       **** //UNS32
 778:.\pdo.c       **** //TPDO_Communication_Parameter_Callback (CO_Data * d,
 779:.\pdo.c       **** //                                       const indextable * OD_entry,
 780:.\pdo.c       **** //                                       UNS8 bSubindex)
 781:.\pdo.c       **** //{
 782:.\pdo.c       **** //  /* If PDO are actives */
 783:.\pdo.c       **** //  if (d->CurrentCommunicationState.csPDO)
 784:.\pdo.c       **** //    switch (bSubindex)
 785:.\pdo.c       **** //      {
 786:.\pdo.c       **** //      case 2:                  /* Changed transmition type */
 787:.\pdo.c       **** //      case 3:                  /* Changed inhibit time */
 788:.\pdo.c       **** //      case 5:                  /* Changed event time */
 789:.\pdo.c       **** //        {
 790:.\pdo.c       **** //          const indextable *TPDO_com = d->objdict + d->firstIndex->PDO_TRS;
 791:.\pdo.c       **** //          UNS8 numPdo = (UNS8) (OD_entry - TPDO_com);    /* number of the actual processed pdo-nr
 792:.\pdo.c       **** 
 793:.\pdo.c       **** //          /* Zap all timers and inhibit flag */
 794:.\pdo.c       **** //          d->PDO_status[numPdo].event_timer =
 795:.\pdo.c       **** //            DelAlarm (d->PDO_status[numPdo].event_timer);
 796:.\pdo.c       **** //          d->PDO_status[numPdo].inhibit_timer =
 797:.\pdo.c       **** //            DelAlarm (d->PDO_status[numPdo].inhibit_timer);
 798:.\pdo.c       **** //          d->PDO_status[numPdo].transmit_type_parameter = 0;
 799:.\pdo.c       **** //          /* Call  PDOEventTimerAlarm for this TPDO, this will trigger emission et reset timers *
 800:.\pdo.c       **** //          PDOEventTimerAlarm (d, numPdo);
 801:.\pdo.c       **** //          return 0;
 802:.\pdo.c       **** //        }
 803:.\pdo.c       **** 
 804:.\pdo.c       **** //      default:                 /* other subindex are ignored */
 805:.\pdo.c       **** //        break;
 806:.\pdo.c       **** //      }
 807:.\pdo.c       **** //  return 0;
 808:.\pdo.c       **** //}
 809:.\pdo.c       **** 
 810:.\pdo.c       **** //void
 811:.\pdo.c       **** //PDOInit (CO_Data * d)
 812:.\pdo.c       **** //{
 813:.\pdo.c       **** //  /* For each TPDO mapping parameters */
 814:.\pdo.c       **** //  UNS16 pdoIndex = 0x1800;      /* OD index of TDPO */
 815:.\pdo.c       **** 
 816:.\pdo.c       **** //  UNS16 offsetObjdict = d->firstIndex->PDO_TRS;
 817:.\pdo.c       **** //  UNS16 lastIndex = d->lastIndex->PDO_TRS;
 818:.\pdo.c       **** //  if (offsetObjdict)
 819:.\pdo.c       **** //    while (offsetObjdict <= lastIndex)
 820:.\pdo.c       **** //      {
 821:.\pdo.c       **** //        /* Assign callbacks to sensible TPDO mapping subindexes */
 822:.\pdo.c       **** //        UNS32 errorCode;
 823:.\pdo.c       **** //        ODCallback_t *CallbackList;
 824:.\pdo.c       **** //        /* Find callback list */
 825:.\pdo.c       **** //        scanIndexOD (d, pdoIndex, &errorCode, &CallbackList);
 826:.\pdo.c       **** //        if (errorCode == OD_SUCCESSFUL && CallbackList)
 827:.\pdo.c       **** //          {
 828:.\pdo.c       **** //            /*Assign callbacks to corresponding subindex */
 829:.\pdo.c       **** //            /* Transmission type */
 830:.\pdo.c       **** //            CallbackList[2] = &TPDO_Communication_Parameter_Callback;
ARM GAS  C:\Users\PANXIA~1\AppData\Local\Temp\cczfv69T.s 			page 16


 831:.\pdo.c       **** //            /* Inhibit time */
 832:.\pdo.c       **** //            CallbackList[3] = &TPDO_Communication_Parameter_Callback;
 833:.\pdo.c       **** //            /* Event timer */
 834:.\pdo.c       **** //            CallbackList[5] = &TPDO_Communication_Parameter_Callback;
 835:.\pdo.c       **** //          }
 836:.\pdo.c       **** //        pdoIndex++;
 837:.\pdo.c       **** //        offsetObjdict++;
 838:.\pdo.c       **** //      }
 839:.\pdo.c       **** 
 840:.\pdo.c       **** //  /* Trigger a non-sync event */
 841:.\pdo.c       **** //  _sendPDOevent (d, 0);
 842:.\pdo.c       **** //}
 843:.\pdo.c       **** 
 844:.\pdo.c       **** //void
 845:.\pdo.c       **** //PDOStop (CO_Data * d)
 846:.\pdo.c       **** //{
 847:.\pdo.c       **** //  /* For each TPDO mapping parameters */
 848:.\pdo.c       **** //  UNS8 pdoNum = 0x00;           /* number of the actual processed pdo-nr. */
 849:.\pdo.c       **** //  UNS16 offsetObjdict = d->firstIndex->PDO_TRS;
 850:.\pdo.c       **** //  UNS16 lastIndex = d->lastIndex->PDO_TRS;
 851:.\pdo.c       **** //  if (offsetObjdict)
 852:.\pdo.c       **** //    while (offsetObjdict <= lastIndex)
 853:.\pdo.c       **** //      {
 854:.\pdo.c       **** //        /* Delete TPDO timers */
 855:.\pdo.c       **** //        d->PDO_status[pdoNum].event_timer =
 856:.\pdo.c       **** //          DelAlarm (d->PDO_status[pdoNum].event_timer);
 857:.\pdo.c       **** //        d->PDO_status[pdoNum].inhibit_timer =
 858:.\pdo.c       **** //          DelAlarm (d->PDO_status[pdoNum].inhibit_timer);
 859:.\pdo.c       **** //        /* Reset transmit type parameter */
 860:.\pdo.c       **** //        d->PDO_status[pdoNum].transmit_type_parameter = 0;
 861:.\pdo.c       **** //        d->PDO_status[pdoNum].last_message.cob_id = 0;
 862:.\pdo.c       **** //        pdoNum++;
 863:.\pdo.c       **** //        offsetObjdict++;
 864:.\pdo.c       **** //      }
 865:.\pdo.c       **** //}
 866:.\pdo.c       **** 
 867:.\pdo.c       **** /*
 868:.\pdo.c       ****   This file is part of CanFestival, a library implementing CanOpen
 869:.\pdo.c       ****   Stack.
 870:.\pdo.c       **** 
 871:.\pdo.c       ****   Copyright (C): Edouard TISSERANT and Francis DUPIN
 872:.\pdo.c       **** 
 873:.\pdo.c       ****   See COPYING file for copyrights details.
 874:.\pdo.c       **** 
 875:.\pdo.c       ****   This library is free software; you can redistribute it and/or
 876:.\pdo.c       ****   modify it under the terms of the GNU Lesser General Public
 877:.\pdo.c       ****   License as published by the Free Software Foundation; either
 878:.\pdo.c       ****   version 2.1 of the License, or (at your option) any later version.
 879:.\pdo.c       **** 
 880:.\pdo.c       ****   This library is distributed in the hope that it will be useful,
 881:.\pdo.c       ****   but WITHOUT ANY WARRANTY; without even the implied warranty of
 882:.\pdo.c       ****   MERCHANTABILITY or FITNESS FOR A PARTICULAR PURPOSE.  See the GNU
 883:.\pdo.c       ****   Lesser General Public License for more details.
 884:.\pdo.c       **** 
 885:.\pdo.c       ****   You should have received a copy of the GNU Lesser General Public
 886:.\pdo.c       ****   License along with this library; if not, write to the Free Software
 887:.\pdo.c       ****   Foundation, Inc., 59 Temple Place, Suite 330, Boston, MA  02111-1307
ARM GAS  C:\Users\PANXIA~1\AppData\Local\Temp\cczfv69T.s 			page 17


 888:.\pdo.c       ****   USA
 889:.\pdo.c       **** */
 890:.\pdo.c       **** #include "pdo.h"
 891:.\pdo.c       **** #include "objacces.h"
 892:.\pdo.c       **** #include "canfestival.h"
 893:.\pdo.c       **** #include "sysdep.h"
 894:.\pdo.c       **** 
 895:.\pdo.c       **** /*!
 896:.\pdo.c       **** ** @file   pdo.c
 897:.\pdo.c       **** ** @author Edouard TISSERANT and Francis DUPIN
 898:.\pdo.c       **** ** @date   Tue Jun  5 09:32:32 2007
 899:.\pdo.c       **** **
 900:.\pdo.c       **** ** @brief
 901:.\pdo.c       **** **
 902:.\pdo.c       **** **
 903:.\pdo.c       **** */
 904:.\pdo.c       **** 
 905:.\pdo.c       **** /*!
 906:.\pdo.c       **** **
 907:.\pdo.c       **** **
 908:.\pdo.c       **** ** @param d
 909:.\pdo.c       **** ** @param TPDO_com TPDO communication parameters OD entry
 910:.\pdo.c       **** ** @param TPDO_map TPDO mapping parameters OD entry
 911:.\pdo.c       **** **
 912:.\pdo.c       **** ** @return
 913:.\pdo.c       **** **/
 914:.\pdo.c       **** 
 915:.\pdo.c       **** UNS8 buildPDO (CO_Data * d, UNS8 numPdo, Message * pdo)
 916:.\pdo.c       **** {
 917:.\pdo.c       ****   const indextable *TPDO_com = d->objdict + d->firstIndex->PDO_TRS + numPdo;
 918:.\pdo.c       ****   const indextable *TPDO_map = d->objdict + d->firstIndex->PDO_TRS_MAP + numPdo;
 919:.\pdo.c       **** 
 920:.\pdo.c       ****   UNS8 prp_j = 0x00;
 921:.\pdo.c       ****   UNS32 offset = 0x00000000;
 922:.\pdo.c       ****   const UNS8 *pMappingCount = (UNS8 *) TPDO_map->pSubindex[0].pObject;
 923:.\pdo.c       **** 
 924:.\pdo.c       ****   pdo->cob_id = (UNS16) UNS16_LE(*(UNS32*)TPDO_com->pSubindex[1].pObject & 0x7FF);
 925:.\pdo.c       ****   pdo->rtr = NOT_A_REQUEST;
 926:.\pdo.c       **** 
 927:.\pdo.c       ****   MSG_WAR (0x3009, "  PDO CobId is : ",
 928:.\pdo.c       ****            *(UNS32 *) TPDO_com->pSubindex[1].pObject);
 929:.\pdo.c       ****   MSG_WAR (0x300D, "  Number of objects mapped : ", *pMappingCount);
 930:.\pdo.c       **** 
 931:.\pdo.c       ****   do
 932:.\pdo.c       ****     {
 933:.\pdo.c       ****       UNS8 dataType;            /* Unused */
 934:.\pdo.c       ****       UNS8 tmp[] = { 0, 0, 0, 0, 0, 0, 0, 0 };  /* temporary space to hold bits */
 935:.\pdo.c       **** 
 936:.\pdo.c       ****       /* pointer fo the var which holds the mapping parameter of an mapping entry  */
 937:.\pdo.c       ****       UNS32 *pMappingParameter =
 938:.\pdo.c       ****         (UNS32 *) TPDO_map->pSubindex[prp_j + 1].pObject;
 939:.\pdo.c       ****       UNS16 index = (UNS16) ((*pMappingParameter) >> 16);
 940:.\pdo.c       ****       UNS32 Size = (UNS32) (*pMappingParameter & (UNS32) 0x000000FF);     /* Size in bits */
 941:.\pdo.c       **** 
 942:.\pdo.c       ****       /* get variable only if Size != 0 and Size is lower than remaining bits in the PDO */
 943:.\pdo.c       ****       if (Size && ((offset + Size) <= 64))
 944:.\pdo.c       ****         {
ARM GAS  C:\Users\PANXIA~1\AppData\Local\Temp\cczfv69T.s 			page 18


 945:.\pdo.c       ****           UNS32 ByteSize = 1 + ((Size - 1) >> 3);        /*1->8 => 1 ; 9->16 => 2, ... */
 946:.\pdo.c       ****           UNS8 subIndex =
 947:.\pdo.c       ****             (UNS8) (((*pMappingParameter) >> (UNS8) 8) & (UNS32) 0x000000FF);
 948:.\pdo.c       **** 
 949:.\pdo.c       ****           MSG_WAR (0x300F, "  got mapping parameter : ", *pMappingParameter);
 950:.\pdo.c       ****           MSG_WAR (0x3050, "    at index : ", TPDO_map->index);
 951:.\pdo.c       ****           MSG_WAR (0x3051, "    sub-index : ", prp_j + 1);
 952:.\pdo.c       **** 
 953:.\pdo.c       ****           if (getODentry (d, index, subIndex, tmp, &ByteSize, &dataType, 0) !=
 954:.\pdo.c       ****               OD_SUCCESSFUL)
 955:.\pdo.c       ****             {
 956:.\pdo.c       ****               MSG_ERR (0x1013,
 957:.\pdo.c       ****                        " Couldn't find mapped variable at index-subindex-size : ",
 958:.\pdo.c       ****                        (UNS32) (*pMappingParameter));
 959:.\pdo.c       ****               return 0xFF;
 960:.\pdo.c       ****             }
 961:.\pdo.c       ****           /* copy bit per bit in little endian */
 962:.\pdo.c       ****           CopyBits ((UNS8) Size, ((UNS8 *) tmp), 0, 0,
 963:.\pdo.c       ****                     (UNS8 *) & pdo->data[offset >> 3], (UNS8)(offset % 8), 0);
 964:.\pdo.c       **** 
 965:.\pdo.c       ****           offset += Size;
 966:.\pdo.c       ****         }
 967:.\pdo.c       ****       prp_j++;
 968:.\pdo.c       ****     }
 969:.\pdo.c       ****   while (prp_j < *pMappingCount);
 970:.\pdo.c       **** 
 971:.\pdo.c       ****   pdo->len = (UNS8)(1 + ((offset - 1) >> 3));
 972:.\pdo.c       **** 
 973:.\pdo.c       ****   MSG_WAR (0x3015, "  End scan mapped variable", 0);
 974:.\pdo.c       **** 
 975:.\pdo.c       ****   return 0;
 976:.\pdo.c       **** }
 977:.\pdo.c       **** 
 978:.\pdo.c       **** /*!
 979:.\pdo.c       **** **
 980:.\pdo.c       **** **
 981:.\pdo.c       **** ** @param d
 982:.\pdo.c       **** ** @param cobId
 983:.\pdo.c       **** **
 984:.\pdo.c       **** ** @return
 985:.\pdo.c       **** **/
 986:.\pdo.c       **** UNS8
 987:.\pdo.c       **** sendPDOrequest (CO_Data * d, UNS16 RPDOIndex)
 988:.\pdo.c       **** {
 989:.\pdo.c       ****   UNS32 *pwCobId;
 990:.\pdo.c       ****   UNS16 offset = d->firstIndex->PDO_RCV;
 991:.\pdo.c       ****   UNS16 lastIndex = d->lastIndex->PDO_RCV;
 992:.\pdo.c       **** 
 993:.\pdo.c       ****   if (!d->CurrentCommunicationState.csPDO)
 994:.\pdo.c       ****     {
 995:.\pdo.c       ****       return 0;
 996:.\pdo.c       ****     }
 997:.\pdo.c       **** 
 998:.\pdo.c       ****   /* Sending the request only if the cobid have been found on the PDO
 999:.\pdo.c       ****      receive */
1000:.\pdo.c       ****   /* part dictionary */
1001:.\pdo.c       **** 
ARM GAS  C:\Users\PANXIA~1\AppData\Local\Temp\cczfv69T.s 			page 19


1002:.\pdo.c       ****   MSG_WAR (0x3930, "sendPDOrequest RPDO Index : ", RPDOIndex);
1003:.\pdo.c       **** 
1004:.\pdo.c       ****   if (offset && RPDOIndex >= 0x1400)
1005:.\pdo.c       ****     {
1006:.\pdo.c       ****       offset += RPDOIndex - 0x1400;
1007:.\pdo.c       ****       if (offset <= lastIndex)
1008:.\pdo.c       ****         {
1009:.\pdo.c       ****           /* get the CobId */
1010:.\pdo.c       ****           pwCobId = d->objdict[offset].pSubindex[1].pObject;
1011:.\pdo.c       **** 
1012:.\pdo.c       ****           MSG_WAR (0x3930, "sendPDOrequest cobId is : ", *pwCobId);
1013:.\pdo.c       ****           {
1014:.\pdo.c       ****             Message pdo;
1015:.\pdo.c       ****             pdo.cob_id = (UNS16)UNS16_LE(*pwCobId);
1016:.\pdo.c       ****             pdo.rtr = REQUEST;
1017:.\pdo.c       ****             pdo.len = 0;
1018:.\pdo.c       ****             return canSend (d->canHandle, &pdo);
1019:.\pdo.c       ****           }
1020:.\pdo.c       ****         }
1021:.\pdo.c       ****     }
1022:.\pdo.c       ****   MSG_ERR (0x1931, "sendPDOrequest : RPDO Index not found : ", RPDOIndex);
1023:.\pdo.c       ****   return 0xFF;
1024:.\pdo.c       **** }
1025:.\pdo.c       **** 
1026:.\pdo.c       **** 
1027:.\pdo.c       **** /*!
1028:.\pdo.c       **** **
1029:.\pdo.c       **** **
1030:.\pdo.c       **** ** @param d
1031:.\pdo.c       **** ** @param m
1032:.\pdo.c       **** **
1033:.\pdo.c       **** ** @return
1034:.\pdo.c       **** **/
1035:.\pdo.c       **** UNS8
1036:.\pdo.c       **** proceedPDO (CO_Data * d, Message * m)
1037:.\pdo.c       **** {
1038:.\pdo.c       ****   UNS8 numPdo;
1039:.\pdo.c       ****   UNS8 numMap;                  /* Number of the mapped varable */
1040:.\pdo.c       ****   UNS8 *pMappingCount = NULL;   /* count of mapped objects... */
1041:.\pdo.c       ****   /* pointer to the var which is mapped to a pdo... */
1042:.\pdo.c       ****   /*  void *     pMappedAppObject = NULL;   */
1043:.\pdo.c       ****   /* pointer fo the var which holds the mapping parameter of an
1044:.\pdo.c       ****      mapping entry */
1045:.\pdo.c       ****   UNS32 *pMappingParameter = NULL;
1046:.\pdo.c       ****   UNS8 *pTransmissionType = NULL;       /* pointer to the transmission
1047:.\pdo.c       ****                                            type */
1048:.\pdo.c       ****   UNS32 *pwCobId = NULL;
1049:.\pdo.c       ****   UNS8 Size;
1050:.\pdo.c       ****   UNS8 offset;
1051:.\pdo.c       ****   UNS8 status;
1052:.\pdo.c       ****   UNS32 objDict;
1053:.\pdo.c       ****   UNS16 offsetObjdict;
1054:.\pdo.c       ****   UNS16 lastIndex;
1055:.\pdo.c       ****   TIMEVAL EventTimerDuration = 0;
1056:.\pdo.c       **** 
1057:.\pdo.c       ****   status = state2;
1058:.\pdo.c       **** 
ARM GAS  C:\Users\PANXIA~1\AppData\Local\Temp\cczfv69T.s 			page 20


1059:.\pdo.c       ****   MSG_WAR (0x3935, "proceedPDO, cobID : ", (UNS16_LE(m->cob_id) & 0x7ff));
1060:.\pdo.c       ****   offset = 0x00;
1061:.\pdo.c       ****   numPdo = 0;
1062:.\pdo.c       ****   numMap = 0;
1063:.\pdo.c       ****   if ((*m).rtr == NOT_A_REQUEST)
1064:.\pdo.c       ****     {                           /* The PDO received is not a
1065:.\pdo.c       ****                                    request. */
1066:.\pdo.c       **** 
1067:.\pdo.c       ****       offsetObjdict = d->firstIndex->PDO_RCV;
1068:.\pdo.c       ****       lastIndex = d->lastIndex->PDO_RCV;
1069:.\pdo.c       **** 
1070:.\pdo.c       ****       /* study of all the PDO stored in the dictionary */
1071:.\pdo.c       ****       if (offsetObjdict)
1072:.\pdo.c       ****         while (offsetObjdict <= lastIndex)
1073:.\pdo.c       ****           {
1074:.\pdo.c       **** 
1075:.\pdo.c       ****             switch (status)
1076:.\pdo.c       ****               {
1077:.\pdo.c       **** 
1078:.\pdo.c       ****               case state2:
1079:.\pdo.c       ****                 /* get CobId of the dictionary correspondant to the received
1080:.\pdo.c       ****                    PDO */
1081:.\pdo.c       ****                 pwCobId =
1082:.\pdo.c       ****                   d->objdict[offsetObjdict].pSubindex[1].pObject;
1083:.\pdo.c       ****                 /* check the CobId coherance */
1084:.\pdo.c       ****                 /*pwCobId is the cobId read in the dictionary at the state 3
1085:.\pdo.c       ****                  */
1086:.\pdo.c       ****                 if (*pwCobId == UNS16_LE(m->cob_id))
1087:.\pdo.c       ****                   {
1088:.\pdo.c       ****                     /* The cobId is recognized */
1089:.\pdo.c       ****                     status = state4;
1090:.\pdo.c       ****                     EventTimerDuration = *(UNS16 *)d->objdict[offsetObjdict].pSubindex[5].pObject;
1091:.\pdo.c       ****                     MSG_WAR (0x3936, "cobId found at index ",
1092:.\pdo.c       ****                              0x1400 + numPdo);
1093:.\pdo.c       ****                     break;
1094:.\pdo.c       ****                   }
1095:.\pdo.c       ****                 else
1096:.\pdo.c       ****                   {
1097:.\pdo.c       ****                     /* cobId received does not match with those write in the
1098:.\pdo.c       ****                        dictionnary */
1099:.\pdo.c       ****                     numPdo++;
1100:.\pdo.c       ****                     offsetObjdict++;
1101:.\pdo.c       ****                     status = state2;
1102:.\pdo.c       ****                     break;
1103:.\pdo.c       ****                   }
1104:.\pdo.c       **** 
1105:.\pdo.c       ****               case state4:     /* Get Mapped Objects Number */
1106:.\pdo.c       ****                 /* The cobId of the message received has been found in the
1107:.\pdo.c       ****                    dictionnary. */
1108:.\pdo.c       ****                 offsetObjdict = d->firstIndex->PDO_RCV_MAP;
1109:.\pdo.c       ****                 lastIndex = d->lastIndex->PDO_RCV_MAP;
1110:.\pdo.c       ****                 pMappingCount =
1111:.\pdo.c       ****                   (UNS8 *) (d->objdict + offsetObjdict +
1112:.\pdo.c       ****                             numPdo)->pSubindex[0].pObject;
1113:.\pdo.c       ****                 numMap = 0;
1114:.\pdo.c       ****                 while (numMap < *pMappingCount)
1115:.\pdo.c       ****                   {
ARM GAS  C:\Users\PANXIA~1\AppData\Local\Temp\cczfv69T.s 			page 21


1116:.\pdo.c       ****                     UNS8 tmp[] = { 0, 0, 0, 0, 0, 0, 0, 0 };
1117:.\pdo.c       ****                     UNS32 ByteSize;
1118:.\pdo.c       ****                     pMappingParameter =
1119:.\pdo.c       ****                       (UNS32 *) (d->objdict + offsetObjdict +
1120:.\pdo.c       ****                                  numPdo)->pSubindex[numMap + 1].pObject;
1121:.\pdo.c       ****                     if (pMappingParameter == NULL)
1122:.\pdo.c       ****                       {
1123:.\pdo.c       ****                         MSG_ERR (0x1937, "Couldn't get mapping parameter : ",
1124:.\pdo.c       ****                                  numMap + 1);
1125:.\pdo.c       ****                         return 0xFF;
1126:.\pdo.c       ****                       }
1127:.\pdo.c       ****                     /* Get the addresse of the mapped variable. */
1128:.\pdo.c       ****                     /* detail of *pMappingParameter : */
1129:.\pdo.c       ****                     /* The 16 hight bits contains the index, the medium 8 bits
1130:.\pdo.c       ****                        contains the subindex, */
1131:.\pdo.c       ****                     /* and the lower 8 bits contains the size of the mapped
1132:.\pdo.c       ****                        variable. */
1133:.\pdo.c       **** 
1134:.\pdo.c       ****                     Size = (UNS8) (*pMappingParameter & (UNS32) 0x000000FF);
1135:.\pdo.c       **** 
1136:.\pdo.c       ****                     /* set variable only if Size != 0 and
1137:.\pdo.c       ****                      * Size is lower than remaining bits in the PDO */
1138:.\pdo.c       ****                     if (Size && ((offset + Size) <= (m->len << 3)))
1139:.\pdo.c       ****                       {
1140:.\pdo.c       ****                         /* copy bit per bit in little endian */
1141:.\pdo.c       ****                         CopyBits (Size, (UNS8 *) & m->data[offset >> 3],
1142:.\pdo.c       ****                                   offset % 8, 0, ((UNS8 *) tmp), 0, 0);
1143:.\pdo.c       ****                         /*1->8 => 1 ; 9->16 =>2, ... */
1144:.\pdo.c       ****                         ByteSize = (UNS32)(1 + ((Size - 1) >> 3));
1145:.\pdo.c       **** 
1146:.\pdo.c       ****                         objDict =
1147:.\pdo.c       ****                           setODentry (d, (UNS16) ((*pMappingParameter) >> 16),
1148:.\pdo.c       ****                                       (UNS8) (((*pMappingParameter) >> 8) &
1149:.\pdo.c       ****                                               0xFF), tmp, &ByteSize, 0);
1150:.\pdo.c       **** 
1151:.\pdo.c       ****                         if (objDict != OD_SUCCESSFUL)
1152:.\pdo.c       ****                           {
1153:.\pdo.c       ****                             MSG_ERR (0x1938,
1154:.\pdo.c       ****                                      "error accessing to the mapped var : ",
1155:.\pdo.c       ****                                      numMap + 1);
1156:.\pdo.c       ****                             MSG_WAR (0x2939, "         Mapped at index : ",
1157:.\pdo.c       ****                                      (*pMappingParameter) >> 16);
1158:.\pdo.c       ****                             MSG_WAR (0x2940, "                subindex : ",
1159:.\pdo.c       ****                                      ((*pMappingParameter) >> 8) & 0xFF);
1160:.\pdo.c       ****                             return 0xFF;
1161:.\pdo.c       ****                           }
1162:.\pdo.c       **** 
1163:.\pdo.c       ****                         MSG_WAR (0x3942,
1164:.\pdo.c       ****                                  "Variable updated by PDO cobid : ",
1165:.\pdo.c       ****                                  UNS16_LE(m->cob_id));
1166:.\pdo.c       ****                         MSG_WAR (0x3943, "         Mapped at index : ",
1167:.\pdo.c       ****                                  (*pMappingParameter) >> 16);
1168:.\pdo.c       ****                         MSG_WAR (0x3944, "                subindex : ",
1169:.\pdo.c       ****                                  ((*pMappingParameter) >> 8) & 0xFF);
1170:.\pdo.c       ****                         offset += Size;
1171:.\pdo.c       ****                       }
1172:.\pdo.c       ****                     numMap++;
ARM GAS  C:\Users\PANXIA~1\AppData\Local\Temp\cczfv69T.s 			page 22


1173:.\pdo.c       ****                   }             /* end loop while on mapped variables */
1174:.\pdo.c       ****                 if (EventTimerDuration && d->RxPDO_EventTimers)
1175:.\pdo.c       ****                 {
1176:.\pdo.c       ****                     DelAlarm (d->RxPDO_EventTimers[numPdo]);
1177:.\pdo.c       ****                     d->RxPDO_EventTimers[numPdo] = SetAlarm (d, numPdo, d->RxPDO_EventTimers_Handle
1178:.\pdo.c       ****                     MS_TO_TIMEVAL (EventTimerDuration), 0);
1179:.\pdo.c       ****                 }
1180:.\pdo.c       ****                 return 0;
1181:.\pdo.c       **** 
1182:.\pdo.c       ****               }                 /* end switch status */
1183:.\pdo.c       ****           }                     /* end while */
1184:.\pdo.c       ****     }                           /* end if Donnees */
1185:.\pdo.c       ****   else if ((*m).rtr == REQUEST)
1186:.\pdo.c       ****     {
1187:.\pdo.c       ****       MSG_WAR (0x3946, "Receive a PDO request cobId : ", UNS16_LE(m->cob_id));
1188:.\pdo.c       ****       status = state1;
1189:.\pdo.c       ****       offsetObjdict = d->firstIndex->PDO_TRS;
1190:.\pdo.c       ****       lastIndex = d->lastIndex->PDO_TRS;
1191:.\pdo.c       ****       if (offsetObjdict)
1192:.\pdo.c       ****         while (offsetObjdict <= lastIndex)
1193:.\pdo.c       ****           {
1194:.\pdo.c       ****             /* study of all PDO stored in the objects dictionary */
1195:.\pdo.c       **** 
1196:.\pdo.c       ****             switch (status)
1197:.\pdo.c       ****               {
1198:.\pdo.c       **** 
1199:.\pdo.c       ****               case state1:     /* check the CobId */
1200:.\pdo.c       ****                 /* get CobId of the dictionary which match to the received PDO
1201:.\pdo.c       ****                  */
1202:.\pdo.c       ****                 pwCobId =
1203:.\pdo.c       ****                    (d->objdict +
1204:.\pdo.c       ****                              offsetObjdict)->pSubindex[1].pObject;
1205:.\pdo.c       ****                 if (*pwCobId == UNS16_LE(m->cob_id))
1206:.\pdo.c       ****                   {
1207:.\pdo.c       ****                     status = state4;
1208:.\pdo.c       ****                     break;
1209:.\pdo.c       ****                   }
1210:.\pdo.c       ****                 else
1211:.\pdo.c       ****                   {
1212:.\pdo.c       ****                     numPdo++;
1213:.\pdo.c       ****                     offsetObjdict++;
1214:.\pdo.c       ****                   }
1215:.\pdo.c       ****                 status = state1;
1216:.\pdo.c       ****                 break;
1217:.\pdo.c       **** 
1218:.\pdo.c       **** 
1219:.\pdo.c       ****               case state4:     /* check transmission type */
1220:.\pdo.c       ****                 pTransmissionType =
1221:.\pdo.c       ****                   (UNS8 *) d->objdict[offsetObjdict].pSubindex[2].pObject;
1222:.\pdo.c       ****                 /* If PDO is to be sampled and send on RTR, do it */
1223:.\pdo.c       ****                 if ((*pTransmissionType == TRANS_RTR))
1224:.\pdo.c       ****                   {
1225:.\pdo.c       ****                     status = state5;
1226:.\pdo.c       ****                     break;
1227:.\pdo.c       ****                   }
1228:.\pdo.c       ****                 /* RTR_SYNC means data prepared at SYNC, transmitted on RTR */
1229:.\pdo.c       ****                 else if ((*pTransmissionType == TRANS_RTR_SYNC))
ARM GAS  C:\Users\PANXIA~1\AppData\Local\Temp\cczfv69T.s 			page 23


1230:.\pdo.c       ****                   {
1231:.\pdo.c       ****                     if (d->PDO_status[numPdo].
1232:.\pdo.c       ****                         transmit_type_parameter & PDO_RTR_SYNC_READY)
1233:.\pdo.c       ****                       {
1234:.\pdo.c       ****                         /*Data ready, just send */
1235:.\pdo.c       ****                         canSend (d->canHandle,
1236:.\pdo.c       ****                                  &d->PDO_status[numPdo].last_message);
1237:.\pdo.c       ****                         return 0;
1238:.\pdo.c       ****                       }
1239:.\pdo.c       ****                     else
1240:.\pdo.c       ****                       {
1241:.\pdo.c       ****                         /* if SYNC did never occur, transmit current data */
1242:.\pdo.c       ****                         /* DS301 do not tell what to do in such a case... */
1243:.\pdo.c       ****                         MSG_ERR (0x1947,
1244:.\pdo.c       ****                                  "Not ready RTR_SYNC TPDO send current data : ",
1245:.\pdo.c       ****                                  UNS16_LE(m->cob_id));
1246:.\pdo.c       ****                         status = state5;
1247:.\pdo.c       ****                       }
1248:.\pdo.c       ****                     break;
1249:.\pdo.c       ****                   }
1250:.\pdo.c       ****                 else if ((*pTransmissionType == TRANS_EVENT_PROFILE) ||
1251:.\pdo.c       ****                          (*pTransmissionType == TRANS_EVENT_SPECIFIC))
1252:.\pdo.c       ****                   {
1253:.\pdo.c       ****                     /* Zap all timers and inhibit flag */
1254:.\pdo.c       ****                     d->PDO_status[numPdo].event_timer =
1255:.\pdo.c       ****                       DelAlarm (d->PDO_status[numPdo].event_timer);
1256:.\pdo.c       ****                     d->PDO_status[numPdo].inhibit_timer =
1257:.\pdo.c       ****                       DelAlarm (d->PDO_status[numPdo].inhibit_timer);
1258:.\pdo.c       ****                     d->PDO_status[numPdo].transmit_type_parameter &=
1259:.\pdo.c       ****                       ~PDO_INHIBITED;
1260:.\pdo.c       ****                     /* Call  PDOEventTimerAlarm for this TPDO,
1261:.\pdo.c       ****                      * this will trigger emission et reset timers */
1262:.\pdo.c       ****                     PDOEventTimerAlarm (d, numPdo);
1263:.\pdo.c       ****                     return 0;
1264:.\pdo.c       ****                   }
1265:.\pdo.c       ****                 else
1266:.\pdo.c       ****                   {
1267:.\pdo.c       ****                     /* The requested PDO is not to send on request. So, does
1268:.\pdo.c       ****                        nothing. */
1269:.\pdo.c       ****                     MSG_WAR (0x2947, "PDO is not to send on request : ",
1270:.\pdo.c       ****                              UNS16_LE(m->cob_id));
1271:.\pdo.c       ****                     return 0xFF;
1272:.\pdo.c       ****                   }
1273:.\pdo.c       **** 
1274:.\pdo.c       ****               case state5:     /* build and send requested PDO */
1275:.\pdo.c       ****                 {
1276:.\pdo.c       ****                   Message pdo;
1277:.\pdo.c       ****                   if (buildPDO (d, numPdo, &pdo))
1278:.\pdo.c       ****                     {
1279:.\pdo.c       ****                       MSG_ERR (0x1948, " Couldn't build TPDO number : ", numPdo);
1280:.\pdo.c       ****                       return 0xFF;
1281:.\pdo.c       ****                     }
1282:.\pdo.c       ****                   canSend (d->canHandle, &pdo);
1283:.\pdo.c       ****                   return 0;
1284:.\pdo.c       ****                 }
1285:.\pdo.c       ****               }                 /* end switch status */
1286:.\pdo.c       ****           }                     /* end while */
ARM GAS  C:\Users\PANXIA~1\AppData\Local\Temp\cczfv69T.s 			page 24


1287:.\pdo.c       ****     }                           /* end if Requete */
1288:.\pdo.c       **** 
1289:.\pdo.c       ****   return 0;
1290:.\pdo.c       **** }
1291:.\pdo.c       **** 
1292:.\pdo.c       **** /*!
1293:.\pdo.c       **** **
1294:.\pdo.c       **** **
1295:.\pdo.c       **** ** @param NbBits
1296:.\pdo.c       **** ** @param SrcByteIndex
1297:.\pdo.c       **** ** @param SrcBitIndex
1298:.\pdo.c       **** ** @param SrcBigEndian
1299:.\pdo.c       **** ** @param DestByteIndex
1300:.\pdo.c       **** ** @param DestBitIndex
1301:.\pdo.c       **** ** @param DestBigEndian
1302:.\pdo.c       **** **/
1303:.\pdo.c       **** void
1304:.\pdo.c       **** CopyBits (UNS8 NbBits, UNS8 * SrcByteIndex, UNS8 SrcBitIndex,
1305:.\pdo.c       ****           UNS8 SrcBigEndian, UNS8 * DestByteIndex, UNS8 DestBitIndex,
1306:.\pdo.c       ****           UNS8 DestBigEndian)
1307:.\pdo.c       **** {
1308:.\pdo.c       ****   /* This loop copy as many bits that it can each time, crossing */
1309:.\pdo.c       ****   /* successively bytes */
1310:.\pdo.c       ****   // boundaries from LSB to MSB.
1311:.\pdo.c       ****   while (NbBits > 0)
1312:.\pdo.c       ****     {
1313:.\pdo.c       ****       /* Bit missalignement between src and dest */
1314:.\pdo.c       ****       INTEGER8 Vect = DestBitIndex - SrcBitIndex;
1315:.\pdo.c       **** 
1316:.\pdo.c       ****       /* We can now get src and align it to dest */
1317:.\pdo.c       ****       UNS8 Aligned =
1318:.\pdo.c       ****         Vect > 0 ? *SrcByteIndex << Vect : *SrcByteIndex >> -Vect;
1319:.\pdo.c       **** 
1320:.\pdo.c       ****       /* Compute the nb of bit we will be able to copy */
1321:.\pdo.c       ****       UNS8 BoudaryLimit = (Vect > 0 ? 8 - DestBitIndex : 8 - SrcBitIndex);
1322:.\pdo.c       ****       UNS8 BitsToCopy = BoudaryLimit > NbBits ? NbBits : BoudaryLimit;
1323:.\pdo.c       **** 
1324:.\pdo.c       ****       /* Create a mask that will serve in: */
1325:.\pdo.c       ****       UNS8 Mask =
1326:.\pdo.c       ****         ((0xff << (DestBitIndex + BitsToCopy)) |
1327:.\pdo.c       ****          (0xff >> (8 - DestBitIndex)));
1328:.\pdo.c       **** 
1329:.\pdo.c       ****       /* - Filtering src */
1330:.\pdo.c       ****       UNS8 Filtered = Aligned & ~Mask;
1331:.\pdo.c       **** 
1332:.\pdo.c       ****       /* - and erase bits where we write, preserve where we don't */
1333:.\pdo.c       ****       *DestByteIndex &= Mask;
1334:.\pdo.c       **** 
1335:.\pdo.c       ****       /* Then write. */
1336:.\pdo.c       ****       *DestByteIndex |= Filtered;
1337:.\pdo.c       **** 
1338:.\pdo.c       ****       /*Compute next time cursors for src */
1339:.\pdo.c       ****       if ((SrcBitIndex += BitsToCopy) > 7)      /* cross boundary ? */
1340:.\pdo.c       ****         {
1341:.\pdo.c       ****           SrcBitIndex = 0;      /* First bit */
1342:.\pdo.c       ****           SrcByteIndex += (SrcBigEndian ? -1 : 1);      /* Next byte */
1343:.\pdo.c       ****         }
ARM GAS  C:\Users\PANXIA~1\AppData\Local\Temp\cczfv69T.s 			page 25


1344:.\pdo.c       **** 
1345:.\pdo.c       **** 
1346:.\pdo.c       ****       /*Compute next time cursors for dest */
1347:.\pdo.c       ****       if ((DestBitIndex += BitsToCopy) > 7)
1348:.\pdo.c       ****         {
1349:.\pdo.c       ****           DestBitIndex = 0;     /* First bit */
1350:.\pdo.c       ****           DestByteIndex += (DestBigEndian ? -1 : 1);    /* Next byte */
1351:.\pdo.c       ****         }
1352:.\pdo.c       **** 
1353:.\pdo.c       ****       /*And decrement counter. */
1354:.\pdo.c       ****       NbBits -= BitsToCopy;
1355:.\pdo.c       ****     }
1356:.\pdo.c       **** 
1357:.\pdo.c       **** }
1358:.\pdo.c       **** 
1359:.\pdo.c       **** static void sendPdo(CO_Data * d, UNS32 pdoNum, Message * pdo)
1360:.\pdo.c       **** {
  26              		.loc 1 1360 0
  27              		.cfi_startproc
  28              		@ args = 0, pretend = 0, frame = 0
  29              		@ frame_needed = 0, uses_anonymous_args = 0
  30              	.LVL0:
  31 0000 70B5     		push	{r4, r5, r6, lr}
  32              		.cfi_def_cfa_offset 16
  33              		.cfi_offset 4, -16
  34              		.cfi_offset 5, -12
  35              		.cfi_offset 6, -8
  36              		.cfi_offset 14, -4
1361:.\pdo.c       ****   /*store_as_last_message */
1362:.\pdo.c       ****   d->PDO_status[pdoNum].last_message = *pdo;
  37              		.loc 1 1362 0
  38 0002 8368     		ldr	r3, [r0, #8]
  39 0004 01EBC101 		add	r1, r1, r1, lsl #3
  40              	.LVL1:
  41 0008 4900     		lsls	r1, r1, #1
  42 000a 1944     		add	r1, r1, r3
  43 000c 1668     		ldr	r6, [r2]	@ unaligned
  44 000e 5568     		ldr	r5, [r2, #4]	@ unaligned
  45 0010 9468     		ldr	r4, [r2, #8]	@ unaligned
  46 0012 C1F80660 		str	r6, [r1, #6]	@ unaligned
  47 0016 C1F80A50 		str	r5, [r1, #10]	@ unaligned
  48 001a C1F80E40 		str	r4, [r1, #14]	@ unaligned
1363:.\pdo.c       ****   MSG_WAR (0x396D, "sendPDO cobId :", UNS16_LE(pdo->cob_id));
1364:.\pdo.c       ****   MSG_WAR (0x396E, "     Nb octets  : ", pdo->len);
1365:.\pdo.c       **** 
1366:.\pdo.c       ****   canSend (d->canHandle, pdo);
  49              		.loc 1 1366 0
  50 001e D0F85001 		ldr	r0, [r0, #336]
  51              	.LVL2:
  52 0022 1146     		mov	r1, r2
  53 0024 FFF7FEFF 		bl	canSend
  54              	.LVL3:
  55 0028 70BD     		pop	{r4, r5, r6, pc}
  56              		.cfi_endproc
  57              	.LFE4:
  58              		.size	sendPdo, .-sendPdo
  59 002a 00BF     		.section	.text.sendPDOrequest,"ax",%progbits
ARM GAS  C:\Users\PANXIA~1\AppData\Local\Temp\cczfv69T.s 			page 26


  60              		.align	2
  61              		.global	sendPDOrequest
  62              		.thumb
  63              		.thumb_func
  64              		.type	sendPDOrequest, %function
  65              	sendPDOrequest:
  66              	.LFB1:
 988:.\pdo.c       ****   UNS32 *pwCobId;
  67              		.loc 1 988 0
  68              		.cfi_startproc
  69              		@ args = 0, pretend = 0, frame = 16
  70              		@ frame_needed = 0, uses_anonymous_args = 0
  71              	.LVL4:
  72 0000 10B5     		push	{r4, lr}
  73              		.cfi_def_cfa_offset 8
  74              		.cfi_offset 4, -8
  75              		.cfi_offset 14, -4
  76 0002 84B0     		sub	sp, sp, #16
  77              		.cfi_def_cfa_offset 24
 990:.\pdo.c       ****   UNS16 lastIndex = d->lastIndex->PDO_RCV;
  78              		.loc 1 990 0
  79 0004 4269     		ldr	r2, [r0, #20]
  80 0006 9388     		ldrh	r3, [r2, #4]
  81              	.LVL5:
 991:.\pdo.c       **** 
  82              		.loc 1 991 0
  83 0008 8269     		ldr	r2, [r0, #24]
  84 000a 9488     		ldrh	r4, [r2, #4]
  85              	.LVL6:
 993:.\pdo.c       ****     {
  86              		.loc 1 993 0
  87 000c 90F87E20 		ldrb	r2, [r0, #126]	@ zero_extendqisi2
  88 0010 E2B1     		cbz	r2, .L5
1004:.\pdo.c       ****     {
  89              		.loc 1 1004 0
  90 0012 EBB1     		cbz	r3, .L6
1004:.\pdo.c       ****     {
  91              		.loc 1 1004 0 is_stmt 0 discriminator 1
  92 0014 B1F5A05F 		cmp	r1, #5120
  93 0018 1CD3     		bcc	.L7
1006:.\pdo.c       ****       if (offset <= lastIndex)
  94              		.loc 1 1006 0 is_stmt 1
  95 001a 0B44     		add	r3, r3, r1
  96              	.LVL7:
  97 001c A3F5A053 		sub	r3, r3, #5120
  98 0020 9BB2     		uxth	r3, r3
  99              	.LVL8:
1007:.\pdo.c       ****         {
 100              		.loc 1 1007 0
 101 0022 A342     		cmp	r3, r4
 102 0024 18D8     		bhi	.L8
1010:.\pdo.c       **** 
 103              		.loc 1 1010 0
 104 0026 4268     		ldr	r2, [r0, #4]
 105 0028 52F83330 		ldr	r3, [r2, r3, lsl #3]
 106              	.LVL9:
 107 002c 5B69     		ldr	r3, [r3, #20]
ARM GAS  C:\Users\PANXIA~1\AppData\Local\Temp\cczfv69T.s 			page 27


 108              	.LVL10:
 109              	.LBB2:
1015:.\pdo.c       ****             pdo.rtr = REQUEST;
 110              		.loc 1 1015 0
 111 002e 1B88     		ldrh	r3, [r3]
 112              	.LVL11:
 113 0030 ADF80430 		strh	r3, [sp, #4]	@ movhi
 114              	.LVL12:
1016:.\pdo.c       ****             pdo.len = 0;
 115              		.loc 1 1016 0
 116 0034 0123     		movs	r3, #1
 117 0036 8DF80630 		strb	r3, [sp, #6]
1017:.\pdo.c       ****             return canSend (d->canHandle, &pdo);
 118              		.loc 1 1017 0
 119 003a 0023     		movs	r3, #0
 120 003c 8DF80730 		strb	r3, [sp, #7]
1018:.\pdo.c       ****           }
 121              		.loc 1 1018 0
 122 0040 D0F85001 		ldr	r0, [r0, #336]
 123              	.LVL13:
 124 0044 01A9     		add	r1, sp, #4
 125              	.LVL14:
 126 0046 FFF7FEFF 		bl	canSend
 127              	.LVL15:
 128 004a 06E0     		b	.L4
 129              	.LVL16:
 130              	.L5:
 131              	.LBE2:
 995:.\pdo.c       ****     }
 132              		.loc 1 995 0
 133 004c 0020     		movs	r0, #0
 134              	.LVL17:
 135 004e 04E0     		b	.L4
 136              	.LVL18:
 137              	.L6:
1023:.\pdo.c       **** }
 138              		.loc 1 1023 0
 139 0050 FF20     		movs	r0, #255
 140              	.LVL19:
 141 0052 02E0     		b	.L4
 142              	.LVL20:
 143              	.L7:
 144 0054 FF20     		movs	r0, #255
 145              	.LVL21:
 146 0056 00E0     		b	.L4
 147              	.LVL22:
 148              	.L8:
 149 0058 FF20     		movs	r0, #255
 150              	.LVL23:
 151              	.L4:
1024:.\pdo.c       **** 
 152              		.loc 1 1024 0 discriminator 1
 153 005a 04B0     		add	sp, sp, #16
 154              		.cfi_def_cfa_offset 8
 155              		@ sp needed
 156 005c 10BD     		pop	{r4, pc}
 157              		.cfi_endproc
ARM GAS  C:\Users\PANXIA~1\AppData\Local\Temp\cczfv69T.s 			page 28


 158              	.LFE1:
 159              		.size	sendPDOrequest, .-sendPDOrequest
 160 005e 00BF     		.section	.text.CopyBits,"ax",%progbits
 161              		.align	2
 162              		.global	CopyBits
 163              		.thumb
 164              		.thumb_func
 165              		.type	CopyBits, %function
 166              	CopyBits:
 167              	.LFB3:
1307:.\pdo.c       ****   /* This loop copy as many bits that it can each time, crossing */
 168              		.loc 1 1307 0
 169              		.cfi_startproc
 170              		@ args = 12, pretend = 0, frame = 0
 171              		@ frame_needed = 0, uses_anonymous_args = 0
 172              	.LVL24:
 173 0000 2DE9F043 		push	{r4, r5, r6, r7, r8, r9, lr}
 174              		.cfi_def_cfa_offset 28
 175              		.cfi_offset 4, -28
 176              		.cfi_offset 5, -24
 177              		.cfi_offset 6, -20
 178              		.cfi_offset 7, -16
 179              		.cfi_offset 8, -12
 180              		.cfi_offset 9, -8
 181              		.cfi_offset 14, -4
 182 0004 9846     		mov	r8, r3
 183 0006 DDF81CC0 		ldr	ip, [sp, #28]
 184 000a 9DF82060 		ldrb	r6, [sp, #32]	@ zero_extendqisi2
 185 000e 9DF82430 		ldrb	r3, [sp, #36]	@ zero_extendqisi2
 186              	.LVL25:
1311:.\pdo.c       ****     {
 187              		.loc 1 1311 0
 188 0012 4DE0     		b	.L11
 189              	.LVL26:
 190              	.L20:
 191              	.LBB3:
1314:.\pdo.c       **** 
 192              		.loc 1 1314 0
 193 0014 B71A     		subs	r7, r6, r2
 194 0016 FFB2     		uxtb	r7, r7
 195              	.LVL27:
1317:.\pdo.c       ****         Vect > 0 ? *SrcByteIndex << Vect : *SrcByteIndex >> -Vect;
 196              		.loc 1 1317 0
 197 0018 7CB2     		sxtb	r4, r7
 198 001a 002C     		cmp	r4, #0
 199 001c 06DD     		ble	.L12
1318:.\pdo.c       **** 
 200              		.loc 1 1318 0 discriminator 1
 201 001e 91F800E0 		ldrb	lr, [r1]	@ zero_extendqisi2
 202 0022 0EFA04FE 		lsl	lr, lr, r4
1317:.\pdo.c       ****         Vect > 0 ? *SrcByteIndex << Vect : *SrcByteIndex >> -Vect;
 203              		.loc 1 1317 0 discriminator 1
 204 0026 5FFA8EFE 		uxtb	lr, lr
 205 002a 07E0     		b	.L13
 206              	.L12:
1318:.\pdo.c       **** 
 207              		.loc 1 1318 0 discriminator 2
ARM GAS  C:\Users\PANXIA~1\AppData\Local\Temp\cczfv69T.s 			page 29


 208 002c 91F800E0 		ldrb	lr, [r1]	@ zero_extendqisi2
 209 0030 7CB2     		sxtb	r4, r7
 210 0032 6442     		negs	r4, r4
 211 0034 4EFA04FE 		asr	lr, lr, r4
1317:.\pdo.c       ****         Vect > 0 ? *SrcByteIndex << Vect : *SrcByteIndex >> -Vect;
 212              		.loc 1 1317 0 discriminator 2
 213 0038 5FFA8EFE 		uxtb	lr, lr
 214              	.L13:
 215              	.LVL28:
1321:.\pdo.c       ****       UNS8 BitsToCopy = BoudaryLimit > NbBits ? NbBits : BoudaryLimit;
 216              		.loc 1 1321 0 discriminator 4
 217 003c 7FB2     		sxtb	r7, r7
 218 003e 002F     		cmp	r7, #0
 219 0040 03DD     		ble	.L14
1321:.\pdo.c       ****       UNS8 BitsToCopy = BoudaryLimit > NbBits ? NbBits : BoudaryLimit;
 220              		.loc 1 1321 0 is_stmt 0 discriminator 1
 221 0042 C6F10804 		rsb	r4, r6, #8
 222 0046 E4B2     		uxtb	r4, r4
 223 0048 02E0     		b	.L15
 224              	.L14:
1321:.\pdo.c       ****       UNS8 BitsToCopy = BoudaryLimit > NbBits ? NbBits : BoudaryLimit;
 225              		.loc 1 1321 0 discriminator 2
 226 004a C2F10804 		rsb	r4, r2, #8
 227 004e E4B2     		uxtb	r4, r4
 228              	.L15:
 229              	.LVL29:
1322:.\pdo.c       **** 
 230              		.loc 1 1322 0 is_stmt 1 discriminator 4
 231 0050 8442     		cmp	r4, r0
 232 0052 28BF     		it	cs
 233 0054 0446     		movcs	r4, r0
 234              	.LVL30:
1326:.\pdo.c       ****          (0xff >> (8 - DestBitIndex)));
 235              		.loc 1 1326 0 discriminator 4
 236 0056 3719     		adds	r7, r6, r4
 237              	.LVL31:
 238 0058 FF25     		movs	r5, #255
 239 005a 05FA07F7 		lsl	r7, r5, r7
1327:.\pdo.c       **** 
 240              		.loc 1 1327 0 discriminator 4
 241 005e C6F10809 		rsb	r9, r6, #8
 242 0062 45FA09F5 		asr	r5, r5, r9
1325:.\pdo.c       ****         ((0xff << (DestBitIndex + BitsToCopy)) |
 243              		.loc 1 1325 0 discriminator 4
 244 0066 3D43     		orrs	r5, r5, r7
 245 0068 EDB2     		uxtb	r5, r5
 246              	.LVL32:
1330:.\pdo.c       **** 
 247              		.loc 1 1330 0 discriminator 4
 248 006a 2EEA050E 		bic	lr, lr, r5
 249              	.LVL33:
1333:.\pdo.c       **** 
 250              		.loc 1 1333 0 discriminator 4
 251 006e 9CF80070 		ldrb	r7, [ip]	@ zero_extendqisi2
 252 0072 3D40     		ands	r5, r5, r7
 253              	.LVL34:
1336:.\pdo.c       **** 
ARM GAS  C:\Users\PANXIA~1\AppData\Local\Temp\cczfv69T.s 			page 30


 254              		.loc 1 1336 0 discriminator 4
 255 0074 4EEA0505 		orr	r5, lr, r5
 256 0078 8CF80050 		strb	r5, [ip]
1339:.\pdo.c       ****         {
 257              		.loc 1 1339 0 discriminator 4
 258 007c 2244     		add	r2, r2, r4
 259              	.LVL35:
 260 007e D2B2     		uxtb	r2, r2
 261              	.LVL36:
 262 0080 072A     		cmp	r2, #7
 263 0082 08D9     		bls	.L16
 264              	.LVL37:
1342:.\pdo.c       ****         }
 265              		.loc 1 1342 0
 266 0084 B8F1000F 		cmp	r8, #0
 267 0088 02D0     		beq	.L21
 268 008a 4FF0FF32 		mov	r2, #-1
 269 008e 00E0     		b	.L17
 270              	.L21:
 271 0090 0122     		movs	r2, #1
 272              	.L17:
1342:.\pdo.c       ****         }
 273              		.loc 1 1342 0 is_stmt 0 discriminator 4
 274 0092 1144     		add	r1, r1, r2
 275              	.LVL38:
1341:.\pdo.c       ****           SrcByteIndex += (SrcBigEndian ? -1 : 1);      /* Next byte */
 276              		.loc 1 1341 0 is_stmt 1 discriminator 4
 277 0094 0022     		movs	r2, #0
 278              	.LVL39:
 279              	.L16:
1347:.\pdo.c       ****         {
 280              		.loc 1 1347 0
 281 0096 2644     		add	r6, r6, r4
 282              	.LVL40:
 283 0098 F6B2     		uxtb	r6, r6
 284              	.LVL41:
 285 009a 072E     		cmp	r6, #7
 286 009c 06D9     		bls	.L18
 287              	.LVL42:
1350:.\pdo.c       ****         }
 288              		.loc 1 1350 0
 289 009e 13B1     		cbz	r3, .L22
 290 00a0 4FF0FF35 		mov	r5, #-1
 291 00a4 00E0     		b	.L19
 292              	.L22:
 293 00a6 0125     		movs	r5, #1
 294              	.L19:
1350:.\pdo.c       ****         }
 295              		.loc 1 1350 0 is_stmt 0 discriminator 4
 296 00a8 AC44     		add	ip, ip, r5
 297              	.LVL43:
1349:.\pdo.c       ****           DestByteIndex += (DestBigEndian ? -1 : 1);    /* Next byte */
 298              		.loc 1 1349 0 is_stmt 1 discriminator 4
 299 00aa 0026     		movs	r6, #0
 300              	.LVL44:
 301              	.L18:
1354:.\pdo.c       ****     }
ARM GAS  C:\Users\PANXIA~1\AppData\Local\Temp\cczfv69T.s 			page 31


 302              		.loc 1 1354 0
 303 00ac 001B     		subs	r0, r0, r4
 304              	.LVL45:
 305 00ae C0B2     		uxtb	r0, r0
 306              	.LVL46:
 307              	.L11:
 308              	.LBE3:
1311:.\pdo.c       ****     {
 309              		.loc 1 1311 0
 310 00b0 0028     		cmp	r0, #0
 311 00b2 AFD1     		bne	.L20
1357:.\pdo.c       **** 
 312              		.loc 1 1357 0
 313 00b4 BDE8F083 		pop	{r4, r5, r6, r7, r8, r9, pc}
 314              		.cfi_endproc
 315              	.LFE3:
 316              		.size	CopyBits, .-CopyBits
 317              		.section	.text.buildPDO,"ax",%progbits
 318              		.align	2
 319              		.global	buildPDO
 320              		.thumb
 321              		.thumb_func
 322              		.type	buildPDO, %function
 323              	buildPDO:
 324              	.LFB0:
 916:.\pdo.c       ****   const indextable *TPDO_com = d->objdict + d->firstIndex->PDO_TRS + numPdo;
 325              		.loc 1 916 0
 326              		.cfi_startproc
 327              		@ args = 0, pretend = 0, frame = 16
 328              		@ frame_needed = 0, uses_anonymous_args = 0
 329              	.LVL47:
 330 0000 2DE9F04F 		push	{r4, r5, r6, r7, r8, r9, r10, fp, lr}
 331              		.cfi_def_cfa_offset 36
 332              		.cfi_offset 4, -36
 333              		.cfi_offset 5, -32
 334              		.cfi_offset 6, -28
 335              		.cfi_offset 7, -24
 336              		.cfi_offset 8, -20
 337              		.cfi_offset 9, -16
 338              		.cfi_offset 10, -12
 339              		.cfi_offset 11, -8
 340              		.cfi_offset 14, -4
 341 0004 89B0     		sub	sp, sp, #36
 342              		.cfi_def_cfa_offset 72
 343 0006 8146     		mov	r9, r0
 344 0008 9046     		mov	r8, r2
 917:.\pdo.c       ****   const indextable *TPDO_map = d->objdict + d->firstIndex->PDO_TRS_MAP + numPdo;
 345              		.loc 1 917 0
 346 000a 4268     		ldr	r2, [r0, #4]
 347              	.LVL48:
 348 000c 4369     		ldr	r3, [r0, #20]
 349 000e 1889     		ldrh	r0, [r3, #8]
 350              	.LVL49:
 351 0010 0844     		add	r0, r0, r1
 352              	.LVL50:
 918:.\pdo.c       **** 
 353              		.loc 1 918 0
ARM GAS  C:\Users\PANXIA~1\AppData\Local\Temp\cczfv69T.s 			page 32


 354 0012 5B89     		ldrh	r3, [r3, #10]
 355 0014 1944     		add	r1, r1, r3
 356              	.LVL51:
 357 0016 02EBC106 		add	r6, r2, r1, lsl #3
 358              	.LVL52:
 922:.\pdo.c       **** 
 359              		.loc 1 922 0
 360 001a 52F83130 		ldr	r3, [r2, r1, lsl #3]
 361 001e 9F68     		ldr	r7, [r3, #8]
 362              	.LVL53:
 924:.\pdo.c       ****   pdo->rtr = NOT_A_REQUEST;
 363              		.loc 1 924 0
 364 0020 52F83030 		ldr	r3, [r2, r0, lsl #3]
 365 0024 5B69     		ldr	r3, [r3, #20]
 366 0026 1B68     		ldr	r3, [r3]
 367 0028 C3F30A03 		ubfx	r3, r3, #0, #11
 368 002c A8F80030 		strh	r3, [r8]	@ movhi
 925:.\pdo.c       **** 
 369              		.loc 1 925 0
 370 0030 0024     		movs	r4, #0
 371 0032 88F80240 		strb	r4, [r8, #2]
 921:.\pdo.c       ****   const UNS8 *pMappingCount = (UNS8 *) TPDO_map->pSubindex[0].pObject;
 372              		.loc 1 921 0
 373 0036 2546     		mov	r5, r4
 374              	.LVL54:
 375              	.L28:
 376              	.LBB4:
 934:.\pdo.c       **** 
 377              		.loc 1 934 0
 378 0038 0023     		movs	r3, #0
 379 003a 8DF81830 		strb	r3, [sp, #24]
 380 003e 8DF81930 		strb	r3, [sp, #25]
 381 0042 8DF81A30 		strb	r3, [sp, #26]
 382 0046 8DF81B30 		strb	r3, [sp, #27]
 383 004a 8DF81C30 		strb	r3, [sp, #28]
 384 004e 8DF81D30 		strb	r3, [sp, #29]
 385 0052 8DF81E30 		strb	r3, [sp, #30]
 386 0056 8DF81F30 		strb	r3, [sp, #31]
 938:.\pdo.c       ****       UNS16 index = (UNS16) ((*pMappingParameter) >> 16);
 387              		.loc 1 938 0
 388 005a 3268     		ldr	r2, [r6]
 389 005c 631C     		adds	r3, r4, #1
 390 005e 03EB4303 		add	r3, r3, r3, lsl #1
 391 0062 9B00     		lsls	r3, r3, #2
 392 0064 1344     		add	r3, r3, r2
 937:.\pdo.c       ****         (UNS32 *) TPDO_map->pSubindex[prp_j + 1].pObject;
 393              		.loc 1 937 0
 394 0066 9B68     		ldr	r3, [r3, #8]
 395              	.LVL55:
 939:.\pdo.c       ****       UNS32 Size = (UNS32) (*pMappingParameter & (UNS32) 0x000000FF);     /* Size in bits */
 396              		.loc 1 939 0
 397 0068 1868     		ldr	r0, [r3]
 398 006a 010C     		lsrs	r1, r0, #16
 399              	.LVL56:
 943:.\pdo.c       ****         {
 400              		.loc 1 943 0
 401 006c 10F0FF0A 		ands	r10, r0, #255
ARM GAS  C:\Users\PANXIA~1\AppData\Local\Temp\cczfv69T.s 			page 33


 402 0070 29D0     		beq	.L25
 943:.\pdo.c       ****         {
 403              		.loc 1 943 0 is_stmt 0 discriminator 1
 404 0072 05EB0A0B 		add	fp, r5, r10
 405 0076 BBF1400F 		cmp	fp, #64
 406 007a 24D8     		bhi	.L25
 407              	.LBB5:
 945:.\pdo.c       ****           UNS8 subIndex =
 408              		.loc 1 945 0 is_stmt 1
 409 007c 0AF1FF32 		add	r2, r10, #-1
 410 0080 D208     		lsrs	r2, r2, #3
 411 0082 0132     		adds	r2, r2, #1
 412 0084 0592     		str	r2, [sp, #20]
 946:.\pdo.c       ****             (UNS8) (((*pMappingParameter) >> (UNS8) 8) & (UNS32) 0x000000FF);
 413              		.loc 1 946 0
 414 0086 5A78     		ldrb	r2, [r3, #1]	@ zero_extendqisi2
 415              	.LVL57:
 953:.\pdo.c       ****               OD_SUCCESSFUL)
 416              		.loc 1 953 0
 417 0088 05AB     		add	r3, sp, #20
 418              	.LVL58:
 419 008a 0093     		str	r3, [sp]
 420 008c 0DF11303 		add	r3, sp, #19
 421 0090 0193     		str	r3, [sp, #4]
 422 0092 0023     		movs	r3, #0
 423 0094 0293     		str	r3, [sp, #8]
 424 0096 0123     		movs	r3, #1
 425 0098 0393     		str	r3, [sp, #12]
 426 009a 4846     		mov	r0, r9
 427              	.LVL59:
 428 009c 06AB     		add	r3, sp, #24
 429 009e FFF7FEFF 		bl	_getODentry
 430              	.LVL60:
 431 00a2 08B1     		cbz	r0, .L26
 959:.\pdo.c       ****             }
 432              		.loc 1 959 0
 433 00a4 FF20     		movs	r0, #255
 434 00a6 19E0     		b	.L27
 435              	.L26:
 962:.\pdo.c       ****                     (UNS8 *) & pdo->data[offset >> 3], (UNS8)(offset % 8), 0);
 436              		.loc 1 962 0
 437 00a8 08EBD503 		add	r3, r8, r5, lsr #3
 438 00ac 0433     		adds	r3, r3, #4
 439 00ae 0093     		str	r3, [sp]
 440 00b0 05F00705 		and	r5, r5, #7
 441              	.LVL61:
 442 00b4 0195     		str	r5, [sp, #4]
 443 00b6 0023     		movs	r3, #0
 444 00b8 0293     		str	r3, [sp, #8]
 445 00ba 5046     		mov	r0, r10
 446 00bc 06A9     		add	r1, sp, #24
 447 00be 1A46     		mov	r2, r3
 448 00c0 FFF7FEFF 		bl	CopyBits
 449              	.LVL62:
 965:.\pdo.c       ****         }
 450              		.loc 1 965 0
 451 00c4 5D46     		mov	r5, fp
ARM GAS  C:\Users\PANXIA~1\AppData\Local\Temp\cczfv69T.s 			page 34


 452              	.LVL63:
 453              	.L25:
 454              	.LBE5:
 967:.\pdo.c       ****     }
 455              		.loc 1 967 0 discriminator 1
 456 00c6 0134     		adds	r4, r4, #1
 457              	.LVL64:
 458 00c8 E4B2     		uxtb	r4, r4
 459              	.LVL65:
 460              	.LBE4:
 969:.\pdo.c       **** 
 461              		.loc 1 969 0 discriminator 1
 462 00ca 3B78     		ldrb	r3, [r7]	@ zero_extendqisi2
 463 00cc A342     		cmp	r3, r4
 464 00ce B3D8     		bhi	.L28
 971:.\pdo.c       **** 
 465              		.loc 1 971 0
 466 00d0 6B1E     		subs	r3, r5, #1
 467 00d2 DB08     		lsrs	r3, r3, #3
 468 00d4 0133     		adds	r3, r3, #1
 469 00d6 88F80330 		strb	r3, [r8, #3]
 975:.\pdo.c       **** }
 470              		.loc 1 975 0
 471 00da 0020     		movs	r0, #0
 472              	.L27:
 976:.\pdo.c       **** 
 473              		.loc 1 976 0 discriminator 2
 474 00dc 09B0     		add	sp, sp, #36
 475              		.cfi_def_cfa_offset 36
 476              		@ sp needed
 477 00de BDE8F08F 		pop	{r4, r5, r6, r7, r8, r9, r10, fp, pc}
 478              		.cfi_endproc
 479              	.LFE0:
 480              		.size	buildPDO, .-buildPDO
 481 00e2 00BF     		.section	.text.sendOnePDOevent,"ax",%progbits
 482              		.align	2
 483              		.global	sendOnePDOevent
 484              		.thumb
 485              		.thumb_func
 486              		.type	sendOnePDOevent, %function
 487              	sendOnePDOevent:
 488              	.LFB6:
1367:.\pdo.c       **** }
1368:.\pdo.c       **** 
1369:.\pdo.c       **** 
1370:.\pdo.c       **** /*!
1371:.\pdo.c       **** **
1372:.\pdo.c       **** **
1373:.\pdo.c       **** ** @param d
1374:.\pdo.c       **** **
1375:.\pdo.c       **** ** @return
1376:.\pdo.c       **** **/
1377:.\pdo.c       **** 
1378:.\pdo.c       **** UNS8
1379:.\pdo.c       **** sendPDOevent (CO_Data * d)
1380:.\pdo.c       **** {
1381:.\pdo.c       ****   /* Calls _sendPDOevent specifying it is not a sync event */
ARM GAS  C:\Users\PANXIA~1\AppData\Local\Temp\cczfv69T.s 			page 35


1382:.\pdo.c       ****   return _sendPDOevent (d, 0);
1383:.\pdo.c       **** }
1384:.\pdo.c       **** 
1385:.\pdo.c       **** UNS8
1386:.\pdo.c       **** sendOnePDOevent (CO_Data * d, UNS8 pdoNum)
1387:.\pdo.c       **** {
 489              		.loc 1 1387 0
 490              		.cfi_startproc
 491              		@ args = 0, pretend = 0, frame = 16
 492              		@ frame_needed = 0, uses_anonymous_args = 0
 493              	.LVL66:
 494 0000 2DE9F043 		push	{r4, r5, r6, r7, r8, r9, lr}
 495              		.cfi_def_cfa_offset 28
 496              		.cfi_offset 4, -28
 497              		.cfi_offset 5, -24
 498              		.cfi_offset 6, -20
 499              		.cfi_offset 7, -16
 500              		.cfi_offset 8, -12
 501              		.cfi_offset 9, -8
 502              		.cfi_offset 14, -4
 503 0004 87B0     		sub	sp, sp, #28
 504              		.cfi_def_cfa_offset 56
1388:.\pdo.c       ****   UNS16 offsetObjdict;
1389:.\pdo.c       ****   Message pdo;
1390:.\pdo.c       ****   if (!d->CurrentCommunicationState.csPDO ||
 505              		.loc 1 1390 0
 506 0006 90F87E30 		ldrb	r3, [r0, #126]	@ zero_extendqisi2
 507 000a 002B     		cmp	r3, #0
 508 000c 69D0     		beq	.L35
1391:.\pdo.c       ****       (d->PDO_status[pdoNum].transmit_type_parameter & PDO_INHIBITED))
 509              		.loc 1 1391 0 discriminator 1
 510 000e 8368     		ldr	r3, [r0, #8]
 511 0010 01EBC107 		add	r7, r1, r1, lsl #3
 512 0014 7F00     		lsls	r7, r7, #1
 513 0016 DC5D     		ldrb	r4, [r3, r7]	@ zero_extendqisi2
1390:.\pdo.c       ****       (d->PDO_status[pdoNum].transmit_type_parameter & PDO_INHIBITED))
 514              		.loc 1 1390 0 discriminator 1
 515 0018 14F00104 		ands	r4, r4, #1
 516 001c 63D1     		bne	.L36
 517 001e 0E46     		mov	r6, r1
 518 0020 0546     		mov	r5, r0
1392:.\pdo.c       ****     {
1393:.\pdo.c       ****       return 0;
1394:.\pdo.c       ****     }
1395:.\pdo.c       **** 
1396:.\pdo.c       ****   offsetObjdict = (UNS16) (d->firstIndex->PDO_TRS + pdoNum);
 519              		.loc 1 1396 0
 520 0022 4369     		ldr	r3, [r0, #20]
 521 0024 1B89     		ldrh	r3, [r3, #8]
 522 0026 0B44     		add	r3, r3, r1
 523 0028 1FFA83F8 		uxth	r8, r3
 524              	.LVL67:
1397:.\pdo.c       **** 
1398:.\pdo.c       ****   MSG_WAR (0x3968, "  PDO is on EVENT. Trans type : ",
1399:.\pdo.c       ****            *((UNS8 *) d->objdict[offsetObjdict].pSubindex[2].pObject));
1400:.\pdo.c       **** 
1401:.\pdo.c       ****   memset(&pdo, 0, sizeof(pdo));
ARM GAS  C:\Users\PANXIA~1\AppData\Local\Temp\cczfv69T.s 			page 36


 525              		.loc 1 1401 0
 526 002c 0023     		movs	r3, #0
 527 002e 0393     		str	r3, [sp, #12]
 528 0030 0493     		str	r3, [sp, #16]
 529 0032 0593     		str	r3, [sp, #20]
1402:.\pdo.c       ****   if (buildPDO (d, pdoNum, &pdo))
 530              		.loc 1 1402 0
 531 0034 03AA     		add	r2, sp, #12
 532 0036 FFF7FEFF 		bl	buildPDO
 533              	.LVL68:
 534 003a 8146     		mov	r9, r0
 535 003c 0028     		cmp	r0, #0
 536 003e 55D1     		bne	.L31
1403:.\pdo.c       ****     {
1404:.\pdo.c       ****       MSG_ERR (0x3907, " Couldn't build TPDO number : ",
1405:.\pdo.c       ****                pdoNum);
1406:.\pdo.c       ****       return 0;
1407:.\pdo.c       ****     }
1408:.\pdo.c       **** 
1409:.\pdo.c       ****   /*Compare new and old PDO */
1410:.\pdo.c       ****   if (d->PDO_status[pdoNum].last_message.cob_id == pdo.cob_id
 537              		.loc 1 1410 0
 538 0040 AC68     		ldr	r4, [r5, #8]
 539 0042 3C44     		add	r4, r4, r7
 540 0044 E288     		ldrh	r2, [r4, #6]
 541 0046 BDF80C30 		ldrh	r3, [sp, #12]
 542 004a 9A42     		cmp	r2, r3
 543 004c 0CD1     		bne	.L32
1411:.\pdo.c       ****       && d->PDO_status[pdoNum].last_message.len == pdo.len
 544              		.loc 1 1411 0
 545 004e 627A     		ldrb	r2, [r4, #9]	@ zero_extendqisi2
 546 0050 9DF80F30 		ldrb	r3, [sp, #15]	@ zero_extendqisi2
 547 0054 9A42     		cmp	r2, r3
 548 0056 07D1     		bne	.L32
1412:.\pdo.c       ****       && memcmp(d->PDO_status[pdoNum].last_message.data,
 549              		.loc 1 1412 0
 550 0058 04F10A00 		add	r0, r4, #10
 551 005c 04A9     		add	r1, sp, #16
 552 005e 0822     		movs	r2, #8
 553 0060 FFF7FEFF 		bl	memcmp
 554              	.LVL69:
 555 0064 0028     		cmp	r0, #0
 556 0066 40D0     		beq	.L37
 557              	.L32:
 558              	.LBB6:
1413:.\pdo.c       ****                     pdo.data, 8) == 0
1414:.\pdo.c       ****     )
1415:.\pdo.c       ****     {
1416:.\pdo.c       ****       /* No changes -> go to next pdo */
1417:.\pdo.c       ****       return 0;
1418:.\pdo.c       ****     }
1419:.\pdo.c       ****   else
1420:.\pdo.c       ****     {
1421:.\pdo.c       **** 
1422:.\pdo.c       ****       TIMEVAL EventTimerDuration;
1423:.\pdo.c       ****       TIMEVAL InhibitTimerDuration;
1424:.\pdo.c       **** 
ARM GAS  C:\Users\PANXIA~1\AppData\Local\Temp\cczfv69T.s 			page 37


1425:.\pdo.c       ****       MSG_WAR (0x306A, "Changes TPDO number : ", pdoNum);
1426:.\pdo.c       ****       /* Changes detected -> transmit message */
1427:.\pdo.c       ****       EventTimerDuration =
1428:.\pdo.c       ****         *(UNS16 *) d->objdict[offsetObjdict].pSubindex[5].
 559              		.loc 1 1428 0
 560 0068 6B68     		ldr	r3, [r5, #4]
 561 006a 53F83830 		ldr	r3, [r3, r8, lsl #3]
 562 006e 5A6C     		ldr	r2, [r3, #68]
 563 0070 B2F80090 		ldrh	r9, [r2]
 564              	.LVL70:
1429:.\pdo.c       ****         pObject;
1430:.\pdo.c       ****       InhibitTimerDuration =
1431:.\pdo.c       ****         *(UNS16 *) d->objdict[offsetObjdict].pSubindex[3].
 565              		.loc 1 1431 0
 566 0074 DB6A     		ldr	r3, [r3, #44]
 567 0076 B3F80080 		ldrh	r8, [r3]
 568              	.LVL71:
1432:.\pdo.c       ****         pObject;
1433:.\pdo.c       **** 
1434:.\pdo.c       ****       /* Start both event_timer and inhibit_timer */
1435:.\pdo.c       ****       if (EventTimerDuration)
 569              		.loc 1 1435 0
 570 007a B9F1000F 		cmp	r9, #0
 571 007e 0ED0     		beq	.L33
1436:.\pdo.c       ****         {
1437:.\pdo.c       ****           DelAlarm (d->PDO_status[pdoNum].event_timer);
 572              		.loc 1 1437 0
 573 0080 B4F90200 		ldrsh	r0, [r4, #2]
 574 0084 FFF7FEFF 		bl	DelAlarm
 575              	.LVL72:
1438:.\pdo.c       ****           d->PDO_status[pdoNum].event_timer =
 576              		.loc 1 1438 0
 577 0088 AC68     		ldr	r4, [r5, #8]
 578 008a 3C44     		add	r4, r4, r7
1439:.\pdo.c       ****             SetAlarm (d, pdoNum, &PDOEventTimerAlarm,
 579              		.loc 1 1439 0
 580 008c 0023     		movs	r3, #0
 581 008e 0093     		str	r3, [sp]
 582 0090 2846     		mov	r0, r5
 583 0092 3146     		mov	r1, r6
 584 0094 174A     		ldr	r2, .L39
 585 0096 4B46     		mov	r3, r9
 586 0098 FFF7FEFF 		bl	SetAlarm
 587              	.LVL73:
1438:.\pdo.c       ****           d->PDO_status[pdoNum].event_timer =
 588              		.loc 1 1438 0
 589 009c 6080     		strh	r0, [r4, #2]	@ movhi
 590              	.L33:
1440:.\pdo.c       ****                       MS_TO_TIMEVAL (EventTimerDuration), 0);
1441:.\pdo.c       ****         }
1442:.\pdo.c       **** 
1443:.\pdo.c       ****       if (InhibitTimerDuration)
 591              		.loc 1 1443 0
 592 009e B8F1000F 		cmp	r8, #0
 593 00a2 17D0     		beq	.L34
1444:.\pdo.c       ****         {
1445:.\pdo.c       ****           DelAlarm (d->PDO_status[pdoNum].inhibit_timer);
ARM GAS  C:\Users\PANXIA~1\AppData\Local\Temp\cczfv69T.s 			page 38


 594              		.loc 1 1445 0
 595 00a4 AB68     		ldr	r3, [r5, #8]
 596 00a6 3B44     		add	r3, r3, r7
 597 00a8 B3F90400 		ldrsh	r0, [r3, #4]
 598 00ac FFF7FEFF 		bl	DelAlarm
 599              	.LVL74:
1446:.\pdo.c       ****           d->PDO_status[pdoNum].inhibit_timer =
 600              		.loc 1 1446 0
 601 00b0 AC68     		ldr	r4, [r5, #8]
 602 00b2 3C44     		add	r4, r4, r7
1447:.\pdo.c       ****             SetAlarm (d, pdoNum, &PDOInhibitTimerAlarm,
 603              		.loc 1 1447 0
 604 00b4 0023     		movs	r3, #0
 605 00b6 0093     		str	r3, [sp]
 606 00b8 2846     		mov	r0, r5
 607 00ba 3146     		mov	r1, r6
 608 00bc 0E4A     		ldr	r2, .L39+4
 609 00be 6423     		movs	r3, #100
 610 00c0 03FB08F3 		mul	r3, r3, r8
 611 00c4 FFF7FEFF 		bl	SetAlarm
 612              	.LVL75:
1446:.\pdo.c       ****           d->PDO_status[pdoNum].inhibit_timer =
 613              		.loc 1 1446 0
 614 00c8 A080     		strh	r0, [r4, #4]	@ movhi
1448:.\pdo.c       ****                       US_TO_TIMEVAL (InhibitTimerDuration *
1449:.\pdo.c       ****                                      100), 0);
1450:.\pdo.c       ****           /* and inhibit TPDO */
1451:.\pdo.c       ****           d->PDO_status[pdoNum].transmit_type_parameter |=
 615              		.loc 1 1451 0
 616 00ca AA68     		ldr	r2, [r5, #8]
 617 00cc D35D     		ldrb	r3, [r2, r7]	@ zero_extendqisi2
 618 00ce 43F00103 		orr	r3, r3, #1
 619 00d2 D355     		strb	r3, [r2, r7]
 620              	.L34:
1452:.\pdo.c       ****             PDO_INHIBITED;
1453:.\pdo.c       ****         }
1454:.\pdo.c       **** 
1455:.\pdo.c       ****       sendPdo(d, pdoNum, &pdo);
 621              		.loc 1 1455 0
 622 00d4 2846     		mov	r0, r5
 623 00d6 3146     		mov	r1, r6
 624 00d8 03AA     		add	r2, sp, #12
 625 00da FFF7FEFF 		bl	sendPdo
 626              	.LVL76:
 627              	.LBE6:
1456:.\pdo.c       ****     }
1457:.\pdo.c       ****     return 1;
 628              		.loc 1 1457 0
 629 00de 0124     		movs	r4, #1
 630 00e0 04E0     		b	.L31
 631              	.LVL77:
 632              	.L35:
1393:.\pdo.c       ****     }
 633              		.loc 1 1393 0
 634 00e2 0024     		movs	r4, #0
 635 00e4 02E0     		b	.L31
 636              	.L36:
ARM GAS  C:\Users\PANXIA~1\AppData\Local\Temp\cczfv69T.s 			page 39


 637 00e6 0024     		movs	r4, #0
 638 00e8 00E0     		b	.L31
 639              	.LVL78:
 640              	.L37:
1417:.\pdo.c       ****     }
 641              		.loc 1 1417 0
 642 00ea 4C46     		mov	r4, r9
 643              	.LVL79:
 644              	.L31:
1458:.\pdo.c       **** }
 645              		.loc 1 1458 0
 646 00ec 2046     		mov	r0, r4
 647 00ee 07B0     		add	sp, sp, #28
 648              		.cfi_def_cfa_offset 28
 649              		@ sp needed
 650 00f0 BDE8F083 		pop	{r4, r5, r6, r7, r8, r9, pc}
 651              	.L40:
 652              		.align	2
 653              	.L39:
 654 00f4 00000000 		.word	PDOEventTimerAlarm
 655 00f8 00000000 		.word	PDOInhibitTimerAlarm
 656              		.cfi_endproc
 657              	.LFE6:
 658              		.size	sendOnePDOevent, .-sendOnePDOevent
 659              		.section	.text.PDOEventTimerAlarm,"ax",%progbits
 660              		.align	2
 661              		.global	PDOEventTimerAlarm
 662              		.thumb
 663              		.thumb_func
 664              		.type	PDOEventTimerAlarm, %function
 665              	PDOEventTimerAlarm:
 666              	.LFB7:
1459:.\pdo.c       **** 
1460:.\pdo.c       **** void
1461:.\pdo.c       **** PDOEventTimerAlarm (CO_Data * d, UNS32 pdoNum)
1462:.\pdo.c       **** {
 667              		.loc 1 1462 0
 668              		.cfi_startproc
 669              		@ args = 0, pretend = 0, frame = 0
 670              		@ frame_needed = 0, uses_anonymous_args = 0
 671              	.LVL80:
 672 0000 38B5     		push	{r3, r4, r5, lr}
 673              		.cfi_def_cfa_offset 16
 674              		.cfi_offset 3, -16
 675              		.cfi_offset 4, -12
 676              		.cfi_offset 5, -8
 677              		.cfi_offset 14, -4
1463:.\pdo.c       ****   /* This is needed to avoid deletion of re-attribuated timer */
1464:.\pdo.c       ****   d->PDO_status[pdoNum].event_timer = TIMER_NONE;
 678              		.loc 1 1464 0
 679 0002 8268     		ldr	r2, [r0, #8]
 680 0004 01EBC103 		add	r3, r1, r1, lsl #3
 681 0008 5B00     		lsls	r3, r3, #1
 682 000a 1A44     		add	r2, r2, r3
 683 000c 4FF6FF75 		movw	r5, #65535
 684 0010 5580     		strh	r5, [r2, #2]	@ movhi
1465:.\pdo.c       ****   /* force emission of PDO by artificially changing last emitted */
ARM GAS  C:\Users\PANXIA~1\AppData\Local\Temp\cczfv69T.s 			page 40


1466:.\pdo.c       ****   d->PDO_status[pdoNum].last_message.cob_id = 0;
 685              		.loc 1 1466 0
 686 0012 8268     		ldr	r2, [r0, #8]
 687 0014 1344     		add	r3, r3, r2
 688 0016 0022     		movs	r2, #0
 689 0018 DA80     		strh	r2, [r3, #6]	@ movhi
1467:.\pdo.c       ****   sendOnePDOevent (d, (UNS8) pdoNum);
 690              		.loc 1 1467 0
 691 001a C9B2     		uxtb	r1, r1
 692              	.LVL81:
 693 001c FFF7FEFF 		bl	sendOnePDOevent
 694              	.LVL82:
 695 0020 38BD     		pop	{r3, r4, r5, pc}
 696              		.cfi_endproc
 697              	.LFE7:
 698              		.size	PDOEventTimerAlarm, .-PDOEventTimerAlarm
 699 0022 00BF     		.section	.text.proceedPDO,"ax",%progbits
 700              		.align	2
 701              		.global	proceedPDO
 702              		.thumb
 703              		.thumb_func
 704              		.type	proceedPDO, %function
 705              	proceedPDO:
 706              	.LFB2:
1037:.\pdo.c       ****   UNS8 numPdo;
 707              		.loc 1 1037 0
 708              		.cfi_startproc
 709              		@ args = 0, pretend = 0, frame = 32
 710              		@ frame_needed = 0, uses_anonymous_args = 0
 711              	.LVL83:
 712 0000 2DE9F04F 		push	{r4, r5, r6, r7, r8, r9, r10, fp, lr}
 713              		.cfi_def_cfa_offset 36
 714              		.cfi_offset 4, -36
 715              		.cfi_offset 5, -32
 716              		.cfi_offset 6, -28
 717              		.cfi_offset 7, -24
 718              		.cfi_offset 8, -20
 719              		.cfi_offset 9, -16
 720              		.cfi_offset 10, -12
 721              		.cfi_offset 11, -8
 722              		.cfi_offset 14, -4
 723 0004 8DB0     		sub	sp, sp, #52
 724              		.cfi_def_cfa_offset 88
 725 0006 0746     		mov	r7, r0
 726 0008 0491     		str	r1, [sp, #16]
 727              	.LVL84:
1063:.\pdo.c       ****     {                           /* The PDO received is not a
 728              		.loc 1 1063 0
 729 000a 8B78     		ldrb	r3, [r1, #2]	@ zero_extendqisi2
 730 000c 0593     		str	r3, [sp, #20]
 731 000e 002B     		cmp	r3, #0
 732 0010 40F0A780 		bne	.L44
1067:.\pdo.c       ****       lastIndex = d->lastIndex->PDO_RCV;
 733              		.loc 1 1067 0
 734 0014 4569     		ldr	r5, [r0, #20]
 735 0016 AB88     		ldrh	r3, [r5, #4]
 736              	.LVL85:
ARM GAS  C:\Users\PANXIA~1\AppData\Local\Temp\cczfv69T.s 			page 41


1068:.\pdo.c       **** 
 737              		.loc 1 1068 0
 738 0018 8269     		ldr	r2, [r0, #24]
 739 001a 9488     		ldrh	r4, [r2, #4]
 740              	.LVL86:
1071:.\pdo.c       ****         while (offsetObjdict <= lastIndex)
 741              		.loc 1 1071 0
 742 001c 002B     		cmp	r3, #0
 743 001e 40F09880 		bne	.L66
 744 0022 1AE1     		b	.L46
 745              	.LVL87:
 746              	.L56:
1075:.\pdo.c       ****               {
 747              		.loc 1 1075 0
 748 0024 022A     		cmp	r2, #2
 749 0026 02D0     		beq	.L48
 750 0028 042A     		cmp	r2, #4
 751 002a 14D0     		beq	.L49
 752 002c 95E0     		b	.L47
 753              	.L48:
1082:.\pdo.c       ****                 /* check the CobId coherance */
 754              		.loc 1 1082 0
 755 002e 7868     		ldr	r0, [r7, #4]
 756 0030 50F83300 		ldr	r0, [r0, r3, lsl #3]
1081:.\pdo.c       ****                   d->objdict[offsetObjdict].pSubindex[1].pObject;
 757              		.loc 1 1081 0
 758 0034 4669     		ldr	r6, [r0, #20]
 759              	.LVL88:
1086:.\pdo.c       ****                   {
 760              		.loc 1 1086 0
 761 0036 D6F800E0 		ldr	lr, [r6]
 762 003a 049E     		ldr	r6, [sp, #16]
 763              	.LVL89:
 764 003c 3688     		ldrh	r6, [r6]
 765 003e B645     		cmp	lr, r6
 766 0040 04D1     		bne	.L50
 767              	.LVL90:
1090:.\pdo.c       ****                     MSG_WAR (0x3936, "cobId found at index ",
 768              		.loc 1 1090 0
 769 0042 426C     		ldr	r2, [r0, #68]
 770 0044 1288     		ldrh	r2, [r2]
 771 0046 0692     		str	r2, [sp, #24]
 772              	.LVL91:
1089:.\pdo.c       ****                     EventTimerDuration = *(UNS16 *)d->objdict[offsetObjdict].pSubindex[5].pObject;
 773              		.loc 1 1089 0
 774 0048 0422     		movs	r2, #4
 775              	.LVL92:
1093:.\pdo.c       ****                   }
 776              		.loc 1 1093 0
 777 004a 86E0     		b	.L47
 778              	.LVL93:
 779              	.L50:
1099:.\pdo.c       ****                     offsetObjdict++;
 780              		.loc 1 1099 0
 781 004c 0131     		adds	r1, r1, #1
 782              	.LVL94:
 783 004e C9B2     		uxtb	r1, r1
ARM GAS  C:\Users\PANXIA~1\AppData\Local\Temp\cczfv69T.s 			page 42


 784              	.LVL95:
1100:.\pdo.c       ****                     status = state2;
 785              		.loc 1 1100 0
 786 0050 0133     		adds	r3, r3, #1
 787              	.LVL96:
 788 0052 9BB2     		uxth	r3, r3
 789              	.LVL97:
1102:.\pdo.c       ****                   }
 790              		.loc 1 1102 0
 791 0054 81E0     		b	.L47
 792              	.LVL98:
 793              	.L49:
1108:.\pdo.c       ****                 lastIndex = d->lastIndex->PDO_RCV_MAP;
 794              		.loc 1 1108 0
 795 0056 EB88     		ldrh	r3, [r5, #6]
 796              	.LVL99:
1111:.\pdo.c       ****                             numPdo)->pSubindex[0].pObject;
 797              		.loc 1 1111 0
 798 0058 7A68     		ldr	r2, [r7, #4]
 799              	.LVL100:
 800 005a 0791     		str	r1, [sp, #28]
 801              	.LVL101:
 802 005c 1944     		add	r1, r1, r3
 803              	.LVL102:
 804 005e 4FEAC10A 		lsl	r10, r1, #3
1112:.\pdo.c       ****                 numMap = 0;
 805              		.loc 1 1112 0
 806 0062 52F83130 		ldr	r3, [r2, r1, lsl #3]
 807              	.LVL103:
1110:.\pdo.c       ****                   (UNS8 *) (d->objdict + offsetObjdict +
 808              		.loc 1 1110 0
 809 0066 D3F80890 		ldr	r9, [r3, #8]
 810              	.LVL104:
1060:.\pdo.c       ****   numPdo = 0;
 811              		.loc 1 1060 0
 812 006a 4FF0000B 		mov	fp, #0
1113:.\pdo.c       ****                 while (numMap < *pMappingCount)
 813              		.loc 1 1113 0
 814 006e 5C46     		mov	r4, fp
1114:.\pdo.c       ****                   {
 815              		.loc 1 1114 0
 816 0070 52E0     		b	.L52
 817              	.LVL105:
 818              	.L55:
 819              	.LBB7:
1116:.\pdo.c       ****                     UNS32 ByteSize;
 820              		.loc 1 1116 0
 821 0072 0023     		movs	r3, #0
 822 0074 8DF82430 		strb	r3, [sp, #36]
 823 0078 8DF82530 		strb	r3, [sp, #37]
 824 007c 8DF82630 		strb	r3, [sp, #38]
 825 0080 8DF82730 		strb	r3, [sp, #39]
 826 0084 8DF82830 		strb	r3, [sp, #40]
 827 0088 8DF82930 		strb	r3, [sp, #41]
 828 008c 8DF82A30 		strb	r3, [sp, #42]
 829 0090 8DF82B30 		strb	r3, [sp, #43]
1119:.\pdo.c       ****                                  numPdo)->pSubindex[numMap + 1].pObject;
ARM GAS  C:\Users\PANXIA~1\AppData\Local\Temp\cczfv69T.s 			page 43


 830              		.loc 1 1119 0
 831 0094 7B68     		ldr	r3, [r7, #4]
1120:.\pdo.c       ****                     if (pMappingParameter == NULL)
 832              		.loc 1 1120 0
 833 0096 53F80A20 		ldr	r2, [r3, r10]
 834 009a 631C     		adds	r3, r4, #1
 835 009c 03EB4303 		add	r3, r3, r3, lsl #1
 836 00a0 9B00     		lsls	r3, r3, #2
 837 00a2 1344     		add	r3, r3, r2
1118:.\pdo.c       ****                       (UNS32 *) (d->objdict + offsetObjdict +
 838              		.loc 1 1118 0
 839 00a4 9E68     		ldr	r6, [r3, #8]
 840              	.LVL106:
1121:.\pdo.c       ****                       {
 841              		.loc 1 1121 0
 842 00a6 002E     		cmp	r6, #0
 843 00a8 33D0     		beq	.L53
1134:.\pdo.c       **** 
 844              		.loc 1 1134 0
 845 00aa 3568     		ldr	r5, [r6]
 846              	.LVL107:
1138:.\pdo.c       ****                       {
 847              		.loc 1 1138 0
 848 00ac 15F0FF08 		ands	r8, r5, #255
 849 00b0 2CD0     		beq	.L54
 850 00b2 EDB2     		uxtb	r5, r5
1138:.\pdo.c       ****                       {
 851              		.loc 1 1138 0 is_stmt 0 discriminator 1
 852 00b4 0BEB0503 		add	r3, fp, r5
 853 00b8 049A     		ldr	r2, [sp, #16]
 854 00ba D278     		ldrb	r2, [r2, #3]	@ zero_extendqisi2
 855 00bc B3EBC20F 		cmp	r3, r2, lsl #3
 856 00c0 24DC     		bgt	.L54
1141:.\pdo.c       ****                                   offset % 8, 0, ((UNS8 *) tmp), 0, 0);
 857              		.loc 1 1141 0 is_stmt 1
 858 00c2 049B     		ldr	r3, [sp, #16]
 859 00c4 03EBDB01 		add	r1, r3, fp, lsr #3
 860 00c8 09AB     		add	r3, sp, #36
 861 00ca 0093     		str	r3, [sp]
 862 00cc 0023     		movs	r3, #0
 863 00ce 0193     		str	r3, [sp, #4]
 864 00d0 0293     		str	r3, [sp, #8]
 865 00d2 4046     		mov	r0, r8
 866 00d4 0431     		adds	r1, r1, #4
 867 00d6 0BF00702 		and	r2, fp, #7
 868 00da FFF7FEFF 		bl	CopyBits
 869              	.LVL108:
1144:.\pdo.c       **** 
 870              		.loc 1 1144 0
 871 00de 013D     		subs	r5, r5, #1
 872              	.LVL109:
 873 00e0 ED10     		asrs	r5, r5, #3
 874              	.LVL110:
 875 00e2 0135     		adds	r5, r5, #1
 876 00e4 0CAB     		add	r3, sp, #48
 877 00e6 43F8105D 		str	r5, [r3, #-16]!
1147:.\pdo.c       ****                                       (UNS8) (((*pMappingParameter) >> 8) &
ARM GAS  C:\Users\PANXIA~1\AppData\Local\Temp\cczfv69T.s 			page 44


 878              		.loc 1 1147 0
 879 00ea 3268     		ldr	r2, [r6]
1146:.\pdo.c       ****                           setODentry (d, (UNS16) ((*pMappingParameter) >> 16),
 880              		.loc 1 1146 0
 881 00ec 0093     		str	r3, [sp]
 882 00ee 0023     		movs	r3, #0
 883 00f0 0193     		str	r3, [sp, #4]
 884 00f2 0123     		movs	r3, #1
 885 00f4 0293     		str	r3, [sp, #8]
 886 00f6 3846     		mov	r0, r7
 887 00f8 110C     		lsrs	r1, r2, #16
 888 00fa C2F30722 		ubfx	r2, r2, #8, #8
 889 00fe 09AB     		add	r3, sp, #36
 890 0100 FFF7FEFF 		bl	_setODentry
 891              	.LVL111:
1151:.\pdo.c       ****                           {
 892              		.loc 1 1151 0
 893 0104 28B9     		cbnz	r0, .L53
1170:.\pdo.c       ****                       }
 894              		.loc 1 1170 0
 895 0106 C344     		add	fp, fp, r8
 896              	.LVL112:
 897 0108 5FFA8BFB 		uxtb	fp, fp
 898              	.LVL113:
 899              	.L54:
1172:.\pdo.c       ****                   }             /* end loop while on mapped variables */
 900              		.loc 1 1172 0
 901 010c 0134     		adds	r4, r4, #1
 902              	.LVL114:
 903 010e E4B2     		uxtb	r4, r4
 904              	.LVL115:
 905 0110 02E0     		b	.L52
 906              	.L53:
1125:.\pdo.c       ****                       }
 907              		.loc 1 1125 0 discriminator 1
 908 0112 FF23     		movs	r3, #255
 909 0114 0593     		str	r3, [sp, #20]
 910 0116 A0E0     		b	.L46
 911              	.LVL116:
 912              	.L52:
 913              	.LBE7:
1114:.\pdo.c       ****                   {
 914              		.loc 1 1114 0
 915 0118 99F80030 		ldrb	r3, [r9]	@ zero_extendqisi2
 916 011c A342     		cmp	r3, r4
 917 011e A8D8     		bhi	.L55
1174:.\pdo.c       ****                 {
 918              		.loc 1 1174 0
 919 0120 069D     		ldr	r5, [sp, #24]
 920 0122 002D     		cmp	r5, #0
 921 0124 00F09980 		beq	.L46
1174:.\pdo.c       ****                 {
 922              		.loc 1 1174 0 is_stmt 0 discriminator 1
 923 0128 FB68     		ldr	r3, [r7, #12]
 924 012a 002B     		cmp	r3, #0
 925 012c 00F09580 		beq	.L46
1176:.\pdo.c       ****                     d->RxPDO_EventTimers[numPdo] = SetAlarm (d, numPdo, d->RxPDO_EventTimers_Handle
ARM GAS  C:\Users\PANXIA~1\AppData\Local\Temp\cczfv69T.s 			page 45


 926              		.loc 1 1176 0 is_stmt 1
 927 0130 079E     		ldr	r6, [sp, #28]
 928 0132 33F91600 		ldrsh	r0, [r3, r6, lsl #1]
 929 0136 FFF7FEFF 		bl	DelAlarm
 930              	.LVL117:
1177:.\pdo.c       ****                     MS_TO_TIMEVAL (EventTimerDuration), 0);
 931              		.loc 1 1177 0
 932 013a FC68     		ldr	r4, [r7, #12]
 933              	.LVL118:
 934 013c 3A69     		ldr	r2, [r7, #16]
 935 013e 0023     		movs	r3, #0
 936 0140 0093     		str	r3, [sp]
 937 0142 3846     		mov	r0, r7
 938 0144 3146     		mov	r1, r6
 939 0146 2B46     		mov	r3, r5
 940 0148 FFF7FEFF 		bl	SetAlarm
 941              	.LVL119:
 942 014c 24F81600 		strh	r0, [r4, r6, lsl #1]	@ movhi
 943 0150 83E0     		b	.L46
 944              	.LVL120:
 945              	.L66:
 946 0152 0022     		movs	r2, #0
 947 0154 1146     		mov	r1, r2
 948              	.LVL121:
 949 0156 0692     		str	r2, [sp, #24]
 950 0158 0222     		movs	r2, #2
 951              	.LVL122:
 952              	.L47:
1072:.\pdo.c       ****           {
 953              		.loc 1 1072 0
 954 015a A342     		cmp	r3, r4
 955 015c 7FF662AF 		bls	.L56
 956 0160 7BE0     		b	.L46
 957              	.LVL123:
 958              	.L44:
1185:.\pdo.c       ****     {
 959              		.loc 1 1185 0
 960 0162 059B     		ldr	r3, [sp, #20]
 961 0164 012B     		cmp	r3, #1
 962 0166 73D1     		bne	.L67
 963              	.LVL124:
1189:.\pdo.c       ****       lastIndex = d->lastIndex->PDO_TRS;
 964              		.loc 1 1189 0
 965 0168 4369     		ldr	r3, [r0, #20]
 966 016a 1B89     		ldrh	r3, [r3, #8]
 967              	.LVL125:
1190:.\pdo.c       ****       if (offsetObjdict)
 968              		.loc 1 1190 0
 969 016c 8269     		ldr	r2, [r0, #24]
 970 016e 1089     		ldrh	r0, [r2, #8]
 971              	.LVL126:
1191:.\pdo.c       ****         while (offsetObjdict <= lastIndex)
 972              		.loc 1 1191 0
 973 0170 002B     		cmp	r3, #0
 974 0172 66D1     		bne	.L68
1289:.\pdo.c       **** }
 975              		.loc 1 1289 0
ARM GAS  C:\Users\PANXIA~1\AppData\Local\Temp\cczfv69T.s 			page 46


 976 0174 0593     		str	r3, [sp, #20]
 977 0176 70E0     		b	.L46
 978              	.LVL127:
 979              	.L65:
1196:.\pdo.c       ****               {
 980              		.loc 1 1196 0
 981 0178 042A     		cmp	r2, #4
 982 017a 11D0     		beq	.L59
 983 017c 052A     		cmp	r2, #5
 984 017e 4AD0     		beq	.L60
 985 0180 012A     		cmp	r2, #1
 986 0182 60D1     		bne	.L58
1203:.\pdo.c       ****                              offsetObjdict)->pSubindex[1].pObject;
 987              		.loc 1 1203 0
 988 0184 7968     		ldr	r1, [r7, #4]
1204:.\pdo.c       ****                 if (*pwCobId == UNS16_LE(m->cob_id))
 989              		.loc 1 1204 0
 990 0186 51F83310 		ldr	r1, [r1, r3, lsl #3]
1202:.\pdo.c       ****                    (d->objdict +
 991              		.loc 1 1202 0
 992 018a 4969     		ldr	r1, [r1, #20]
 993              	.LVL128:
1205:.\pdo.c       ****                   {
 994              		.loc 1 1205 0
 995 018c 0D68     		ldr	r5, [r1]
 996 018e 0499     		ldr	r1, [sp, #16]
 997              	.LVL129:
 998 0190 0988     		ldrh	r1, [r1]
 999 0192 8D42     		cmp	r5, r1
 1000 0194 4FD0     		beq	.L69
1212:.\pdo.c       ****                     offsetObjdict++;
 1001              		.loc 1 1212 0
 1002 0196 0134     		adds	r4, r4, #1
 1003              	.LVL130:
 1004 0198 E4B2     		uxtb	r4, r4
 1005              	.LVL131:
1213:.\pdo.c       ****                   }
 1006              		.loc 1 1213 0
 1007 019a 0133     		adds	r3, r3, #1
 1008              	.LVL132:
 1009 019c 9BB2     		uxth	r3, r3
 1010              	.LVL133:
1216:.\pdo.c       **** 
 1011              		.loc 1 1216 0
 1012 019e 52E0     		b	.L58
 1013              	.LVL134:
 1014              	.L59:
1221:.\pdo.c       ****                 /* If PDO is to be sampled and send on RTR, do it */
 1015              		.loc 1 1221 0
 1016 01a0 7A68     		ldr	r2, [r7, #4]
 1017              	.LVL135:
 1018 01a2 52F83320 		ldr	r2, [r2, r3, lsl #3]
1220:.\pdo.c       ****                   (UNS8 *) d->objdict[offsetObjdict].pSubindex[2].pObject;
 1019              		.loc 1 1220 0
 1020 01a6 126A     		ldr	r2, [r2, #32]
 1021              	.LVL136:
1223:.\pdo.c       ****                   {
ARM GAS  C:\Users\PANXIA~1\AppData\Local\Temp\cczfv69T.s 			page 47


 1022              		.loc 1 1223 0
 1023 01a8 1278     		ldrb	r2, [r2]	@ zero_extendqisi2
 1024              	.LVL137:
 1025 01aa FD2A     		cmp	r2, #253
 1026 01ac 45D0     		beq	.L70
1229:.\pdo.c       ****                   {
 1027              		.loc 1 1229 0
 1028 01ae FC2A     		cmp	r2, #252
 1029 01b0 10D1     		bne	.L63
1231:.\pdo.c       ****                         transmit_type_parameter & PDO_RTR_SYNC_READY)
 1030              		.loc 1 1231 0
 1031 01b2 BD68     		ldr	r5, [r7, #8]
 1032 01b4 04EBC402 		add	r2, r4, r4, lsl #3
 1033 01b8 5200     		lsls	r2, r2, #1
 1034 01ba A918     		adds	r1, r5, r2
 1035 01bc AA5C     		ldrb	r2, [r5, r2]	@ zero_extendqisi2
 1036 01be 12F0010F 		tst	r2, #1
 1037 01c2 3CD0     		beq	.L71
1235:.\pdo.c       ****                                  &d->PDO_status[numPdo].last_message);
 1038              		.loc 1 1235 0
 1039 01c4 D7F85001 		ldr	r0, [r7, #336]
 1040              	.LVL138:
 1041 01c8 0631     		adds	r1, r1, #6
 1042 01ca FFF7FEFF 		bl	canSend
 1043              	.LVL139:
1237:.\pdo.c       ****                       }
 1044              		.loc 1 1237 0
 1045 01ce 0023     		movs	r3, #0
 1046 01d0 0593     		str	r3, [sp, #20]
 1047 01d2 42E0     		b	.L46
 1048              	.LVL140:
 1049              	.L63:
1250:.\pdo.c       ****                          (*pTransmissionType == TRANS_EVENT_SPECIFIC))
 1050              		.loc 1 1250 0
 1051 01d4 931C     		adds	r3, r2, #2
 1052              	.LVL141:
 1053 01d6 DBB2     		uxtb	r3, r3
 1054 01d8 012B     		cmp	r3, #1
 1055 01da 3CD8     		bhi	.L72
1255:.\pdo.c       ****                     d->PDO_status[numPdo].inhibit_timer =
 1056              		.loc 1 1255 0
 1057 01dc BE68     		ldr	r6, [r7, #8]
 1058 01de 1225     		movs	r5, #18
 1059 01e0 05FB04F5 		mul	r5, r5, r4
 1060 01e4 2E44     		add	r6, r6, r5
 1061 01e6 B6F90200 		ldrsh	r0, [r6, #2]
 1062              	.LVL142:
 1063 01ea FFF7FEFF 		bl	DelAlarm
 1064              	.LVL143:
1254:.\pdo.c       ****                       DelAlarm (d->PDO_status[numPdo].event_timer);
 1065              		.loc 1 1254 0
 1066 01ee 7080     		strh	r0, [r6, #2]	@ movhi
1257:.\pdo.c       ****                     d->PDO_status[numPdo].transmit_type_parameter &=
 1067              		.loc 1 1257 0
 1068 01f0 BE68     		ldr	r6, [r7, #8]
 1069 01f2 2E44     		add	r6, r6, r5
 1070 01f4 B6F90400 		ldrsh	r0, [r6, #4]
ARM GAS  C:\Users\PANXIA~1\AppData\Local\Temp\cczfv69T.s 			page 48


 1071 01f8 FFF7FEFF 		bl	DelAlarm
 1072              	.LVL144:
1256:.\pdo.c       ****                       DelAlarm (d->PDO_status[numPdo].inhibit_timer);
 1073              		.loc 1 1256 0
 1074 01fc B080     		strh	r0, [r6, #4]	@ movhi
1258:.\pdo.c       ****                       ~PDO_INHIBITED;
 1075              		.loc 1 1258 0
 1076 01fe BA68     		ldr	r2, [r7, #8]
 1077 0200 535D     		ldrb	r3, [r2, r5]	@ zero_extendqisi2
 1078 0202 23F00103 		bic	r3, r3, #1
 1079 0206 5355     		strb	r3, [r2, r5]
1262:.\pdo.c       ****                     return 0;
 1080              		.loc 1 1262 0
 1081 0208 3846     		mov	r0, r7
 1082 020a 2146     		mov	r1, r4
 1083 020c FFF7FEFF 		bl	PDOEventTimerAlarm
 1084              	.LVL145:
1263:.\pdo.c       ****                   }
 1085              		.loc 1 1263 0
 1086 0210 0023     		movs	r3, #0
 1087 0212 0593     		str	r3, [sp, #20]
 1088 0214 21E0     		b	.L46
 1089              	.LVL146:
 1090              	.L60:
 1091              	.LBB8:
1277:.\pdo.c       ****                     {
 1092              		.loc 1 1277 0
 1093 0216 3846     		mov	r0, r7
 1094              	.LVL147:
 1095 0218 2146     		mov	r1, r4
 1096 021a 09AA     		add	r2, sp, #36
 1097              	.LVL148:
 1098 021c FFF7FEFF 		bl	buildPDO
 1099              	.LVL149:
 1100 0220 0590     		str	r0, [sp, #20]
 1101 0222 28B9     		cbnz	r0, .L73
1282:.\pdo.c       ****                   return 0;
 1102              		.loc 1 1282 0
 1103 0224 D7F85001 		ldr	r0, [r7, #336]
 1104 0228 09A9     		add	r1, sp, #36
 1105 022a FFF7FEFF 		bl	canSend
 1106              	.LVL150:
1283:.\pdo.c       ****                 }
 1107              		.loc 1 1283 0
 1108 022e 14E0     		b	.L46
 1109              	.L73:
1280:.\pdo.c       ****                     }
 1110              		.loc 1 1280 0
 1111 0230 FF23     		movs	r3, #255
 1112 0232 0593     		str	r3, [sp, #20]
 1113 0234 11E0     		b	.L46
 1114              	.LVL151:
 1115              	.L69:
 1116              	.LBE8:
1207:.\pdo.c       ****                     break;
 1117              		.loc 1 1207 0
 1118 0236 0422     		movs	r2, #4
ARM GAS  C:\Users\PANXIA~1\AppData\Local\Temp\cczfv69T.s 			page 49


 1119              	.LVL152:
 1120 0238 05E0     		b	.L58
 1121              	.LVL153:
 1122              	.L70:
1225:.\pdo.c       ****                     break;
 1123              		.loc 1 1225 0
 1124 023a 0522     		movs	r2, #5
 1125 023c 03E0     		b	.L58
 1126              	.L71:
1246:.\pdo.c       ****                       }
 1127              		.loc 1 1246 0
 1128 023e 0522     		movs	r2, #5
 1129 0240 01E0     		b	.L58
 1130              	.LVL154:
 1131              	.L68:
 1132 0242 0122     		movs	r2, #1
 1133 0244 0024     		movs	r4, #0
 1134              	.LVL155:
 1135              	.L58:
1192:.\pdo.c       ****           {
 1136              		.loc 1 1192 0
 1137 0246 8342     		cmp	r3, r0
 1138 0248 96D9     		bls	.L65
1289:.\pdo.c       **** }
 1139              		.loc 1 1289 0
 1140 024a 0023     		movs	r3, #0
 1141              	.LVL156:
 1142 024c 0593     		str	r3, [sp, #20]
 1143 024e 04E0     		b	.L46
 1144              	.LVL157:
 1145              	.L67:
 1146 0250 0023     		movs	r3, #0
 1147 0252 0593     		str	r3, [sp, #20]
 1148 0254 01E0     		b	.L46
 1149              	.LVL158:
 1150              	.L72:
1271:.\pdo.c       ****                   }
 1151              		.loc 1 1271 0
 1152 0256 FF23     		movs	r3, #255
 1153 0258 0593     		str	r3, [sp, #20]
 1154              	.LVL159:
 1155              	.L46:
1290:.\pdo.c       **** 
 1156              		.loc 1 1290 0 discriminator 1
 1157 025a 0598     		ldr	r0, [sp, #20]
 1158 025c 0DB0     		add	sp, sp, #52
 1159              		.cfi_def_cfa_offset 36
 1160              		@ sp needed
 1161 025e BDE8F08F 		pop	{r4, r5, r6, r7, r8, r9, r10, fp, pc}
 1162              		.cfi_endproc
 1163              	.LFE2:
 1164              		.size	proceedPDO, .-proceedPDO
 1165 0262 00BF     		.section	.text.TPDO_Communication_Parameter_Callback,"ax",%progbits
 1166              		.align	2
 1167              		.global	TPDO_Communication_Parameter_Callback
 1168              		.thumb
 1169              		.thumb_func
ARM GAS  C:\Users\PANXIA~1\AppData\Local\Temp\cczfv69T.s 			page 50


 1170              		.type	TPDO_Communication_Parameter_Callback, %function
 1171              	TPDO_Communication_Parameter_Callback:
 1172              	.LFB11:
1468:.\pdo.c       **** }
1469:.\pdo.c       **** 
1470:.\pdo.c       **** void
1471:.\pdo.c       **** PDOInhibitTimerAlarm (CO_Data * d, UNS32 pdoNum)
1472:.\pdo.c       **** {
1473:.\pdo.c       ****   /* This is needed to avoid deletion of re-attribuated timer */
1474:.\pdo.c       ****   d->PDO_status[pdoNum].inhibit_timer = TIMER_NONE;
1475:.\pdo.c       ****   /* Remove inhibit flag */
1476:.\pdo.c       ****   d->PDO_status[pdoNum].transmit_type_parameter &= ~PDO_INHIBITED;
1477:.\pdo.c       ****   sendOnePDOevent (d, (UNS8) pdoNum);
1478:.\pdo.c       **** }
1479:.\pdo.c       **** 
1480:.\pdo.c       **** void
1481:.\pdo.c       **** _RxPDO_EventTimers_Handler(CO_Data *d, UNS32 pdoNum)
1482:.\pdo.c       **** {
1483:.\pdo.c       **** }
1484:.\pdo.c       **** 
1485:.\pdo.c       **** /*!
1486:.\pdo.c       **** **
1487:.\pdo.c       **** **
1488:.\pdo.c       **** ** @param d
1489:.\pdo.c       **** ** @param isSyncEvent
1490:.\pdo.c       **** **
1491:.\pdo.c       **** ** @return
1492:.\pdo.c       **** **/
1493:.\pdo.c       **** 
1494:.\pdo.c       **** UNS8
1495:.\pdo.c       **** _sendPDOevent (CO_Data * d, UNS8 isSyncEvent)
1496:.\pdo.c       **** {
1497:.\pdo.c       ****   UNS8 pdoNum = 0x00;           /* number of the actual processed pdo-nr. */
1498:.\pdo.c       ****   UNS8 *pTransmissionType = NULL;
1499:.\pdo.c       ****   UNS8 status = state3;
1500:.\pdo.c       ****   UNS16 offsetObjdict = d->firstIndex->PDO_TRS;
1501:.\pdo.c       ****   UNS16 offsetObjdictMap = d->firstIndex->PDO_TRS_MAP;
1502:.\pdo.c       ****   UNS16 lastIndex = d->lastIndex->PDO_TRS;
1503:.\pdo.c       **** 
1504:.\pdo.c       ****   if (!d->CurrentCommunicationState.csPDO)
1505:.\pdo.c       ****     {
1506:.\pdo.c       ****       return 0;
1507:.\pdo.c       ****     }
1508:.\pdo.c       **** 
1509:.\pdo.c       **** 
1510:.\pdo.c       ****   /* study all PDO stored in the objects dictionary */
1511:.\pdo.c       ****   if (offsetObjdict)
1512:.\pdo.c       ****     {
1513:.\pdo.c       ****       Message pdo;/* = Message_Initializer;*/
1514:.\pdo.c       ****       memset(&pdo, 0, sizeof(pdo));
1515:.\pdo.c       ****       while (offsetObjdict <= lastIndex)
1516:.\pdo.c       ****         {
1517:.\pdo.c       ****           switch (status)
1518:.\pdo.c       ****             {
1519:.\pdo.c       ****             case state3:
1520:.\pdo.c       ****               if ( /* bSubCount always 5 with objdictedit -> check disabled */
1521:.\pdo.c       ****                    /*d->objdict[offsetObjdict].bSubCount < 5 ||*/
ARM GAS  C:\Users\PANXIA~1\AppData\Local\Temp\cczfv69T.s 			page 51


1522:.\pdo.c       ****                    /* check if TPDO is not valid */
1523:.\pdo.c       ****                    *(UNS32 *) d->objdict[offsetObjdict].pSubindex[1].
1524:.\pdo.c       ****                    pObject & 0x80000000)
1525:.\pdo.c       ****                 {
1526:.\pdo.c       ****                   MSG_WAR (0x3960, "Not a valid PDO ", 0x1800 + pdoNum);
1527:.\pdo.c       ****                   /*Go next TPDO */
1528:.\pdo.c       ****                   status = state11;
1529:.\pdo.c       ****                   break;
1530:.\pdo.c       ****                 }
1531:.\pdo.c       ****               /* get the PDO transmission type */
1532:.\pdo.c       ****               pTransmissionType =
1533:.\pdo.c       ****                 (UNS8 *) d->objdict[offsetObjdict].pSubindex[2].pObject;
1534:.\pdo.c       ****               MSG_WAR (0x3962, "Reading PDO at index : ", 0x1800 + pdoNum);
1535:.\pdo.c       **** 
1536:.\pdo.c       ****               /* check if transmission type is SYNCRONOUS */
1537:.\pdo.c       ****               /* message transmited every n SYNC with n=TransmissionType */
1538:.\pdo.c       ****               if (isSyncEvent &&
1539:.\pdo.c       ****                   (*pTransmissionType >= TRANS_SYNC_MIN) &&
1540:.\pdo.c       ****                   (*pTransmissionType <= TRANS_SYNC_MAX) &&
1541:.\pdo.c       ****                   (++d->PDO_status[pdoNum].transmit_type_parameter ==
1542:.\pdo.c       ****                    *pTransmissionType))
1543:.\pdo.c       ****                 {
1544:.\pdo.c       ****                   /*Reset count of SYNC */
1545:.\pdo.c       ****                   d->PDO_status[pdoNum].transmit_type_parameter = 0;
1546:.\pdo.c       ****                   MSG_WAR (0x3964, "  PDO is on SYNCHRO. Trans type : ",
1547:.\pdo.c       ****                            *pTransmissionType);
1548:.\pdo.c       ****                   memset(&pdo, 0, sizeof(pdo));
1549:.\pdo.c       ****                   /*{
1550:.\pdo.c       ****                     Message msg_init = Message_Initializer;
1551:.\pdo.c       ****                     pdo = msg_init;
1552:.\pdo.c       ****                   }*/
1553:.\pdo.c       ****                   if (buildPDO (d, pdoNum, &pdo))
1554:.\pdo.c       ****                     {
1555:.\pdo.c       ****                       MSG_ERR (0x1906, " Couldn't build TPDO number : ",
1556:.\pdo.c       ****                                pdoNum);
1557:.\pdo.c       ****                       status = state11;
1558:.\pdo.c       ****                       break;
1559:.\pdo.c       ****                     }
1560:.\pdo.c       ****                   status = state5;
1561:.\pdo.c       ****                   /* If transmission RTR, with data sampled on SYNC */
1562:.\pdo.c       ****                 }
1563:.\pdo.c       ****               else if (isSyncEvent && (*pTransmissionType == TRANS_RTR_SYNC))
1564:.\pdo.c       ****                 {
1565:.\pdo.c       ****                   if (buildPDO
1566:.\pdo.c       ****                       (d, pdoNum, &d->PDO_status[pdoNum].last_message))
1567:.\pdo.c       ****                     {
1568:.\pdo.c       ****                       MSG_ERR (0x1966, " Couldn't build TPDO number : ",
1569:.\pdo.c       ****                                pdoNum);
1570:.\pdo.c       ****                       d->PDO_status[pdoNum].transmit_type_parameter &=
1571:.\pdo.c       ****                         ~PDO_RTR_SYNC_READY;
1572:.\pdo.c       ****                     }
1573:.\pdo.c       ****                   else
1574:.\pdo.c       ****                     {
1575:.\pdo.c       ****                       d->PDO_status[pdoNum].transmit_type_parameter |=
1576:.\pdo.c       ****                         PDO_RTR_SYNC_READY;
1577:.\pdo.c       ****                     }
1578:.\pdo.c       ****                   status = state11;
ARM GAS  C:\Users\PANXIA~1\AppData\Local\Temp\cczfv69T.s 			page 52


1579:.\pdo.c       ****                   break;
1580:.\pdo.c       ****                   /* If transmission on Event and not inhibited, check for changes */
1581:.\pdo.c       ****                 }
1582:.\pdo.c       ****               else
1583:.\pdo.c       ****                 if ( (isSyncEvent && (*pTransmissionType == TRANS_SYNC_ACYCLIC))
1584:.\pdo.c       ****                      ||
1585:.\pdo.c       ****                      (!isSyncEvent && (*pTransmissionType == TRANS_EVENT_PROFILE || *pTransmissionT
1586:.\pdo.c       ****                        && !(d->PDO_status[pdoNum].transmit_type_parameter & PDO_INHIBITED)))
1587:.\pdo.c       ****                 {
1588:.\pdo.c       ****                   sendOnePDOevent(d, pdoNum);
1589:.\pdo.c       ****                   status = state11;
1590:.\pdo.c       ****                 }
1591:.\pdo.c       ****               else
1592:.\pdo.c       ****                 {
1593:.\pdo.c       ****                   MSG_WAR (0x306C,
1594:.\pdo.c       ****                            "  PDO is not on EVENT or synchro or not at this SYNC. Trans type : ",
1595:.\pdo.c       ****                            *pTransmissionType);
1596:.\pdo.c       ****                   status = state11;
1597:.\pdo.c       ****                 }
1598:.\pdo.c       ****               break;
1599:.\pdo.c       ****             case state5:       /*Send the pdo */
1600:.\pdo.c       ****               sendPdo(d, pdoNum, &pdo);
1601:.\pdo.c       ****               status = state11;
1602:.\pdo.c       ****               break;
1603:.\pdo.c       ****             case state11:      /*Go to next TPDO */
1604:.\pdo.c       ****               pdoNum++;
1605:.\pdo.c       ****               offsetObjdict++;
1606:.\pdo.c       ****               offsetObjdictMap++;
1607:.\pdo.c       ****               MSG_WAR (0x3970, "next pdo index : ", pdoNum);
1608:.\pdo.c       ****               status = state3;
1609:.\pdo.c       ****               break;
1610:.\pdo.c       **** 
1611:.\pdo.c       ****             default:
1612:.\pdo.c       ****               MSG_ERR (0x1972, "Unknown state has been reached :", status);
1613:.\pdo.c       ****               return 0xFF;
1614:.\pdo.c       ****             }                   /* end switch case */
1615:.\pdo.c       **** 
1616:.\pdo.c       ****         }                       /* end while */
1617:.\pdo.c       ****     }
1618:.\pdo.c       ****   return 0;
1619:.\pdo.c       **** }
1620:.\pdo.c       **** 
1621:.\pdo.c       **** /*!
1622:.\pdo.c       **** **
1623:.\pdo.c       **** **
1624:.\pdo.c       **** ** @param d
1625:.\pdo.c       **** ** @param OD_entry
1626:.\pdo.c       **** ** @param bSubindex
1627:.\pdo.c       **** ** @return always 0
1628:.\pdo.c       **** **/
1629:.\pdo.c       **** 
1630:.\pdo.c       **** UNS32
1631:.\pdo.c       **** TPDO_Communication_Parameter_Callback (CO_Data * d,
1632:.\pdo.c       ****                                        const indextable * OD_entry,
1633:.\pdo.c       ****                                        UNS8 bSubindex)
1634:.\pdo.c       **** {
 1173              		.loc 1 1634 0
ARM GAS  C:\Users\PANXIA~1\AppData\Local\Temp\cczfv69T.s 			page 53


 1174              		.cfi_startproc
 1175              		@ args = 0, pretend = 0, frame = 0
 1176              		@ frame_needed = 0, uses_anonymous_args = 0
 1177              	.LVL160:
 1178 0000 F8B5     		push	{r3, r4, r5, r6, r7, lr}
 1179              		.cfi_def_cfa_offset 24
 1180              		.cfi_offset 3, -24
 1181              		.cfi_offset 4, -20
 1182              		.cfi_offset 5, -16
 1183              		.cfi_offset 6, -12
 1184              		.cfi_offset 7, -8
 1185              		.cfi_offset 14, -4
1635:.\pdo.c       ****   /* If PDO are actives */
1636:.\pdo.c       ****   if (d->CurrentCommunicationState.csPDO)
 1186              		.loc 1 1636 0
 1187 0002 90F87E30 		ldrb	r3, [r0, #126]	@ zero_extendqisi2
 1188 0006 33B3     		cbz	r3, .L76
1637:.\pdo.c       ****     switch (bSubindex)
 1189              		.loc 1 1637 0
 1190 0008 022A     		cmp	r2, #2
 1191 000a 24D3     		bcc	.L76
 1192 000c 032A     		cmp	r2, #3
 1193 000e 01D9     		bls	.L77
 1194 0010 052A     		cmp	r2, #5
 1195 0012 20D1     		bne	.L76
 1196              	.L77:
 1197 0014 0446     		mov	r4, r0
 1198              	.LBB9:
1638:.\pdo.c       ****       {
1639:.\pdo.c       ****       case 2:                  /* Changed transmition type */
1640:.\pdo.c       ****       case 3:                  /* Changed inhibit time */
1641:.\pdo.c       ****       case 5:                  /* Changed event time */
1642:.\pdo.c       ****         {
1643:.\pdo.c       ****           const indextable *TPDO_com = d->objdict + d->firstIndex->PDO_TRS;
 1199              		.loc 1 1643 0
 1200 0016 4368     		ldr	r3, [r0, #4]
 1201 0018 4269     		ldr	r2, [r0, #20]
 1202              	.LVL161:
 1203 001a 1589     		ldrh	r5, [r2, #8]
 1204 001c 03EBC505 		add	r5, r3, r5, lsl #3
 1205              	.LVL162:
1644:.\pdo.c       ****           UNS8 numPdo = (UNS8) (OD_entry - TPDO_com);    /* number of the actual processed pdo-nr. 
 1206              		.loc 1 1644 0
 1207 0020 4D1B     		subs	r5, r1, r5
 1208              	.LVL163:
1645:.\pdo.c       **** 
1646:.\pdo.c       ****           /* Zap all timers and inhibit flag */
1647:.\pdo.c       ****           d->PDO_status[numPdo].event_timer =
1648:.\pdo.c       ****             DelAlarm (d->PDO_status[numPdo].event_timer);
 1209              		.loc 1 1648 0
 1210 0022 8768     		ldr	r7, [r0, #8]
 1211 0024 C5F3C705 		ubfx	r5, r5, #3, #8
 1212              	.LVL164:
 1213 0028 05EBC506 		add	r6, r5, r5, lsl #3
 1214 002c 7600     		lsls	r6, r6, #1
 1215 002e 3744     		add	r7, r7, r6
 1216 0030 B7F90200 		ldrsh	r0, [r7, #2]
ARM GAS  C:\Users\PANXIA~1\AppData\Local\Temp\cczfv69T.s 			page 54


 1217              	.LVL165:
 1218 0034 FFF7FEFF 		bl	DelAlarm
 1219              	.LVL166:
1647:.\pdo.c       ****             DelAlarm (d->PDO_status[numPdo].event_timer);
 1220              		.loc 1 1647 0
 1221 0038 7880     		strh	r0, [r7, #2]	@ movhi
1649:.\pdo.c       ****           d->PDO_status[numPdo].inhibit_timer =
1650:.\pdo.c       ****             DelAlarm (d->PDO_status[numPdo].inhibit_timer);
 1222              		.loc 1 1650 0
 1223 003a A768     		ldr	r7, [r4, #8]
 1224 003c 3744     		add	r7, r7, r6
 1225 003e B7F90400 		ldrsh	r0, [r7, #4]
 1226 0042 FFF7FEFF 		bl	DelAlarm
 1227              	.LVL167:
1649:.\pdo.c       ****           d->PDO_status[numPdo].inhibit_timer =
 1228              		.loc 1 1649 0
 1229 0046 B880     		strh	r0, [r7, #4]	@ movhi
1651:.\pdo.c       ****           d->PDO_status[numPdo].transmit_type_parameter = 0;
 1230              		.loc 1 1651 0
 1231 0048 A368     		ldr	r3, [r4, #8]
 1232 004a 0022     		movs	r2, #0
 1233 004c 9A55     		strb	r2, [r3, r6]
1652:.\pdo.c       ****           /* Call  PDOEventTimerAlarm for this TPDO, this will trigger emission et reset timers */
1653:.\pdo.c       ****           PDOEventTimerAlarm (d, numPdo);
 1234              		.loc 1 1653 0
 1235 004e 2046     		mov	r0, r4
 1236 0050 2946     		mov	r1, r5
 1237 0052 FFF7FEFF 		bl	PDOEventTimerAlarm
 1238              	.LVL168:
 1239              	.L76:
 1240              	.LBE9:
1654:.\pdo.c       ****           return 0;
1655:.\pdo.c       ****         }
1656:.\pdo.c       **** 
1657:.\pdo.c       ****       default:                 /* other subindex are ignored */
1658:.\pdo.c       ****         break;
1659:.\pdo.c       ****       }
1660:.\pdo.c       ****   return 0;
1661:.\pdo.c       **** }
 1241              		.loc 1 1661 0
 1242 0056 0020     		movs	r0, #0
 1243 0058 F8BD     		pop	{r3, r4, r5, r6, r7, pc}
 1244              		.cfi_endproc
 1245              	.LFE11:
 1246              		.size	TPDO_Communication_Parameter_Callback, .-TPDO_Communication_Parameter_Callback
 1247 005a 00BF     		.section	.text.PDOInhibitTimerAlarm,"ax",%progbits
 1248              		.align	2
 1249              		.global	PDOInhibitTimerAlarm
 1250              		.thumb
 1251              		.thumb_func
 1252              		.type	PDOInhibitTimerAlarm, %function
 1253              	PDOInhibitTimerAlarm:
 1254              	.LFB8:
1472:.\pdo.c       ****   /* This is needed to avoid deletion of re-attribuated timer */
 1255              		.loc 1 1472 0
 1256              		.cfi_startproc
 1257              		@ args = 0, pretend = 0, frame = 0
ARM GAS  C:\Users\PANXIA~1\AppData\Local\Temp\cczfv69T.s 			page 55


 1258              		@ frame_needed = 0, uses_anonymous_args = 0
 1259              	.LVL169:
 1260 0000 38B5     		push	{r3, r4, r5, lr}
 1261              		.cfi_def_cfa_offset 16
 1262              		.cfi_offset 3, -16
 1263              		.cfi_offset 4, -12
 1264              		.cfi_offset 5, -8
 1265              		.cfi_offset 14, -4
1474:.\pdo.c       ****   /* Remove inhibit flag */
 1266              		.loc 1 1474 0
 1267 0002 8268     		ldr	r2, [r0, #8]
 1268 0004 01EBC103 		add	r3, r1, r1, lsl #3
 1269 0008 5B00     		lsls	r3, r3, #1
 1270 000a 1A44     		add	r2, r2, r3
 1271 000c 4FF6FF75 		movw	r5, #65535
 1272 0010 9580     		strh	r5, [r2, #4]	@ movhi
1476:.\pdo.c       ****   sendOnePDOevent (d, (UNS8) pdoNum);
 1273              		.loc 1 1476 0
 1274 0012 8468     		ldr	r4, [r0, #8]
 1275 0014 E25C     		ldrb	r2, [r4, r3]	@ zero_extendqisi2
 1276 0016 22F00102 		bic	r2, r2, #1
 1277 001a E254     		strb	r2, [r4, r3]
1477:.\pdo.c       **** }
 1278              		.loc 1 1477 0
 1279 001c C9B2     		uxtb	r1, r1
 1280              	.LVL170:
 1281 001e FFF7FEFF 		bl	sendOnePDOevent
 1282              	.LVL171:
 1283 0022 38BD     		pop	{r3, r4, r5, pc}
 1284              		.cfi_endproc
 1285              	.LFE8:
 1286              		.size	PDOInhibitTimerAlarm, .-PDOInhibitTimerAlarm
 1287              		.section	.text._RxPDO_EventTimers_Handler,"ax",%progbits
 1288              		.align	2
 1289              		.global	_RxPDO_EventTimers_Handler
 1290              		.thumb
 1291              		.thumb_func
 1292              		.type	_RxPDO_EventTimers_Handler, %function
 1293              	_RxPDO_EventTimers_Handler:
 1294              	.LFB9:
1482:.\pdo.c       **** }
 1295              		.loc 1 1482 0
 1296              		.cfi_startproc
 1297              		@ args = 0, pretend = 0, frame = 0
 1298              		@ frame_needed = 0, uses_anonymous_args = 0
 1299              		@ link register save eliminated.
 1300              	.LVL172:
 1301 0000 7047     		bx	lr
 1302              		.cfi_endproc
 1303              	.LFE9:
 1304              		.size	_RxPDO_EventTimers_Handler, .-_RxPDO_EventTimers_Handler
 1305 0002 00BF     		.section	.text._sendPDOevent,"ax",%progbits
 1306              		.align	2
 1307              		.global	_sendPDOevent
 1308              		.thumb
 1309              		.thumb_func
 1310              		.type	_sendPDOevent, %function
ARM GAS  C:\Users\PANXIA~1\AppData\Local\Temp\cczfv69T.s 			page 56


 1311              	_sendPDOevent:
 1312              	.LFB10:
1496:.\pdo.c       ****   UNS8 pdoNum = 0x00;           /* number of the actual processed pdo-nr. */
 1313              		.loc 1 1496 0
 1314              		.cfi_startproc
 1315              		@ args = 0, pretend = 0, frame = 16
 1316              		@ frame_needed = 0, uses_anonymous_args = 0
 1317              	.LVL173:
1496:.\pdo.c       ****   UNS8 pdoNum = 0x00;           /* number of the actual processed pdo-nr. */
 1318              		.loc 1 1496 0
 1319 0000 2DE9F043 		push	{r4, r5, r6, r7, r8, r9, lr}
 1320              		.cfi_def_cfa_offset 28
 1321              		.cfi_offset 4, -28
 1322              		.cfi_offset 5, -24
 1323              		.cfi_offset 6, -20
 1324              		.cfi_offset 7, -16
 1325              		.cfi_offset 8, -12
 1326              		.cfi_offset 9, -8
 1327              		.cfi_offset 14, -4
 1328 0004 85B0     		sub	sp, sp, #20
 1329              		.cfi_def_cfa_offset 48
 1330              	.LVL174:
1500:.\pdo.c       ****   UNS16 offsetObjdictMap = d->firstIndex->PDO_TRS_MAP;
 1331              		.loc 1 1500 0
 1332 0006 4369     		ldr	r3, [r0, #20]
 1333 0008 1D89     		ldrh	r5, [r3, #8]
 1334              	.LVL175:
1502:.\pdo.c       **** 
 1335              		.loc 1 1502 0
 1336 000a 8369     		ldr	r3, [r0, #24]
 1337              	.LVL176:
 1338 000c 1E89     		ldrh	r6, [r3, #8]
 1339              	.LVL177:
1504:.\pdo.c       ****     {
 1340              		.loc 1 1504 0
 1341 000e 90F87E30 		ldrb	r3, [r0, #126]	@ zero_extendqisi2
 1342 0012 002B     		cmp	r3, #0
 1343 0014 00F09880 		beq	.L96
1511:.\pdo.c       ****     {
 1344              		.loc 1 1511 0
 1345 0018 002D     		cmp	r5, #0
 1346 001a 00F09780 		beq	.L97
 1347 001e 8846     		mov	r8, r1
 1348 0020 0446     		mov	r4, r0
 1349              	.LBB10:
1514:.\pdo.c       ****       while (offsetObjdict <= lastIndex)
 1350              		.loc 1 1514 0
 1351 0022 0021     		movs	r1, #0
 1352              	.LVL178:
 1353 0024 0191     		str	r1, [sp, #4]
 1354              	.LVL179:
 1355 0026 0291     		str	r1, [sp, #8]
 1356 0028 0391     		str	r1, [sp, #12]
 1357              	.LBE10:
1499:.\pdo.c       ****   UNS16 offsetObjdict = d->firstIndex->PDO_TRS;
 1358              		.loc 1 1499 0
 1359 002a 0323     		movs	r3, #3
ARM GAS  C:\Users\PANXIA~1\AppData\Local\Temp\cczfv69T.s 			page 57


1497:.\pdo.c       ****   UNS8 *pTransmissionType = NULL;
 1360              		.loc 1 1497 0
 1361 002c 0F46     		mov	r7, r1
 1362              	.LBB11:
1515:.\pdo.c       ****         {
 1363              		.loc 1 1515 0
 1364 002e 86E0     		b	.L84
 1365              	.LVL180:
 1366              	.L95:
1517:.\pdo.c       ****             {
 1367              		.loc 1 1517 0
 1368 0030 052B     		cmp	r3, #5
 1369 0032 6CD0     		beq	.L86
 1370 0034 0B2B     		cmp	r3, #11
 1371 0036 71D0     		beq	.L87
 1372 0038 032B     		cmp	r3, #3
 1373 003a 75D1     		bne	.L103
1523:.\pdo.c       ****                    pObject & 0x80000000)
 1374              		.loc 1 1523 0
 1375 003c 6368     		ldr	r3, [r4, #4]
 1376              	.LVL181:
 1377 003e 53F83530 		ldr	r3, [r3, r5, lsl #3]
 1378 0042 5A69     		ldr	r2, [r3, #20]
 1379 0044 1268     		ldr	r2, [r2]
1520:.\pdo.c       ****                    /*d->objdict[offsetObjdict].bSubCount < 5 ||*/
 1380              		.loc 1 1520 0
 1381 0046 002A     		cmp	r2, #0
 1382 0048 70DB     		blt	.L98
1532:.\pdo.c       ****                 (UNS8 *) d->objdict[offsetObjdict].pSubindex[2].pObject;
 1383              		.loc 1 1532 0
 1384 004a 1B6A     		ldr	r3, [r3, #32]
 1385              	.LVL182:
1538:.\pdo.c       ****                   (*pTransmissionType >= TRANS_SYNC_MIN) &&
 1386              		.loc 1 1538 0
 1387 004c B8F1000F 		cmp	r8, #0
 1388 0050 1DD0     		beq	.L90
1539:.\pdo.c       ****                   (*pTransmissionType <= TRANS_SYNC_MAX) &&
 1389              		.loc 1 1539 0 discriminator 1
 1390 0052 1A78     		ldrb	r2, [r3]	@ zero_extendqisi2
1538:.\pdo.c       ****                   (*pTransmissionType >= TRANS_SYNC_MIN) &&
 1391              		.loc 1 1538 0 discriminator 1
 1392 0054 DAB1     		cbz	r2, .L90
1539:.\pdo.c       ****                   (*pTransmissionType <= TRANS_SYNC_MAX) &&
 1393              		.loc 1 1539 0
 1394 0056 F02A     		cmp	r2, #240
 1395 0058 19D8     		bhi	.L90
1541:.\pdo.c       ****                    *pTransmissionType))
 1396              		.loc 1 1541 0
 1397 005a A068     		ldr	r0, [r4, #8]
 1398 005c 07EBC701 		add	r1, r7, r7, lsl #3
 1399 0060 4900     		lsls	r1, r1, #1
 1400 0062 425C     		ldrb	r2, [r0, r1]	@ zero_extendqisi2
 1401 0064 0132     		adds	r2, r2, #1
 1402 0066 D2B2     		uxtb	r2, r2
1540:.\pdo.c       ****                   (++d->PDO_status[pdoNum].transmit_type_parameter ==
 1403              		.loc 1 1540 0
 1404 0068 4254     		strb	r2, [r0, r1]
ARM GAS  C:\Users\PANXIA~1\AppData\Local\Temp\cczfv69T.s 			page 58


1542:.\pdo.c       ****                 {
 1405              		.loc 1 1542 0
 1406 006a 1878     		ldrb	r0, [r3]	@ zero_extendqisi2
1540:.\pdo.c       ****                   (++d->PDO_status[pdoNum].transmit_type_parameter ==
 1407              		.loc 1 1540 0
 1408 006c 8242     		cmp	r2, r0
 1409 006e 0ED1     		bne	.L90
1545:.\pdo.c       ****                   MSG_WAR (0x3964, "  PDO is on SYNCHRO. Trans type : ",
 1410              		.loc 1 1545 0
 1411 0070 A268     		ldr	r2, [r4, #8]
 1412 0072 0023     		movs	r3, #0
 1413              	.LVL183:
 1414 0074 5354     		strb	r3, [r2, r1]
1548:.\pdo.c       ****                   /*{
 1415              		.loc 1 1548 0
 1416 0076 0193     		str	r3, [sp, #4]
 1417 0078 0293     		str	r3, [sp, #8]
 1418 007a 0393     		str	r3, [sp, #12]
1553:.\pdo.c       ****                     {
 1419              		.loc 1 1553 0
 1420 007c 2046     		mov	r0, r4
 1421 007e 3946     		mov	r1, r7
 1422 0080 01AA     		add	r2, sp, #4
 1423 0082 FFF7FEFF 		bl	buildPDO
 1424              	.LVL184:
 1425 0086 0028     		cmp	r0, #0
 1426 0088 52D0     		beq	.L99
1557:.\pdo.c       ****                       break;
 1427              		.loc 1 1557 0
 1428 008a 0B23     		movs	r3, #11
 1429 008c 57E0     		b	.L84
 1430              	.LVL185:
 1431              	.L90:
1563:.\pdo.c       ****                 {
 1432              		.loc 1 1563 0
 1433 008e B8F1000F 		cmp	r8, #0
 1434 0092 21D0     		beq	.L91
1563:.\pdo.c       ****                 {
 1435              		.loc 1 1563 0 is_stmt 0 discriminator 1
 1436 0094 1A78     		ldrb	r2, [r3]	@ zero_extendqisi2
 1437 0096 FC2A     		cmp	r2, #252
 1438 0098 1ED1     		bne	.L91
1566:.\pdo.c       ****                     {
 1439              		.loc 1 1566 0 is_stmt 1
 1440 009a A368     		ldr	r3, [r4, #8]
 1441              	.LVL186:
 1442 009c 07EBC709 		add	r9, r7, r7, lsl #3
 1443 00a0 4FEA4909 		lsl	r9, r9, #1
 1444 00a4 03EB0902 		add	r2, r3, r9
1565:.\pdo.c       ****                       (d, pdoNum, &d->PDO_status[pdoNum].last_message))
 1445              		.loc 1 1565 0
 1446 00a8 2046     		mov	r0, r4
 1447 00aa 3946     		mov	r1, r7
 1448 00ac 0632     		adds	r2, r2, #6
 1449 00ae FFF7FEFF 		bl	buildPDO
 1450              	.LVL187:
 1451 00b2 40B1     		cbz	r0, .L92
ARM GAS  C:\Users\PANXIA~1\AppData\Local\Temp\cczfv69T.s 			page 59


1570:.\pdo.c       ****                         ~PDO_RTR_SYNC_READY;
 1452              		.loc 1 1570 0
 1453 00b4 A268     		ldr	r2, [r4, #8]
 1454 00b6 12F80930 		ldrb	r3, [r2, r9]	@ zero_extendqisi2
 1455 00ba 23F00103 		bic	r3, r3, #1
 1456 00be 02F80930 		strb	r3, [r2, r9]
1578:.\pdo.c       ****                   break;
 1457              		.loc 1 1578 0
 1458 00c2 0B23     		movs	r3, #11
 1459 00c4 3BE0     		b	.L84
 1460              	.L92:
1575:.\pdo.c       ****                         PDO_RTR_SYNC_READY;
 1461              		.loc 1 1575 0
 1462 00c6 A268     		ldr	r2, [r4, #8]
 1463 00c8 12F80930 		ldrb	r3, [r2, r9]	@ zero_extendqisi2
 1464 00cc 43F00103 		orr	r3, r3, #1
 1465 00d0 02F80930 		strb	r3, [r2, r9]
1578:.\pdo.c       ****                   break;
 1466              		.loc 1 1578 0
 1467 00d4 0B23     		movs	r3, #11
 1468 00d6 32E0     		b	.L84
 1469              	.LVL188:
 1470              	.L91:
1583:.\pdo.c       ****                      ||
 1471              		.loc 1 1583 0
 1472 00d8 B8F1000F 		cmp	r8, #0
 1473 00dc 01D0     		beq	.L93
1583:.\pdo.c       ****                      ||
 1474              		.loc 1 1583 0 is_stmt 0 discriminator 1
 1475 00de 1A78     		ldrb	r2, [r3]	@ zero_extendqisi2
 1476 00e0 7AB1     		cbz	r2, .L94
 1477              	.L93:
1584:.\pdo.c       ****                      (!isSyncEvent && (*pTransmissionType == TRANS_EVENT_PROFILE || *pTransmissionT
 1478              		.loc 1 1584 0 is_stmt 1
 1479 00e2 B8F1000F 		cmp	r8, #0
 1480 00e6 25D1     		bne	.L100
1585:.\pdo.c       ****                        && !(d->PDO_status[pdoNum].transmit_type_parameter & PDO_INHIBITED)))
 1481              		.loc 1 1585 0
 1482 00e8 1B78     		ldrb	r3, [r3]	@ zero_extendqisi2
 1483              	.LVL189:
 1484 00ea 0233     		adds	r3, r3, #2
 1485 00ec DBB2     		uxtb	r3, r3
 1486 00ee 012B     		cmp	r3, #1
 1487 00f0 22D8     		bhi	.L101
1586:.\pdo.c       ****                 {
 1488              		.loc 1 1586 0
 1489 00f2 A268     		ldr	r2, [r4, #8]
 1490 00f4 07EBC703 		add	r3, r7, r7, lsl #3
 1491 00f8 5B00     		lsls	r3, r3, #1
 1492 00fa D35C     		ldrb	r3, [r2, r3]	@ zero_extendqisi2
 1493 00fc 13F0010F 		tst	r3, #1
 1494 0100 1CD1     		bne	.L102
 1495              	.L94:
1588:.\pdo.c       ****                   status = state11;
 1496              		.loc 1 1588 0
 1497 0102 2046     		mov	r0, r4
 1498 0104 3946     		mov	r1, r7
ARM GAS  C:\Users\PANXIA~1\AppData\Local\Temp\cczfv69T.s 			page 60


 1499 0106 FFF7FEFF 		bl	sendOnePDOevent
 1500              	.LVL190:
1589:.\pdo.c       ****                 }
 1501              		.loc 1 1589 0
 1502 010a 0B23     		movs	r3, #11
 1503 010c 17E0     		b	.L84
 1504              	.LVL191:
 1505              	.L86:
1600:.\pdo.c       ****               status = state11;
 1506              		.loc 1 1600 0
 1507 010e 2046     		mov	r0, r4
 1508 0110 3946     		mov	r1, r7
 1509 0112 01AA     		add	r2, sp, #4
 1510 0114 FFF7FEFF 		bl	sendPdo
 1511              	.LVL192:
1601:.\pdo.c       ****               break;
 1512              		.loc 1 1601 0
 1513 0118 0B23     		movs	r3, #11
1602:.\pdo.c       ****             case state11:      /*Go to next TPDO */
 1514              		.loc 1 1602 0
 1515 011a 10E0     		b	.L84
 1516              	.LVL193:
 1517              	.L87:
1604:.\pdo.c       ****               offsetObjdict++;
 1518              		.loc 1 1604 0
 1519 011c 791C     		adds	r1, r7, #1
 1520 011e CFB2     		uxtb	r7, r1
 1521              	.LVL194:
1605:.\pdo.c       ****               offsetObjdictMap++;
 1522              		.loc 1 1605 0
 1523 0120 0135     		adds	r5, r5, #1
 1524              	.LVL195:
 1525 0122 ADB2     		uxth	r5, r5
 1526              	.LVL196:
1608:.\pdo.c       ****               break;
 1527              		.loc 1 1608 0
 1528 0124 0323     		movs	r3, #3
1609:.\pdo.c       **** 
 1529              		.loc 1 1609 0
 1530 0126 0AE0     		b	.L84
 1531              	.LVL197:
 1532              	.L103:
1613:.\pdo.c       ****             }                   /* end switch case */
 1533              		.loc 1 1613 0
 1534 0128 FF20     		movs	r0, #255
 1535 012a 10E0     		b	.L83
 1536              	.LVL198:
 1537              	.L98:
1528:.\pdo.c       ****                   break;
 1538              		.loc 1 1528 0
 1539 012c 0B23     		movs	r3, #11
 1540 012e 06E0     		b	.L84
 1541              	.L99:
1560:.\pdo.c       ****                   /* If transmission RTR, with data sampled on SYNC */
 1542              		.loc 1 1560 0
 1543 0130 0523     		movs	r3, #5
 1544 0132 04E0     		b	.L84
ARM GAS  C:\Users\PANXIA~1\AppData\Local\Temp\cczfv69T.s 			page 61


 1545              	.LVL199:
 1546              	.L100:
1596:.\pdo.c       ****                 }
 1547              		.loc 1 1596 0
 1548 0134 0B23     		movs	r3, #11
 1549              	.LVL200:
 1550 0136 02E0     		b	.L84
 1551              	.L101:
 1552 0138 0B23     		movs	r3, #11
 1553 013a 00E0     		b	.L84
 1554              	.L102:
 1555 013c 0B23     		movs	r3, #11
 1556              	.LVL201:
 1557              	.L84:
1515:.\pdo.c       ****         {
 1558              		.loc 1 1515 0
 1559 013e B542     		cmp	r5, r6
 1560 0140 7FF676AF 		bls	.L95
 1561              	.LBE11:
1618:.\pdo.c       **** }
 1562              		.loc 1 1618 0
 1563 0144 0020     		movs	r0, #0
 1564              	.LBB12:
 1565 0146 02E0     		b	.L83
 1566              	.LVL202:
 1567              	.L96:
 1568              	.LBE12:
1506:.\pdo.c       ****     }
 1569              		.loc 1 1506 0
 1570 0148 0020     		movs	r0, #0
 1571              	.LVL203:
 1572 014a 00E0     		b	.L83
 1573              	.LVL204:
 1574              	.L97:
1618:.\pdo.c       **** }
 1575              		.loc 1 1618 0
 1576 014c 0020     		movs	r0, #0
 1577              	.LVL205:
 1578              	.L83:
1619:.\pdo.c       **** 
 1579              		.loc 1 1619 0
 1580 014e 05B0     		add	sp, sp, #20
 1581              		.cfi_def_cfa_offset 28
 1582              		@ sp needed
 1583 0150 BDE8F083 		pop	{r4, r5, r6, r7, r8, r9, pc}
 1584              		.cfi_endproc
 1585              	.LFE10:
 1586              		.size	_sendPDOevent, .-_sendPDOevent
 1587              		.section	.text.sendPDOevent,"ax",%progbits
 1588              		.align	2
 1589              		.global	sendPDOevent
 1590              		.thumb
 1591              		.thumb_func
 1592              		.type	sendPDOevent, %function
 1593              	sendPDOevent:
 1594              	.LFB5:
1380:.\pdo.c       ****   /* Calls _sendPDOevent specifying it is not a sync event */
ARM GAS  C:\Users\PANXIA~1\AppData\Local\Temp\cczfv69T.s 			page 62


 1595              		.loc 1 1380 0
 1596              		.cfi_startproc
 1597              		@ args = 0, pretend = 0, frame = 0
 1598              		@ frame_needed = 0, uses_anonymous_args = 0
 1599              	.LVL206:
 1600 0000 08B5     		push	{r3, lr}
 1601              		.cfi_def_cfa_offset 8
 1602              		.cfi_offset 3, -8
 1603              		.cfi_offset 14, -4
1382:.\pdo.c       **** }
 1604              		.loc 1 1382 0
 1605 0002 0021     		movs	r1, #0
 1606 0004 FFF7FEFF 		bl	_sendPDOevent
 1607              	.LVL207:
1383:.\pdo.c       **** 
 1608              		.loc 1 1383 0
 1609 0008 08BD     		pop	{r3, pc}
 1610              		.cfi_endproc
 1611              	.LFE5:
 1612              		.size	sendPDOevent, .-sendPDOevent
 1613 000a 00BF     		.section	.text.PDOInit,"ax",%progbits
 1614              		.align	2
 1615              		.global	PDOInit
 1616              		.thumb
 1617              		.thumb_func
 1618              		.type	PDOInit, %function
 1619              	PDOInit:
 1620              	.LFB12:
1662:.\pdo.c       **** 
1663:.\pdo.c       **** void
1664:.\pdo.c       **** PDOInit (CO_Data * d)
1665:.\pdo.c       **** {
 1621              		.loc 1 1665 0
 1622              		.cfi_startproc
 1623              		@ args = 0, pretend = 0, frame = 8
 1624              		@ frame_needed = 0, uses_anonymous_args = 0
 1625              	.LVL208:
 1626 0000 F0B5     		push	{r4, r5, r6, r7, lr}
 1627              		.cfi_def_cfa_offset 20
 1628              		.cfi_offset 4, -20
 1629              		.cfi_offset 5, -16
 1630              		.cfi_offset 6, -12
 1631              		.cfi_offset 7, -8
 1632              		.cfi_offset 14, -4
 1633 0002 83B0     		sub	sp, sp, #12
 1634              		.cfi_def_cfa_offset 32
 1635 0004 0646     		mov	r6, r0
 1636              	.LVL209:
1666:.\pdo.c       ****   /* For each TPDO mapping parameters */
1667:.\pdo.c       ****   UNS16 pdoIndex = 0x1800;      /* OD index of TDPO */
1668:.\pdo.c       **** 
1669:.\pdo.c       ****   UNS16 offsetObjdict = d->firstIndex->PDO_TRS;
 1637              		.loc 1 1669 0
 1638 0006 4369     		ldr	r3, [r0, #20]
 1639 0008 1C89     		ldrh	r4, [r3, #8]
 1640              	.LVL210:
1670:.\pdo.c       ****   UNS16 lastIndex = d->lastIndex->PDO_TRS;
ARM GAS  C:\Users\PANXIA~1\AppData\Local\Temp\cczfv69T.s 			page 63


 1641              		.loc 1 1670 0
 1642 000a 8369     		ldr	r3, [r0, #24]
 1643 000c 1F89     		ldrh	r7, [r3, #8]
 1644              	.LVL211:
1671:.\pdo.c       ****   if (offsetObjdict)
 1645              		.loc 1 1671 0
 1646 000e 9CB9     		cbnz	r4, .L112
 1647 0010 16E0     		b	.L109
 1648              	.LVL212:
 1649              	.L111:
 1650              	.LBB13:
1672:.\pdo.c       ****     while (offsetObjdict <= lastIndex)
1673:.\pdo.c       ****       {
1674:.\pdo.c       ****         /* Assign callbacks to sensible TPDO mapping subindexes */
1675:.\pdo.c       ****         UNS32 errorCode;
1676:.\pdo.c       ****         ODCallback_t *CallbackList;
1677:.\pdo.c       ****         /* Find callback list */
1678:.\pdo.c       ****         scanIndexOD (d, pdoIndex, &errorCode, &CallbackList);
 1651              		.loc 1 1678 0
 1652 0012 3046     		mov	r0, r6
 1653 0014 2946     		mov	r1, r5
 1654 0016 6A46     		mov	r2, sp
 1655 0018 01AB     		add	r3, sp, #4
 1656 001a FFF7FEFF 		bl	scanIndexOD
 1657              	.LVL213:
1679:.\pdo.c       ****         if (errorCode == OD_SUCCESSFUL && CallbackList)
 1658              		.loc 1 1679 0
 1659 001e 009B     		ldr	r3, [sp]
 1660 0020 2BB9     		cbnz	r3, .L110
 1661              		.loc 1 1679 0 is_stmt 0 discriminator 1
 1662 0022 019B     		ldr	r3, [sp, #4]
 1663 0024 1BB1     		cbz	r3, .L110
1680:.\pdo.c       ****           {
1681:.\pdo.c       ****             /*Assign callbacks to corresponding subindex */
1682:.\pdo.c       ****             /* Transmission type */
1683:.\pdo.c       ****             CallbackList[2] = &TPDO_Communication_Parameter_Callback;
 1664              		.loc 1 1683 0 is_stmt 1
 1665 0026 094A     		ldr	r2, .L114
 1666 0028 9A60     		str	r2, [r3, #8]
1684:.\pdo.c       ****             /* Inhibit time */
1685:.\pdo.c       ****             CallbackList[3] = &TPDO_Communication_Parameter_Callback;
 1667              		.loc 1 1685 0
 1668 002a DA60     		str	r2, [r3, #12]
1686:.\pdo.c       ****             /* Event timer */
1687:.\pdo.c       ****             CallbackList[5] = &TPDO_Communication_Parameter_Callback;
 1669              		.loc 1 1687 0
 1670 002c 5A61     		str	r2, [r3, #20]
 1671              	.L110:
1688:.\pdo.c       ****           }
1689:.\pdo.c       ****         pdoIndex++;
 1672              		.loc 1 1689 0
 1673 002e 0135     		adds	r5, r5, #1
 1674              	.LVL214:
 1675 0030 ADB2     		uxth	r5, r5
 1676              	.LVL215:
1690:.\pdo.c       ****         offsetObjdict++;
 1677              		.loc 1 1690 0
ARM GAS  C:\Users\PANXIA~1\AppData\Local\Temp\cczfv69T.s 			page 64


 1678 0032 0134     		adds	r4, r4, #1
 1679              	.LVL216:
 1680 0034 A4B2     		uxth	r4, r4
 1681              	.LVL217:
 1682 0036 01E0     		b	.L108
 1683              	.LVL218:
 1684              	.L112:
 1685              	.LBE13:
 1686 0038 4FF4C055 		mov	r5, #6144
 1687              	.LVL219:
 1688              	.L108:
1672:.\pdo.c       ****       {
 1689              		.loc 1 1672 0
 1690 003c BC42     		cmp	r4, r7
 1691 003e E8D9     		bls	.L111
 1692              	.LVL220:
 1693              	.L109:
1691:.\pdo.c       ****       }
1692:.\pdo.c       **** 
1693:.\pdo.c       ****   /* Trigger a non-sync event */
1694:.\pdo.c       ****   _sendPDOevent (d, 0);
 1694              		.loc 1 1694 0
 1695 0040 3046     		mov	r0, r6
 1696 0042 0021     		movs	r1, #0
 1697 0044 FFF7FEFF 		bl	_sendPDOevent
 1698              	.LVL221:
1695:.\pdo.c       **** }
 1699              		.loc 1 1695 0
 1700 0048 03B0     		add	sp, sp, #12
 1701              		.cfi_def_cfa_offset 20
 1702              		@ sp needed
 1703 004a F0BD     		pop	{r4, r5, r6, r7, pc}
 1704              	.LVL222:
 1705              	.L115:
 1706              		.align	2
 1707              	.L114:
 1708 004c 00000000 		.word	TPDO_Communication_Parameter_Callback
 1709              		.cfi_endproc
 1710              	.LFE12:
 1711              		.size	PDOInit, .-PDOInit
 1712              		.section	.text.PDOStop,"ax",%progbits
 1713              		.align	2
 1714              		.global	PDOStop
 1715              		.thumb
 1716              		.thumb_func
 1717              		.type	PDOStop, %function
 1718              	PDOStop:
 1719              	.LFB13:
1696:.\pdo.c       **** 
1697:.\pdo.c       **** void
1698:.\pdo.c       **** PDOStop (CO_Data * d)
1699:.\pdo.c       **** {
 1720              		.loc 1 1699 0
 1721              		.cfi_startproc
 1722              		@ args = 0, pretend = 0, frame = 0
 1723              		@ frame_needed = 0, uses_anonymous_args = 0
 1724              	.LVL223:
ARM GAS  C:\Users\PANXIA~1\AppData\Local\Temp\cczfv69T.s 			page 65


 1725 0000 2DE9F843 		push	{r3, r4, r5, r6, r7, r8, r9, lr}
 1726              		.cfi_def_cfa_offset 32
 1727              		.cfi_offset 3, -32
 1728              		.cfi_offset 4, -28
 1729              		.cfi_offset 5, -24
 1730              		.cfi_offset 6, -20
 1731              		.cfi_offset 7, -16
 1732              		.cfi_offset 8, -12
 1733              		.cfi_offset 9, -8
 1734              		.cfi_offset 14, -4
 1735              	.LVL224:
1700:.\pdo.c       ****   /* For each TPDO mapping parameters */
1701:.\pdo.c       ****   UNS8 pdoNum = 0x00;           /* number of the actual processed pdo-nr. */
1702:.\pdo.c       ****   UNS16 offsetObjdict = d->firstIndex->PDO_TRS;
 1736              		.loc 1 1702 0
 1737 0004 4369     		ldr	r3, [r0, #20]
 1738 0006 1E89     		ldrh	r6, [r3, #8]
 1739              	.LVL225:
1703:.\pdo.c       ****   UNS16 lastIndex = d->lastIndex->PDO_TRS;
 1740              		.loc 1 1703 0
 1741 0008 8369     		ldr	r3, [r0, #24]
 1742 000a B3F80890 		ldrh	r9, [r3, #8]
 1743              	.LVL226:
1704:.\pdo.c       ****   if (offsetObjdict)
 1744              		.loc 1 1704 0
 1745 000e 0EBB     		cbnz	r6, .L120
 1746 0010 BDE8F883 		pop	{r3, r4, r5, r6, r7, r8, r9, pc}
 1747              	.LVL227:
 1748              	.L119:
1705:.\pdo.c       ****     while (offsetObjdict <= lastIndex)
1706:.\pdo.c       ****       {
1707:.\pdo.c       ****         /* Delete TPDO timers */
1708:.\pdo.c       ****         d->PDO_status[pdoNum].event_timer =
1709:.\pdo.c       ****           DelAlarm (d->PDO_status[pdoNum].event_timer);
 1749              		.loc 1 1709 0
 1750 0014 D8F80870 		ldr	r7, [r8, #8]
 1751 0018 05EBC504 		add	r4, r5, r5, lsl #3
 1752 001c 6400     		lsls	r4, r4, #1
 1753 001e 2744     		add	r7, r7, r4
 1754 0020 B7F90200 		ldrsh	r0, [r7, #2]
 1755 0024 FFF7FEFF 		bl	DelAlarm
 1756              	.LVL228:
1708:.\pdo.c       ****           DelAlarm (d->PDO_status[pdoNum].event_timer);
 1757              		.loc 1 1708 0
 1758 0028 7880     		strh	r0, [r7, #2]	@ movhi
1710:.\pdo.c       ****         d->PDO_status[pdoNum].inhibit_timer =
1711:.\pdo.c       ****           DelAlarm (d->PDO_status[pdoNum].inhibit_timer);
 1759              		.loc 1 1711 0
 1760 002a D8F80870 		ldr	r7, [r8, #8]
 1761 002e 2744     		add	r7, r7, r4
 1762 0030 B7F90400 		ldrsh	r0, [r7, #4]
 1763 0034 FFF7FEFF 		bl	DelAlarm
 1764              	.LVL229:
1710:.\pdo.c       ****         d->PDO_status[pdoNum].inhibit_timer =
 1765              		.loc 1 1710 0
 1766 0038 B880     		strh	r0, [r7, #4]	@ movhi
1712:.\pdo.c       ****         /* Reset transmit type parameter */
ARM GAS  C:\Users\PANXIA~1\AppData\Local\Temp\cczfv69T.s 			page 66


1713:.\pdo.c       ****         d->PDO_status[pdoNum].transmit_type_parameter = 0;
 1767              		.loc 1 1713 0
 1768 003a D8F80820 		ldr	r2, [r8, #8]
 1769 003e 0023     		movs	r3, #0
 1770 0040 1355     		strb	r3, [r2, r4]
1714:.\pdo.c       ****         d->PDO_status[pdoNum].last_message.cob_id = 0;
 1771              		.loc 1 1714 0
 1772 0042 D8F80820 		ldr	r2, [r8, #8]
 1773 0046 1444     		add	r4, r4, r2
 1774 0048 E380     		strh	r3, [r4, #6]	@ movhi
1715:.\pdo.c       ****         pdoNum++;
 1775              		.loc 1 1715 0
 1776 004a 0135     		adds	r5, r5, #1
 1777              	.LVL230:
 1778 004c EDB2     		uxtb	r5, r5
 1779              	.LVL231:
1716:.\pdo.c       ****         offsetObjdict++;
 1780              		.loc 1 1716 0
 1781 004e 0136     		adds	r6, r6, #1
 1782              	.LVL232:
 1783 0050 B6B2     		uxth	r6, r6
 1784              	.LVL233:
 1785 0052 01E0     		b	.L117
 1786              	.LVL234:
 1787              	.L120:
 1788 0054 8046     		mov	r8, r0
 1789 0056 0025     		movs	r5, #0
 1790              	.LVL235:
 1791              	.L117:
1705:.\pdo.c       ****       {
 1792              		.loc 1 1705 0
 1793 0058 4E45     		cmp	r6, r9
 1794 005a DBD9     		bls	.L119
 1795 005c BDE8F883 		pop	{r3, r4, r5, r6, r7, r8, r9, pc}
 1796              		.cfi_endproc
 1797              	.LFE13:
 1798              		.size	PDOStop, .-PDOStop
 1799              		.text
 1800              	.Letext0:
 1801              		.file 2 "./can.h"
 1802              		.file 3 "c:\\program files (x86)\\cypress\\psoc creator\\3.3\\psoc creator\\import\\gnu\\arm\\4.9.
 1803              		.file 4 "./applicfg.h"
 1804              		.file 5 ".\\pdo.h"
 1805              		.file 6 ".\\data.h"
 1806              		.file 7 ".\\objdictdef.h"
 1807              		.file 8 ".\\objacces.h"
 1808              		.file 9 ".\\timer.h"
 1809              		.file 10 ".\\sdo.h"
 1810              		.file 11 ".\\states.h"
 1811              		.file 12 ".\\lifegrd.h"
 1812              		.file 13 ".\\sync.h"
 1813              		.file 14 ".\\emcy.h"
 1814              		.file 15 ".\\canfestival.h"
 1815              		.file 16 "c:\\program files (x86)\\cypress\\psoc creator\\3.3\\psoc creator\\import\\gnu\\arm\\4.9