ARM GAS  C:\Users\PANXIA~1\AppData\Local\Temp\cczfv69T.s 			page 1


   1              		.syntax unified
   2              		.cpu cortex-m3
   3              		.fpu softvfp
   4              		.eabi_attribute 20, 1
   5              		.eabi_attribute 21, 1
   6              		.eabi_attribute 23, 3
   7              		.eabi_attribute 24, 1
   8              		.eabi_attribute 25, 1
   9              		.eabi_attribute 26, 1
  10              		.eabi_attribute 30, 1
  11              		.eabi_attribute 34, 1
  12              		.eabi_attribute 18, 4
  13              		.thumb
  14              		.file	"pdo.c"
  15              		.text
  16              	.Ltext0:
  17              		.cfi_sections	.debug_frame
  18              		.section	.text.sendPdo,"ax",%progbits
  19              		.align	2
  20              		.thumb
  21              		.thumb_func
  22              		.type	sendPdo, %function
  23              	sendPdo:
  24              	.LFB4:
  25              		.file 1 ".\\pdo.c"
   1:.\pdo.c       **** /* ========================================
   2:.\pdo.c       ****  *
   3:.\pdo.c       ****  * Copyright YOUR COMPANY, THE YEAR
   4:.\pdo.c       ****  * All Rights Reserved
   5:.\pdo.c       ****  * UNPUBLISHED, LICENSED SOFTWARE.
   6:.\pdo.c       ****  *
   7:.\pdo.c       ****  * CONFIDENTIAL AND PROPRIETARY INFORMATION
   8:.\pdo.c       ****  * WHICH IS THE PROPERTY OF your company.
   9:.\pdo.c       ****  *
  10:.\pdo.c       ****  * ========================================
  11:.\pdo.c       **** */
  12:.\pdo.c       **** 
  13:.\pdo.c       **** /* [] END OF FILE */
  14:.\pdo.c       **** 
  15:.\pdo.c       **** ///*
  16:.\pdo.c       **** //  This file is part of CanFestival, a library implementing CanOpen
  17:.\pdo.c       **** //  Stack.
  18:.\pdo.c       **** 
  19:.\pdo.c       **** //  Copyright (C): Edouard TISSERANT and Francis DUPIN
  20:.\pdo.c       **** 
  21:.\pdo.c       **** //  See COPYING file for copyrights details.
  22:.\pdo.c       **** 
  23:.\pdo.c       **** //  This library is free software; you can redistribute it and/or
  24:.\pdo.c       **** //  modify it under the terms of the GNU Lesser General Public
  25:.\pdo.c       **** //  License as published by the Free Software Foundation; either
  26:.\pdo.c       **** //  version 2.1 of the License, or (at your option) any later version.
  27:.\pdo.c       **** 
  28:.\pdo.c       **** //  This library is distributed in the hope that it will be useful,
  29:.\pdo.c       **** //  but WITHOUT ANY WARRANTY; without even the implied warranty of
  30:.\pdo.c       **** //  MERCHANTABILITY or FITNESS FOR A PARTICULAR PURPOSE.  See the GNU
  31:.\pdo.c       **** //  Lesser General Public License for more details.
  32:.\pdo.c       **** 
ARM GAS  C:\Users\PANXIA~1\AppData\Local\Temp\cczfv69T.s 			page 2


  33:.\pdo.c       **** //  You should have received a copy of the GNU Lesser General Public
  34:.\pdo.c       **** //  License along with this library; if not, write to the Free Software
  35:.\pdo.c       **** //  Foundation, Inc., 59 Temple Place, Suite 330, Boston, MA  02111-1307
  36:.\pdo.c       **** //  USA
  37:.\pdo.c       **** //*/
  38:.\pdo.c       **** //#include "pdo.h"
  39:.\pdo.c       **** //#include "objacces.h"
  40:.\pdo.c       **** //#include "canfestival.h"
  41:.\pdo.c       **** //#include "sysdep.h"
  42:.\pdo.c       **** 
  43:.\pdo.c       **** ///*!
  44:.\pdo.c       **** //** @file   pdo.c
  45:.\pdo.c       **** //** @author Edouard TISSERANT and Francis DUPIN
  46:.\pdo.c       **** //** @date   Tue Jun  5 09:32:32 2007
  47:.\pdo.c       **** //**
  48:.\pdo.c       **** //** @brief
  49:.\pdo.c       **** //**
  50:.\pdo.c       **** //**
  51:.\pdo.c       **** //*/
  52:.\pdo.c       **** 
  53:.\pdo.c       **** ///*!
  54:.\pdo.c       **** //**
  55:.\pdo.c       **** //**
  56:.\pdo.c       **** //** @param d
  57:.\pdo.c       **** //** @param TPDO_com TPDO communication parameters OD entry
  58:.\pdo.c       **** //** @param TPDO_map TPDO mapping parameters OD entry
  59:.\pdo.c       **** //**
  60:.\pdo.c       **** //** @return
  61:.\pdo.c       **** //**/
  62:.\pdo.c       **** 
  63:.\pdo.c       **** //UNS8 buildPDO (CO_Data * d, UNS8 numPdo, Message * pdo)
  64:.\pdo.c       **** //{
  65:.\pdo.c       **** //  const indextable *TPDO_com = d->objdict + d->firstIndex->PDO_TRS + numPdo;
  66:.\pdo.c       **** //  const indextable *TPDO_map = d->objdict + d->firstIndex->PDO_TRS_MAP + numPdo;
  67:.\pdo.c       **** 
  68:.\pdo.c       **** //  UNS8 prp_j = 0x00;
  69:.\pdo.c       **** //  UNS32 offset = 0x00000000;
  70:.\pdo.c       **** //  const UNS8 *pMappingCount = (UNS8 *) TPDO_map->pSubindex[0].pObject;
  71:.\pdo.c       **** 
  72:.\pdo.c       **** //  pdo->cob_id = (UNS16) UNS16_LE(*(UNS32*)TPDO_com->pSubindex[1].pObject & 0x7FF);
  73:.\pdo.c       **** //  pdo->rtr = NOT_A_REQUEST;
  74:.\pdo.c       **** 
  75:.\pdo.c       **** //  MSG_WAR (0x3009, "  PDO CobId is : ",
  76:.\pdo.c       **** //           *(UNS32 *) TPDO_com->pSubindex[1].pObject);
  77:.\pdo.c       **** //  MSG_WAR (0x300D, "  Number of objects mapped : ", *pMappingCount);
  78:.\pdo.c       **** 
  79:.\pdo.c       **** //  do
  80:.\pdo.c       **** //    {
  81:.\pdo.c       **** //      UNS8 dataType;            /* Unused */
  82:.\pdo.c       **** //      UNS8 tmp[] = { 0, 0, 0, 0, 0, 0, 0, 0 };  /* temporary space to hold bits */
  83:.\pdo.c       **** 
  84:.\pdo.c       **** //      /* pointer fo the var which holds the mapping parameter of an mapping entry  */
  85:.\pdo.c       **** //      UNS32 *pMappingParameter =
  86:.\pdo.c       **** //        (UNS32 *) TPDO_map->pSubindex[prp_j + 1].pObject;
  87:.\pdo.c       **** //      UNS16 index = (UNS16) ((*pMappingParameter) >> 16);
  88:.\pdo.c       **** //      UNS32 Size = (UNS32) (*pMappingParameter & (UNS32) 0x000000FF);     /* Size in bits */
  89:.\pdo.c       **** 
ARM GAS  C:\Users\PANXIA~1\AppData\Local\Temp\cczfv69T.s 			page 3


  90:.\pdo.c       **** //      /* get variable only if Size != 0 and Size is lower than remaining bits in the PDO */
  91:.\pdo.c       **** //      if (Size && ((offset + Size) <= 64))
  92:.\pdo.c       **** //        {
  93:.\pdo.c       **** //          UNS32 ByteSize = 1 + ((Size - 1) >> 3);        /*1->8 => 1 ; 9->16 => 2, ... */
  94:.\pdo.c       **** //          UNS8 subIndex =
  95:.\pdo.c       **** //            (UNS8) (((*pMappingParameter) >> (UNS8) 8) & (UNS32) 0x000000FF);
  96:.\pdo.c       **** 
  97:.\pdo.c       **** //          MSG_WAR (0x300F, "  got mapping parameter : ", *pMappingParameter);
  98:.\pdo.c       **** //          MSG_WAR (0x3050, "    at index : ", TPDO_map->index);
  99:.\pdo.c       **** //          MSG_WAR (0x3051, "    sub-index : ", prp_j + 1);
 100:.\pdo.c       **** 
 101:.\pdo.c       **** //          if (getODentry (d, index, subIndex, tmp, &ByteSize, &dataType, 0) !=
 102:.\pdo.c       **** //              OD_SUCCESSFUL)
 103:.\pdo.c       **** //            {
 104:.\pdo.c       **** //              MSG_ERR (0x1013,
 105:.\pdo.c       **** //                       " Couldn't find mapped variable at index-subindex-size : ",
 106:.\pdo.c       **** //                       (UNS32) (*pMappingParameter));
 107:.\pdo.c       **** //              return 0xFF;
 108:.\pdo.c       **** //            }
 109:.\pdo.c       **** //          /* copy bit per bit in little endian */
 110:.\pdo.c       **** //          CopyBits ((UNS8) Size, ((UNS8 *) tmp), 0, 0,
 111:.\pdo.c       **** //                    (UNS8 *) & pdo->data[offset >> 3], (UNS8)(offset % 8), 0);
 112:.\pdo.c       **** 
 113:.\pdo.c       **** //          offset += Size;
 114:.\pdo.c       **** //        }
 115:.\pdo.c       **** //      prp_j++;
 116:.\pdo.c       **** //    }
 117:.\pdo.c       **** //  while (prp_j < *pMappingCount);
 118:.\pdo.c       **** 
 119:.\pdo.c       **** //  pdo->len = (UNS8)(1 + ((offset - 1) >> 3));
 120:.\pdo.c       **** 
 121:.\pdo.c       **** //  MSG_WAR (0x3015, "  End scan mapped variable", 0);
 122:.\pdo.c       **** 
 123:.\pdo.c       **** //  return 0;
 124:.\pdo.c       **** //}
 125:.\pdo.c       **** 
 126:.\pdo.c       **** ///*!
 127:.\pdo.c       **** //**
 128:.\pdo.c       **** //**
 129:.\pdo.c       **** //** @param d
 130:.\pdo.c       **** //** @param cobId
 131:.\pdo.c       **** //**
 132:.\pdo.c       **** //** @return
 133:.\pdo.c       **** //**/
 134:.\pdo.c       **** //UNS8
 135:.\pdo.c       **** //sendPDOrequest (CO_Data * d, UNS16 RPDOIndex)
 136:.\pdo.c       **** //{
 137:.\pdo.c       **** //  UNS32 *pwCobId;
 138:.\pdo.c       **** //  UNS16 offset = d->firstIndex->PDO_RCV;
 139:.\pdo.c       **** //  UNS16 lastIndex = d->lastIndex->PDO_RCV;
 140:.\pdo.c       **** 
 141:.\pdo.c       **** //  if (!d->CurrentCommunicationState.csPDO)
 142:.\pdo.c       **** //    {
 143:.\pdo.c       **** //      return 0;
 144:.\pdo.c       **** //    }
 145:.\pdo.c       **** 
 146:.\pdo.c       **** //  /* Sending the request only if the cobid have been found on the PDO
ARM GAS  C:\Users\PANXIA~1\AppData\Local\Temp\cczfv69T.s 			page 4


 147:.\pdo.c       **** //     receive */
 148:.\pdo.c       **** //  /* part dictionary */
 149:.\pdo.c       **** 
 150:.\pdo.c       **** //  MSG_WAR (0x3930, "sendPDOrequest RPDO Index : ", RPDOIndex);
 151:.\pdo.c       **** 
 152:.\pdo.c       **** //  if (offset && RPDOIndex >= 0x1400)
 153:.\pdo.c       **** //    {
 154:.\pdo.c       **** //      offset += RPDOIndex - 0x1400;
 155:.\pdo.c       **** //      if (offset <= lastIndex)
 156:.\pdo.c       **** //        {
 157:.\pdo.c       **** //          /* get the CobId */
 158:.\pdo.c       **** //          pwCobId = d->objdict[offset].pSubindex[1].pObject;
 159:.\pdo.c       **** 
 160:.\pdo.c       **** //          MSG_WAR (0x3930, "sendPDOrequest cobId is : ", *pwCobId);
 161:.\pdo.c       **** //          {
 162:.\pdo.c       **** //            Message pdo;
 163:.\pdo.c       **** //            pdo.cob_id = (UNS16)UNS16_LE(*pwCobId);
 164:.\pdo.c       **** //            pdo.rtr = REQUEST;
 165:.\pdo.c       **** //            pdo.len = 0;
 166:.\pdo.c       **** //            return canSend (d->canHandle, &pdo);
 167:.\pdo.c       **** //          }
 168:.\pdo.c       **** //        }
 169:.\pdo.c       **** //    }
 170:.\pdo.c       **** //  MSG_ERR (0x1931, "sendPDOrequest : RPDO Index not found : ", RPDOIndex);
 171:.\pdo.c       **** //  return 0xFF;
 172:.\pdo.c       **** //}
 173:.\pdo.c       **** 
 174:.\pdo.c       **** 
 175:.\pdo.c       **** ///*!
 176:.\pdo.c       **** //**
 177:.\pdo.c       **** //**
 178:.\pdo.c       **** //** @param d
 179:.\pdo.c       **** //** @param m
 180:.\pdo.c       **** //**
 181:.\pdo.c       **** //** @return
 182:.\pdo.c       **** //**/
 183:.\pdo.c       **** //UNS8
 184:.\pdo.c       **** //proceedPDO (CO_Data * d, Message * m)
 185:.\pdo.c       **** //{
 186:.\pdo.c       **** //  UNS8 numPdo;
 187:.\pdo.c       **** //  UNS8 numMap;                  /* Number of the mapped varable */
 188:.\pdo.c       **** //  UNS8 *pMappingCount = NULL;   /* count of mapped objects... */
 189:.\pdo.c       **** //  /* pointer to the var which is mapped to a pdo... */
 190:.\pdo.c       **** //  /*  void *     pMappedAppObject = NULL;   */
 191:.\pdo.c       **** //  /* pointer fo the var which holds the mapping parameter of an
 192:.\pdo.c       **** //     mapping entry */
 193:.\pdo.c       **** //  UNS32 *pMappingParameter = NULL;
 194:.\pdo.c       **** //  UNS8 *pTransmissionType = NULL;       /* pointer to the transmission
 195:.\pdo.c       **** //                                           type */
 196:.\pdo.c       **** //  UNS32 *pwCobId = NULL;
 197:.\pdo.c       **** //  UNS8 Size;
 198:.\pdo.c       **** //  UNS8 offset;
 199:.\pdo.c       **** //  UNS8 status;
 200:.\pdo.c       **** //  UNS32 objDict;
 201:.\pdo.c       **** //  UNS16 offsetObjdict;
 202:.\pdo.c       **** //  UNS16 lastIndex;
 203:.\pdo.c       **** //  TIMEVAL EventTimerDuration = 0;
ARM GAS  C:\Users\PANXIA~1\AppData\Local\Temp\cczfv69T.s 			page 5


 204:.\pdo.c       **** 
 205:.\pdo.c       **** //  status = state2;
 206:.\pdo.c       **** 
 207:.\pdo.c       **** //  MSG_WAR (0x3935, "proceedPDO, cobID : ", (UNS16_LE(m->cob_id) & 0x7ff));
 208:.\pdo.c       **** //  offset = 0x00;
 209:.\pdo.c       **** //  numPdo = 0;
 210:.\pdo.c       **** //  numMap = 0;
 211:.\pdo.c       **** //  if ((*m).rtr == NOT_A_REQUEST)
 212:.\pdo.c       **** //    {                           /* The PDO received is not a
 213:.\pdo.c       **** //                                   request. */
 214:.\pdo.c       **** 
 215:.\pdo.c       **** //      offsetObjdict = d->firstIndex->PDO_RCV;
 216:.\pdo.c       **** //      lastIndex = d->lastIndex->PDO_RCV;
 217:.\pdo.c       **** 
 218:.\pdo.c       **** //      /* study of all the PDO stored in the dictionary */
 219:.\pdo.c       **** //      if (offsetObjdict)
 220:.\pdo.c       **** //        while (offsetObjdict <= lastIndex)
 221:.\pdo.c       **** //          {
 222:.\pdo.c       **** 
 223:.\pdo.c       **** //            switch (status)
 224:.\pdo.c       **** //              {
 225:.\pdo.c       **** 
 226:.\pdo.c       **** //              case state2:
 227:.\pdo.c       **** //                /* get CobId of the dictionary correspondant to the received
 228:.\pdo.c       **** //                   PDO */
 229:.\pdo.c       **** //                pwCobId =
 230:.\pdo.c       **** //                  d->objdict[offsetObjdict].pSubindex[1].pObject;
 231:.\pdo.c       **** //                /* check the CobId coherance */
 232:.\pdo.c       **** //                /*pwCobId is the cobId read in the dictionary at the state 3
 233:.\pdo.c       **** //                 */
 234:.\pdo.c       **** //                if (*pwCobId == UNS16_LE(m->cob_id))
 235:.\pdo.c       **** //                  {
 236:.\pdo.c       **** //                    /* The cobId is recognized */
 237:.\pdo.c       **** //                    status = state4;
 238:.\pdo.c       **** //                    EventTimerDuration = *(UNS16 *)d->objdict[offsetObjdict].pSubindex[5].pObject
 239:.\pdo.c       **** //                    MSG_WAR (0x3936, "cobId found at index ",
 240:.\pdo.c       **** //                             0x1400 + numPdo);
 241:.\pdo.c       **** //                    break;
 242:.\pdo.c       **** //                  }
 243:.\pdo.c       **** //                else
 244:.\pdo.c       **** //                  {
 245:.\pdo.c       **** //                    /* cobId received does not match with those write in the
 246:.\pdo.c       **** //                       dictionnary */
 247:.\pdo.c       **** //                    numPdo++;
 248:.\pdo.c       **** //                    offsetObjdict++;
 249:.\pdo.c       **** //                    status = state2;
 250:.\pdo.c       **** //                    break;
 251:.\pdo.c       **** //                  }
 252:.\pdo.c       **** 
 253:.\pdo.c       **** //              case state4:     /* Get Mapped Objects Number */
 254:.\pdo.c       **** //                /* The cobId of the message received has been found in the
 255:.\pdo.c       **** //                   dictionnary. */
 256:.\pdo.c       **** //                offsetObjdict = d->firstIndex->PDO_RCV_MAP;
 257:.\pdo.c       **** //                lastIndex = d->lastIndex->PDO_RCV_MAP;
 258:.\pdo.c       **** //                pMappingCount =
 259:.\pdo.c       **** //                  (UNS8 *) (d->objdict + offsetObjdict +
 260:.\pdo.c       **** //                            numPdo)->pSubindex[0].pObject;
ARM GAS  C:\Users\PANXIA~1\AppData\Local\Temp\cczfv69T.s 			page 6


 261:.\pdo.c       **** //                numMap = 0;
 262:.\pdo.c       **** //                while (numMap < *pMappingCount)
 263:.\pdo.c       **** //                  {
 264:.\pdo.c       **** //                    UNS8 tmp[] = { 0, 0, 0, 0, 0, 0, 0, 0 };
 265:.\pdo.c       **** //                    UNS32 ByteSize;
 266:.\pdo.c       **** //                    pMappingParameter =
 267:.\pdo.c       **** //                      (UNS32 *) (d->objdict + offsetObjdict +
 268:.\pdo.c       **** //                                 numPdo)->pSubindex[numMap + 1].pObject;
 269:.\pdo.c       **** //                    if (pMappingParameter == NULL)
 270:.\pdo.c       **** //                      {
 271:.\pdo.c       **** //                        MSG_ERR (0x1937, "Couldn't get mapping parameter : ",
 272:.\pdo.c       **** //                                 numMap + 1);
 273:.\pdo.c       **** //                        return 0xFF;
 274:.\pdo.c       **** //                      }
 275:.\pdo.c       **** //                    /* Get the addresse of the mapped variable. */
 276:.\pdo.c       **** //                    /* detail of *pMappingParameter : */
 277:.\pdo.c       **** //                    /* The 16 hight bits contains the index, the medium 8 bits
 278:.\pdo.c       **** //                       contains the subindex, */
 279:.\pdo.c       **** //                    /* and the lower 8 bits contains the size of the mapped
 280:.\pdo.c       **** //                       variable. */
 281:.\pdo.c       **** 
 282:.\pdo.c       **** //                    Size = (UNS8) (*pMappingParameter & (UNS32) 0x000000FF);
 283:.\pdo.c       **** 
 284:.\pdo.c       **** //                    /* set variable only if Size != 0 and
 285:.\pdo.c       **** //                     * Size is lower than remaining bits in the PDO */
 286:.\pdo.c       **** //                    if (Size && ((offset + Size) <= (m->len << 3)))
 287:.\pdo.c       **** //                      {
 288:.\pdo.c       **** //                        /* copy bit per bit in little endian */
 289:.\pdo.c       **** //                        CopyBits (Size, (UNS8 *) & m->data[offset >> 3],
 290:.\pdo.c       **** //                                  offset % 8, 0, ((UNS8 *) tmp), 0, 0);
 291:.\pdo.c       **** //                        /*1->8 => 1 ; 9->16 =>2, ... */
 292:.\pdo.c       **** //                        ByteSize = (UNS32)(1 + ((Size - 1) >> 3));
 293:.\pdo.c       **** 
 294:.\pdo.c       **** //                        objDict =
 295:.\pdo.c       **** //                          setODentry (d, (UNS16) ((*pMappingParameter) >> 16),
 296:.\pdo.c       **** //                                      (UNS8) (((*pMappingParameter) >> 8) &
 297:.\pdo.c       **** //                                              0xFF), tmp, &ByteSize, 0);
 298:.\pdo.c       **** 
 299:.\pdo.c       **** //                        if (objDict != OD_SUCCESSFUL)
 300:.\pdo.c       **** //                          {
 301:.\pdo.c       **** //                            MSG_ERR (0x1938,
 302:.\pdo.c       **** //                                     "error accessing to the mapped var : ",
 303:.\pdo.c       **** //                                     numMap + 1);
 304:.\pdo.c       **** //                            MSG_WAR (0x2939, "         Mapped at index : ",
 305:.\pdo.c       **** //                                     (*pMappingParameter) >> 16);
 306:.\pdo.c       **** //                            MSG_WAR (0x2940, "                subindex : ",
 307:.\pdo.c       **** //                                     ((*pMappingParameter) >> 8) & 0xFF);
 308:.\pdo.c       **** //                            return 0xFF;
 309:.\pdo.c       **** //                          }
 310:.\pdo.c       **** 
 311:.\pdo.c       **** //                        MSG_WAR (0x3942,
 312:.\pdo.c       **** //                                 "Variable updated by PDO cobid : ",
 313:.\pdo.c       **** //                                 UNS16_LE(m->cob_id));
 314:.\pdo.c       **** //                        MSG_WAR (0x3943, "         Mapped at index : ",
 315:.\pdo.c       **** //                                 (*pMappingParameter) >> 16);
 316:.\pdo.c       **** //                        MSG_WAR (0x3944, "                subindex : ",
 317:.\pdo.c       **** //                                 ((*pMappingParameter) >> 8) & 0xFF);
ARM GAS  C:\Users\PANXIA~1\AppData\Local\Temp\cczfv69T.s 			page 7


 318:.\pdo.c       **** //                        offset += Size;
 319:.\pdo.c       **** //                      }
 320:.\pdo.c       **** //                    numMap++;
 321:.\pdo.c       **** //                  }             /* end loop while on mapped variables */
 322:.\pdo.c       **** //                if (EventTimerDuration && d->RxPDO_EventTimers)
 323:.\pdo.c       **** //                {
 324:.\pdo.c       **** //                    DelAlarm (d->RxPDO_EventTimers[numPdo]);
 325:.\pdo.c       **** //                    d->RxPDO_EventTimers[numPdo] = SetAlarm (d, numPdo, d->RxPDO_EventTimers_Hand
 326:.\pdo.c       **** //                    MS_TO_TIMEVAL (EventTimerDuration), 0);
 327:.\pdo.c       **** //                }
 328:.\pdo.c       **** //                return 0;
 329:.\pdo.c       **** 
 330:.\pdo.c       **** //              }                 /* end switch status */
 331:.\pdo.c       **** //          }                     /* end while */
 332:.\pdo.c       **** //    }                           /* end if Donnees */
 333:.\pdo.c       **** //  else if ((*m).rtr == REQUEST)
 334:.\pdo.c       **** //    {
 335:.\pdo.c       **** //      MSG_WAR (0x3946, "Receive a PDO request cobId : ", UNS16_LE(m->cob_id));
 336:.\pdo.c       **** //      status = state1;
 337:.\pdo.c       **** //      offsetObjdict = d->firstIndex->PDO_TRS;
 338:.\pdo.c       **** //      lastIndex = d->lastIndex->PDO_TRS;
 339:.\pdo.c       **** //      if (offsetObjdict)
 340:.\pdo.c       **** //        while (offsetObjdict <= lastIndex)
 341:.\pdo.c       **** //          {
 342:.\pdo.c       **** //            /* study of all PDO stored in the objects dictionary */
 343:.\pdo.c       **** 
 344:.\pdo.c       **** //            switch (status)
 345:.\pdo.c       **** //              {
 346:.\pdo.c       **** 
 347:.\pdo.c       **** //              case state1:     /* check the CobId */
 348:.\pdo.c       **** //                /* get CobId of the dictionary which match to the received PDO
 349:.\pdo.c       **** //                 */
 350:.\pdo.c       **** //                pwCobId =
 351:.\pdo.c       **** //                   (d->objdict +
 352:.\pdo.c       **** //                             offsetObjdict)->pSubindex[1].pObject;
 353:.\pdo.c       **** //                if (*pwCobId == UNS16_LE(m->cob_id))
 354:.\pdo.c       **** //                  {
 355:.\pdo.c       **** //                    status = state4;
 356:.\pdo.c       **** //                    break;
 357:.\pdo.c       **** //                  }
 358:.\pdo.c       **** //                else
 359:.\pdo.c       **** //                  {
 360:.\pdo.c       **** //                    numPdo++;
 361:.\pdo.c       **** //                    offsetObjdict++;
 362:.\pdo.c       **** //                  }
 363:.\pdo.c       **** //                status = state1;
 364:.\pdo.c       **** //                break;
 365:.\pdo.c       **** 
 366:.\pdo.c       **** 
 367:.\pdo.c       **** //              case state4:     /* check transmission type */
 368:.\pdo.c       **** //                pTransmissionType =
 369:.\pdo.c       **** //                  (UNS8 *) d->objdict[offsetObjdict].pSubindex[2].pObject;
 370:.\pdo.c       **** //                /* If PDO is to be sampled and send on RTR, do it */
 371:.\pdo.c       **** //                if ((*pTransmissionType == TRANS_RTR))
 372:.\pdo.c       **** //                  {
 373:.\pdo.c       **** //                    status = state5;
 374:.\pdo.c       **** //                    break;
ARM GAS  C:\Users\PANXIA~1\AppData\Local\Temp\cczfv69T.s 			page 8


 375:.\pdo.c       **** //                  }
 376:.\pdo.c       **** //                /* RTR_SYNC means data prepared at SYNC, transmitted on RTR */
 377:.\pdo.c       **** //                else if ((*pTransmissionType == TRANS_RTR_SYNC))
 378:.\pdo.c       **** //                  {
 379:.\pdo.c       **** //                    if (d->PDO_status[numPdo].
 380:.\pdo.c       **** //                        transmit_type_parameter & PDO_RTR_SYNC_READY)
 381:.\pdo.c       **** //                      {
 382:.\pdo.c       **** //                        /*Data ready, just send */
 383:.\pdo.c       **** //                        canSend(d->canHandle,&d->PDO_status[numPdo].last_message);
 384:.\pdo.c       **** //                        return 0;
 385:.\pdo.c       **** //                      }
 386:.\pdo.c       **** //                    else
 387:.\pdo.c       **** //                      {
 388:.\pdo.c       **** //                        /* if SYNC did never occur, transmit current data */
 389:.\pdo.c       **** //                        /* DS301 do not tell what to do in such a case... */
 390:.\pdo.c       **** //                        MSG_ERR (0x1947,
 391:.\pdo.c       **** //                                 "Not ready RTR_SYNC TPDO send current data : ",
 392:.\pdo.c       **** //                                 UNS16_LE(m->cob_id));
 393:.\pdo.c       **** //                        status = state5;
 394:.\pdo.c       **** //                      }
 395:.\pdo.c       **** //                    break;
 396:.\pdo.c       **** //                  }
 397:.\pdo.c       **** //                else if ((*pTransmissionType == TRANS_EVENT_PROFILE) ||
 398:.\pdo.c       **** //                         (*pTransmissionType == TRANS_EVENT_SPECIFIC))
 399:.\pdo.c       **** //                  {
 400:.\pdo.c       **** //                    /* Zap all timers and inhibit flag */
 401:.\pdo.c       **** //                    d->PDO_status[numPdo].event_timer =
 402:.\pdo.c       **** //                      DelAlarm (d->PDO_status[numPdo].event_timer);
 403:.\pdo.c       **** //                    d->PDO_status[numPdo].inhibit_timer =
 404:.\pdo.c       **** //                      DelAlarm (d->PDO_status[numPdo].inhibit_timer);
 405:.\pdo.c       **** //                    d->PDO_status[numPdo].transmit_type_parameter &=
 406:.\pdo.c       **** //                      ~PDO_INHIBITED;
 407:.\pdo.c       **** //                    /* Call  PDOEventTimerAlarm for this TPDO,
 408:.\pdo.c       **** //                     * this will trigger emission et reset timers */
 409:.\pdo.c       **** //                    PDOEventTimerAlarm (d, numPdo);
 410:.\pdo.c       **** //                    return 0;
 411:.\pdo.c       **** //                  }
 412:.\pdo.c       **** //                else
 413:.\pdo.c       **** //                  {
 414:.\pdo.c       **** //                    /* The requested PDO is not to send on request. So, does
 415:.\pdo.c       **** //                       nothing. */
 416:.\pdo.c       **** //                    MSG_WAR (0x2947, "PDO is not to send on request : ",
 417:.\pdo.c       **** //                             UNS16_LE(m->cob_id));
 418:.\pdo.c       **** //                    return 0xFF;
 419:.\pdo.c       **** //                  }
 420:.\pdo.c       **** 
 421:.\pdo.c       **** //              case state5:     /* build and send requested PDO */
 422:.\pdo.c       **** //                {
 423:.\pdo.c       **** //                  Message pdo;
 424:.\pdo.c       **** //                  if (buildPDO (d, numPdo, &pdo))
 425:.\pdo.c       **** //                    {
 426:.\pdo.c       **** //                      MSG_ERR (0x1948, " Couldn't build TPDO number : ", numPdo);
 427:.\pdo.c       **** //                      return 0xFF;
 428:.\pdo.c       **** //                    }
 429:.\pdo.c       **** //                  canSend (d->canHandle, &pdo);
 430:.\pdo.c       **** //                  return 0;
 431:.\pdo.c       **** //                }
ARM GAS  C:\Users\PANXIA~1\AppData\Local\Temp\cczfv69T.s 			page 9


 432:.\pdo.c       **** //              }                 /* end switch status */
 433:.\pdo.c       **** //          }                     /* end while */
 434:.\pdo.c       **** //    }                           /* end if Requete */
 435:.\pdo.c       **** 
 436:.\pdo.c       **** //  return 0;
 437:.\pdo.c       **** //}
 438:.\pdo.c       **** 
 439:.\pdo.c       **** ///*!
 440:.\pdo.c       **** //**
 441:.\pdo.c       **** //**
 442:.\pdo.c       **** //** @param NbBits
 443:.\pdo.c       **** //** @param SrcByteIndex
 444:.\pdo.c       **** //** @param SrcBitIndex
 445:.\pdo.c       **** //** @param SrcBigEndian
 446:.\pdo.c       **** //** @param DestByteIndex
 447:.\pdo.c       **** //** @param DestBitIndex
 448:.\pdo.c       **** //** @param DestBigEndian
 449:.\pdo.c       **** //**/
 450:.\pdo.c       **** //void
 451:.\pdo.c       **** //CopyBits (UNS8 NbBits, UNS8 * SrcByteIndex, UNS8 SrcBitIndex,
 452:.\pdo.c       **** //          UNS8 SrcBigEndian, UNS8 * DestByteIndex, UNS8 DestBitIndex,
 453:.\pdo.c       **** //          UNS8 DestBigEndian)
 454:.\pdo.c       **** //{
 455:.\pdo.c       **** //  /* This loop copy as many bits that it can each time, crossing */
 456:.\pdo.c       **** //  /* successively bytes */
 457:.\pdo.c       **** //  // boundaries from LSB to MSB.
 458:.\pdo.c       **** //  while (NbBits > 0)
 459:.\pdo.c       **** //    {
 460:.\pdo.c       **** //      /* Bit missalignement between src and dest */
 461:.\pdo.c       **** //      INTEGER8 Vect = DestBitIndex - SrcBitIndex;
 462:.\pdo.c       **** 
 463:.\pdo.c       **** //      /* We can now get src and align it to dest */
 464:.\pdo.c       **** //      UNS8 Aligned =
 465:.\pdo.c       **** //        Vect > 0 ? *SrcByteIndex << Vect : *SrcByteIndex >> -Vect;
 466:.\pdo.c       **** 
 467:.\pdo.c       **** //      /* Compute the nb of bit we will be able to copy */
 468:.\pdo.c       **** //      UNS8 BoudaryLimit = (Vect > 0 ? 8 - DestBitIndex : 8 - SrcBitIndex);
 469:.\pdo.c       **** //      UNS8 BitsToCopy = BoudaryLimit > NbBits ? NbBits : BoudaryLimit;
 470:.\pdo.c       **** 
 471:.\pdo.c       **** //      /* Create a mask that will serve in: */
 472:.\pdo.c       **** //      UNS8 Mask =
 473:.\pdo.c       **** //        ((0xff << (DestBitIndex + BitsToCopy)) |
 474:.\pdo.c       **** //         (0xff >> (8 - DestBitIndex)));
 475:.\pdo.c       **** 
 476:.\pdo.c       **** //      /* - Filtering src */
 477:.\pdo.c       **** //      UNS8 Filtered = Aligned & ~Mask;
 478:.\pdo.c       **** 
 479:.\pdo.c       **** //      /* - and erase bits where we write, preserve where we don't */
 480:.\pdo.c       **** //      *DestByteIndex &= Mask;
 481:.\pdo.c       **** 
 482:.\pdo.c       **** //      /* Then write. */
 483:.\pdo.c       **** //      *DestByteIndex |= Filtered;
 484:.\pdo.c       **** 
 485:.\pdo.c       **** //      /*Compute next time cursors for src */
 486:.\pdo.c       **** //      if ((SrcBitIndex += BitsToCopy) > 7)      /* cross boundary ? */
 487:.\pdo.c       **** //        {
 488:.\pdo.c       **** //          SrcBitIndex = 0;      /* First bit */
ARM GAS  C:\Users\PANXIA~1\AppData\Local\Temp\cczfv69T.s 			page 10


 489:.\pdo.c       **** //          SrcByteIndex += (SrcBigEndian ? -1 : 1);      /* Next byte */
 490:.\pdo.c       **** //        }
 491:.\pdo.c       **** 
 492:.\pdo.c       **** 
 493:.\pdo.c       **** //      /*Compute next time cursors for dest */
 494:.\pdo.c       **** //      if ((DestBitIndex += BitsToCopy) > 7)
 495:.\pdo.c       **** //        {
 496:.\pdo.c       **** //          DestBitIndex = 0;     /* First bit */
 497:.\pdo.c       **** //          DestByteIndex += (DestBigEndian ? -1 : 1);    /* Next byte */
 498:.\pdo.c       **** //        }
 499:.\pdo.c       **** 
 500:.\pdo.c       **** //      /*And decrement counter. */
 501:.\pdo.c       **** //      NbBits -= BitsToCopy;
 502:.\pdo.c       **** //    }
 503:.\pdo.c       **** 
 504:.\pdo.c       **** //}
 505:.\pdo.c       **** 
 506:.\pdo.c       **** //static void sendPdo(CO_Data * d, UNS32 pdoNum, Message * pdo)
 507:.\pdo.c       **** //{
 508:.\pdo.c       **** //  /*store_as_last_message */
 509:.\pdo.c       **** //  d->PDO_status[pdoNum].last_message = *pdo;
 510:.\pdo.c       **** //  MSG_WAR (0x396D, "sendPDO cobId :", UNS16_LE(pdo->cob_id));
 511:.\pdo.c       **** //  MSG_WAR (0x396E, "     Nb octets  : ", pdo->len);
 512:.\pdo.c       **** 
 513:.\pdo.c       **** //  canSend (d->canHandle, pdo);
 514:.\pdo.c       **** //}
 515:.\pdo.c       **** 
 516:.\pdo.c       **** 
 517:.\pdo.c       **** ///*!
 518:.\pdo.c       **** //**
 519:.\pdo.c       **** //**
 520:.\pdo.c       **** //** @param d
 521:.\pdo.c       **** //**
 522:.\pdo.c       **** //** @return
 523:.\pdo.c       **** //**/
 524:.\pdo.c       **** 
 525:.\pdo.c       **** //UNS8
 526:.\pdo.c       **** //sendPDOevent (CO_Data * d)
 527:.\pdo.c       **** //{
 528:.\pdo.c       **** //  /* Calls _sendPDOevent specifying it is not a sync event */
 529:.\pdo.c       **** //  return _sendPDOevent (d, 0);
 530:.\pdo.c       **** //}
 531:.\pdo.c       **** 
 532:.\pdo.c       **** //UNS8
 533:.\pdo.c       **** //sendOnePDOevent (CO_Data * d, UNS8 pdoNum)
 534:.\pdo.c       **** //{
 535:.\pdo.c       **** //  UNS16 offsetObjdict;
 536:.\pdo.c       **** //  Message pdo;
 537:.\pdo.c       **** //  if (!d->CurrentCommunicationState.csPDO ||
 538:.\pdo.c       **** //      (d->PDO_status[pdoNum].transmit_type_parameter & PDO_INHIBITED))
 539:.\pdo.c       **** //    {
 540:.\pdo.c       **** //      return 0;
 541:.\pdo.c       **** //    }
 542:.\pdo.c       **** 
 543:.\pdo.c       **** //  offsetObjdict = (UNS16) (d->firstIndex->PDO_TRS + pdoNum);
 544:.\pdo.c       **** 
 545:.\pdo.c       **** //  MSG_WAR (0x3968, "  PDO is on EVENT. Trans type : ",
ARM GAS  C:\Users\PANXIA~1\AppData\Local\Temp\cczfv69T.s 			page 11


 546:.\pdo.c       **** //           *((UNS8 *) d->objdict[offsetObjdict].pSubindex[2].pObject));
 547:.\pdo.c       **** //
 548:.\pdo.c       **** //  memset(&pdo, 0, sizeof(pdo));
 549:.\pdo.c       **** //  if (buildPDO (d, pdoNum, &pdo))
 550:.\pdo.c       **** //    {
 551:.\pdo.c       **** //      MSG_ERR (0x3907, " Couldn't build TPDO number : ",
 552:.\pdo.c       **** //               pdoNum);
 553:.\pdo.c       **** //      return 0;
 554:.\pdo.c       **** //    }
 555:.\pdo.c       **** 
 556:.\pdo.c       **** //  /*Compare new and old PDO */
 557:.\pdo.c       **** //  if (d->PDO_status[pdoNum].last_message.cob_id == pdo.cob_id
 558:.\pdo.c       **** //      && d->PDO_status[pdoNum].last_message.len == pdo.len
 559:.\pdo.c       **** //      && memcmp(d->PDO_status[pdoNum].last_message.data,
 560:.\pdo.c       **** //					pdo.data, 8) == 0
 561:.\pdo.c       **** //    )
 562:.\pdo.c       **** //    {
 563:.\pdo.c       **** //      /* No changes -> go to next pdo */
 564:.\pdo.c       **** //      return 0;
 565:.\pdo.c       **** //    }
 566:.\pdo.c       **** //  else
 567:.\pdo.c       **** //    {
 568:.\pdo.c       **** 
 569:.\pdo.c       **** //      TIMEVAL EventTimerDuration;
 570:.\pdo.c       **** //      TIMEVAL InhibitTimerDuration;
 571:.\pdo.c       **** 
 572:.\pdo.c       **** //      MSG_WAR (0x306A, "Changes TPDO number : ", pdoNum);
 573:.\pdo.c       **** //      /* Changes detected -> transmit message */
 574:.\pdo.c       **** //      EventTimerDuration =
 575:.\pdo.c       **** //        *(UNS16 *) d->objdict[offsetObjdict].pSubindex[5].
 576:.\pdo.c       **** //        pObject;
 577:.\pdo.c       **** //      InhibitTimerDuration =
 578:.\pdo.c       **** //        *(UNS16 *) d->objdict[offsetObjdict].pSubindex[3].
 579:.\pdo.c       **** //        pObject;
 580:.\pdo.c       **** 
 581:.\pdo.c       **** //      /* Start both event_timer and inhibit_timer */
 582:.\pdo.c       **** //      if (EventTimerDuration)
 583:.\pdo.c       **** //        {
 584:.\pdo.c       **** //          DelAlarm (d->PDO_status[pdoNum].event_timer);
 585:.\pdo.c       **** //          d->PDO_status[pdoNum].event_timer =
 586:.\pdo.c       **** //            SetAlarm (d, pdoNum, &PDOEventTimerAlarm,
 587:.\pdo.c       **** //                      MS_TO_TIMEVAL (EventTimerDuration), 0);
 588:.\pdo.c       **** //        }
 589:.\pdo.c       **** 
 590:.\pdo.c       **** //      if (InhibitTimerDuration)
 591:.\pdo.c       **** //        {
 592:.\pdo.c       **** //          DelAlarm (d->PDO_status[pdoNum].inhibit_timer);
 593:.\pdo.c       **** //          d->PDO_status[pdoNum].inhibit_timer =
 594:.\pdo.c       **** //            SetAlarm (d, pdoNum, &PDOInhibitTimerAlarm,
 595:.\pdo.c       **** //                      US_TO_TIMEVAL (InhibitTimerDuration *
 596:.\pdo.c       **** //                                     100), 0);
 597:.\pdo.c       **** //          /* and inhibit TPDO */
 598:.\pdo.c       **** //          d->PDO_status[pdoNum].transmit_type_parameter |=
 599:.\pdo.c       **** //            PDO_INHIBITED;
 600:.\pdo.c       **** //        }
 601:.\pdo.c       **** 
 602:.\pdo.c       **** //      sendPdo(d, pdoNum, &pdo);
ARM GAS  C:\Users\PANXIA~1\AppData\Local\Temp\cczfv69T.s 			page 12


 603:.\pdo.c       **** //    }
 604:.\pdo.c       **** //    return 1;
 605:.\pdo.c       **** //}
 606:.\pdo.c       **** 
 607:.\pdo.c       **** //void
 608:.\pdo.c       **** //PDOEventTimerAlarm (CO_Data * d, UNS32 pdoNum)
 609:.\pdo.c       **** //{
 610:.\pdo.c       **** //  /* This is needed to avoid deletion of re-attribuated timer */
 611:.\pdo.c       **** //  d->PDO_status[pdoNum].event_timer = TIMER_NONE;
 612:.\pdo.c       **** //  /* force emission of PDO by artificially changing last emitted */
 613:.\pdo.c       **** //  d->PDO_status[pdoNum].last_message.cob_id = 0;
 614:.\pdo.c       **** //  sendOnePDOevent (d, (UNS8) pdoNum);
 615:.\pdo.c       **** //}
 616:.\pdo.c       **** 
 617:.\pdo.c       **** //void
 618:.\pdo.c       **** //PDOInhibitTimerAlarm (CO_Data * d, UNS32 pdoNum)
 619:.\pdo.c       **** //{
 620:.\pdo.c       **** //  /* This is needed to avoid deletion of re-attribuated timer */
 621:.\pdo.c       **** //  d->PDO_status[pdoNum].inhibit_timer = TIMER_NONE;
 622:.\pdo.c       **** //  /* Remove inhibit flag */
 623:.\pdo.c       **** //  d->PDO_status[pdoNum].transmit_type_parameter &= ~PDO_INHIBITED;
 624:.\pdo.c       **** //  sendOnePDOevent (d, (UNS8) pdoNum);
 625:.\pdo.c       **** //}
 626:.\pdo.c       **** 
 627:.\pdo.c       **** //void
 628:.\pdo.c       **** //_RxPDO_EventTimers_Handler(CO_Data *d, UNS32 pdoNum)
 629:.\pdo.c       **** //{
 630:.\pdo.c       **** //}
 631:.\pdo.c       **** 
 632:.\pdo.c       **** ///*!
 633:.\pdo.c       **** //**
 634:.\pdo.c       **** //**
 635:.\pdo.c       **** //** @param d
 636:.\pdo.c       **** //** @param isSyncEvent
 637:.\pdo.c       **** //**
 638:.\pdo.c       **** //** @return
 639:.\pdo.c       **** //**/
 640:.\pdo.c       **** 
 641:.\pdo.c       **** //UNS8
 642:.\pdo.c       **** //_sendPDOevent (CO_Data * d, UNS8 isSyncEvent)
 643:.\pdo.c       **** //{
 644:.\pdo.c       **** //  UNS8 pdoNum = 0x00;           /* number of the actual processed pdo-nr. */
 645:.\pdo.c       **** //  UNS8 *pTransmissionType = NULL;
 646:.\pdo.c       **** //  UNS8 status = state3;
 647:.\pdo.c       **** //  UNS16 offsetObjdict = d->firstIndex->PDO_TRS;
 648:.\pdo.c       **** //  UNS16 offsetObjdictMap = d->firstIndex->PDO_TRS_MAP;
 649:.\pdo.c       **** //  UNS16 lastIndex = d->lastIndex->PDO_TRS;
 650:.\pdo.c       **** 
 651:.\pdo.c       **** //  if (!d->CurrentCommunicationState.csPDO)
 652:.\pdo.c       **** //    {
 653:.\pdo.c       **** //      return 0;
 654:.\pdo.c       **** //    }
 655:.\pdo.c       **** 
 656:.\pdo.c       **** 
 657:.\pdo.c       **** //  /* study all PDO stored in the objects dictionary */
 658:.\pdo.c       **** //  if (offsetObjdict)
 659:.\pdo.c       **** //    {
ARM GAS  C:\Users\PANXIA~1\AppData\Local\Temp\cczfv69T.s 			page 13


 660:.\pdo.c       **** //      Message pdo;/* = Message_Initializer;*/
 661:.\pdo.c       **** //      memset(&pdo, 0, sizeof(pdo));
 662:.\pdo.c       **** //      while (offsetObjdict <= lastIndex)
 663:.\pdo.c       **** //        {
 664:.\pdo.c       **** //          switch (status)
 665:.\pdo.c       **** //            {
 666:.\pdo.c       **** //            case state3:
 667:.\pdo.c       **** //              if ( /* bSubCount always 5 with objdictedit -> check disabled */
 668:.\pdo.c       **** //                   /*d->objdict[offsetObjdict].bSubCount < 5 ||*/
 669:.\pdo.c       **** //                   /* check if TPDO is not valid */
 670:.\pdo.c       **** //                   *(UNS32 *) d->objdict[offsetObjdict].pSubindex[1].
 671:.\pdo.c       **** //                   pObject & 0x80000000)
 672:.\pdo.c       **** //                {
 673:.\pdo.c       **** //                  MSG_WAR (0x3960, "Not a valid PDO ", 0x1800 + pdoNum);
 674:.\pdo.c       **** //                  /*Go next TPDO */
 675:.\pdo.c       **** //                  status = state11;
 676:.\pdo.c       **** //                  break;
 677:.\pdo.c       **** //                }
 678:.\pdo.c       **** //              /* get the PDO transmission type */
 679:.\pdo.c       **** //              pTransmissionType =
 680:.\pdo.c       **** //                (UNS8 *) d->objdict[offsetObjdict].pSubindex[2].pObject;
 681:.\pdo.c       **** //              MSG_WAR (0x3962, "Reading PDO at index : ", 0x1800 + pdoNum);
 682:.\pdo.c       **** 
 683:.\pdo.c       **** //              /* check if transmission type is SYNCRONOUS */
 684:.\pdo.c       **** //              /* message transmited every n SYNC with n=TransmissionType */
 685:.\pdo.c       **** //              if (isSyncEvent &&
 686:.\pdo.c       **** //                  (*pTransmissionType >= TRANS_SYNC_MIN) &&
 687:.\pdo.c       **** //                  (*pTransmissionType <= TRANS_SYNC_MAX) &&
 688:.\pdo.c       **** //                  (++d->PDO_status[pdoNum].transmit_type_parameter ==
 689:.\pdo.c       **** //                   *pTransmissionType))
 690:.\pdo.c       **** //                {
 691:.\pdo.c       **** //                  /*Reset count of SYNC */
 692:.\pdo.c       **** //                  d->PDO_status[pdoNum].transmit_type_parameter = 0;
 693:.\pdo.c       **** //                  MSG_WAR (0x3964, "  PDO is on SYNCHRO. Trans type : ",
 694:.\pdo.c       **** //                           *pTransmissionType);
 695:.\pdo.c       **** //                  memset(&pdo, 0, sizeof(pdo));
 696:.\pdo.c       **** //                  /*{
 697:.\pdo.c       **** //                    Message msg_init = Message_Initializer;
 698:.\pdo.c       **** //                    pdo = msg_init;
 699:.\pdo.c       **** //                  }*/
 700:.\pdo.c       **** //                  if (buildPDO (d, pdoNum, &pdo))
 701:.\pdo.c       **** //                    {
 702:.\pdo.c       **** //                      MSG_ERR (0x1906, " Couldn't build TPDO number : ",
 703:.\pdo.c       **** //                               pdoNum);
 704:.\pdo.c       **** //                      status = state11;
 705:.\pdo.c       **** //                      break;
 706:.\pdo.c       **** //                    }
 707:.\pdo.c       **** //                  status = state5;
 708:.\pdo.c       **** //                  /* If transmission RTR, with data sampled on SYNC */
 709:.\pdo.c       **** //                }
 710:.\pdo.c       **** //              else if (isSyncEvent && (*pTransmissionType == TRANS_RTR_SYNC))
 711:.\pdo.c       **** //                {
 712:.\pdo.c       **** //                  if (buildPDO
 713:.\pdo.c       **** //                      (d, pdoNum, &d->PDO_status[pdoNum].last_message))
 714:.\pdo.c       **** //                    {
 715:.\pdo.c       **** //                      MSG_ERR (0x1966, " Couldn't build TPDO number : ",
 716:.\pdo.c       **** //                               pdoNum);
ARM GAS  C:\Users\PANXIA~1\AppData\Local\Temp\cczfv69T.s 			page 14


 717:.\pdo.c       **** //                      d->PDO_status[pdoNum].transmit_type_parameter &=
 718:.\pdo.c       **** //                        ~PDO_RTR_SYNC_READY;
 719:.\pdo.c       **** //                    }
 720:.\pdo.c       **** //                  else
 721:.\pdo.c       **** //                    {
 722:.\pdo.c       **** //                      d->PDO_status[pdoNum].transmit_type_parameter |=
 723:.\pdo.c       **** //                        PDO_RTR_SYNC_READY;
 724:.\pdo.c       **** //                    }
 725:.\pdo.c       **** //                  status = state11;
 726:.\pdo.c       **** //                  break;
 727:.\pdo.c       **** //                  /* If transmission on Event and not inhibited, check for changes */
 728:.\pdo.c       **** //                }
 729:.\pdo.c       **** //              else
 730:.\pdo.c       **** //                if ( (isSyncEvent && (*pTransmissionType == TRANS_SYNC_ACYCLIC))
 731:.\pdo.c       **** //                     ||
 732:.\pdo.c       **** //                     (!isSyncEvent && (*pTransmissionType == TRANS_EVENT_PROFILE || *pTransmissio
 733:.\pdo.c       **** //                       && !(d->PDO_status[pdoNum].transmit_type_parameter & PDO_INHIBITED)))
 734:.\pdo.c       **** //                {
 735:.\pdo.c       **** //                  sendOnePDOevent(d, pdoNum);
 736:.\pdo.c       **** //                  status = state11;
 737:.\pdo.c       **** //                }
 738:.\pdo.c       **** //              else
 739:.\pdo.c       **** //                {
 740:.\pdo.c       **** //                  MSG_WAR (0x306C,
 741:.\pdo.c       **** //                           "  PDO is not on EVENT or synchro or not at this SYNC. Trans type : ",
 742:.\pdo.c       **** //                           *pTransmissionType);
 743:.\pdo.c       **** //                  status = state11;
 744:.\pdo.c       **** //                }
 745:.\pdo.c       **** //              break;
 746:.\pdo.c       **** //            case state5:       /*Send the pdo */
 747:.\pdo.c       **** //              sendPdo(d, pdoNum, &pdo);
 748:.\pdo.c       **** //              status = state11;
 749:.\pdo.c       **** //              break;
 750:.\pdo.c       **** //            case state11:      /*Go to next TPDO */
 751:.\pdo.c       **** //              pdoNum++;
 752:.\pdo.c       **** //              offsetObjdict++;
 753:.\pdo.c       **** //              offsetObjdictMap++;
 754:.\pdo.c       **** //              MSG_WAR (0x3970, "next pdo index : ", pdoNum);
 755:.\pdo.c       **** //              status = state3;
 756:.\pdo.c       **** //              break;
 757:.\pdo.c       **** 
 758:.\pdo.c       **** //            default:
 759:.\pdo.c       **** //              MSG_ERR (0x1972, "Unknown state has been reached :", status);
 760:.\pdo.c       **** //              return 0xFF;
 761:.\pdo.c       **** //            }                   /* end switch case */
 762:.\pdo.c       **** 
 763:.\pdo.c       **** //        }                       /* end while */
 764:.\pdo.c       **** //    }
 765:.\pdo.c       **** //  return 0;
 766:.\pdo.c       **** //}
 767:.\pdo.c       **** 
 768:.\pdo.c       **** ///*!
 769:.\pdo.c       **** //**
 770:.\pdo.c       **** //**
 771:.\pdo.c       **** //** @param d
 772:.\pdo.c       **** //** @param OD_entry
 773:.\pdo.c       **** //** @param bSubindex
ARM GAS  C:\Users\PANXIA~1\AppData\Local\Temp\cczfv69T.s 			page 15


 774:.\pdo.c       **** //** @return always 0
 775:.\pdo.c       **** //**/
 776:.\pdo.c       **** 
 777:.\pdo.c       **** //UNS32
 778:.\pdo.c       **** //TPDO_Communication_Parameter_Callback (CO_Data * d,
 779:.\pdo.c       **** //                                       const indextable * OD_entry,
 780:.\pdo.c       **** //                                       UNS8 bSubindex)
 781:.\pdo.c       **** //{
 782:.\pdo.c       **** //  /* If PDO are actives */
 783:.\pdo.c       **** //  if (d->CurrentCommunicationState.csPDO)
 784:.\pdo.c       **** //    switch (bSubindex)
 785:.\pdo.c       **** //      {
 786:.\pdo.c       **** //      case 2:                  /* Changed transmition type */
 787:.\pdo.c       **** //      case 3:                  /* Changed inhibit time */
 788:.\pdo.c       **** //      case 5:                  /* Changed event time */
 789:.\pdo.c       **** //        {
 790:.\pdo.c       **** //          const indextable *TPDO_com = d->objdict + d->firstIndex->PDO_TRS;
 791:.\pdo.c       **** //          UNS8 numPdo = (UNS8) (OD_entry - TPDO_com);    /* number of the actual processed pdo-nr
 792:.\pdo.c       **** 
 793:.\pdo.c       **** //          /* Zap all timers and inhibit flag */
 794:.\pdo.c       **** //          d->PDO_status[numPdo].event_timer =
 795:.\pdo.c       **** //            DelAlarm (d->PDO_status[numPdo].event_timer);
 796:.\pdo.c       **** //          d->PDO_status[numPdo].inhibit_timer =
 797:.\pdo.c       **** //            DelAlarm (d->PDO_status[numPdo].inhibit_timer);
 798:.\pdo.c       **** //          d->PDO_status[numPdo].transmit_type_parameter = 0;
 799:.\pdo.c       **** //          /* Call  PDOEventTimerAlarm for this TPDO, this will trigger emission et reset timers *
 800:.\pdo.c       **** //          PDOEventTimerAlarm (d, numPdo);
 801:.\pdo.c       **** //          return 0;
 802:.\pdo.c       **** //        }
 803:.\pdo.c       **** 
 804:.\pdo.c       **** //      default:                 /* other subindex are ignored */
 805:.\pdo.c       **** //        break;
 806:.\pdo.c       **** //      }
 807:.\pdo.c       **** //  return 0;
 808:.\pdo.c       **** //}
 809:.\pdo.c       **** 
 810:.\pdo.c       **** //void
 811:.\pdo.c       **** //PDOInit (CO_Data * d)
 812:.\pdo.c       **** //{
 813:.\pdo.c       **** //  /* For each TPDO mapping parameters */
 814:.\pdo.c       **** //  UNS16 pdoIndex = 0x1800;      /* OD index of TDPO */
 815:.\pdo.c       **** 
 816:.\pdo.c       **** //  UNS16 offsetObjdict = d->firstIndex->PDO_TRS;
 817:.\pdo.c       **** //  UNS16 lastIndex = d->lastIndex->PDO_TRS;
 818:.\pdo.c       **** //  if (offsetObjdict)
 819:.\pdo.c       **** //    while (offsetObjdict <= lastIndex)
 820:.\pdo.c       **** //      {
 821:.\pdo.c       **** //        /* Assign callbacks to sensible TPDO mapping subindexes */
 822:.\pdo.c       **** //        UNS32 errorCode;
 823:.\pdo.c       **** //        ODCallback_t *CallbackList;
 824:.\pdo.c       **** //        /* Find callback list */
 825:.\pdo.c       **** //        scanIndexOD (d, pdoIndex, &errorCode, &CallbackList);
 826:.\pdo.c       **** //        if (errorCode == OD_SUCCESSFUL && CallbackList)
 827:.\pdo.c       **** //          {
 828:.\pdo.c       **** //            /*Assign callbacks to corresponding subindex */
 829:.\pdo.c       **** //            /* Transmission type */
 830:.\pdo.c       **** //            CallbackList[2] = &TPDO_Communication_Parameter_Callback;
ARM GAS  C:\Users\PANXIA~1\AppData\Local\Temp\cczfv69T.s 			page 16


 831:.\pdo.c       **** //            /* Inhibit time */
 832:.\pdo.c       **** //            CallbackList[3] = &TPDO_Communication_Parameter_Callback;
 833:.\pdo.c       **** //            /* Event timer */
 834:.\pdo.c       **** //            CallbackList[5] = &TPDO_Communication_Parameter_Callback;
 835:.\pdo.c       **** //          }
 836:.\pdo.c       **** //        pdoIndex++;
 837:.\pdo.c       **** //        offsetObjdict++;
 838:.\pdo.c       **** //      }
 839:.\pdo.c       **** 
 840:.\pdo.c       **** //  /* Trigger a non-sync event */
 841:.\pdo.c       **** //  _sendPDOevent (d, 0);
 842:.\pdo.c       **** //}
 843:.\pdo.c       **** 
 844:.\pdo.c       **** //void
 845:.\pdo.c       **** //PDOStop (CO_Data * d)
 846:.\pdo.c       **** //{
 847:.\pdo.c       **** //  /* For each TPDO mapping parameters */
 848:.\pdo.c       **** //  UNS8 pdoNum = 0x00;           /* number of the actual processed pdo-nr. */
 849:.\pdo.c       **** //  UNS16 offsetObjdict = d->firstIndex->PDO_TRS;
 850:.\pdo.c       **** //  UNS16 lastIndex = d->lastIndex->PDO_TRS;
 851:.\pdo.c       **** //  if (offsetObjdict)
 852:.\pdo.c       **** //    while (offsetObjdict <= lastIndex)
 853:.\pdo.c       **** //      {
 854:.\pdo.c       **** //        /* Delete TPDO timers */
 855:.\pdo.c       **** //        d->PDO_status[pdoNum].event_timer =
 856:.\pdo.c       **** //          DelAlarm (d->PDO_status[pdoNum].event_timer);
 857:.\pdo.c       **** //        d->PDO_status[pdoNum].inhibit_timer =
 858:.\pdo.c       **** //          DelAlarm (d->PDO_status[pdoNum].inhibit_timer);
 859:.\pdo.c       **** //        /* Reset transmit type parameter */
 860:.\pdo.c       **** //        d->PDO_status[pdoNum].transmit_type_parameter = 0;
 861:.\pdo.c       **** //        d->PDO_status[pdoNum].last_message.cob_id = 0;
 862:.\pdo.c       **** //        pdoNum++;
 863:.\pdo.c       **** //        offsetObjdict++;
 864:.\pdo.c       **** //      }
 865:.\pdo.c       **** //}
 866:.\pdo.c       **** 
 867:.\pdo.c       **** /*
 868:.\pdo.c       ****   This file is part of CanFestival, a library implementing CanOpen
 869:.\pdo.c       ****   Stack.
 870:.\pdo.c       **** 
 871:.\pdo.c       ****   Copyright (C): Edouard TISSERANT and Francis DUPIN
 872:.\pdo.c       **** 
 873:.\pdo.c       ****   See COPYING file for copyrights details.
 874:.\pdo.c       **** 
 875:.\pdo.c       ****   This library is free software; you can redistribute it and/or
 876:.\pdo.c       ****   modify it under the terms of the GNU Lesser General Public
 877:.\pdo.c       ****   License as published by the Free Software Foundation; either
 878:.\pdo.c       ****   version 2.1 of the License, or (at your option) any later version.
 879:.\pdo.c       **** 
 880:.\pdo.c       ****   This library is distributed in the hope that it will be useful,
 881:.\pdo.c       ****   but WITHOUT ANY WARRANTY; without even the implied warranty of
 882:.\pdo.c       ****   MERCHANTABILITY or FITNESS FOR A PARTICULAR PURPOSE.  See the GNU
 883:.\pdo.c       ****   Lesser General Public License for more details.
 884:.\pdo.c       **** 
 885:.\pdo.c       ****   You should have received a copy of the GNU Lesser General Public
 886:.\pdo.c       ****   License along with this library; if not, write to the Free Software
 887:.\pdo.c       ****   Foundation, Inc., 59 Temple Place, Suite 330, Boston, MA  02111-1307
ARM GAS  C:\Users\PANXIA~1\AppData\Local\Temp\cczfv69T.s 			page 17


 888:.\pdo.c       ****   USA
 889:.\pdo.c       **** */
 890:.\pdo.c       **** #include "pdo.h"
 891:.\pdo.c       **** #include "objacces.h"
 892:.\pdo.c       **** #include "canfestival.h"
 893:.\pdo.c       **** #include "sysdep.h"
 894:.\pdo.c       **** 
 895:.\pdo.c       **** /*!
 896:.\pdo.c       **** ** @file   pdo.c
 897:.\pdo.c       **** ** @author Edouard TISSERANT and Francis DUPIN
 898:.\pdo.c       **** ** @date   Tue Jun  5 09:32:32 2007
 899:.\pdo.c       **** **
 900:.\pdo.c       **** ** @brief
 901:.\pdo.c       **** **
 902:.\pdo.c       **** **
 903:.\pdo.c       **** */
 904:.\pdo.c       **** 
 905:.\pdo.c       **** /*!
 906:.\pdo.c       **** **
 907:.\pdo.c       **** **
 908:.\pdo.c       **** ** @param d
 909:.\pdo.c       **** ** @param TPDO_com TPDO communication parameters OD entry
 910:.\pdo.c       **** ** @param TPDO_map TPDO mapping parameters OD entry
 911:.\pdo.c       **** **
 912:.\pdo.c       **** ** @return
 913:.\pdo.c       **** **/
 914:.\pdo.c       **** 
 915:.\pdo.c       **** UNS8 buildPDO (CO_Data * d, UNS8 numPdo, Message * pdo)
 916:.\pdo.c       **** {
 917:.\pdo.c       ****   const indextable *TPDO_com = d->objdict + d->firstIndex->PDO_TRS + numPdo;
 918:.\pdo.c       ****   const indextable *TPDO_map = d->objdict + d->firstIndex->PDO_TRS_MAP + numPdo;
 919:.\pdo.c       **** 
 920:.\pdo.c       ****   UNS8 prp_j = 0x00;
 921:.\pdo.c       ****   UNS32 offset = 0x00000000;
 922:.\pdo.c       ****   const UNS8 *pMappingCount = (UNS8 *) TPDO_map->pSubindex[0].pObject;
 923:.\pdo.c       **** 
 924:.\pdo.c       ****   pdo->cob_id = (UNS16) UNS16_LE(*(UNS32*)TPDO_com->pSubindex[1].pObject & 0x7FF);
 925:.\pdo.c       ****   pdo->rtr = NOT_A_REQUEST;
 926:.\pdo.c       **** 
 927:.\pdo.c       ****   MSG_WAR (0x3009, "  PDO CobId is : ",
 928:.\pdo.c       ****            *(UNS32 *) TPDO_com->pSubindex[1].pObject);
 929:.\pdo.c       ****   MSG_WAR (0x300D, "  Number of objects mapped : ", *pMappingCount);
 930:.\pdo.c       **** 
 931:.\pdo.c       ****   do
 932:.\pdo.c       ****     {
 933:.\pdo.c       ****       UNS8 dataType;            /* Unused */
 934:.\pdo.c       ****       UNS8 tmp[] = { 0, 0, 0, 0, 0, 0, 0, 0 };  /* temporary space to hold bits */
 935:.\pdo.c       **** 
 936:.\pdo.c       ****       /* pointer fo the var which holds the mapping parameter of an mapping entry  */
 937:.\pdo.c       ****       UNS32 *pMappingParameter =
 938:.\pdo.c       ****         (UNS32 *) TPDO_map->pSubindex[prp_j + 1].pObject;
 939:.\pdo.c       ****       UNS16 index = (UNS16) ((*pMappingParameter) >> 16);
 940:.\pdo.c       ****       UNS32 Size = (UNS32) (*pMappingParameter & (UNS32) 0x000000FF);     /* Size in bits */
 941:.\pdo.c       **** 
 942:.\pdo.c       ****       /* get variable only if Size != 0 and Size is lower than remaining bits in the PDO */
 943:.\pdo.c       ****       if (Size && ((offset + Size) <= 64))
 944:.\pdo.c       ****         {
ARM GAS  C:\Users\PANXIA~1\AppData\Local\Temp\cczfv69T.s 			page 18


 945:.\pdo.c       ****           UNS32 ByteSize = 1 + ((Size - 1) >> 3);        /*1->8 => 1 ; 9->16 => 2, ... */
 946:.\pdo.c       ****           UNS8 subIndex =
 947:.\pdo.c       ****             (UNS8) (((*pMappingParameter) >> (UNS8) 8) & (UNS32) 0x000000FF);
 948:.\pdo.c       **** 
 949:.\pdo.c       ****           MSG_WAR (0x300F, "  got mapping parameter : ", *pMappingParameter);
 950:.\pdo.c       ****           MSG_WAR (0x3050, "    at index : ", TPDO_map->index);
 951:.\pdo.c       ****           MSG_WAR (0x3051, "    sub-index : ", prp_j + 1);
 952:.\pdo.c       **** 
 953:.\pdo.c       ****           if (getODentry (d, index, subIndex, tmp, &ByteSize, &dataType, 0) !=
 954:.\pdo.c       ****               OD_SUCCESSFUL)
 955:.\pdo.c       ****             {
 956:.\pdo.c       ****               MSG_ERR (0x1013,
 957:.\pdo.c       ****                        " Couldn't find mapped variable at index-subindex-size : ",
 958:.\pdo.c       ****                        (UNS32) (*pMappingParameter));
 959:.\pdo.c       ****               return 0xFF;
 960:.\pdo.c       ****             }
 961:.\pdo.c       ****           /* copy bit per bit in little endian */
 962:.\pdo.c       ****           CopyBits ((UNS8) Size, ((UNS8 *) tmp), 0, 0,
 963:.\pdo.c       ****                     (UNS8 *) & pdo->data[offset >> 3], (UNS8)(offset % 8), 0);
 964:.\pdo.c       **** 
 965:.\pdo.c       ****           offset += Size;
 966:.\pdo.c       ****         }
 967:.\pdo.c       ****       prp_j++;
 968:.\pdo.c       ****     }
 969:.\pdo.c       ****   while (prp_j < *pMappingCount);
 970:.\pdo.c       **** 
 971:.\pdo.c       ****   pdo->len = (UNS8)(1 + ((offset - 1) >> 3));
 972:.\pdo.c       **** 
 973:.\pdo.c       ****   MSG_WAR (0x3015, "  End scan mapped variable", 0);
 974:.\pdo.c       **** 
 975:.\pdo.c       ****   return 0;
 976:.\pdo.c       **** }
 977:.\pdo.c       **** 
 978:.\pdo.c       **** /*!
 979:.\pdo.c       **** **
 980:.\pdo.c       **** **
 981:.\pdo.c       **** ** @param d
 982:.\pdo.c       **** ** @param cobId
 983:.\pdo.c       **** **
 984:.\pdo.c       **** ** @return
 985:.\pdo.c       **** **/
 986:.\pdo.c       **** UNS8
 987:.\pdo.c       **** sendPDOrequest (CO_Data * d, UNS16 RPDOIndex)
 988:.\pdo.c       **** {
 989:.\pdo.c       ****   UNS32 *pwCobId;
 990:.\pdo.c       ****   UNS16 offset = d->firstIndex->PDO_RCV;
 991:.\pdo.c       ****   UNS16 lastIndex = d->lastIndex->PDO_RCV;
 992:.\pdo.c       **** 
 993:.\pdo.c       ****   if (!d->CurrentCommunicationState.csPDO)
 994:.\pdo.c       ****     {
 995:.\pdo.c       ****       return 0;
 996:.\pdo.c       ****     }
 997:.\pdo.c       **** 
 998:.\pdo.c       ****   /* Sending the request only if the cobid have been found on the PDO
 999:.\pdo.c       ****      receive */
1000:.\pdo.c       ****   /* part dictionary */
1001:.\pdo.c       **** 
ARM GAS  C:\Users\PANXIA~1\AppData\Local\Temp\cczfv69T.s 			page 19


1002:.\pdo.c       ****   MSG_WAR (0x3930, "sendPDOrequest RPDO Index : ", RPDOIndex);
1003:.\pdo.c       **** 
1004:.\pdo.c       ****   if (offset && RPDOIndex >= 0x1400)
1005:.\pdo.c       ****     {
1006:.\pdo.c       ****       offset += RPDOIndex - 0x1400;
1007:.\pdo.c       ****       if (offset <= lastIndex)
1008:.\pdo.c       ****         {
1009:.\pdo.c       ****           /* get the CobId */
1010:.\pdo.c       ****           pwCobId = d->objdict[offset].pSubindex[1].pObject;
1011:.\pdo.c       **** 
1012:.\pdo.c       ****           MSG_WAR (0x3930, "sendPDOrequest cobId is : ", *pwCobId);
1013:.\pdo.c       ****           {
1014:.\pdo.c       ****             Message pdo;
1015:.\pdo.c       ****             pdo.cob_id = (UNS16)UNS16_LE(*pwCobId);
1016:.\pdo.c       ****             pdo.rtr = REQUEST;
1017:.\pdo.c       ****             pdo.len = 0;
1018:.\pdo.c       ****             return canSend (d->canHandle, &pdo);
1019:.\pdo.c       ****           }
1020:.\pdo.c       ****         }
1021:.\pdo.c       ****     }
1022:.\pdo.c       ****   MSG_ERR (0x1931, "sendPDOrequest : RPDO Index not found : ", RPDOIndex);
1023:.\pdo.c       ****   return 0xFF;
1024:.\pdo.c       **** }
1025:.\pdo.c       **** 
1026:.\pdo.c       **** 
1027:.\pdo.c       **** /*!
1028:.\pdo.c       **** **
1029:.\pdo.c       **** **
1030:.\pdo.c       **** ** @param d
1031:.\pdo.c       **** ** @param m
1032:.\pdo.c       **** **
1033:.\pdo.c       **** ** @return
1034:.\pdo.c       **** **/
1035:.\pdo.c       **** UNS8
1036:.\pdo.c       **** proceedPDO (CO_Data * d, Message * m)
1037:.\pdo.c       **** {
1038:.\pdo.c       ****   UNS8 numPdo;
1039:.\pdo.c       ****   UNS8 numMap;                  /* Number of the mapped varable */
1040:.\pdo.c       ****   UNS8 *pMappingCount = NULL;   /* count of mapped objects... */
1041:.\pdo.c       ****   /* pointer to the var which is mapped to a pdo... */
1042:.\pdo.c       ****   /*  void *     pMappedAppObject = NULL;   */
1043:.\pdo.c       ****   /* pointer fo the var which holds the mapping parameter of an
1044:.\pdo.c       ****      mapping entry */
1045:.\pdo.c       ****   UNS32 *pMappingParameter = NULL;
1046:.\pdo.c       ****   UNS8 *pTransmissionType = NULL;       /* pointer to the transmission
1047:.\pdo.c       ****                                            type */
1048:.\pdo.c       ****   UNS32 *pwCobId = NULL;
1049:.\pdo.c       ****   UNS8 Size;
1050:.\pdo.c       ****   UNS8 offset;
1051:.\pdo.c       ****   UNS8 status;
1052:.\pdo.c       ****   UNS32 objDict;
1053:.\pdo.c       ****   UNS16 offsetObjdict;
1054:.\pdo.c       ****   UNS16 lastIndex;
1055:.\pdo.c       ****   TIMEVAL EventTimerDuration = 0;
1056:.\pdo.c       **** 
1057:.\pdo.c       ****   status = state2;
1058:.\pdo.c       **** 
ARM GAS  C:\Users\PANXIA~1\AppData\Local\Temp\cczfv69T.s 			page 20


1059:.\pdo.c       ****   MSG_WAR (0x3935, "proceedPDO, cobID : ", (UNS16_LE(m->cob_id) & 0x7ff));
1060:.\pdo.c       ****   offset = 0x00;
1061:.\pdo.c       ****   numPdo = 0;
1062:.\pdo.c       ****   numMap = 0;
1063:.\pdo.c       ****   if ((*m).rtr == NOT_A_REQUEST)
1064:.\pdo.c       ****     {                           /* The PDO received is not a
1065:.\pdo.c       ****                                    request. */
1066:.\pdo.c       **** 
1067:.\pdo.c       ****       offsetObjdict = d->firstIndex->PDO_RCV;
1068:.\pdo.c       ****       lastIndex = d->lastIndex->PDO_RCV;
1069:.\pdo.c       **** 
1070:.\pdo.c       ****       /* study of all the PDO stored in the dictionary */
1071:.\pdo.c       ****       if (offsetObjdict)
1072:.\pdo.c       ****         while (offsetObjdict <= lastIndex)
1073:.\pdo.c       ****           {
1074:.\pdo.c       **** 
1075:.\pdo.c       ****             switch (status)
1076:.\pdo.c       ****               {
1077:.\pdo.c       **** 
1078:.\pdo.c       ****               case state2:
1079:.\pdo.c       ****                 /* get CobId of the dictionary correspondant to the received
1080:.\pdo.c       ****                    PDO */
1081:.\pdo.c       ****                 pwCobId =
1082:.\pdo.c       ****                   d->objdict[offsetObjdict].pSubindex[1].pObject;
1083:.\pdo.c       ****                 /* check the CobId coherance */
1084:.\pdo.c       ****                 /*pwCobId is the cobId read in the dictionary at the state 3
1085:.\pdo.c       ****                  */
1086:.\pdo.c       ****                 if (*pwCobId == UNS16_LE(m->cob_id))
1087:.\pdo.c       ****                   {
1088:.\pdo.c       ****                     /* The cobId is recognized */
1089:.\pdo.c       ****                     status = state4;
1090:.\pdo.c       ****                     EventTimerDuration = *(UNS16 *)d->objdict[offsetObjdict].pSubindex[5].pObject;
1091:.\pdo.c       ****                     MSG_WAR (0x3936, "cobId found at index ",
1092:.\pdo.c       ****                              0x1400 + numPdo);
1093:.\pdo.c       ****                     break;
1094:.\pdo.c       ****                   }
1095:.\pdo.c       ****                 else
1096:.\pdo.c       ****                   {
1097:.\pdo.c       ****                     /* cobId received does not match with those write in the
1098:.\pdo.c       ****                        dictionnary */
1099:.\pdo.c       ****                     numPdo++;
1100:.\pdo.c       ****                     offsetObjdict++;
1101:.\pdo.c       ****                     status = state2;
1102:.\pdo.c       ****                     break;
1103:.\pdo.c       ****                   }
1104:.\pdo.c       **** 
1105:.\pdo.c       ****               case state4:     /* Get Mapped Objects Number */
1106:.\pdo.c       ****                 /* The cobId of the message received has been found in the
1107:.\pdo.c       ****                    dictionnary. */
1108:.\pdo.c       ****                 offsetObjdict = d->firstIndex->PDO_RCV_MAP;
1109:.\pdo.c       ****                 lastIndex = d->lastIndex->PDO_RCV_MAP;
1110:.\pdo.c       ****                 pMappingCount =
1111:.\pdo.c       ****                   (UNS8 *) (d->objdict + offsetObjdict +
1112:.\pdo.c       ****                             numPdo)->pSubindex[0].pObject;
1113:.\pdo.c       ****                 numMap = 0;
1114:.\pdo.c       ****                 while (numMap < *pMappingCount)
1115:.\pdo.c       ****                   {
ARM GAS  C:\Users\PANXIA~1\AppData\Local\Temp\cczfv69T.s 			page 21


1116:.\pdo.c       ****                     UNS8 tmp[] = { 0, 0, 0, 0, 0, 0, 0, 0 };
1117:.\pdo.c       ****                     UNS32 ByteSize;
1118:.\pdo.c       ****                     pMappingParameter =
1119:.\pdo.c       ****                       (UNS32 *) (d->objdict + offsetObjdict +
1120:.\pdo.c       ****                                  numPdo)->pSubindex[numMap + 1].pObject;
1121:.\pdo.c       ****                     if (pMappingParameter == NULL)
1122:.\pdo.c       ****                       {
1123:.\pdo.c       ****                         MSG_ERR (0x1937, "Couldn't get mapping parameter : ",
1124:.\pdo.c       ****                                  numMap + 1);
1125:.\pdo.c       ****                         return 0xFF;
1126:.\pdo.c       ****                       }
1127:.\pdo.c       ****                     /* Get the addresse of the mapped variable. */
1128:.\pdo.c       ****                     /* detail of *pMappingParameter : */
1129:.\pdo.c       ****                     /* The 16 hight bits contains the index, the medium 8 bits
1130:.\pdo.c       ****                        contains the subindex, */
1131:.\pdo.c       ****                     /* and the lower 8 bits contains the size of the mapped
1132:.\pdo.c       ****                        variable. */
1133:.\pdo.c       **** 
1134:.\pdo.c       ****                     Size = (UNS8) (*pMappingParameter & (UNS32) 0x000000FF);
1135:.\pdo.c       **** 
1136:.\pdo.c       ****                     /* set variable only if Size != 0 and
1137:.\pdo.c       ****                      * Size is lower than remaining bits in the PDO */
1138:.\pdo.c       ****                     if (Size && ((offset + Size) <= (m->len << 3)))
1139:.\pdo.c       ****                       {
1140:.\pdo.c       ****                         /* copy bit per bit in little endian */
1141:.\pdo.c       ****                         CopyBits (Size, (UNS8 *) & m->data[offset >> 3],
1142:.\pdo.c       ****                                   offset % 8, 0, ((UNS8 *) tmp), 0, 0);
1143:.\pdo.c       ****                         /*1->8 => 1 ; 9->16 =>2, ... */
1144:.\pdo.c       ****                         ByteSize = (UNS32)(1 + ((Size - 1) >> 3));
1145:.\pdo.c       **** 
1146:.\pdo.c       ****                         objDict =
1147:.\pdo.c       ****                           setODentry (d, (UNS16) ((*pMappingParameter) >> 16),
1148:.\pdo.c       ****                                       (UNS8) (((*pMappingParameter) >> 8) &
1149:.\pdo.c       ****                                               0xFF), tmp, &ByteSize, 0);
1150:.\pdo.c       **** 
1151:.\pdo.c       ****                         if (objDict != OD_SUCCESSFUL)
1152:.\pdo.c       ****                           {
1153:.\pdo.c       ****                             MSG_ERR (0x1938,
1154:.\pdo.c       ****                                      "error accessing to the mapped var : ",
1155:.\pdo.c       ****                                      numMap + 1);
1156:.\pdo.c       ****                             MSG_WAR (0x2939, "         Mapped at index : ",
1157:.\pdo.c       ****                                      (*pMappingParameter) >> 16);
1158:.\pdo.c       ****                             MSG_WAR (0x2940, "                subindex : ",
1159:.\pdo.c       ****                                      ((*pMappingParameter) >> 8) & 0xFF);
1160:.\pdo.c       ****                             return 0xFF;
1161:.\pdo.c       ****                           }
1162:.\pdo.c       **** 
1163:.\pdo.c       ****                         MSG_WAR (0x3942,
1164:.\pdo.c       ****                                  "Variable updated by PDO cobid : ",
1165:.\pdo.c       ****                                  UNS16_LE(m->cob_id));
1166:.\pdo.c       ****                         MSG_WAR (0x3943, "         Mapped at index : ",
1167:.\pdo.c       ****                                  (*pMappingParameter) >> 16);
1168:.\pdo.c       ****                         MSG_WAR (0x3944, "                subindex : ",
1169:.\pdo.c       ****                                  ((*pMappingParameter) >> 8) & 0xFF);
1170:.\pdo.c       ****                         offset += Size;
1171:.\pdo.c       ****                       }
1172:.\pdo.c       ****                     numMap++;
ARM GAS  C:\Users\PANXIA~1\AppData\Local\Temp\cczfv69T.s 			page 22


1173:.\pdo.c       ****                   }             /* end loop while on mapped variables */
1174:.\pdo.c       ****                 if (EventTimerDuration && d->RxPDO_EventTimers)
1175:.\pdo.c       ****                 {
1176:.\pdo.c       ****                     DelAlarm (d->RxPDO_EventTimers[numPdo]);
1177:.\pdo.c       ****                     d->RxPDO_EventTimers[numPdo] = SetAlarm (d, numPdo, d->RxPDO_EventTimers_Handle
1178:.\pdo.c       ****                     MS_TO_TIMEVAL (EventTimerDuration), 0);
1179:.\pdo.c       ****                 }
1180:.\pdo.c       ****                 return 0;
1181:.\pdo.c       **** 
1182:.\pdo.c       ****               }                 /* end switch status */
1183:.\pdo.c       ****           }                     /* end while */
1184:.\pdo.c       ****     }                           /* end if Donnees */
1185:.\pdo.c       ****   else if ((*m).rtr == REQUEST)
1186:.\pdo.c       ****     {
1187:.\pdo.c       ****       MSG_WAR (0x3946, "Receive a PDO request cobId : ", UNS16_LE(m->cob_id));
1188:.\pdo.c       ****       status = state1;
1189:.\pdo.c       ****       offsetObjdict = d->firstIndex->PDO_TRS;
1190:.\pdo.c       ****       lastIndex = d->lastIndex->PDO_TRS;
1191:.\pdo.c       ****       if (offsetObjdict)
1192:.\pdo.c       ****         while (offsetObjdict <= lastIndex)
1193:.\pdo.c       ****           {
1194:.\pdo.c       ****             /* study of all PDO stored in the objects dictionary */
1195:.\pdo.c       **** 
1196:.\pdo.c       ****             switch (status)
1197:.\pdo.c       ****               {
1198:.\pdo.c       **** 
1199:.\pdo.c       ****               case state1:     /* check the CobId */
1200:.\pdo.c       ****                 /* get CobId of the dictionary which match to the received PDO
1201:.\pdo.c       ****                  */
1202:.\pdo.c       ****                 pwCobId =
1203:.\pdo.c       ****                    (d->objdict +
1204:.\pdo.c       ****                              offsetObjdict)->pSubindex[1].pObject;
1205:.\pdo.c       ****                 if (*pwCobId == UNS16_LE(m->cob_id))
1206:.\pdo.c       ****                   {
1207:.\pdo.c       ****                     status = state4;
1208:.\pdo.c       ****                     break;
1209:.\pdo.c       ****                   }
1210:.\pdo.c       ****                 else
1211:.\pdo.c       ****                   {
1212:.\pdo.c       ****                     numPdo++;
1213:.\pdo.c       ****                     offsetObjdict++;
1214:.\pdo.c       ****                   }
1215:.\pdo.c       ****                 status = state1;
1216:.\pdo.c       ****                 break;
1217:.\pdo.c       **** 
1218:.\pdo.c       **** 
1219:.\pdo.c       ****               case state4:     /* check transmission type */
1220:.\pdo.c       ****                 pTransmissionType =
1221:.\pdo.c       ****                   (UNS8 *) d->objdict[offsetObjdict].pSubindex[2].pObject;
1222:.\pdo.c       ****                 /* If PDO is to be sampled and send on RTR, do it */
1223:.\pdo.c       ****                 if ((*pTransmissionType == TRANS_RTR))
1224:.\pdo.c       ****                   {
1225:.\pdo.c       ****                     status = state5;
1226:.\pdo.c       ****                     break;
1227:.\pdo.c       ****                   }
1228:.\pdo.c       ****                 /* RTR_SYNC means data prepared at SYNC, transmitted on RTR */
1229:.\pdo.c       ****                 else if ((*pTransmissionType == TRANS_RTR_SYNC))
ARM GAS  C:\Users\PANXIA~1\AppData\Local\Temp\cczfv69T.s 			page 23


1230:.\pdo.c       ****                   {
1231:.\pdo.c       ****                     if (d->PDO_status[numPdo].
1232:.\pdo.c       ****                         transmit_type_parameter & PDO_RTR_SYNC_READY)
1233:.\pdo.c       ****                       {
1234:.\pdo.c       ****                         /*Data ready, just send */
1235:.\pdo.c       ****                         canSend (d->canHandle,
1236:.\pdo.c       ****                                  &d->PDO_status[numPdo].last_message);
1237:.\pdo.c       ****                         return 0;
1238:.\pdo.c       ****                       }
1239:.\pdo.c       ****                     else
1240:.\pdo.c       ****                       {
1241:.\pdo.c       ****                         /* if SYNC did never occur, transmit current data */
1242:.\pdo.c       ****                         /* DS301 do not tell what to do in such a case... */
1243:.\pdo.c       ****                         MSG_ERR (0x1947,
1244:.\pdo.c       ****                                  "Not ready RTR_SYNC TPDO send current data : ",
1245:.\pdo.c       ****                                  UNS16_LE(m->cob_id));
1246:.\pdo.c       ****                         status = state5;
1247:.\pdo.c       ****                       }
1248:.\pdo.c       ****                     break;
1249:.\pdo.c       ****                   }
1250:.\pdo.c       ****                 else if ((*pTransmissionType == TRANS_EVENT_PROFILE) ||
1251:.\pdo.c       ****                          (*pTransmissionType == TRANS_EVENT_SPECIFIC))
1252:.\pdo.c       ****                   {
1253:.\pdo.c       ****                     /* Zap all timers and inhibit flag */
1254:.\pdo.c       ****                     d->PDO_status[numPdo].event_timer =
1255:.\pdo.c       ****                       DelAlarm (d->PDO_status[numPdo].event_timer);
1256:.\pdo.c       ****                     d->PDO_status[numPdo].inhibit_timer =
1257:.\pdo.c       ****                       DelAlarm (d->PDO_status[numPdo].inhibit_timer);
1258:.\pdo.c       ****                     d->PDO_status[numPdo].transmit_type_parameter &=
1259:.\pdo.c       ****                       ~PDO_INHIBITED;
1260:.\pdo.c       ****                     /* Call  PDOEventTimerAlarm for this TPDO,
1261:.\pdo.c       ****                      * this will trigger emission et reset timers */
1262:.\pdo.c       ****                     PDOEventTimerAlarm (d, numPdo);
1263:.\pdo.c       ****                     return 0;
1264:.\pdo.c       ****                   }
1265:.\pdo.c       ****                 else
1266:.\pdo.c       ****                   {
1267:.\pdo.c       ****                     /* The requested PDO is not to send on request. So, does
1268:.\pdo.c       ****                        nothing. */
1269:.\pdo.c       ****                     MSG_WAR (0x2947, "PDO is not to send on request : ",
1270:.\pdo.c       ****                              UNS16_LE(m->cob_id));
1271:.\pdo.c       ****                     return 0xFF;
1272:.\pdo.c       ****                   }
1273:.\pdo.c       **** 
1274:.\pdo.c       ****               case state5:     /* build and send requested PDO */
1275:.\pdo.c       ****                 {
1276:.\pdo.c       ****                   Message pdo;
1277:.\pdo.c       ****                   if (buildPDO (d, numPdo, &pdo))
1278:.\pdo.c       ****                     {
1279:.\pdo.c       ****                       MSG_ERR (0x1948, " Couldn't build TPDO number : ", numPdo);
1280:.\pdo.c       ****                       return 0xFF;
1281:.\pdo.c       ****                     }
1282:.\pdo.c       ****                   canSend (d->canHandle, &pdo);
1283:.\pdo.c       ****                   return 0;
1284:.\pdo.c       ****                 }
1285:.\pdo.c       ****               }                 /* end switch status */
1286:.\pdo.c       ****           }                     /* end while */
ARM GAS  C:\Users\PANXIA~1\AppData\Local\Temp\cczfv69T.s 			page 24


1287:.\pdo.c       ****     }                           /* end if Requete */
1288:.\pdo.c       **** 
1289:.\pdo.c       ****   return 0;
1290:.\pdo.c       **** }
1291:.\pdo.c       **** 
1292:.\pdo.c       **** /*!
1293:.\pdo.c       **** **
1294:.\pdo.c       **** **
1295:.\pdo.c       **** ** @param NbBits
1296:.\pdo.c       **** ** @param SrcByteIndex
1297:.\pdo.c       **** ** @param SrcBitIndex
1298:.\pdo.c       **** ** @param SrcBigEndian
1299:.\pdo.c       **** ** @param DestByteIndex
1300:.\pdo.c       **** ** @param DestBitIndex
1301:.\pdo.c       **** ** @param DestBigEndian
1302:.\pdo.c       **** **/
1303:.\pdo.c       **** void
1304:.\pdo.c       **** CopyBits (UNS8 NbBits, UNS8 * SrcByteIndex, UNS8 SrcBitIndex,
1305:.\pdo.c       ****           UNS8 SrcBigEndian, UNS8 * DestByteIndex, UNS8 DestBitIndex,
1306:.\pdo.c       ****           UNS8 DestBigEndian)
1307:.\pdo.c       **** {
1308:.\pdo.c       ****   /* This loop copy as many bits that it can each time, crossing */
1309:.\pdo.c       ****   /* successively bytes */
1310:.\pdo.c       ****   // boundaries from LSB to MSB.
1311:.\pdo.c       ****   while (NbBits > 0)
1312:.\pdo.c       ****     {
1313:.\pdo.c       ****       /* Bit missalignement between src and dest */
1314:.\pdo.c       ****       INTEGER8 Vect = DestBitIndex - SrcBitIndex;
1315:.\pdo.c       **** 
1316:.\pdo.c       ****       /* We can now get src and align it to dest */
1317:.\pdo.c       ****       UNS8 Aligned =
1318:.\pdo.c       ****         Vect > 0 ? *SrcByteIndex << Vect : *SrcByteIndex >> -Vect;
1319:.\pdo.c       **** 
1320:.\pdo.c       ****       /* Compute the nb of bit we will be able to copy */
1321:.\pdo.c       ****       UNS8 BoudaryLimit = (Vect > 0 ? 8 - DestBitIndex : 8 - SrcBitIndex);
1322:.\pdo.c       ****       UNS8 BitsToCopy = BoudaryLimit > NbBits ? NbBits : BoudaryLimit;
1323:.\pdo.c       **** 
1324:.\pdo.c       ****       /* Create a mask that will serve in: */
1325:.\pdo.c       ****       UNS8 Mask =
1326:.\pdo.c       ****         ((0xff << (DestBitIndex + BitsToCopy)) |
1327:.\pdo.c       ****          (0xff >> (8 - DestBitIndex)));
1328:.\pdo.c       **** 
1329:.\pdo.c       ****       /* - Filtering src */
1330:.\pdo.c       ****       UNS8 Filtered = Aligned & ~Mask;
1331:.\pdo.c       **** 
1332:.\pdo.c       ****       /* - and erase bits where we write, preserve where we don't */
1333:.\pdo.c       ****       *DestByteIndex &= Mask;
1334:.\pdo.c       **** 
1335:.\pdo.c       ****       /* Then write. */
1336:.\pdo.c       ****       *DestByteIndex |= Filtered;
1337:.\pdo.c       **** 
1338:.\pdo.c       ****       /*Compute next time cursors for src */
1339:.\pdo.c       ****       if ((SrcBitIndex += BitsToCopy) > 7)      /* cross boundary ? */
1340:.\pdo.c       ****         {
1341:.\pdo.c       ****           SrcBitIndex = 0;      /* First bit */
1342:.\pdo.c       ****           SrcByteIndex += (SrcBigEndian ? -1 : 1);      /* Next byte */
1343:.\pdo.c       ****         }
ARM GAS  C:\Users\PANXIA~1\AppData\Local\Temp\cczfv69T.s 			page 25


1344:.\pdo.c       **** 
1345:.\pdo.c       **** 
1346:.\pdo.c       ****       /*Compute next time cursors for dest */
1347:.\pdo.c       ****       if ((DestBitIndex += BitsToCopy) > 7)
1348:.\pdo.c       ****         {
1349:.\pdo.c       ****           DestBitIndex = 0;     /* First bit */
1350:.\pdo.c       ****           DestByteIndex += (DestBigEndian ? -1 : 1);    /* Next byte */
1351:.\pdo.c       ****         }
1352:.\pdo.c       **** 
1353:.\pdo.c       ****       /*And decrement counter. */
1354:.\pdo.c       ****       NbBits -= BitsToCopy;
1355:.\pdo.c       ****     }
1356:.\pdo.c       **** 
1357:.\pdo.c       **** }
1358:.\pdo.c       **** 
1359:.\pdo.c       **** static void sendPdo(CO_Data * d, UNS32 pdoNum, Message * pdo)
1360:.\pdo.c       **** {
  26              		.loc 1 1360 0
  27              		.cfi_startproc
  28              		@ args = 0, pretend = 0, frame = 0
  29              		@ frame_needed = 0, uses_anonymous_args = 0
  30              	.LVL0:
  31 0000 70B5     		push	{r4, r5, r6, lr}
  32              		.cfi_def_cfa_offset 16
  33              		.cfi_offset 4, -16
  34              		.cfi_offset 5, -12
  35              		.cfi_offset 6, -8
  36              		.cfi_offset 14, -4
1361:.\pdo.c       ****   /*store_as_last_message */
1362:.\pdo.c       ****   d->PDO_status[pdoNum].last_message = *pdo;
  37              		.loc 1 1362 0
  38 0002 8368     		ldr	r3, [r0, #8]
  39 0004 01EBC101 		add	r1, r1, r1, lsl #3
  40              	.LVL1:
  41 0008 4900     		lsls	r1, r1, #1
  42 000a 1944     		add	r1, r1, r3
  43 000c 1668     		ldr	r6, [r2]	@ unaligned
  44 000e 5568     		ldr	r5, [r2, #4]	@ unaligned
  45 0010 9468     		ldr	r4, [r2, #8]	@ unaligned
  46 0012 C1F80660 		str	r6, [r1, #6]	@ unaligned
  47 0016 C1F80A50 		str	r5, [r1, #10]	@ unaligned
  48 001a C1F80E40 		str	r4, [r1, #14]	@ unaligned
1363:.\pdo.c       ****   MSG_WAR (0x396D, "sendPDO cobId :", UNS16_LE(pdo->cob_id));
1364:.\pdo.c       ****   MSG_WAR (0x396E, "     Nb octets  : ", pdo->len);
1365:.\pdo.c       **** 
1366:.\pdo.c       ****   canSend (d->canHandle, pdo);
  49              		.loc 1 1366 0
  50 001e D0F85001 		ldr	r0, [r0, #336]
  51              	.LVL2:
  52 0022 1146     		mov	r1, r2
  53 0024 FFF7FEFF 		bl	canSend
  54              	.LVL3:
  55 0028 70BD     		pop	{r4, r5, r6, pc}
  56              		.cfi_endproc
  57              	.LFE4:
  58              		.size	sendPdo, .-sendPdo
  59 002a 00BF     		.section	.text.sendPDOrequest,"ax",%progbits
ARM GAS  C:\Users\PANXIA~1\AppData\Local\Temp\cczfv69T.s 			page 26


  60              		.align	2
  61              		.global	sendPDOrequest
  62              		.thumb
  63              		.thumb_func
  64              		.type	sendPDOrequest, %function
  65              	sendPDOrequest:
  66              	.LFB1:
 988:.\pdo.c       ****   UNS32 *pwCobId;
  67              		.loc 1 988 0
  68              		.cfi_startproc
  69              		@ args = 0, pretend = 0, frame = 16
  70              		@ frame_needed = 0, uses_anonymous_args = 0
  71              	.LVL4:
  72 0000 10B5     		push	{r4, lr}
  73              		.cfi_def_cfa_offset 8
  74              		.cfi_offset 4, -8
  75              		.cfi_offset 14, -4
  76 0002 84B0     		sub	sp, sp, #16
  77              		.cfi_def_cfa_offset 24
 990:.\pdo.c       ****   UNS16 lastIndex = d->lastIndex->PDO_RCV;
  78              		.loc 1 990 0
  79 0004 4269     		ldr	r2, [r0, #20]
  80 0006 9388     		ldrh	r3, [r2, #4]
  81              	.LVL5:
 991:.\pdo.c       **** 
  82              		.loc 1 991 0
  83 0008 8269     		ldr	r2, [r0, #24]
  84 000a 9488     		ldrh	r4, [r2, #4]
  85              	.LVL6:
 993:.\pdo.c       ****     {
  86              		.loc 1 993 0
  87 000c 90F87E20 		ldrb	r2, [r0, #126]	@ zero_extendqisi2
  88 0010 E2B1     		cbz	r2, .L5
1004:.\pdo.c       ****     {
  89              		.loc 1 1004 0
  90 0012 EBB1     		cbz	r3, .L6
1004:.\pdo.c       ****     {
  91              		.loc 1 1004 0 is_stmt 0 discriminator 1
  92 0014 B1F5A05F 		cmp	r1, #5120
  93 0018 1CD3     		bcc	.L7
1006:.\pdo.c       ****       if (offset <= lastIndex)
  94              		.loc 1 1006 0 is_stmt 1
  95 001a 0B44     		add	r3, r3, r1
  96              	.LVL7:
  97 001c A3F5A053 		sub	r3, r3, #5120
  98 0020 9BB2     		uxth	r3, r3
  99              	.LVL8:
1007:.\pdo.c       ****         {
 100              		.loc 1 1007 0
 101 0022 A342     		cmp	r3, r4
 102 0024 18D8     		bhi	.L8
1010:.\pdo.c       **** 
 103              		.loc 1 1010 0
 104 0026 4268     		ldr	r2, [r0, #4]
 105 0028 52F83330 		ldr	r3, [r2, r3, lsl #3]
 106              	.LVL9:
 107 002c 5B69     		ldr	r3, [r3, #20]
ARM GAS  C:\Users\PANXIA~1\AppData\Local\Temp\cczfv69T.s 			page 27


 108              	.LVL10:
 109              	.LBB2:
1015:.\pdo.c       ****             pdo.rtr = REQUEST;
 110              		.loc 1 1015 0
 111 002e 1B88     		ldrh	r3, [r3]
 112              	.LVL11:
 113 0030 ADF80430 		strh	r3, [sp, #4]	@ movhi
 114              	.LVL12:
1016:.\pdo.c       ****             pdo.len = 0;
 115              		.loc 1 1016 0
 116 0034 0123     		movs	r3, #1
 117 0036 8DF80630 		strb	r3, [sp, #6]
1017:.\pdo.c       ****             return canSend (d->canHandle, &pdo);
 118              		.loc 1 1017 0
 119 003a 0023     		movs	r3, #0
 120 003c 8DF80730 		strb	r3, [sp, #7]
1018:.\pdo.c       ****           }
 121              		.loc 1 1018 0
 122 0040 D0F85001 		ldr	r0, [r0, #336]
 123              	.LVL13:
 124 0044 01A9     		add	r1, sp, #4
 125              	.LVL14:
 126 0046 FFF7FEFF 		bl	canSend
 127              	.LVL15:
 128 004a 06E0     		b	.L4
 129              	.LVL16:
 130              	.L5:
 131              	.LBE2:
 995:.\pdo.c       ****     }
 132              		.loc 1 995 0
 133 004c 0020     		movs	r0, #0
 134              	.LVL17:
 135 004e 04E0     		b	.L4
 136              	.LVL18:
 137              	.L6:
1023:.\pdo.c       **** }
 138              		.loc 1 1023 0
 139 0050 FF20     		movs	r0, #255
 140              	.LVL19:
 141 0052 02E0     		b	.L4
 142              	.LVL20:
 143              	.L7:
 144 0054 FF20     		movs	r0, #255
 145              	.LVL21:
 146 0056 00E0     		b	.L4
 147              	.LVL22:
 148              	.L8:
 149 0058 FF20     		movs	r0, #255
 150              	.LVL23:
 151              	.L4:
1024:.\pdo.c       **** 
 152              		.loc 1 1024 0 discriminator 1
 153 005a 04B0     		add	sp, sp, #16
 154              		.cfi_def_cfa_offset 8
 155              		@ sp needed
 156 005c 10BD     		pop	{r4, pc}
 157              		.cfi_endproc
ARM GAS  C:\Users\PANXIA~1\AppData\Local\Temp\cczfv69T.s 			page 28


 158              	.LFE1:
 159              		.size	sendPDOrequest, .-sendPDOrequest
 160 005e 00BF     		.section	.text.CopyBits,"ax",%progbits
 161              		.align	2
 162              		.global	CopyBits
 163              		.thumb
 164              		.thumb_func
 165              		.type	CopyBits, %function
 166              	CopyBits:
 167              	.LFB3:
1307:.\pdo.c       ****   /* This loop copy as many bits that it can each time, crossing */
 168              		.loc 1 1307 0
 169              		.cfi_startproc
 170              		@ args = 12, pretend = 0, frame = 0
 171              		@ frame_needed = 0, uses_anonymous_args = 0
 172              	.LVL24:
 173 0000 2DE9F043 		push	{r4, r5, r6, r7, r8, r9, lr}
 174              		.cfi_def_cfa_offset 28
 175              		.cfi_offset 4, -28
 176              		.cfi_offset 5, -24
 177              		.cfi_offset 6, -20
 178              		.cfi_offset 7, -16
 179              		.cfi_offset 8, -12
 180              		.cfi_offset 9, -8
 181              		.cfi_offset 14, -4
 182 0004 9846     		mov	r8, r3
 183 0006 DDF81CC0 		ldr	ip, [sp, #28]
 184 000a 9DF82060 		ldrb	r6, [sp, #32]	@ zero_extendqisi2
 185 000e 9DF82430 		ldrb	r3, [sp, #36]	@ zero_extendqisi2
 186              	.LVL25:
1311:.\pdo.c       ****     {
 187              		.loc 1 1311 0
 188 0012 4DE0     		b	.L11
 189              	.LVL26:
 190              	.L20:
 191              	.LBB3:
1314:.\pdo.c       **** 
 192              		.loc 1 1314 0
 193 0014 B71A     		subs	r7, r6, r2
 194 0016 FFB2     		uxtb	r7, r7
 195              	.LVL27:
1317:.\pdo.c       ****         Vect > 0 ? *SrcByteIndex << Vect : *SrcByteIndex >> -Vect;
 196              		.loc 1 1317 0
 197 0018 7CB2     		sxtb	r4, r7
 198 001a 002C     		cmp	r4, #0
 199 001c 06DD     		ble	.L12
1318:.\pdo.c       **** 
 200              		.loc 1 1318 0 discriminator 1
 201 001e 91F800E0 		ldrb	lr, [r1]	@ zero_extendqisi2
 202 0022 0EFA04FE 		lsl	lr, lr, r4
1317:.\pdo.c       ****         Vect > 0 ? *SrcByteIndex << Vect : *SrcByteIndex >> -Vect;
 203              		.loc 1 1317 0 discriminator 1
 204 0026 5FFA8EFE 		uxtb	lr, lr
 205 002a 07E0     		b	.L13
 206              	.L12:
1318:.\pdo.c       **** 
 207              		.loc 1 1318 0 discriminator 2
ARM GAS  C:\Users\PANXIA~1\AppData\Local\Temp\cczfv69T.s 			page 29


 208 002c 91F800E0 		ldrb	lr, [r1]	@ zero_extendqisi2
 209 0030 7CB2     		sxtb	r4, r7
 210 0032 6442     		negs	r4, r4
 211 0034 4EFA04FE 		asr	lr, lr, r4
1317:.\pdo.c       ****         Vect > 0 ? *SrcByteIndex << Vect : *SrcByteIndex >> -Vect;
 212              		.loc 1 1317 0 discriminator 2
 213 0038 5FFA8EFE 		uxtb	lr, lr
 214              	.L13:
 215              	.LVL28:
1321:.\pdo.c       ****       UNS8 BitsToCopy = BoudaryLimit > NbBits ? NbBits : BoudaryLimit;
 216              		.loc 1 1321 0 discriminator 4
 217 003c 7FB2     		sxtb	r7, r7
 218 003e 002F     		cmp	r7, #0
 219 0040 03DD     		ble	.L14
1321:.\pdo.c       ****       UNS8 BitsToCopy = BoudaryLimit > NbBits ? NbBits : BoudaryLimit;
 220              		.loc 1 1321 0 is_stmt 0 discriminator 1
 221 0042 C6F10804 		rsb	r4, r6, #8
 222 0046 E4B2     		uxtb	r4, r4
 223 0048 02E0     		b	.L15
 224              	.L14:
1321:.\pdo.c       ****       UNS8 BitsToCopy = BoudaryLimit > NbBits ? NbBits : BoudaryLimit;
 225              		.loc 1 1321 0 discriminator 2
 226 004a C2F10804 		rsb	r4, r2, #8
 227 004e E4B2     		uxtb	r4, r4
 228              	.L15:
 229              	.LVL29:
1322:.\pdo.c       **** 
 230              		.loc 1 1322 0 is_stmt 1 discriminator 4
 231 0050 8442     		cmp	r4, r0
 232 0052 28BF     		it	cs
 233 0054 0446     		movcs	r4, r0
 234              	.LVL30:
1326:.\pdo.c       ****          (0xff >> (8 - DestBitIndex)));
 235              		.loc 1 1326 0 discriminator 4
 236 0056 3719     		adds	r7, r6, r4
 237              	.LVL31:
 238 0058 FF25     		movs	r5, #255
 239 005a 05FA07F7 		lsl	r7, r5, r7
1327:.\pdo.c       **** 
 240              		.loc 1 1327 0 discriminator 4
 241 005e C6F10809 		rsb	r9, r6, #8
 242 0062 45FA09F5 		asr	r5, r5, r9
1325:.\pdo.c       ****         ((0xff << (DestBitIndex + BitsToCopy)) |
 243              		.loc 1 1325 0 discriminator 4
 244 0066 3D43     		orrs	r5, r5, r7
 245 0068 EDB2     		uxtb	r5, r5
 246              	.LVL32:
1330:.\pdo.c       **** 
 247              		.loc 1 1330 0 discriminator 4
 248 006a 2EEA050E 		bic	lr, lr, r5
 249              	.LVL33:
1333:.\pdo.c       **** 
 250              		.loc 1 1333 0 discriminator 4
 251 006e 9CF80070 		ldrb	r7, [ip]	@ zero_extendqisi2
 252 0072 3D40     		ands	r5, r5, r7
 253              	.LVL34:
1336:.\pdo.c       **** 
ARM GAS  C:\Users\PANXIA~1\AppData\Local\Temp\cczfv69T.s 			page 30


 254              		.loc 1 1336 0 discriminator 4
 255 0074 4EEA0505 		orr	r5, lr, r5
 256 0078 8CF80050 		strb	r5, [ip]
1339:.\pdo.c       ****         {
 257              		.loc 1 1339 0 discriminator 4
 258 007c 2244     		add	r2, r2, r4
 259              	.LVL35:
 260 007e D2B2     		uxtb	r2, r2
 261              	.LVL36:
 262 0080 072A     		cmp	r2, #7
 263 0082 08D9     		bls	.L16
 264              	.LVL37:
1342:.\pdo.c       ****         }
 265              		.loc 1 1342 0
 266 0084 B8F1000F 		cmp	r8, #0
 267 0088 02D0     		beq	.L21
 268 008a 4FF0FF32 		mov	r2, #-1
 269 008e 00E0     		b	.L17
 270              	.L21:
 271 0090 0122     		movs	r2, #1
 272              	.L17:
1342:.\pdo.c       ****         }
 273              		.loc 1 1342 0 is_stmt 0 discriminator 4
 274 0092 1144     		add	r1, r1, r2
 275              	.LVL38:
1341:.\pdo.c       ****           SrcByteIndex += (SrcBigEndian ? -1 : 1);      /* Next byte */
 276              		.loc 1 1341 0 is_stmt 1 discriminator 4
 277 0094 0022     		movs	r2, #0
 278              	.LVL39:
 279              	.L16:
1347:.\pdo.c       ****         {
 280              		.loc 1 1347 0
 281 0096 2644     		add	r6, r6, r4
 282              	.LVL40:
 283 0098 F6B2     		uxtb	r6, r6
 284              	.LVL41:
 285 009a 072E     		cmp	r6, #7
 286 009c 06D9     		bls	.L18
 287              	.LVL42:
1350:.\pdo.c       ****         }
 288              		.loc 1 1350 0
 289 009e 13B1     		cbz	r3, .L22
 290 00a0 4FF0FF35 		mov	r5, #-1
 291 00a4 00E0     		b	.L19
 292              	.L22:
 293 00a6 0125     		movs	r5, #1
 294              	.L19:
1350:.\pdo.c       ****         }
 295              		.loc 1 1350 0 is_stmt 0 discriminator 4
 296 00a8 AC44     		add	ip, ip, r5
 297              	.LVL43:
1349:.\pdo.c       ****           DestByteIndex += (DestBigEndian ? -1 : 1);    /* Next byte */
 298              		.loc 1 1349 0 is_stmt 1 discriminator 4
 299 00aa 0026     		movs	r6, #0
 300              	.LVL44:
 301              	.L18:
1354:.\pdo.c       ****     }
ARM GAS  C:\Users\PANXIA~1\AppData\Local\Temp\cczfv69T.s 			page 31


 302              		.loc 1 1354 0
 303 00ac 001B     		subs	r0, r0, r4
 304              	.LVL45:
 305 00ae C0B2     		uxtb	r0, r0
 306              	.LVL46:
 307              	.L11:
 308              	.LBE3:
1311:.\pdo.c       ****     {
 309              		.loc 1 1311 0
 310 00b0 0028     		cmp	r0, #0
 311 00b2 AFD1     		bne	.L20
1357:.\pdo.c       **** 
 312              		.loc 1 1357 0
 313 00b4 BDE8F083 		pop	{r4, r5, r6, r7, r8, r9, pc}
 314              		.cfi_endproc
 315              	.LFE3:
 316              		.size	CopyBits, .-CopyBits
 317              		.section	.text.buildPDO,"ax",%progbits
 318              		.align	2
 319              		.global	buildPDO
 320              		.thumb
 321              		.thumb_func
 322              		.type	buildPDO, %function
 323              	buildPDO:
 324              	.LFB0:
 916:.\pdo.c       ****   const indextable *TPDO_com = d->objdict + d->firstIndex->PDO_TRS + numPdo;
 325              		.loc 1 916 0
 326              		.cfi_startproc
 327              		@ args = 0, pretend = 0, frame = 16
 328              		@ frame_needed = 0, uses_anonymous_args = 0
 329              	.LVL47:
 330 0000 2DE9F04F 		push	{r4, r5, r6, r7, r8, r9, r10, fp, lr}
 331              		.cfi_def_cfa_offset 36
 332              		.cfi_offset 4, -36
 333              		.cfi_offset 5, -32
 334              		.cfi_offset 6, -28
 335              		.cfi_offset 7, -24
 336              		.cfi_offset 8, -20
 337              		.cfi_offset 9, -16
 338              		.cfi_offset 10, -12
 339              		.cfi_offset 11, -8
 340              		.cfi_offset 14, -4
 341 0004 89B0     		sub	sp, sp, #36
 342              		.cfi_def_cfa_offset 72
 343 0006 8146     		mov	r9, r0
 344 0008 9046     		mov	r8, r2
 917:.\pdo.c       ****   const indextable *TPDO_map = d->objdict + d->firstIndex->PDO_TRS_MAP + numPdo;
 345              		.loc 1 917 0
 346 000a 4268     		ldr	r2, [r0, #4]
 347              	.LVL48:
 348 000c 4369     		ldr	r3, [r0, #20]
 349 000e 1889     		ldrh	r0, [r3, #8]
 350              	.LVL49:
 351 0010 0844     		add	r0, r0, r1
 352              	.LVL50:
 918:.\pdo.c       **** 
 353              		.loc 1 918 0
ARM GAS  C:\Users\PANXIA~1\AppData\Local\Temp\cczfv69T.s 			page 32


 354 0012 5B89     		ldrh	r3, [r3, #10]
 355 0014 1944     		add	r1, r1, r3
 356              	.LVL51:
 357 0016 02EBC106 		add	r6, r2, r1, lsl #3
 358              	.LVL52:
 922:.\pdo.c       **** 
 359              		.loc 1 922 0
 360 001a 52F83130 		ldr	r3, [r2, r1, lsl #3]
 361 001e 9F68     		ldr	r7, [r3, #8]
 362              	.LVL53:
 924:.\pdo.c       ****   pdo->rtr = NOT_A_REQUEST;
 363              		.loc 1 924 0
 364 0020 52F83030 		ldr	r3, [r2, r0, lsl #3]
 365 0024 5B69     		ldr	r3, [r3, #20]
 366 0026 1B68     		ldr	r3, [r3]
 367 0028 C3F30A03 		ubfx	r3, r3, #0, #11
 368 002c A8F80030 		strh	r3, [r8]	@ movhi
 925:.\pdo.c       **** 
 369              		.loc 1 925 0
 370 0030 0024     		movs	r4, #0
 371 0032 88F80240 		strb	r4, [r8, #2]
 921:.\pdo.c       ****   const UNS8 *pMappingCount = (UNS8 *) TPDO_map->pSubindex[0].pObject;
 372              		.loc 1 921 0
 373 0036 2546     		mov	r5, r4
 374              	.LVL54:
 375              	.L28:
 376              	.LBB4:
 934:.\pdo.c       **** 
 377              		.loc 1 934 0
 378 0038 0023     		movs	r3, #0
 379 003a 8DF81830 		strb	r3, [sp, #24]
 380 003e 8DF81930 		strb	r3, [sp, #25]
 381 0042 8DF81A30 		strb	r3, [sp, #26]
 382 0046 8DF81B30 		strb	r3, [sp, #27]
 383 004a 8DF81C30 		strb	r3, [sp, #28]
 384 004e 8DF81D30 		strb	r3, [sp, #29]
 385 0052 8DF81E30 		strb	r3, [sp, #30]
 386 0056 8DF81F30 		strb	r3, [sp, #31]
 938:.\pdo.c       ****       UNS16 index = (UNS16) ((*pMappingParameter) >> 16);
 387              		.loc 1 938 0
 388 005a 3268     		ldr	r2, [r6]
 389 005c 631C     		adds	r3, r4, #1
 390 005e 03EB4303 		add	r3, r3, r3, lsl #1
 391 0062 9B00     		lsls	r3, r3, #2
 392 0064 1344     		add	r3, r3, r2
 937:.\pdo.c       ****         (UNS32 *) TPDO_map->pSubindex[prp_j + 1].pObject;
 393              		.loc 1 937 0
 394 0066 9B68     		ldr	r3, [r3, #8]
 395              	.LVL55:
 939:.\pdo.c       ****       UNS32 Size = (UNS32) (*pMappingParameter & (UNS32) 0x000000FF);     /* Size in bits */
 396              		.loc 1 939 0
 397 0068 1868     		ldr	r0, [r3]
 398 006a 010C     		lsrs	r1, r0, #16
 399              	.LVL56:
 943:.\pdo.c       ****         {
 400              		.loc 1 943 0
 401 006c 10F0FF0A 		ands	r10, r0, #255
ARM GAS  C:\Users\PANXIA~1\AppData\Local\Temp\cczfv69T.s 			page 33


 402 0070 29D0     		beq	.L25
 943:.\pdo.c       ****         {
 403              		.loc 1 943 0 is_stmt 0 discriminator 1
 404 0072 05EB0A0B 		add	fp, r5, r10
 405 0076 BBF1400F 		cmp	fp, #64
 406 007a 24D8     		bhi	.L25
 407              	.LBB5:
 945:.\pdo.c       ****           UNS8 subIndex =
 408              		.loc 1 945 0 is_stmt 1
 409 007c 0AF1FF32 		add	r2, r10, #-1
 410 0080 D208     		lsrs	r2, r2, #3
 411 0082 0132     		adds	r2, r2, #1
 412 0084 0592     		str	r2, [sp, #20]
 946:.\pdo.c       ****             (UNS8) (((*pMappingParameter) >> (UNS8) 8) & (UNS32) 0x000000FF);
 413              		.loc 1 946 0
 414 0086 5A78     		ldrb	r2, [r3, #1]	@ zero_extendqisi2
 415              	.LVL57:
 953:.\pdo.c       ****               OD_SUCCESSFUL)
 416              		.loc 1 953 0
 417 0088 05AB     		add	r3, sp, #20
 418              	.LVL58:
 419 008a 0093     		str	r3, [sp]
 420 008c 0DF11303 		add	r3, sp, #19
 421 0090 0193     		str	r3, [sp, #4]
 422 0092 0023     		movs	r3, #0
 423 0094 0293     		str	r3, [sp, #8]
 424 0096 0123     		movs	r3, #1
 425 0098 0393     		str	r3, [sp, #12]
 426 009a 4846     		mov	r0, r9
 427              	.LVL59:
 428 009c 06AB     		add	r3, sp, #24
 429 009e FFF7FEFF 		bl	_getODentry
 430              	.LVL60:
 431 00a2 08B1     		cbz	r0, .L26
 959:.\pdo.c       ****             }
 432              		.loc 1 959 0
 433 00a4 FF20     		movs	r0, #255
 434 00a6 19E0     		b	.L27
 435              	.L26:
 962:.\pdo.c       ****                     (UNS8 *) & pdo->data[offset >> 3], (UNS8)(offset % 8), 0);
 436              		.loc 1 962 0
 437 00a8 08EBD503 		add	r3, r8, r5, lsr #3
 438 00ac 0433     		adds	r3, r3, #4
 439 00ae 0093     		str	r3, [sp]
 440 00b0 05F00705 		and	r5, r5, #7
 441              	.LVL61:
 442 00b4 0195     		str	r5, [sp, #4]
 443 00b6 0023     		movs	r3, #0
 444 00b8 0293     		str	r3, [sp, #8]
 445 00ba 5046     		mov	r0, r10
 446 00bc 06A9     		add	r1, sp, #24
 447 00be 1A46     		mov	r2, r3
 448 00c0 FFF7FEFF 		bl	CopyBits
 449              	.LVL62:
 965:.\pdo.c       ****         }
 450              		.loc 1 965 0
 451 00c4 5D46     		mov	r5, fp
ARM GAS  C:\Users\PANXIA~1\AppData\Local\Temp\cczfv69T.s 			page 34


 452              	.LVL63:
 453              	.L25:
 454              	.LBE5:
 967:.\pdo.c       ****     }
 455              		.loc 1 967 0 discriminator 1
 456 00c6 0134     		adds	r4, r4, #1
 457              	.LVL64:
 458 00c8 E4B2     		uxtb	r4, r4
 459              	.LVL65:
 460              	.LBE4:
 969:.\pdo.c       **** 
 461              		.loc 1 969 0 discriminator 1
 462 00ca 3B78     		ldrb	r3, [r7]	@ zero_extendqisi2
 463 00cc A342     		cmp	r3, r4
 464 00ce B3D8     		bhi	.L28
 971:.\pdo.c       **** 
 465              		.loc 1 971 0
 466 00d0 6B1E     		subs	r3, r5, #1
 467 00d2 DB08     		lsrs	r3, r3, #3
 468 00d4 0133     		adds	r3, r3, #1
 469 00d6 88F80330 		strb	r3, [r8, #3]
 975:.\pdo.c       **** }
 470              		.loc 1 975 0
 471 00da 0020     		movs	r0, #0
 472              	.L27:
 976:.\pdo.c       **** 
 473              		.loc 1 976 0 discriminator 2
 474 00dc 09B0     		add	sp, sp, #36
 475              		.cfi_def_cfa_offset 36
 476              		@ sp needed
 477 00de BDE8F08F 		pop	{r4, r5, r6, r7, r8, r9, r10, fp, pc}
 478              		.cfi_endproc
 479              	.LFE0:
 480              		.size	buildPDO, .-buildPDO
 481 00e2 00BF     		.section	.text.sendOnePDOevent,"ax",%progbits
 482              		.align	2
 483              		.global	sendOnePDOevent
 484              		.thumb
 485              		.thumb_func
 486              		.type	sendOnePDOevent, %function
 487              	sendOnePDOevent:
 488              	.LFB6:
1367:.\pdo.c       **** }
1368:.\pdo.c       **** 
1369:.\pdo.c       **** 
1370:.\pdo.c       **** /*!
1371:.\pdo.c       **** **
1372:.\pdo.c       **** **
1373:.\pdo.c       **** ** @param d
1374:.\pdo.c       **** **
1375:.\pdo.c       **** ** @return
1376:.\pdo.c       **** **/
1377:.\pdo.c       **** 
1378:.\pdo.c       **** UNS8
1379:.\pdo.c       **** sendPDOevent (CO_Data * d)
1380:.\pdo.c       **** {
1381:.\pdo.c       ****   /* Calls _sendPDOevent specifying it is not a sync event */
ARM GAS  C:\Users\PANXIA~1\AppData\Local\Temp\cczfv69T.s 			page 35


1382:.\pdo.c       ****   return _sendPDOevent (d, 0);
1383:.\pdo.c       **** }
1384:.\pdo.c       **** 
1385:.\pdo.c       **** UNS8
1386:.\pdo.c       **** sendOnePDOevent (CO_Data * d, UNS8 pdoNum)
1387:.\pdo.c       **** {
 489              		.loc 1 1387 0
 490              		.cfi_startproc
 491              		@ args = 0, pretend = 0, frame = 16
 492              		@ frame_needed = 0, uses_anonymous_args = 0
 493              	.LVL66:
 494 0000 2DE9F043 		push	{r4, r5, r6, r7, r8, r9, lr}
 495              		.cfi_def_cfa_offset 28
 496              		.cfi_offset 4, -28
 497              		.cfi_offset 5, -24
 498              		.cfi_offset 6, -20
 499              		.cfi_offset 7, -16
 500              		.cfi_offset 8, -12
 501              		.cfi_offset 9, -8
 502              		.cfi_offset 14, -4
 503 0004 87B0     		sub	sp, sp, #28
 504              		.cfi_def_cfa_offset 56
1388:.\pdo.c       ****   UNS16 offsetObjdict;
1389:.\pdo.c       ****   Message pdo;
1390:.\pdo.c       ****   if (!d->CurrentCommunicationState.csPDO ||
 505              		.loc 1 1390 0
 506 0006 90F87E30 		ldrb	r3, [r0, #126]	@ zero_extendqisi2
 507 000a 002B     		cmp	r3, #0
 508 000c 69D0     		beq	.L35
1391:.\pdo.c       ****       (d->PDO_status[pdoNum].transmit_type_parameter & PDO_INHIBITED))
 509              		.loc 1 1391 0 discriminator 1
 510 000e 8368     		ldr	r3, [r0, #8]
 511 0010 01EBC107 		add	r7, r1, r1, lsl #3
 512 0014 7F00     		lsls	r7, r7, #1
 513 0016 DC5D     		ldrb	r4, [r3, r7]	@ zero_extendqisi2
1390:.\pdo.c       ****       (d->PDO_status[pdoNum].transmit_type_parameter & PDO_INHIBITED))
 514              		.loc 1 1390 0 discriminator 1
 515 0018 14F00104 		ands	r4, r4, #1
 516 001c 63D1     		bne	.L36
 517 001e 0E46     		mov	r6, r1
 518 0020 0546     		mov	r5, r0
1392:.\pdo.c       ****     {
1393:.\pdo.c       ****       return 0;
1394:.\pdo.c       ****     }
1395:.\pdo.c       **** 
1396:.\pdo.c       ****   offsetObjdict = (UNS16) (d->firstIndex->PDO_TRS + pdoNum);
 519              		.loc 1 1396 0
 520 0022 4369     		ldr	r3, [r0, #20]
 521 0024 1B89     		ldrh	r3, [r3, #8]
 522 0026 0B44     		add	r3, r3, r1
 523 0028 1FFA83F8 		uxth	r8, r3
 524              	.LVL67:
1397:.\pdo.c       **** 
1398:.\pdo.c       ****   MSG_WAR (0x3968, "  PDO is on EVENT. Trans type : ",
1399:.\pdo.c       ****            *((UNS8 *) d->objdict[offsetObjdict].pSubindex[2].pObject));
1400:.\pdo.c       **** 
1401:.\pdo.c       ****   memset(&pdo, 0, sizeof(pdo));
ARM GAS  C:\Users\PANXIA~1\AppData\Local\Temp\cczfv69T.s 			page 36


 525              		.loc 1 1401 0
 526 002c 0023     		movs	r3, #0
 527 002e 0393     		str	r3, [sp, #12]
 528 0030 0493     		str	r3, [sp, #16]
 529 0032 0593     		str	r3, [sp, #20]
1402:.\pdo.c       ****   if (buildPDO (d, pdoNum, &pdo))
 530              		.loc 1 1402 0
 531 0034 03AA     		add	r2, sp, #12
 532 0036 FFF7FEFF 		bl	buildPDO
 533              	.LVL68:
 534 003a 8146     		mov	r9, r0
 535 003c 0028     		cmp	r0, #0
 536 003e 55D1     		bne	.L31
1403:.\pdo.c       ****     {
1404:.\pdo.c       ****       MSG_ERR (0x3907, " Couldn't build TPDO number : ",
1405:.\pdo.c       ****                pdoNum);
1406:.\pdo.c       ****       return 0;
1407:.\pdo.c       ****     }
1408:.\pdo.c       **** 
1409:.\pdo.c       ****   /*Compare new and old PDO */
1410:.\pdo.c       ****   if (d->PDO_status[pdoNum].last_message.cob_id == pdo.cob_id
 537              		.loc 1 1410 0
 538 0040 AC68     		ldr	r4, [r5, #8]
 539 0042 3C44     		add	r4, r4, r7
 540 0044 E288     		ldrh	r2, [r4, #6]
 541 0046 BDF80C30 		ldrh	r3, [sp, #12]
 542 004a 9A42     		cmp	r2, r3
 543 004c 0CD1     		bne	.L32
1411:.\pdo.c       ****       && d->PDO_status[pdoNum].last_message.len == pdo.len
 544              		.loc 1 1411 0
 545 004e 627A     		ldrb	r2, [r4, #9]	@ zero_extendqisi2
 546 0050 9DF80F30 		ldrb	r3, [sp, #15]	@ zero_extendqisi2
 547 0054 9A42     		cmp	r2, r3
 548 0056 07D1     		bne	.L32
1412:.\pdo.c       ****       && memcmp(d->PDO_status[pdoNum].last_message.data,
 549              		.loc 1 1412 0
 550 0058 04F10A00 		add	r0, r4, #10
 551 005c 04A9     		add	r1, sp, #16
 552 005e 0822     		movs	r2, #8
 553 0060 FFF7FEFF 		bl	memcmp
 554              	.LVL69:
 555 0064 0028     		cmp	r0, #0
 556 0066 40D0     		beq	.L37
 557              	.L32:
 558              	.LBB6:
1413:.\pdo.c       ****                     pdo.data, 8) == 0
1414:.\pdo.c       ****     )
1415:.\pdo.c       ****     {
1416:.\pdo.c       ****       /* No changes -> go to next pdo */
1417:.\pdo.c       ****       return 0;
1418:.\pdo.c       ****     }
1419:.\pdo.c       ****   else
1420:.\pdo.c       ****     {
1421:.\pdo.c       **** 
1422:.\pdo.c       ****       TIMEVAL EventTimerDuration;
1423:.\pdo.c       ****       TIMEVAL InhibitTimerDuration;
1424:.\pdo.c       **** 
ARM GAS  C:\Users\PANXIA~1\AppData\Local\Temp\cczfv69T.s 			page 37


1425:.\pdo.c       ****       MSG_WAR (0x306A, "Changes TPDO number : ", pdoNum);
1426:.\pdo.c       ****       /* Changes detected -> transmit message */
1427:.\pdo.c       ****       EventTimerDuration =
1428:.\pdo.c       ****         *(UNS16 *) d->objdict[offsetObjdict].pSubindex[5].
 559              		.loc 1 1428 0
 560 0068 6B68     		ldr	r3, [r5, #4]
 561 006a 53F83830 		ldr	r3, [r3, r8, lsl #3]
 562 006e 5A6C     		ldr	r2, [r3, #68]
 563 0070 B2F80090 		ldrh	r9, [r2]
 564              	.LVL70:
1429:.\pdo.c       ****         pObject;
1430:.\pdo.c       ****       InhibitTimerDuration =
1431:.\pdo.c       ****         *(UNS16 *) d->objdict[offsetObjdict].pSubindex[3].
 565              		.loc 1 1431 0
 566 0074 DB6A     		ldr	r3, [r3, #44]
 567 0076 B3F80080 		ldrh	r8, [r3]
 568              	.LVL71:
1432:.\pdo.c       ****         pObject;
1433:.\pdo.c       **** 
1434:.\pdo.c       ****       /* Start both event_timer and inhibit_timer */
1435:.\pdo.c       ****       if (EventTimerDuration)
 569              		.loc 1 1435 0
 570 007a B9F1000F 		cmp	r9, #0
 571 007e 0ED0     		beq	.L33
1436:.\pdo.c       ****         {
1437:.\pdo.c       ****           DelAlarm (d->PDO_status[pdoNum].event_timer);
 572              		.loc 1 1437 0
 573 0080 B4F90200 		ldrsh	r0, [r4, #2]
 574 0084 FFF7FEFF 		bl	DelAlarm
 575              	.LVL72:
1438:.\pdo.c       ****           d->PDO_status[pdoNum].event_timer =
 576              		.loc 1 1438 0
 577 0088 AC68     		ldr	r4, [r5, #8]
 578 008a 3C44     		add	r4, r4, r7
1439:.\pdo.c       ****             SetAlarm (d, pdoNum, &PDOEventTimerAlarm,
 579              		.loc 1 1439 0
 580 008c 0023     		movs	r3, #0
 581 008e 0093     		str	r3, [sp]
 582 0090 2846     		mov	r0, r5
 583 0092 3146     		mov	r1, r6
 584 0094 174A     		ldr	r2, .L39
 585 0096 4B46     		mov	r3, r9
 586 0098 FFF7FEFF 		bl	SetAlarm
 587              	.LVL73:
1438:.\pdo.c       ****           d->PDO_status[pdoNum].event_timer =
 588              		.loc 1 1438 0
 589 009c 6080     		strh	r0, [r4, #2]	@ movhi
 590              	.L33:
1440:.\pdo.c       ****                       MS_TO_TIMEVAL (EventTimerDuration), 0);
1441:.\pdo.c       ****         }
1442:.\pdo.c       **** 
1443:.\pdo.c       ****       if (InhibitTimerDuration)
 591              		.loc 1 1443 0
 592 009e B8F1000F 		cmp	r8, #0
 593 00a2 17D0     		beq	.L34
1444:.\pdo.c       ****         {
1445:.\pdo.c       ****           DelAlarm (d->PDO_status[pdoNum].inhibit_timer);
ARM GAS  C:\Users\PANXIA~1\AppData\Local\Temp\cczfv69T.s 			page 38


 594              		.loc 1 1445 0
 595 00a4 AB68     		ldr	r3, [r5, #8]
 596 00a6 3B44     		add	r3, r3, r7
 597 00a8 B3F90400 		ldrsh	r0, [r3, #4]
 598 00ac FFF7FEFF 		bl	DelAlarm
 599              	.LVL74:
1446:.\pdo.c       ****           d->PDO_status[pdoNum].inhibit_timer =
 600              		.loc 1 1446 0
 601 00b0 AC68     		ldr	r4, [r5, #8]
 602 00b2 3C44     		add	r4, r4, r7
1447:.\pdo.c       ****             SetAlarm (d, pdoNum, &PDOInhibitTimerAlarm,
 603              		.loc 1 1447 0
 604 00b4 0023     		movs	r3, #0
 605 00b6 0093     		str	r3, [sp]
 606 00b8 2846     		mov	r0, r5
 607 00ba 3146     		mov	r1, r6
 608 00bc 0E4A     		ldr	r2, .L39+4
 609 00be 6423     		movs	r3, #100
 610 00c0 03FB08F3 		mul	r3, r3, r8
 611 00c4 FFF7FEFF 		bl	SetAlarm
 612              	.LVL75:
1446:.\pdo.c       ****           d->PDO_status[pdoNum].inhibit_timer =
 613              		.loc 1 1446 0
 614 00c8 A080     		strh	r0, [r4, #4]	@ movhi
1448:.\pdo.c       ****                       US_TO_TIMEVAL (InhibitTimerDuration *
1449:.\pdo.c       ****                                      100), 0);
1450:.\pdo.c       ****           /* and inhibit TPDO */
1451:.\pdo.c       ****           d->PDO_status[pdoNum].transmit_type_parameter |=
 615              		.loc 1 1451 0
 616 00ca AA68     		ldr	r2, [r5, #8]
 617 00cc D35D     		ldrb	r3, [r2, r7]	@ zero_extendqisi2
 618 00ce 43F00103 		orr	r3, r3, #1
 619 00d2 D355     		strb	r3, [r2, r7]
 620              	.L34:
1452:.\pdo.c       ****             PDO_INHIBITED;
1453:.\pdo.c       ****         }
1454:.\pdo.c       **** 
1455:.\pdo.c       ****       sendPdo(d, pdoNum, &pdo);
 621              		.loc 1 1455 0
 622 00d4 2846     		mov	r0, r5
 623 00d6 3146     		mov	r1, r6
 624 00d8 03AA     		add	r2, sp, #12
 625 00da FFF7FEFF 		bl	sendPdo
 626              	.LVL76:
 627              	.LBE6:
1456:.\pdo.c       ****     }
1457:.\pdo.c       ****     return 1;
 628              		.loc 1 1457 0
 629 00de 0124     		movs	r4, #1
 630 00e0 04E0     		b	.L31
 631              	.LVL77:
 632              	.L35:
1393:.\pdo.c       ****     }
 633              		.loc 1 1393 0
 634 00e2 0024     		movs	r4, #0
 635 00e4 02E0     		b	.L31
 636              	.L36:
ARM GAS  C:\Users\PANXIA~1\AppData\Local\Temp\cczfv69T.s 			page 39


 637 00e6 0024     		movs	r4, #0
 638 00e8 00E0     		b	.L31
 639              	.LVL78:
 640              	.L37:
1417:.\pdo.c       ****     }
 641              		.loc 1 1417 0
 642 00ea 4C46     		mov	r4, r9
 643              	.LVL79:
 644              	.L31:
1458:.\pdo.c       **** }
 645              		.loc 1 1458 0
 646 00ec 2046     		mov	r0, r4
 647 00ee 07B0     		add	sp, sp, #28
 648              		.cfi_def_cfa_offset 28
 649              		@ sp needed
 650 00f0 BDE8F083 		pop	{r4, r5, r6, r7, r8, r9, pc}
 651              	.L40:
 652              		.align	2
 653              	.L39:
 654 00f4 00000000 		.word	PDOEventTimerAlarm
 655 00f8 00000000 		.word	PDOInhibitTimerAlarm
 656              		.cfi_endproc
 657              	.LFE6:
 658              		.size	sendOnePDOevent, .-sendOnePDOevent
 659              		.section	.text.PDOEventTimerAlarm,"ax",%progbits
 660              		.align	2
 661              		.global	PDOEventTimerAlarm
 662              		.thumb
 663              		.thumb_func
 664              		.type	PDOEventTimerAlarm, %function
 665              	PDOEventTimerAlarm:
 666              	.LFB7:
1459:.\pdo.c       **** 
1460:.\pdo.c       **** void
1461:.\pdo.c       **** PDOEventTimerAlarm (CO_Data * d, UNS32 pdoNum)
1462:.\pdo.c       **** {
 667              		.loc 1 1462 0
 668              		.cfi_startproc
 669              		@ args = 0, pretend = 0, frame = 0
 670              		@ frame_needed = 0, uses_anonymous_args = 0
 671              	.LVL80:
 672 0000 38B5     		push	{r3, r4, r5, lr}
 673              		.cfi_def_cfa_offset 16
 674              		.cfi_offset 3, -16
 675              		.cfi_offset 4, -12
 676              		.cfi_offset 5, -8
 677              		.cfi_offset 14, -4
1463:.\pdo.c       ****   /* This is needed to avoid deletion of re-attribuated timer */
1464:.\pdo.c       ****   d->PDO_status[pdoNum].event_timer = TIMER_NONE;
 678              		.loc 1 1464 0
 679 0002 8268     		ldr	r2, [r0, #8]
 680 0004 01EBC103 		add	r3, r1, r1, lsl #3
 681 0008 5B00     		lsls	r3, r3, #1
 682 000a 1A44     		add	r2, r2, r3
 683 000c 4FF6FF75 		movw	r5, #65535
 684 0010 5580     		strh	r5, [r2, #2]	@ movhi
1465:.\pdo.c       ****   /* force emission of PDO by artificially changing last emitted */
ARM GAS  C:\Users\PANXIA~1\AppData\Local\Temp\cczfv69T.s 			page 40


1466:.\pdo.c       ****   d->PDO_status[pdoNum].last_message.cob_id = 0;
 685              		.loc 1 1466 0
 686 0012 8268     		ldr	r2, [r0, #8]
 687 0014 1344     		add	r3, r3, r2
 688 0016 0022     		movs	r2, #0
 689 0018 DA80     		strh	r2, [r3, #6]	@ movhi
1467:.\pdo.c       ****   sendOnePDOevent (d, (UNS8) pdoNum);
 690              		.loc 1 1467 0
 691 001a C9B2     		uxtb	r1, r1
 692              	.LVL81:
 693 001c FFF7FEFF 		bl	sendOnePDOevent
 694              	.LVL82:
 695 0020 38BD     		pop	{r3, r4, r5, pc}
 696              		.cfi_endproc
 697              	.LFE7:
 698              		.size	PDOEventTimerAlarm, .-PDOEventTimerAlarm
 699 0022 00BF     		.section	.text.proceedPDO,"ax",%progbits
 700              		.align	2
 701              		.global	proceedPDO
 702              		.thumb
 703              		.thumb_func
 704              		.type	proceedPDO, %function
 705              	proceedPDO:
 706              	.LFB2:
1037:.\pdo.c       ****   UNS8 numPdo;
 707              		.loc 1 1037 0
 708              		.cfi_startproc
 709              		@ args = 0, pretend = 0, frame = 32
 710              		@ frame_needed = 0, uses_anonymous_args = 0
 711              	.LVL83:
 712 0000 2DE9F04F 		push	{r4, r5, r6, r7, r8, r9, r10, fp, lr}
 713              		.cfi_def_cfa_offset 36
 714              		.cfi_offset 4, -36
 715              		.cfi_offset 5, -32
 716              		.cfi_offset 6, -28
 717              		.cfi_offset 7, -24
 718              		.cfi_offset 8, -20
 719              		.cfi_offset 9, -16
 720              		.cfi_offset 10, -12
 721              		.cfi_offset 11, -8
 722              		.cfi_offset 14, -4
 723 0004 8DB0     		sub	sp, sp, #52
 724              		.cfi_def_cfa_offset 88
 725 0006 0746     		mov	r7, r0
 726 0008 0491     		str	r1, [sp, #16]
 727              	.LVL84:
1063:.\pdo.c       ****     {                           /* The PDO received is not a
 728              		.loc 1 1063 0
 729 000a 8B78     		ldrb	r3, [r1, #2]	@ zero_extendqisi2
 730 000c 0593     		str	r3, [sp, #20]
 731 000e 002B     		cmp	r3, #0
 732 0010 40F0A780 		bne	.L44
1067:.\pdo.c       ****       lastIndex = d->lastIndex->PDO_RCV;
 733              		.loc 1 1067 0
 734 0014 4569     		ldr	r5, [r0, #20]
 735 0016 AB88     		ldrh	r3, [r5, #4]
 736              	.LVL85:
ARM GAS  C:\Users\PANXIA~1\AppData\Local\Temp\cczfv69T.s 			page 41


1068:.\pdo.c       **** 
 737              		.loc 1 1068 0
 738 0018 8269     		ldr	r2, [r0, #24]
 739 001a 9488     		ldrh	r4, [r2, #4]
 740              	.LVL86:
1071:.\pdo.c       ****         while (offsetObjdict <= lastIndex)
 741              		.loc 1 1071 0
 742 001c 002B     		cmp	r3, #0
 743 001e 40F09880 		bne	.L66
 744 0022 1AE1     		b	.L46
 745              	.LVL87:
 746              	.L56:
1075:.\pdo.c       ****               {
 747              		.loc 1 1075 0
 748 0024 022A     		cmp	r2, #2
 749 0026 02D0     		beq	.L48
 750 0028 042A     		cmp	r2, #4
 751 002a 14D0     		beq	.L49
 752 002c 95E0     		b	.L47
 753              	.L48:
1082:.\pdo.c       ****                 /* check the CobId coherance */
 754              		.loc 1 1082 0
 755 002e 7868     		ldr	r0, [r7, #4]
 756 0030 50F83300 		ldr	r0, [r0, r3, lsl #3]
1081:.\pdo.c       ****                   d->objdict[offsetObjdict].pSubindex[1].pObject;
 757              		.loc 1 1081 0
 758 0034 4669     		ldr	r6, [r0, #20]
 759              	.LVL88:
1086:.\pdo.c       ****                   {
 760              		.loc 1 1086 0
 761 0036 D6F800E0 		ldr	lr, [r6]
 762 003a 049E     		ldr	r6, [sp, #16]
 763              	.LVL89:
 764 003c 3688     		ldrh	r6, [r6]
 765 003e B645     		cmp	lr, r6
 766 0040 04D1     		bne	.L50
 767              	.LVL90:
1090:.\pdo.c       ****                     MSG_WAR (0x3936, "cobId found at index ",
 768              		.loc 1 1090 0
 769 0042 426C     		ldr	r2, [r0, #68]
 770 0044 1288     		ldrh	r2, [r2]
 771 0046 0692     		str	r2, [sp, #24]
 772              	.LVL91:
1089:.\pdo.c       ****                     EventTimerDuration = *(UNS16 *)d->objdict[offsetObjdict].pSubindex[5].pObject;
 773              		.loc 1 1089 0
 774 0048 0422     		movs	r2, #4
 775              	.LVL92:
1093:.\pdo.c       ****                   }
 776              		.loc 1 1093 0
 777 004a 86E0     		b	.L47
 778              	.LVL93:
 779              	.L50:
1099:.\pdo.c       ****                     offsetObjdict++;
 780              		.loc 1 1099 0
 781 004c 0131     		adds	r1, r1, #1
 782              	.LVL94:
 783 004e C9B2     		uxtb	r1, r1
ARM GAS  C:\Users\PANXIA~1\AppData\Local\Temp\cczfv69T.s 			page 42


 784              	.LVL95:
1100:.\pdo.c       ****                     status = state2;
 785              		.loc 1 1100 0
 786 0050 0133     		adds	r3, r3, #1
 787              	.LVL96:
 788 0052 9BB2     		uxth	r3, r3
 789              	.LVL97:
1102:.\pdo.c       ****                   }
 790              		.loc 1 1102 0
 791 0054 81E0     		b	.L47
 792              	.LVL98:
 793              	.L49:
1108:.\pdo.c       ****                 lastIndex = d->lastIndex->PDO_RCV_MAP;
 794              		.loc 1 1108 0
 795 0056 EB88     		ldrh	r3, [r5, #6]
 796              	.LVL99:
1111:.\pdo.c       ****                             numPdo)->pSubindex[0].pObject;
 797              		.loc 1 1111 0
 798 0058 7A68     		ldr	r2, [r7, #4]
 799              	.LVL100:
 800 005a 0791     		str	r1, [sp, #28]
 801              	.LVL101:
 802 005c 1944     		add	r1, r1, r3
 803              	.LVL102:
 804 005e 4FEAC10A 		lsl	r10, r1, #3
1112:.\pdo.c       ****                 numMap = 0;
 805              		.loc 1 1112 0
 806 0062 52F83130 		ldr	r3, [r2, r1, lsl #3]
 807              	.LVL103:
1110:.\pdo.c       ****                   (UNS8 *) (d->objdict + offsetObjdict +
 808              		.loc 1 1110 0
 809 0066 D3F80890 		ldr	r9, [r3, #8]
 810              	.LVL104:
1060:.\pdo.c       ****   numPdo = 0;
 811              		.loc 1 1060 0
 812 006a 4FF0000B 		mov	fp, #0
1113:.\pdo.c       ****                 while (numMap < *pMappingCount)
 813              		.loc 1 1113 0
 814 006e 5C46     		mov	r4, fp
1114:.\pdo.c       ****                   {
 815              		.loc 1 1114 0
 816 0070 52E0     		b	.L52
 817              	.LVL105:
 818              	.L55:
 819              	.LBB7:
1116:.\pdo.c       ****                     UNS32 ByteSize;
 820              		.loc 1 1116 0
 821 0072 0023     		movs	r3, #0
 822 0074 8DF82430 		strb	r3, [sp, #36]
 823 0078 8DF82530 		strb	r3, [sp, #37]
 824 007c 8DF82630 		strb	r3, [sp, #38]
 825 0080 8DF82730 		strb	r3, [sp, #39]
 826 0084 8DF82830 		strb	r3, [sp, #40]
 827 0088 8DF82930 		strb	r3, [sp, #41]
 828 008c 8DF82A30 		strb	r3, [sp, #42]
 829 0090 8DF82B30 		strb	r3, [sp, #43]
1119:.\pdo.c       ****                                  numPdo)->pSubindex[numMap + 1].pObject;
ARM GAS  C:\Users\PANXIA~1\AppData\Local\Temp\cczfv69T.s 			page 43


 830              		.loc 1 1119 0
 831 0094 7B68     		ldr	r3, [r7, #4]
1120:.\pdo.c       ****                     if (pMappingParameter == NULL)
 832              		.loc 1 1120 0
 833 0096 53F80A20 		ldr	r2, [r3, r10]
 834 009a 631C     		adds	r3, r4, #1
 835 009c 03EB4303 		add	r3, r3, r3, lsl #1
 836 00a0 9B00     		lsls	r3, r3, #2
 837 00a2 1344     		add	r3, r3, r2
1118:.\pdo.c       ****                       (UNS32 *) (d->objdict + offsetObjdict +
 838              		.loc 1 1118 0
 839 00a4 9E68     		ldr	r6, [r3, #8]
 840              	.LVL106:
1121:.\pdo.c       ****                       {
 841              		.loc 1 1121 0
 842 00a6 002E     		cmp	r6, #0
 843 00a8 33D0     		beq	.L53
1134:.\pdo.c       **** 
 844              		.loc 1 1134 0
 845 00aa 3568     		ldr	r5, [r6]
 846              	.LVL107:
1138:.\pdo.c       ****                       {
 847              		.loc 1 1138 0
 848 00ac 15F0FF08 		ands	r8, r5, #255
 849 00b0 2CD0     		beq	.L54
 850 00b2 EDB2     		uxtb	r5, r5
1138:.\pdo.c       ****                       {
 851              		.loc 1 1138 0 is_stmt 0 discriminator 1
 852 00b4 0BEB0503 		add	r3, fp, r5
 853 00b8 049A     		ldr	r2, [sp, #16]
 854 00ba D278     		ldrb	r2, [r2, #3]	@ zero_extendqisi2
 855 00bc B3EBC20F 		cmp	r3, r2, lsl #3
 856 00c0 24DC     		bgt	.L54
1141:.\pdo.c       ****                                   offset % 8, 0, ((UNS8 *) tmp), 0, 0);
 857              		.loc 1 1141 0 is_stmt 1
 858 00c2 049B     		ldr	r3, [sp, #16]
 859 00c4 03EBDB01 		add	r1, r3, fp, lsr #3
 860 00c8 09AB     		add	r3, sp, #36
 861 00ca 0093     		str	r3, [sp]
 862 00cc 0023     		movs	r3, #0
 863 00ce 0193     		str	r3, [sp, #4]
 864 00d0 0293     		str	r3, [sp, #8]
 865 00d2 4046     		mov	r0, r8
 866 00d4 0431     		adds	r1, r1, #4
 867 00d6 0BF00702 		and	r2, fp, #7
 868 00da FFF7FEFF 		bl	CopyBits
 869              	.LVL108:
1144:.\pdo.c       **** 
 870              		.loc 1 1144 0
 871 00de 013D     		subs	r5, r5, #1
 872              	.LVL109:
 873 00e0 ED10     		asrs	r5, r5, #3
 874              	.LVL110:
 875 00e2 0135     		adds	r5, r5, #1
 876 00e4 0CAB     		add	r3, sp, #48
 877 00e6 43F8105D 		str	r5, [r3, #-16]!
1147:.\pdo.c       ****                                       (UNS8) (((*pMappingParameter) >> 8) &
ARM GAS  C:\Users\PANXIA~1\AppData\Local\Temp\cczfv69T.s 			page 44


 878              		.loc 1 1147 0
 879 00ea 3268     		ldr	r2, [r6]
1146:.\pdo.c       ****                           setODentry (d, (UNS16) ((*pMappingParameter) >> 16),
 880              		.loc 1 1146 0
 881 00ec 0093     		str	r3, [sp]
 882 00ee 0023     		movs	r3, #0
 883 00f0 0193     		str	r3, [sp, #4]
 884 00f2 0123     		movs	r3, #1
 885 00f4 0293     		str	r3, [sp, #8]
 886 00f6 3846     		mov	r0, r7
 887 00f8 110C     		lsrs	r1, r2, #16
 888 00fa C2F30722 		ubfx	r2, r2, #8, #8
 889 00fe 09AB     		add	r3, sp, #36
 890 0100 FFF7FEFF 		bl	_setODentry
 891              	.LVL111:
1151:.\pdo.c       ****                           {
 892              		.loc 1 1151 0
 893 0104 28B9     		cbnz	r0, .L53
1170:.\pdo.c       ****                       }
 894              		.loc 1 1170 0
 895 0106 C344     		add	fp, fp, r8
 896              	.LVL112:
 897 0108 5FFA8BFB 		uxtb	fp, fp
 898              	.LVL113:
 899              	.L54:
1172:.\pdo.c       ****                   }             /* end loop while on mapped variables */
 900              		.loc 1 1172 0
 901 010c 0134     		adds	r4, r4, #1
 902              	.LVL114:
 903 010e E4B2     		uxtb	r4, r4
 904              	.LVL115:
 905 0110 02E0     		b	.L52
 906              	.L53:
1125:.\pdo.c       ****                       }
 907              		.loc 1 1125 0 discriminator 1
 908 0112 FF23     		movs	r3, #255
 909 0114 0593     		str	r3, [sp, #20]
 910 0116 A0E0     		b	.L46
 911              	.LVL116:
 912              	.L52:
 913              	.LBE7:
1114:.\pdo.c       ****                   {
 914              		.loc 1 1114 0
 915 0118 99F80030 		ldrb	r3, [r9]	@ zero_extendqisi2
 916 011c A342     		cmp	r3, r4
 917 011e A8D8     		bhi	.L55
1174:.\pdo.c       ****                 {
 918              		.loc 1 1174 0
 919 0120 069D     		ldr	r5, [sp, #24]
 920 0122 002D     		cmp	r5, #0
 921 0124 00F09980 		beq	.L46
1174:.\pdo.c       ****                 {
 922              		.loc 1 1174 0 is_stmt 0 discriminator 1
 923 0128 FB68     		ldr	r3, [r7, #12]
 924 012a 002B     		cmp	r3, #0
 925 012c 00F09580 		beq	.L46
1176:.\pdo.c       ****                     d->RxPDO_EventTimers[numPdo] = SetAlarm (d, numPdo, d->RxPDO_EventTimers_Handle
ARM GAS  C:\Users\PANXIA~1\AppData\Local\Temp\cczfv69T.s 			page 45


 926              		.loc 1 1176 0 is_stmt 1
 927 0130 079E     		ldr	r6, [sp, #28]
 928 0132 33F91600 		ldrsh	r0, [r3, r6, lsl #1]
 929 0136 FFF7FEFF 		bl	DelAlarm
 930              	.LVL117:
1177:.\pdo.c       ****                     MS_TO_TIMEVAL (EventTimerDuration), 0);
 931              		.loc 1 1177 0
 932 013a FC68     		ldr	r4, [r7, #12]
 933              	.LVL118:
 934 013c 3A69     		ldr	r2, [r7, #16]
 935 013e 0023     		movs	r3, #0
 936 0140 0093     		str	r3, [sp]
 937 0142 3846     		mov	r0, r7
 938 0144 3146     		mov	r1, r6
 939 0146 2B46     		mov	r3, r5
 940 0148 FFF7FEFF 		bl	SetAlarm
 941              	.LVL119:
 942 014c 24F81600 		strh	r0, [r4, r6, lsl #1]	@ movhi
 943 0150 83E0     		b	.L46
 944              	.LVL120:
 945              	.L66:
 946 0152 0022     		movs	r2, #0
 947 0154 1146     		mov	r1, r2
 948              	.LVL121:
 949 0156 0692     		str	r2, [sp, #24]
 950 0158 0222     		movs	r2, #2
 951              	.LVL122:
 952              	.L47:
1072:.\pdo.c       ****           {
 953              		.loc 1 1072 0
 954 015a A342     		cmp	r3, r4
 955 015c 7FF662AF 		bls	.L56
 956 0160 7BE0     		b	.L46
 957              	.LVL123:
 958              	.L44:
1185:.\pdo.c       ****     {
 959              		.loc 1 1185 0
 960 0162 059B     		ldr	r3, [sp, #20]
 961 0164 012B     		cmp	r3, #1
 962 0166 73D1     		bne	.L67
 963              	.LVL124:
1189:.\pdo.c       ****       lastIndex = d->lastIndex->PDO_TRS;
 964              		.loc 1 1189 0
 965 0168 4369     		ldr	r3, [r0, #20]
 966 016a 1B89     		ldrh	r3, [r3, #8]
 967              	.LVL125:
1190:.\pdo.c       ****       if (offsetObjdict)
 968              		.loc 1 1190 0
 969 016c 8269     		ldr	r2, [r0, #24]
 970 016e 1089     		ldrh	r0, [r2, #8]
 971              	.LVL126:
1191:.\pdo.c       ****         while (offsetObjdict <= lastIndex)
 972              		.loc 1 1191 0
 973 0170 002B     		cmp	r3, #0
 974 0172 66D1     		bne	.L68
1289:.\pdo.c       **** }
 975              		.loc 1 1289 0
ARM GAS  C:\Users\PANXIA~1\AppData\Local\Temp\cczfv69T.s 			page 46


 976 0174 0593     		str	r3, [sp, #20]
 977 0176 70E0     		b	.L46
 978              	.LVL127:
 979              	.L65:
1196:.\pdo.c       ****               {
 980              		.loc 1 1196 0
 981 0178 042A     		cmp	r2, #4
 982 017a 11D0     		beq	.L59
 983 017c 052A     		cmp	r2, #5
 984 017e 4AD0     		beq	.L60
 985 0180 012A     		cmp	r2, #1
 986 0182 60D1     		bne	.L58
1203:.\pdo.c       ****                              offsetObjdict)->pSubindex[1].pObject;
 987              		.loc 1 1203 0
 988 0184 7968     		ldr	r1, [r7, #4]
1204:.\pdo.c       ****                 if (*pwCobId == UNS16_LE(m->cob_id))
 989              		.loc 1 1204 0
 990 0186 51F83310 		ldr	r1, [r1, r3, lsl #3]
1202:.\pdo.c       ****                    (d->objdict +
 991              		.loc 1 1202 0
 992 018a 4969     		ldr	r1, [r1, #20]
 993              	.LVL128:
1205:.\pdo.c       ****                   {
 994              		.loc 1 1205 0
 995 018c 0D68     		ldr	r5, [r1]
 996 018e 0499     		ldr	r1, [sp, #16]
 997              	.LVL129:
 998 0190 0988     		ldrh	r1, [r1]
 999 0192 8D42     		cmp	r5, r1
 1000 0194 4FD0     		beq	.L69
1212:.\pdo.c       ****                     offsetObjdict++;
 1001              		.loc 1 1212 0
 1002 0196 0134     		adds	r4, r4, #1
 1003              	.LVL130:
 1004 0198 E4B2     		uxtb	r4, r4
 1005              	.LVL131:
1213:.\pdo.c       ****                   }
 1006              		.loc 1 1213 0
 1007 019a 0133     		adds	r3, r3, #1
 1008              	.LVL132:
 1009 019c 9BB2     		uxth	r3, r3
 1010              	.LVL133:
1216:.\pdo.c       **** 
 1011              		.loc 1 1216 0
 1012 019e 52E0     		b	.L58
 1013              	.LVL134:
 1014              	.L59:
1221:.\pdo.c       ****                 /* If PDO is to be sampled and send on RTR, do it */
 1015              		.loc 1 1221 0
 1016 01a0 7A68     		ldr	r2, [r7, #4]
 1017              	.LVL135:
 1018 01a2 52F83320 		ldr	r2, [r2, r3, lsl #3]
1220:.\pdo.c       ****                   (UNS8 *) d->objdict[offsetObjdict].pSubindex[2].pObject;
 1019              		.loc 1 1220 0
 1020 01a6 126A     		ldr	r2, [r2, #32]
 1021              	.LVL136:
1223:.\pdo.c       ****                   {
ARM GAS  C:\Users\PANXIA~1\AppData\Local\Temp\cczfv69T.s 			page 47


 1022              		.loc 1 1223 0
 1023 01a8 1278     		ldrb	r2, [r2]	@ zero_extendqisi2
 1024              	.LVL137:
 1025 01aa FD2A     		cmp	r2, #253
 1026 01ac 45D0     		beq	.L70
1229:.\pdo.c       ****                   {
 1027              		.loc 1 1229 0
 1028 01ae FC2A     		cmp	r2, #252
 1029 01b0 10D1     		bne	.L63
1231:.\pdo.c       ****                         transmit_type_parameter & PDO_RTR_SYNC_READY)
 1030              		.loc 1 1231 0
 1031 01b2 BD68     		ldr	r5, [r7, #8]
 1032 01b4 04EBC402 		add	r2, r4, r4, lsl #3
 1033 01b8 5200     		lsls	r2, r2, #1
 1034 01ba A918     		adds	r1, r5, r2
 1035 01bc AA5C     		ldrb	r2, [r5, r2]	@ zero_extendqisi2
 1036 01be 12F0010F 		tst	r2, #1
 1037 01c2 3CD0     		beq	.L71
1235:.\pdo.c       ****                                  &d->PDO_status[numPdo].last_message);
 1038              		.loc 1 1235 0
 1039 01c4 D7F85001 		ldr	r0, [r7, #336]
 1040              	.LVL138:
 1041 01c8 0631     		adds	r1, r1, #6
 1042 01ca FFF7FEFF 		bl	canSend
 1043              	.LVL139:
1237:.\pdo.c       ****                       }
 1044              		.loc 1 1237 0
 1045 01ce 0023     		movs	r3, #0
 1046 01d0 0593     		str	r3, [sp, #20]
 1047 01d2 42E0     		b	.L46
 1048              	.LVL140:
 1049              	.L63:
1250:.\pdo.c       ****                          (*pTransmissionType == TRANS_EVENT_SPECIFIC))
 1050              		.loc 1 1250 0
 1051 01d4 931C     		adds	r3, r2, #2
 1052              	.LVL141:
 1053 01d6 DBB2     		uxtb	r3, r3
 1054 01d8 012B     		cmp	r3, #1
 1055 01da 3CD8     		bhi	.L72
1255:.\pdo.c       ****                     d->PDO_status[numPdo].inhibit_timer =
 1056              		.loc 1 1255 0
 1057 01dc BE68     		ldr	r6, [r7, #8]
 1058 01de 1225     		movs	r5, #18
 1059 01e0 05FB04F5 		mul	r5, r5, r4
 1060 01e4 2E44     		add	r6, r6, r5
 1061 01e6 B6F90200 		ldrsh	r0, [r6, #2]
 1062              	.LVL142:
 1063 01ea FFF7FEFF 		bl	DelAlarm
 1064              	.LVL143:
1254:.\pdo.c       ****                       DelAlarm (d->PDO_status[numPdo].event_timer);
 1065              		.loc 1 1254 0
 1066 01ee 7080     		strh	r0, [r6, #2]	@ movhi
1257:.\pdo.c       ****                     d->PDO_status[numPdo].transmit_type_parameter &=
 1067              		.loc 1 1257 0
 1068 01f0 BE68     		ldr	r6, [r7, #8]
 1069 01f2 2E44     		add	r6, r6, r5
 1070 01f4 B6F90400 		ldrsh	r0, [r6, #4]
ARM GAS  C:\Users\PANXIA~1\AppData\Local\Temp\cczfv69T.s 			page 48


 1071 01f8 FFF7FEFF 		bl	DelAlarm
 1072              	.LVL144:
1256:.\pdo.c       ****                       DelAlarm (d->PDO_status[numPdo].inhibit_timer);
 1073              		.loc 1 1256 0
 1074 01fc B080     		strh	r0, [r6, #4]	@ movhi
1258:.\pdo.c       ****                       ~PDO_INHIBITED;
 1075              		.loc 1 1258 0
 1076 01fe BA68     		ldr	r2, [r7, #8]
 1077 0200 535D     		ldrb	r3, [r2, r5]	@ zero_extendqisi2
 1078 0202 23F00103 		bic	r3, r3, #1
 1079 0206 5355     		strb	r3, [r2, r5]
1262:.\pdo.c       ****                     return 0;
 1080              		.loc 1 1262 0
 1081 0208 3846     		mov	r0, r7
 1082 020a 2146     		mov	r1, r4
 1083 020c FFF7FEFF 		bl	PDOEventTimerAlarm
 1084              	.LVL145:
1263:.\pdo.c       ****                   }
 1085              		.loc 1 1263 0
 1086 0210 0023     		movs	r3, #0
 1087 0212 0593     		str	r3, [sp, #20]
 1088 0214 21E0     		b	.L46
 1089              	.LVL146:
 1090              	.L60:
 1091              	.LBB8:
1277:.\pdo.c       ****                     {
 1092              		.loc 1 1277 0
 1093 0216 3846     		mov	r0, r7
 1094              	.LVL147:
 1095 0218 2146     		mov	r1, r4
 1096 021a 09AA     		add	r2, sp, #36
 1097              	.LVL148:
 1098 021c FFF7FEFF 		bl	buildPDO
 1099              	.LVL149:
 1100 0220 0590     		str	r0, [sp, #20]
 1101 0222 28B9     		cbnz	r0, .L73
1282:.\pdo.c       ****                   return 0;
 1102              		.loc 1 1282 0
 1103 0224 D7F85001 		ldr	r0, [r7, #336]
 1104 0228 09A9     		add	r1, sp, #36
 1105 022a FFF7FEFF 		bl	canSend
 1106              	.LVL150:
1283:.\pdo.c       ****                 }
 1107              		.loc 1 1283 0
 1108 022e 14E0     		b	.L46
 1109              	.L73:
1280:.\pdo.c       ****                     }
 1110              		.loc 1 1280 0
 1111 0230 FF23     		movs	r3, #255
 1112 0232 0593     		str	r3, [sp, #20]
 1113 0234 11E0     		b	.L46
 1114              	.LVL151:
 1115              	.L69:
 1116              	.LBE8:
1207:.\pdo.c       ****                     break;
 1117              		.loc 1 1207 0
 1118 0236 0422     		movs	r2, #4
ARM GAS  C:\Users\PANXIA~1\AppData\Local\Temp\cczfv69T.s 			page 49


 1119              	.LVL152:
 1120 0238 05E0     		b	.L58
 1121              	.LVL153:
 1122              	.L70:
1225:.\pdo.c       ****                     break;
 1123              		.loc 1 1225 0
 1124 023a 0522     		movs	r2, #5
 1125 023c 03E0     		b	.L58
 1126              	.L71:
1246:.\pdo.c       ****                       }
 1127              		.loc 1 1246 0
 1128 023e 0522     		movs	r2, #5
 1129 0240 01E0     		b	.L58
 1130              	.LVL154:
 1131              	.L68:
 1132 0242 0122     		movs	r2, #1
 1133 0244 0024     		movs	r4, #0
 1134              	.LVL155:
 1135              	.L58:
1192:.\pdo.c       ****           {
 1136              		.loc 1 1192 0
 1137 0246 8342     		cmp	r3, r0
 1138 0248 96D9     		bls	.L65
1289:.\pdo.c       **** }
 1139              		.loc 1 1289 0
 1140 024a 0023     		movs	r3, #0
 1141              	.LVL156:
 1142 024c 0593     		str	r3, [sp, #20]
 1143 024e 04E0     		b	.L46
 1144              	.LVL157:
 1145              	.L67:
 1146 0250 0023     		movs	r3, #0
 1147 0252 0593     		str	r3, [sp, #20]
 1148 0254 01E0     		b	.L46
 1149              	.LVL158:
 1150              	.L72:
1271:.\pdo.c       ****                   }
 1151              		.loc 1 1271 0
 1152 0256 FF23     		movs	r3, #255
 1153 0258 0593     		str	r3, [sp, #20]
 1154              	.LVL159:
 1155              	.L46:
1290:.\pdo.c       **** 
 1156              		.loc 1 1290 0 discriminator 1
 1157 025a 0598     		ldr	r0, [sp, #20]
 1158 025c 0DB0     		add	sp, sp, #52
 1159              		.cfi_def_cfa_offset 36
 1160              		@ sp needed
 1161 025e BDE8F08F 		pop	{r4, r5, r6, r7, r8, r9, r10, fp, pc}
 1162              		.cfi_endproc
 1163              	.LFE2:
 1164              		.size	proceedPDO, .-proceedPDO
 1165 0262 00BF     		.section	.text.TPDO_Communication_Parameter_Callback,"ax",%progbits
 1166              		.align	2
 1167              		.global	TPDO_Communication_Parameter_Callback
 1168              		.thumb
 1169              		.thumb_func
ARM GAS  C:\Users\PANXIA~1\AppData\Local\Temp\cczfv69T.s 			page 50


 1170              		.type	TPDO_Communication_Parameter_Callback, %function
 1171              	TPDO_Communication_Parameter_Callback:
 1172              	.LFB11:
1468:.\pdo.c       **** }
1469:.\pdo.c       **** 
1470:.\pdo.c       **** void
1471:.\pdo.c       **** PDOInhibitTimerAlarm (CO_Data * d, UNS32 pdoNum)
1472:.\pdo.c       **** {
1473:.\pdo.c       ****   /* This is needed to avoid deletion of re-attribuated timer */
1474:.\pdo.c       ****   d->PDO_status[pdoNum].inhibit_timer = TIMER_NONE;
1475:.\pdo.c       ****   /* Remove inhibit flag */
1476:.\pdo.c       ****   d->PDO_status[pdoNum].transmit_type_parameter &= ~PDO_INHIBITED;
1477:.\pdo.c       ****   sendOnePDOevent (d, (UNS8) pdoNum);
1478:.\pdo.c       **** }
1479:.\pdo.c       **** 
1480:.\pdo.c       **** void
1481:.\pdo.c       **** _RxPDO_EventTimers_Handler(CO_Data *d, UNS32 pdoNum)
1482:.\pdo.c       **** {
1483:.\pdo.c       **** }
1484:.\pdo.c       **** 
1485:.\pdo.c       **** /*!
1486:.\pdo.c       **** **
1487:.\pdo.c       **** **
1488:.\pdo.c       **** ** @param d
1489:.\pdo.c       **** ** @param isSyncEvent
1490:.\pdo.c       **** **
1491:.\pdo.c       **** ** @return
1492:.\pdo.c       **** **/
1493:.\pdo.c       **** 
1494:.\pdo.c       **** UNS8
1495:.\pdo.c       **** _sendPDOevent (CO_Data * d, UNS8 isSyncEvent)
1496:.\pdo.c       **** {
1497:.\pdo.c       ****   UNS8 pdoNum = 0x00;           /* number of the actual processed pdo-nr. */
1498:.\pdo.c       ****   UNS8 *pTransmissionType = NULL;
1499:.\pdo.c       ****   UNS8 status = state3;
1500:.\pdo.c       ****   UNS16 offsetObjdict = d->firstIndex->PDO_TRS;
1501:.\pdo.c       ****   UNS16 offsetObjdictMap = d->firstIndex->PDO_TRS_MAP;
1502:.\pdo.c       ****   UNS16 lastIndex = d->lastIndex->PDO_TRS;
1503:.\pdo.c       **** 
1504:.\pdo.c       ****   if (!d->CurrentCommunicationState.csPDO)
1505:.\pdo.c       ****     {
1506:.\pdo.c       ****       return 0;
1507:.\pdo.c       ****     }
1508:.\pdo.c       **** 
1509:.\pdo.c       **** 
1510:.\pdo.c       ****   /* study all PDO stored in the objects dictionary */
1511:.\pdo.c       ****   if (offsetObjdict)
1512:.\pdo.c       ****     {
1513:.\pdo.c       ****       Message pdo;/* = Message_Initializer;*/
1514:.\pdo.c       ****       memset(&pdo, 0, sizeof(pdo));
1515:.\pdo.c       ****       while (offsetObjdict <= lastIndex)
1516:.\pdo.c       ****         {
1517:.\pdo.c       ****           switch (status)
1518:.\pdo.c       ****             {
1519:.\pdo.c       ****             case state3:
1520:.\pdo.c       ****               if ( /* bSubCount always 5 with objdictedit -> check disabled */
1521:.\pdo.c       ****                    /*d->objdict[offsetObjdict].bSubCount < 5 ||*/
ARM GAS  C:\Users\PANXIA~1\AppData\Local\Temp\cczfv69T.s 			page 51


1522:.\pdo.c       ****                    /* check if TPDO is not valid */
1523:.\pdo.c       ****                    *(UNS32 *) d->objdict[offsetObjdict].pSubindex[1].
1524:.\pdo.c       ****                    pObject & 0x80000000)
1525:.\pdo.c       ****                 {
1526:.\pdo.c       ****                   MSG_WAR (0x3960, "Not a valid PDO ", 0x1800 + pdoNum);
1527:.\pdo.c       ****                   /*Go next TPDO */
1528:.\pdo.c       ****                   status = state11;
1529:.\pdo.c       ****                   break;
1530:.\pdo.c       ****                 }
1531:.\pdo.c       ****               /* get the PDO transmission type */
1532:.\pdo.c       ****               pTransmissionType =
1533:.\pdo.c       ****                 (UNS8 *) d->objdict[offsetObjdict].pSubindex[2].pObject;
1534:.\pdo.c       ****               MSG_WAR (0x3962, "Reading PDO at index : ", 0x1800 + pdoNum);
1535:.\pdo.c       **** 
1536:.\pdo.c       ****               /* check if transmission type is SYNCRONOUS */
1537:.\pdo.c       ****               /* message transmited every n SYNC with n=TransmissionType */
1538:.\pdo.c       ****               if (isSyncEvent &&
1539:.\pdo.c       ****                   (*pTransmissionType >= TRANS_SYNC_MIN) &&
1540:.\pdo.c       ****                   (*pTransmissionType <= TRANS_SYNC_MAX) &&
1541:.\pdo.c       ****                   (++d->PDO_status[pdoNum].transmit_type_parameter ==
1542:.\pdo.c       ****                    *pTransmissionType))
1543:.\pdo.c       ****                 {
1544:.\pdo.c       ****                   /*Reset count of SYNC */
1545:.\pdo.c       ****                   d->PDO_status[pdoNum].transmit_type_parameter = 0;
1546:.\pdo.c       ****                   MSG_WAR (0x3964, "  PDO is on SYNCHRO. Trans type : ",
1547:.\pdo.c       ****                            *pTransmissionType);
1548:.\pdo.c       ****                   memset(&pdo, 0, sizeof(pdo));
1549:.\pdo.c       ****                   /*{
1550:.\pdo.c       ****                     Message msg_init = Message_Initializer;
1551:.\pdo.c       ****                     pdo = msg_init;
1552:.\pdo.c       ****                   }*/
1553:.\pdo.c       ****                   if (buildPDO (d, pdoNum, &pdo))
1554:.\pdo.c       ****                     {
1555:.\pdo.c       ****                       MSG_ERR (0x1906, " Couldn't build TPDO number : ",
1556:.\pdo.c       ****                                pdoNum);
1557:.\pdo.c       ****                       status = state11;
1558:.\pdo.c       ****                       break;
1559:.\pdo.c       ****                     }
1560:.\pdo.c       ****                   status = state5;
1561:.\pdo.c       ****                   /* If transmission RTR, with data sampled on SYNC */
1562:.\pdo.c       ****                 }
1563:.\pdo.c       ****               else if (isSyncEvent && (*pTransmissionType == TRANS_RTR_SYNC))
1564:.\pdo.c       ****                 {
1565:.\pdo.c       ****                   if (buildPDO
1566:.\pdo.c       ****                       (d, pdoNum, &d->PDO_status[pdoNum].last_message))
1567:.\pdo.c       ****                     {
1568:.\pdo.c       ****                       MSG_ERR (0x1966, " Couldn't build TPDO number : ",
1569:.\pdo.c       ****                                pdoNum);
1570:.\pdo.c       ****                       d->PDO_status[pdoNum].transmit_type_parameter &=
1571:.\pdo.c       ****                         ~PDO_RTR_SYNC_READY;
1572:.\pdo.c       ****                     }
1573:.\pdo.c       ****                   else
1574:.\pdo.c       ****                     {
1575:.\pdo.c       ****                       d->PDO_status[pdoNum].transmit_type_parameter |=
1576:.\pdo.c       ****                         PDO_RTR_SYNC_READY;
1577:.\pdo.c       ****                     }
1578:.\pdo.c       ****                   status = state11;
ARM GAS  C:\Users\PANXIA~1\AppData\Local\Temp\cczfv69T.s 			page 52


1579:.\pdo.c       ****                   break;
1580:.\pdo.c       ****                   /* If transmission on Event and not inhibited, check for changes */
1581:.\pdo.c       ****                 }
1582:.\pdo.c       ****               else
1583:.\pdo.c       ****                 if ( (isSyncEvent && (*pTransmissionType == TRANS_SYNC_ACYCLIC))
1584:.\pdo.c       ****                      ||
1585:.\pdo.c       ****                      (!isSyncEvent && (*pTransmissionType == TRANS_EVENT_PROFILE || *pTransmissionT
1586:.\pdo.c       ****                        && !(d->PDO_status[pdoNum].transmit_type_parameter & PDO_INHIBITED)))
1587:.\pdo.c       ****                 {
1588:.\pdo.c       ****                   sendOnePDOevent(d, pdoNum);
1589:.\pdo.c       ****                   status = state11;
1590:.\pdo.c       ****                 }
1591:.\pdo.c       ****               else
1592:.\pdo.c       ****                 {
1593:.\pdo.c       ****                   MSG_WAR (0x306C,
1594:.\pdo.c       ****                            "  PDO is not on EVENT or synchro or not at this SYNC. Trans type : ",
1595:.\pdo.c       ****                            *pTransmissionType);
1596:.\pdo.c       ****                   status = state11;
1597:.\pdo.c       ****                 }
1598:.\pdo.c       ****               break;
1599:.\pdo.c       ****             case state5:       /*Send the pdo */
1600:.\pdo.c       ****               sendPdo(d, pdoNum, &pdo);
1601:.\pdo.c       ****               status = state11;
1602:.\pdo.c       ****               break;
1603:.\pdo.c       ****             case state11:      /*Go to next TPDO */
1604:.\pdo.c       ****               pdoNum++;
1605:.\pdo.c       ****               offsetObjdict++;
1606:.\pdo.c       ****               offsetObjdictMap++;
1607:.\pdo.c       ****               MSG_WAR (0x3970, "next pdo index : ", pdoNum);
1608:.\pdo.c       ****               status = state3;
1609:.\pdo.c       ****               break;
1610:.\pdo.c       **** 
1611:.\pdo.c       ****             default:
1612:.\pdo.c       ****               MSG_ERR (0x1972, "Unknown state has been reached :", status);
1613:.\pdo.c       ****               return 0xFF;
1614:.\pdo.c       ****             }                   /* end switch case */
1615:.\pdo.c       **** 
1616:.\pdo.c       ****         }                       /* end while */
1617:.\pdo.c       ****     }
1618:.\pdo.c       ****   return 0;
1619:.\pdo.c       **** }
1620:.\pdo.c       **** 
1621:.\pdo.c       **** /*!
1622:.\pdo.c       **** **
1623:.\pdo.c       **** **
1624:.\pdo.c       **** ** @param d
1625:.\pdo.c       **** ** @param OD_entry
1626:.\pdo.c       **** ** @param bSubindex
1627:.\pdo.c       **** ** @return always 0
1628:.\pdo.c       **** **/
1629:.\pdo.c       **** 
1630:.\pdo.c       **** UNS32
1631:.\pdo.c       **** TPDO_Communication_Parameter_Callback (CO_Data * d,
1632:.\pdo.c       ****                                        const indextable * OD_entry,
1633:.\pdo.c       ****                                        UNS8 bSubindex)
1634:.\pdo.c       **** {
 1173              		.loc 1 1634 0
ARM GAS  C:\Users\PANXIA~1\AppData\Local\Temp\cczfv69T.s 			page 53


 1174              		.cfi_startproc
 1175              		@ args = 0, pretend = 0, frame = 0
 1176              		@ frame_needed = 0, uses_anonymous_args = 0
 1177              	.LVL160:
 1178 0000 F8B5     		push	{r3, r4, r5, r6, r7, lr}
 1179              		.cfi_def_cfa_offset 24
 1180              		.cfi_offset 3, -24
 1181              		.cfi_offset 4, -20
 1182              		.cfi_offset 5, -16
 1183              		.cfi_offset 6, -12
 1184              		.cfi_offset 7, -8
 1185              		.cfi_offset 14, -4
1635:.\pdo.c       ****   /* If PDO are actives */
1636:.\pdo.c       ****   if (d->CurrentCommunicationState.csPDO)
 1186              		.loc 1 1636 0
 1187 0002 90F87E30 		ldrb	r3, [r0, #126]	@ zero_extendqisi2
 1188 0006 33B3     		cbz	r3, .L76
1637:.\pdo.c       ****     switch (bSubindex)
 1189              		.loc 1 1637 0
 1190 0008 022A     		cmp	r2, #2
 1191 000a 24D3     		bcc	.L76
 1192 000c 032A     		cmp	r2, #3
 1193 000e 01D9     		bls	.L77
 1194 0010 052A     		cmp	r2, #5
 1195 0012 20D1     		bne	.L76
 1196              	.L77:
 1197 0014 0446     		mov	r4, r0
 1198              	.LBB9:
1638:.\pdo.c       ****       {
1639:.\pdo.c       ****       case 2:                  /* Changed transmition type */
1640:.\pdo.c       ****       case 3:                  /* Changed inhibit time */
1641:.\pdo.c       ****       case 5:                  /* Changed event time */
1642:.\pdo.c       ****         {
1643:.\pdo.c       ****           const indextable *TPDO_com = d->objdict + d->firstIndex->PDO_TRS;
 1199              		.loc 1 1643 0
 1200 0016 4368     		ldr	r3, [r0, #4]
 1201 0018 4269     		ldr	r2, [r0, #20]
 1202              	.LVL161:
 1203 001a 1589     		ldrh	r5, [r2, #8]
 1204 001c 03EBC505 		add	r5, r3, r5, lsl #3
 1205              	.LVL162:
1644:.\pdo.c       ****           UNS8 numPdo = (UNS8) (OD_entry - TPDO_com);    /* number of the actual processed pdo-nr. 
 1206              		.loc 1 1644 0
 1207 0020 4D1B     		subs	r5, r1, r5
 1208              	.LVL163:
1645:.\pdo.c       **** 
1646:.\pdo.c       ****           /* Zap all timers and inhibit flag */
1647:.\pdo.c       ****           d->PDO_status[numPdo].event_timer =
1648:.\pdo.c       ****             DelAlarm (d->PDO_status[numPdo].event_timer);
 1209              		.loc 1 1648 0
 1210 0022 8768     		ldr	r7, [r0, #8]
 1211 0024 C5F3C705 		ubfx	r5, r5, #3, #8
 1212              	.LVL164:
 1213 0028 05EBC506 		add	r6, r5, r5, lsl #3
 1214 002c 7600     		lsls	r6, r6, #1
 1215 002e 3744     		add	r7, r7, r6
 1216 0030 B7F90200 		ldrsh	r0, [r7, #2]
ARM GAS  C:\Users\PANXIA~1\AppData\Local\Temp\cczfv69T.s 			page 54


 1217              	.LVL165:
 1218 0034 FFF7FEFF 		bl	DelAlarm
 1219              	.LVL166:
1647:.\pdo.c       ****             DelAlarm (d->PDO_status[numPdo].event_timer);
 1220              		.loc 1 1647 0
 1221 0038 7880     		strh	r0, [r7, #2]	@ movhi
1649:.\pdo.c       ****           d->PDO_status[numPdo].inhibit_timer =
1650:.\pdo.c       ****             DelAlarm (d->PDO_status[numPdo].inhibit_timer);
 1222              		.loc 1 1650 0
 1223 003a A768     		ldr	r7, [r4, #8]
 1224 003c 3744     		add	r7, r7, r6
 1225 003e B7F90400 		ldrsh	r0, [r7, #4]
 1226 0042 FFF7FEFF 		bl	DelAlarm
 1227              	.LVL167:
1649:.\pdo.c       ****           d->PDO_status[numPdo].inhibit_timer =
 1228              		.loc 1 1649 0
 1229 0046 B880     		strh	r0, [r7, #4]	@ movhi
1651:.\pdo.c       ****           d->PDO_status[numPdo].transmit_type_parameter = 0;
 1230              		.loc 1 1651 0
 1231 0048 A368     		ldr	r3, [r4, #8]
 1232 004a 0022     		movs	r2, #0
 1233 004c 9A55     		strb	r2, [r3, r6]
1652:.\pdo.c       ****           /* Call  PDOEventTimerAlarm for this TPDO, this will trigger emission et reset timers */
1653:.\pdo.c       ****           PDOEventTimerAlarm (d, numPdo);
 1234              		.loc 1 1653 0
 1235 004e 2046     		mov	r0, r4
 1236 0050 2946     		mov	r1, r5
 1237 0052 FFF7FEFF 		bl	PDOEventTimerAlarm
 1238              	.LVL168:
 1239              	.L76:
 1240              	.LBE9:
1654:.\pdo.c       ****           return 0;
1655:.\pdo.c       ****         }
1656:.\pdo.c       **** 
1657:.\pdo.c       ****       default:                 /* other subindex are ignored */
1658:.\pdo.c       ****         break;
1659:.\pdo.c       ****       }
1660:.\pdo.c       ****   return 0;
1661:.\pdo.c       **** }
 1241              		.loc 1 1661 0
 1242 0056 0020     		movs	r0, #0
 1243 0058 F8BD     		pop	{r3, r4, r5, r6, r7, pc}
 1244              		.cfi_endproc
 1245              	.LFE11:
 1246              		.size	TPDO_Communication_Parameter_Callback, .-TPDO_Communication_Parameter_Callback
 1247 005a 00BF     		.section	.text.PDOInhibitTimerAlarm,"ax",%progbits
 1248              		.align	2
 1249              		.global	PDOInhibitTimerAlarm
 1250              		.thumb
 1251              		.thumb_func
 1252              		.type	PDOInhibitTimerAlarm, %function
 1253              	PDOInhibitTimerAlarm:
 1254              	.LFB8:
1472:.\pdo.c       ****   /* This is needed to avoid deletion of re-attribuated timer */
 1255              		.loc 1 1472 0
 1256              		.cfi_startproc
 1257              		@ args = 0, pretend = 0, frame = 0
ARM GAS  C:\Users\PANXIA~1\AppData\Local\Temp\cczfv69T.s 			page 55


 1258              		@ frame_needed = 0, uses_anonymous_args = 0
 1259              	.LVL169:
 1260 0000 38B5     		push	{r3, r4, r5, lr}
 1261              		.cfi_def_cfa_offset 16
 1262              		.cfi_offset 3, -16
 1263              		.cfi_offset 4, -12
 1264              		.cfi_offset 5, -8
 1265              		.cfi_offset 14, -4
1474:.\pdo.c       ****   /* Remove inhibit flag */
 1266              		.loc 1 1474 0
 1267 0002 8268     		ldr	r2, [r0, #8]
 1268 0004 01EBC103 		add	r3, r1, r1, lsl #3
 1269 0008 5B00     		lsls	r3, r3, #1
 1270 000a 1A44     		add	r2, r2, r3
 1271 000c 4FF6FF75 		movw	r5, #65535
 1272 0010 9580     		strh	r5, [r2, #4]	@ movhi
1476:.\pdo.c       ****   sendOnePDOevent (d, (UNS8) pdoNum);
 1273              		.loc 1 1476 0
 1274 0012 8468     		ldr	r4, [r0, #8]
 1275 0014 E25C     		ldrb	r2, [r4, r3]	@ zero_extendqisi2
 1276 0016 22F00102 		bic	r2, r2, #1
 1277 001a E254     		strb	r2, [r4, r3]
1477:.\pdo.c       **** }
 1278              		.loc 1 1477 0
 1279 001c C9B2     		uxtb	r1, r1
 1280              	.LVL170:
 1281 001e FFF7FEFF 		bl	sendOnePDOevent
 1282              	.LVL171:
 1283 0022 38BD     		pop	{r3, r4, r5, pc}
 1284              		.cfi_endproc
 1285              	.LFE8:
 1286              		.size	PDOInhibitTimerAlarm, .-PDOInhibitTimerAlarm
 1287              		.section	.text._RxPDO_EventTimers_Handler,"ax",%progbits
 1288              		.align	2
 1289              		.global	_RxPDO_EventTimers_Handler
 1290              		.thumb
 1291              		.thumb_func
 1292              		.type	_RxPDO_EventTimers_Handler, %function
 1293              	_RxPDO_EventTimers_Handler:
 1294              	.LFB9:
1482:.\pdo.c       **** }
 1295              		.loc 1 1482 0
 1296              		.cfi_startproc
 1297              		@ args = 0, pretend = 0, frame = 0
 1298              		@ frame_needed = 0, uses_anonymous_args = 0
 1299              		@ link register save eliminated.
 1300              	.LVL172:
 1301 0000 7047     		bx	lr
 1302              		.cfi_endproc
 1303              	.LFE9:
 1304              		.size	_RxPDO_EventTimers_Handler, .-_RxPDO_EventTimers_Handler
 1305 0002 00BF     		.section	.text._sendPDOevent,"ax",%progbits
 1306              		.align	2
 1307              		.global	_sendPDOevent
 1308              		.thumb
 1309              		.thumb_func
 1310              		.type	_sendPDOevent, %function
ARM GAS  C:\Users\PANXIA~1\AppData\Local\Temp\cczfv69T.s 			page 56


 1311              	_sendPDOevent:
 1312              	.LFB10:
1496:.\pdo.c       ****   UNS8 pdoNum = 0x00;           /* number of the actual processed pdo-nr. */
 1313              		.loc 1 1496 0
 1314              		.cfi_startproc
 1315              		@ args = 0, pretend = 0, frame = 16
 1316              		@ frame_needed = 0, uses_anonymous_args = 0
 1317              	.LVL173:
1496:.\pdo.c       ****   UNS8 pdoNum = 0x00;           /* number of the actual processed pdo-nr. */
 1318              		.loc 1 1496 0
 1319 0000 2DE9F043 		push	{r4, r5, r6, r7, r8, r9, lr}
 1320              		.cfi_def_cfa_offset 28
 1321              		.cfi_offset 4, -28
 1322              		.cfi_offset 5, -24
 1323              		.cfi_offset 6, -20
 1324              		.cfi_offset 7, -16
 1325              		.cfi_offset 8, -12
 1326              		.cfi_offset 9, -8
 1327              		.cfi_offset 14, -4
 1328 0004 85B0     		sub	sp, sp, #20
 1329              		.cfi_def_cfa_offset 48
 1330              	.LVL174:
1500:.\pdo.c       ****   UNS16 offsetObjdictMap = d->firstIndex->PDO_TRS_MAP;
 1331              		.loc 1 1500 0
 1332 0006 4369     		ldr	r3, [r0, #20]
 1333 0008 1D89     		ldrh	r5, [r3, #8]
 1334              	.LVL175:
1502:.\pdo.c       **** 
 1335              		.loc 1 1502 0
 1336 000a 8369     		ldr	r3, [r0, #24]
 1337              	.LVL176:
 1338 000c 1E89     		ldrh	r6, [r3, #8]
 1339              	.LVL177:
1504:.\pdo.c       ****     {
 1340              		.loc 1 1504 0
 1341 000e 90F87E30 		ldrb	r3, [r0, #126]	@ zero_extendqisi2
 1342 0012 002B     		cmp	r3, #0
 1343 0014 00F09880 		beq	.L96
1511:.\pdo.c       ****     {
 1344              		.loc 1 1511 0
 1345 0018 002D     		cmp	r5, #0
 1346 001a 00F09780 		beq	.L97
 1347 001e 8846     		mov	r8, r1
 1348 0020 0446     		mov	r4, r0
 1349              	.LBB10:
1514:.\pdo.c       ****       while (offsetObjdict <= lastIndex)
 1350              		.loc 1 1514 0
 1351 0022 0021     		movs	r1, #0
 1352              	.LVL178:
 1353 0024 0191     		str	r1, [sp, #4]
 1354              	.LVL179:
 1355 0026 0291     		str	r1, [sp, #8]
 1356 0028 0391     		str	r1, [sp, #12]
 1357              	.LBE10:
1499:.\pdo.c       ****   UNS16 offsetObjdict = d->firstIndex->PDO_TRS;
 1358              		.loc 1 1499 0
 1359 002a 0323     		movs	r3, #3
ARM GAS  C:\Users\PANXIA~1\AppData\Local\Temp\cczfv69T.s 			page 57


1497:.\pdo.c       ****   UNS8 *pTransmissionType = NULL;
 1360              		.loc 1 1497 0
 1361 002c 0F46     		mov	r7, r1
 1362              	.LBB11:
1515:.\pdo.c       ****         {
 1363              		.loc 1 1515 0
 1364 002e 86E0     		b	.L84
 1365              	.LVL180:
 1366              	.L95:
1517:.\pdo.c       ****             {
 1367              		.loc 1 1517 0
 1368 0030 052B     		cmp	r3, #5
 1369 0032 6CD0     		beq	.L86
 1370 0034 0B2B     		cmp	r3, #11
 1371 0036 71D0     		beq	.L87
 1372 0038 032B     		cmp	r3, #3
 1373 003a 75D1     		bne	.L103
1523:.\pdo.c       ****                    pObject & 0x80000000)
 1374              		.loc 1 1523 0
 1375 003c 6368     		ldr	r3, [r4, #4]
 1376              	.LVL181:
 1377 003e 53F83530 		ldr	r3, [r3, r5, lsl #3]
 1378 0042 5A69     		ldr	r2, [r3, #20]
 1379 0044 1268     		ldr	r2, [r2]
1520:.\pdo.c       ****                    /*d->objdict[offsetObjdict].bSubCount < 5 ||*/
 1380              		.loc 1 1520 0
 1381 0046 002A     		cmp	r2, #0
 1382 0048 70DB     		blt	.L98
1532:.\pdo.c       ****                 (UNS8 *) d->objdict[offsetObjdict].pSubindex[2].pObject;
 1383              		.loc 1 1532 0
 1384 004a 1B6A     		ldr	r3, [r3, #32]
 1385              	.LVL182:
1538:.\pdo.c       ****                   (*pTransmissionType >= TRANS_SYNC_MIN) &&
 1386              		.loc 1 1538 0
 1387 004c B8F1000F 		cmp	r8, #0
 1388 0050 1DD0     		beq	.L90
1539:.\pdo.c       ****                   (*pTransmissionType <= TRANS_SYNC_MAX) &&
 1389              		.loc 1 1539 0 discriminator 1
 1390 0052 1A78     		ldrb	r2, [r3]	@ zero_extendqisi2
1538:.\pdo.c       ****                   (*pTransmissionType >= TRANS_SYNC_MIN) &&
 1391              		.loc 1 1538 0 discriminator 1
 1392 0054 DAB1     		cbz	r2, .L90
1539:.\pdo.c       ****                   (*pTransmissionType <= TRANS_SYNC_MAX) &&
 1393              		.loc 1 1539 0
 1394 0056 F02A     		cmp	r2, #240
 1395 0058 19D8     		bhi	.L90
1541:.\pdo.c       ****                    *pTransmissionType))
 1396              		.loc 1 1541 0
 1397 005a A068     		ldr	r0, [r4, #8]
 1398 005c 07EBC701 		add	r1, r7, r7, lsl #3
 1399 0060 4900     		lsls	r1, r1, #1
 1400 0062 425C     		ldrb	r2, [r0, r1]	@ zero_extendqisi2
 1401 0064 0132     		adds	r2, r2, #1
 1402 0066 D2B2     		uxtb	r2, r2
1540:.\pdo.c       ****                   (++d->PDO_status[pdoNum].transmit_type_parameter ==
 1403              		.loc 1 1540 0
 1404 0068 4254     		strb	r2, [r0, r1]
ARM GAS  C:\Users\PANXIA~1\AppData\Local\Temp\cczfv69T.s 			page 58


1542:.\pdo.c       ****                 {
 1405              		.loc 1 1542 0
 1406 006a 1878     		ldrb	r0, [r3]	@ zero_extendqisi2
1540:.\pdo.c       ****                   (++d->PDO_status[pdoNum].transmit_type_parameter ==
 1407              		.loc 1 1540 0
 1408 006c 8242     		cmp	r2, r0
 1409 006e 0ED1     		bne	.L90
1545:.\pdo.c       ****                   MSG_WAR (0x3964, "  PDO is on SYNCHRO. Trans type : ",
 1410              		.loc 1 1545 0
 1411 0070 A268     		ldr	r2, [r4, #8]
 1412 0072 0023     		movs	r3, #0
 1413              	.LVL183:
 1414 0074 5354     		strb	r3, [r2, r1]
1548:.\pdo.c       ****                   /*{
 1415              		.loc 1 1548 0
 1416 0076 0193     		str	r3, [sp, #4]
 1417 0078 0293     		str	r3, [sp, #8]
 1418 007a 0393     		str	r3, [sp, #12]
1553:.\pdo.c       ****                     {
 1419              		.loc 1 1553 0
 1420 007c 2046     		mov	r0, r4
 1421 007e 3946     		mov	r1, r7
 1422 0080 01AA     		add	r2, sp, #4
 1423 0082 FFF7FEFF 		bl	buildPDO
 1424              	.LVL184:
 1425 0086 0028     		cmp	r0, #0
 1426 0088 52D0     		beq	.L99
1557:.\pdo.c       ****                       break;
 1427              		.loc 1 1557 0
 1428 008a 0B23     		movs	r3, #11
 1429 008c 57E0     		b	.L84
 1430              	.LVL185:
 1431              	.L90:
1563:.\pdo.c       ****                 {
 1432              		.loc 1 1563 0
 1433 008e B8F1000F 		cmp	r8, #0
 1434 0092 21D0     		beq	.L91
1563:.\pdo.c       ****                 {
 1435              		.loc 1 1563 0 is_stmt 0 discriminator 1
 1436 0094 1A78     		ldrb	r2, [r3]	@ zero_extendqisi2
 1437 0096 FC2A     		cmp	r2, #252
 1438 0098 1ED1     		bne	.L91
1566:.\pdo.c       ****                     {
 1439              		.loc 1 1566 0 is_stmt 1
 1440 009a A368     		ldr	r3, [r4, #8]
 1441              	.LVL186:
 1442 009c 07EBC709 		add	r9, r7, r7, lsl #3
 1443 00a0 4FEA4909 		lsl	r9, r9, #1
 1444 00a4 03EB0902 		add	r2, r3, r9
1565:.\pdo.c       ****                       (d, pdoNum, &d->PDO_status[pdoNum].last_message))
 1445              		.loc 1 1565 0
 1446 00a8 2046     		mov	r0, r4
 1447 00aa 3946     		mov	r1, r7
 1448 00ac 0632     		adds	r2, r2, #6
 1449 00ae FFF7FEFF 		bl	buildPDO
 1450              	.LVL187:
 1451 00b2 40B1     		cbz	r0, .L92
ARM GAS  C:\Users\PANXIA~1\AppData\Local\Temp\cczfv69T.s 			page 59


1570:.\pdo.c       ****                         ~PDO_RTR_SYNC_READY;
 1452              		.loc 1 1570 0
 1453 00b4 A268     		ldr	r2, [r4, #8]
 1454 00b6 12F80930 		ldrb	r3, [r2, r9]	@ zero_extendqisi2
 1455 00ba 23F00103 		bic	r3, r3, #1
 1456 00be 02F80930 		strb	r3, [r2, r9]
1578:.\pdo.c       ****                   break;
 1457              		.loc 1 1578 0
 1458 00c2 0B23     		movs	r3, #11
 1459 00c4 3BE0     		b	.L84
 1460              	.L92:
1575:.\pdo.c       ****                         PDO_RTR_SYNC_READY;
 1461              		.loc 1 1575 0
 1462 00c6 A268     		ldr	r2, [r4, #8]
 1463 00c8 12F80930 		ldrb	r3, [r2, r9]	@ zero_extendqisi2
 1464 00cc 43F00103 		orr	r3, r3, #1
 1465 00d0 02F80930 		strb	r3, [r2, r9]
1578:.\pdo.c       ****                   break;
 1466              		.loc 1 1578 0
 1467 00d4 0B23     		movs	r3, #11
 1468 00d6 32E0     		b	.L84
 1469              	.LVL188:
 1470              	.L91:
1583:.\pdo.c       ****                      ||
 1471              		.loc 1 1583 0
 1472 00d8 B8F1000F 		cmp	r8, #0
 1473 00dc 01D0     		beq	.L93
1583:.\pdo.c       ****                      ||
 1474              		.loc 1 1583 0 is_stmt 0 discriminator 1
 1475 00de 1A78     		ldrb	r2, [r3]	@ zero_extendqisi2
 1476 00e0 7AB1     		cbz	r2, .L94
 1477              	.L93:
1584:.\pdo.c       ****                      (!isSyncEvent && (*pTransmissionType == TRANS_EVENT_PROFILE || *pTransmissionT
 1478              		.loc 1 1584 0 is_stmt 1
 1479 00e2 B8F1000F 		cmp	r8, #0
 1480 00e6 25D1     		bne	.L100
1585:.\pdo.c       ****                        && !(d->PDO_status[pdoNum].transmit_type_parameter & PDO_INHIBITED)))
 1481              		.loc 1 1585 0
 1482 00e8 1B78     		ldrb	r3, [r3]	@ zero_extendqisi2
 1483              	.LVL189:
 1484 00ea 0233     		adds	r3, r3, #2
 1485 00ec DBB2     		uxtb	r3, r3
 1486 00ee 012B     		cmp	r3, #1
 1487 00f0 22D8     		bhi	.L101
1586:.\pdo.c       ****                 {
 1488              		.loc 1 1586 0
 1489 00f2 A268     		ldr	r2, [r4, #8]
 1490 00f4 07EBC703 		add	r3, r7, r7, lsl #3
 1491 00f8 5B00     		lsls	r3, r3, #1
 1492 00fa D35C     		ldrb	r3, [r2, r3]	@ zero_extendqisi2
 1493 00fc 13F0010F 		tst	r3, #1
 1494 0100 1CD1     		bne	.L102
 1495              	.L94:
1588:.\pdo.c       ****                   status = state11;
 1496              		.loc 1 1588 0
 1497 0102 2046     		mov	r0, r4
 1498 0104 3946     		mov	r1, r7
ARM GAS  C:\Users\PANXIA~1\AppData\Local\Temp\cczfv69T.s 			page 60


 1499 0106 FFF7FEFF 		bl	sendOnePDOevent
 1500              	.LVL190:
1589:.\pdo.c       ****                 }
 1501              		.loc 1 1589 0
 1502 010a 0B23     		movs	r3, #11
 1503 010c 17E0     		b	.L84
 1504              	.LVL191:
 1505              	.L86:
1600:.\pdo.c       ****               status = state11;
 1506              		.loc 1 1600 0
 1507 010e 2046     		mov	r0, r4
 1508 0110 3946     		mov	r1, r7
 1509 0112 01AA     		add	r2, sp, #4
 1510 0114 FFF7FEFF 		bl	sendPdo
 1511              	.LVL192:
1601:.\pdo.c       ****               break;
 1512              		.loc 1 1601 0
 1513 0118 0B23     		movs	r3, #11
1602:.\pdo.c       ****             case state11:      /*Go to next TPDO */
 1514              		.loc 1 1602 0
 1515 011a 10E0     		b	.L84
 1516              	.LVL193:
 1517              	.L87:
1604:.\pdo.c       ****               offsetObjdict++;
 1518              		.loc 1 1604 0
 1519 011c 791C     		adds	r1, r7, #1
 1520 011e CFB2     		uxtb	r7, r1
 1521              	.LVL194:
1605:.\pdo.c       ****               offsetObjdictMap++;
 1522              		.loc 1 1605 0
 1523 0120 0135     		adds	r5, r5, #1
 1524              	.LVL195:
 1525 0122 ADB2     		uxth	r5, r5
 1526              	.LVL196:
1608:.\pdo.c       ****               break;
 1527              		.loc 1 1608 0
 1528 0124 0323     		movs	r3, #3
1609:.\pdo.c       **** 
 1529              		.loc 1 1609 0
 1530 0126 0AE0     		b	.L84
 1531              	.LVL197:
 1532              	.L103:
1613:.\pdo.c       ****             }                   /* end switch case */
 1533              		.loc 1 1613 0
 1534 0128 FF20     		movs	r0, #255
 1535 012a 10E0     		b	.L83
 1536              	.LVL198:
 1537              	.L98:
1528:.\pdo.c       ****                   break;
 1538              		.loc 1 1528 0
 1539 012c 0B23     		movs	r3, #11
 1540 012e 06E0     		b	.L84
 1541              	.L99:
1560:.\pdo.c       ****                   /* If transmission RTR, with data sampled on SYNC */
 1542              		.loc 1 1560 0
 1543 0130 0523     		movs	r3, #5
 1544 0132 04E0     		b	.L84
ARM GAS  C:\Users\PANXIA~1\AppData\Local\Temp\cczfv69T.s 			page 61


 1545              	.LVL199:
 1546              	.L100:
1596:.\pdo.c       ****                 }
 1547              		.loc 1 1596 0
 1548 0134 0B23     		movs	r3, #11
 1549              	.LVL200:
 1550 0136 02E0     		b	.L84
 1551              	.L101:
 1552 0138 0B23     		movs	r3, #11
 1553 013a 00E0     		b	.L84
 1554              	.L102:
 1555 013c 0B23     		movs	r3, #11
 1556              	.LVL201:
 1557              	.L84:
1515:.\pdo.c       ****         {
 1558              		.loc 1 1515 0
 1559 013e B542     		cmp	r5, r6
 1560 0140 7FF676AF 		bls	.L95
 1561              	.LBE11:
1618:.\pdo.c       **** }
 1562              		.loc 1 1618 0
 1563 0144 0020     		movs	r0, #0
 1564              	.LBB12:
 1565 0146 02E0     		b	.L83
 1566              	.LVL202:
 1567              	.L96:
 1568              	.LBE12:
1506:.\pdo.c       ****     }
 1569              		.loc 1 1506 0
 1570 0148 0020     		movs	r0, #0
 1571              	.LVL203:
 1572 014a 00E0     		b	.L83
 1573              	.LVL204:
 1574              	.L97:
1618:.\pdo.c       **** }
 1575              		.loc 1 1618 0
 1576 014c 0020     		movs	r0, #0
 1577              	.LVL205:
 1578              	.L83:
1619:.\pdo.c       **** 
 1579              		.loc 1 1619 0
 1580 014e 05B0     		add	sp, sp, #20
 1581              		.cfi_def_cfa_offset 28
 1582              		@ sp needed
 1583 0150 BDE8F083 		pop	{r4, r5, r6, r7, r8, r9, pc}
 1584              		.cfi_endproc
 1585              	.LFE10:
 1586              		.size	_sendPDOevent, .-_sendPDOevent
 1587              		.section	.text.sendPDOevent,"ax",%progbits
 1588              		.align	2
 1589              		.global	sendPDOevent
 1590              		.thumb
 1591              		.thumb_func
 1592              		.type	sendPDOevent, %function
 1593              	sendPDOevent:
 1594              	.LFB5:
1380:.\pdo.c       ****   /* Calls _sendPDOevent specifying it is not a sync event */
ARM GAS  C:\Users\PANXIA~1\AppData\Local\Temp\cczfv69T.s 			page 62


 1595              		.loc 1 1380 0
 1596              		.cfi_startproc
 1597              		@ args = 0, pretend = 0, frame = 0
 1598              		@ frame_needed = 0, uses_anonymous_args = 0
 1599              	.LVL206:
 1600 0000 08B5     		push	{r3, lr}
 1601              		.cfi_def_cfa_offset 8
 1602              		.cfi_offset 3, -8
 1603              		.cfi_offset 14, -4
1382:.\pdo.c       **** }
 1604              		.loc 1 1382 0
 1605 0002 0021     		movs	r1, #0
 1606 0004 FFF7FEFF 		bl	_sendPDOevent
 1607              	.LVL207:
1383:.\pdo.c       **** 
 1608              		.loc 1 1383 0
 1609 0008 08BD     		pop	{r3, pc}
 1610              		.cfi_endproc
 1611              	.LFE5:
 1612              		.size	sendPDOevent, .-sendPDOevent
 1613 000a 00BF     		.section	.text.PDOInit,"ax",%progbits
 1614              		.align	2
 1615              		.global	PDOInit
 1616              		.thumb
 1617              		.thumb_func
 1618              		.type	PDOInit, %function
 1619              	PDOInit:
 1620              	.LFB12:
1662:.\pdo.c       **** 
1663:.\pdo.c       **** void
1664:.\pdo.c       **** PDOInit (CO_Data * d)
1665:.\pdo.c       **** {
 1621              		.loc 1 1665 0
 1622              		.cfi_startproc
 1623              		@ args = 0, pretend = 0, frame = 8
 1624              		@ frame_needed = 0, uses_anonymous_args = 0
 1625              	.LVL208:
 1626 0000 F0B5     		push	{r4, r5, r6, r7, lr}
 1627              		.cfi_def_cfa_offset 20
 1628              		.cfi_offset 4, -20
 1629              		.cfi_offset 5, -16
 1630              		.cfi_offset 6, -12
 1631              		.cfi_offset 7, -8
 1632              		.cfi_offset 14, -4
 1633 0002 83B0     		sub	sp, sp, #12
 1634              		.cfi_def_cfa_offset 32
 1635 0004 0646     		mov	r6, r0
 1636              	.LVL209:
1666:.\pdo.c       ****   /* For each TPDO mapping parameters */
1667:.\pdo.c       ****   UNS16 pdoIndex = 0x1800;      /* OD index of TDPO */
1668:.\pdo.c       **** 
1669:.\pdo.c       ****   UNS16 offsetObjdict = d->firstIndex->PDO_TRS;
 1637              		.loc 1 1669 0
 1638 0006 4369     		ldr	r3, [r0, #20]
 1639 0008 1C89     		ldrh	r4, [r3, #8]
 1640              	.LVL210:
1670:.\pdo.c       ****   UNS16 lastIndex = d->lastIndex->PDO_TRS;
ARM GAS  C:\Users\PANXIA~1\AppData\Local\Temp\cczfv69T.s 			page 63


 1641              		.loc 1 1670 0
 1642 000a 8369     		ldr	r3, [r0, #24]
 1643 000c 1F89     		ldrh	r7, [r3, #8]
 1644              	.LVL211:
1671:.\pdo.c       ****   if (offsetObjdict)
 1645              		.loc 1 1671 0
 1646 000e 9CB9     		cbnz	r4, .L112
 1647 0010 16E0     		b	.L109
 1648              	.LVL212:
 1649              	.L111:
 1650              	.LBB13:
1672:.\pdo.c       ****     while (offsetObjdict <= lastIndex)
1673:.\pdo.c       ****       {
1674:.\pdo.c       ****         /* Assign callbacks to sensible TPDO mapping subindexes */
1675:.\pdo.c       ****         UNS32 errorCode;
1676:.\pdo.c       ****         ODCallback_t *CallbackList;
1677:.\pdo.c       ****         /* Find callback list */
1678:.\pdo.c       ****         scanIndexOD (d, pdoIndex, &errorCode, &CallbackList);
 1651              		.loc 1 1678 0
 1652 0012 3046     		mov	r0, r6
 1653 0014 2946     		mov	r1, r5
 1654 0016 6A46     		mov	r2, sp
 1655 0018 01AB     		add	r3, sp, #4
 1656 001a FFF7FEFF 		bl	scanIndexOD
 1657              	.LVL213:
1679:.\pdo.c       ****         if (errorCode == OD_SUCCESSFUL && CallbackList)
 1658              		.loc 1 1679 0
 1659 001e 009B     		ldr	r3, [sp]
 1660 0020 2BB9     		cbnz	r3, .L110
 1661              		.loc 1 1679 0 is_stmt 0 discriminator 1
 1662 0022 019B     		ldr	r3, [sp, #4]
 1663 0024 1BB1     		cbz	r3, .L110
1680:.\pdo.c       ****           {
1681:.\pdo.c       ****             /*Assign callbacks to corresponding subindex */
1682:.\pdo.c       ****             /* Transmission type */
1683:.\pdo.c       ****             CallbackList[2] = &TPDO_Communication_Parameter_Callback;
 1664              		.loc 1 1683 0 is_stmt 1
 1665 0026 094A     		ldr	r2, .L114
 1666 0028 9A60     		str	r2, [r3, #8]
1684:.\pdo.c       ****             /* Inhibit time */
1685:.\pdo.c       ****             CallbackList[3] = &TPDO_Communication_Parameter_Callback;
 1667              		.loc 1 1685 0
 1668 002a DA60     		str	r2, [r3, #12]
1686:.\pdo.c       ****             /* Event timer */
1687:.\pdo.c       ****             CallbackList[5] = &TPDO_Communication_Parameter_Callback;
 1669              		.loc 1 1687 0
 1670 002c 5A61     		str	r2, [r3, #20]
 1671              	.L110:
1688:.\pdo.c       ****           }
1689:.\pdo.c       ****         pdoIndex++;
 1672              		.loc 1 1689 0
 1673 002e 0135     		adds	r5, r5, #1
 1674              	.LVL214:
 1675 0030 ADB2     		uxth	r5, r5
 1676              	.LVL215:
1690:.\pdo.c       ****         offsetObjdict++;
 1677              		.loc 1 1690 0
ARM GAS  C:\Users\PANXIA~1\AppData\Local\Temp\cczfv69T.s 			page 64


 1678 0032 0134     		adds	r4, r4, #1
 1679              	.LVL216:
 1680 0034 A4B2     		uxth	r4, r4
 1681              	.LVL217:
 1682 0036 01E0     		b	.L108
 1683              	.LVL218:
 1684              	.L112:
 1685              	.LBE13:
 1686 0038 4FF4C055 		mov	r5, #6144
 1687              	.LVL219:
 1688              	.L108:
1672:.\pdo.c       ****       {
 1689              		.loc 1 1672 0
 1690 003c BC42     		cmp	r4, r7
 1691 003e E8D9     		bls	.L111
 1692              	.LVL220:
 1693              	.L109:
1691:.\pdo.c       ****       }
1692:.\pdo.c       **** 
1693:.\pdo.c       ****   /* Trigger a non-sync event */
1694:.\pdo.c       ****   _sendPDOevent (d, 0);
 1694              		.loc 1 1694 0
 1695 0040 3046     		mov	r0, r6
 1696 0042 0021     		movs	r1, #0
 1697 0044 FFF7FEFF 		bl	_sendPDOevent
 1698              	.LVL221:
1695:.\pdo.c       **** }
 1699              		.loc 1 1695 0
 1700 0048 03B0     		add	sp, sp, #12
 1701              		.cfi_def_cfa_offset 20
 1702              		@ sp needed
 1703 004a F0BD     		pop	{r4, r5, r6, r7, pc}
 1704              	.LVL222:
 1705              	.L115:
 1706              		.align	2
 1707              	.L114:
 1708 004c 00000000 		.word	TPDO_Communication_Parameter_Callback
 1709              		.cfi_endproc
 1710              	.LFE12:
 1711              		.size	PDOInit, .-PDOInit
 1712              		.section	.text.PDOStop,"ax",%progbits
 1713              		.align	2
 1714              		.global	PDOStop
 1715              		.thumb
 1716              		.thumb_func
 1717              		.type	PDOStop, %function
 1718              	PDOStop:
 1719              	.LFB13:
1696:.\pdo.c       **** 
1697:.\pdo.c       **** void
1698:.\pdo.c       **** PDOStop (CO_Data * d)
1699:.\pdo.c       **** {
 1720              		.loc 1 1699 0
 1721              		.cfi_startproc
 1722              		@ args = 0, pretend = 0, frame = 0
 1723              		@ frame_needed = 0, uses_anonymous_args = 0
 1724              	.LVL223:
ARM GAS  C:\Users\PANXIA~1\AppData\Local\Temp\cczfv69T.s 			page 65


 1725 0000 2DE9F843 		push	{r3, r4, r5, r6, r7, r8, r9, lr}
 1726              		.cfi_def_cfa_offset 32
 1727              		.cfi_offset 3, -32
 1728              		.cfi_offset 4, -28
 1729              		.cfi_offset 5, -24
 1730              		.cfi_offset 6, -20
 1731              		.cfi_offset 7, -16
 1732              		.cfi_offset 8, -12
 1733              		.cfi_offset 9, -8
 1734              		.cfi_offset 14, -4
 1735              	.LVL224:
1700:.\pdo.c       ****   /* For each TPDO mapping parameters */
1701:.\pdo.c       ****   UNS8 pdoNum = 0x00;           /* number of the actual processed pdo-nr. */
1702:.\pdo.c       ****   UNS16 offsetObjdict = d->firstIndex->PDO_TRS;
 1736              		.loc 1 1702 0
 1737 0004 4369     		ldr	r3, [r0, #20]
 1738 0006 1E89     		ldrh	r6, [r3, #8]
 1739              	.LVL225:
1703:.\pdo.c       ****   UNS16 lastIndex = d->lastIndex->PDO_TRS;
 1740              		.loc 1 1703 0
 1741 0008 8369     		ldr	r3, [r0, #24]
 1742 000a B3F80890 		ldrh	r9, [r3, #8]
 1743              	.LVL226:
1704:.\pdo.c       ****   if (offsetObjdict)
 1744              		.loc 1 1704 0
 1745 000e 0EBB     		cbnz	r6, .L120
 1746 0010 BDE8F883 		pop	{r3, r4, r5, r6, r7, r8, r9, pc}
 1747              	.LVL227:
 1748              	.L119:
1705:.\pdo.c       ****     while (offsetObjdict <= lastIndex)
1706:.\pdo.c       ****       {
1707:.\pdo.c       ****         /* Delete TPDO timers */
1708:.\pdo.c       ****         d->PDO_status[pdoNum].event_timer =
1709:.\pdo.c       ****           DelAlarm (d->PDO_status[pdoNum].event_timer);
 1749              		.loc 1 1709 0
 1750 0014 D8F80870 		ldr	r7, [r8, #8]
 1751 0018 05EBC504 		add	r4, r5, r5, lsl #3
 1752 001c 6400     		lsls	r4, r4, #1
 1753 001e 2744     		add	r7, r7, r4
 1754 0020 B7F90200 		ldrsh	r0, [r7, #2]
 1755 0024 FFF7FEFF 		bl	DelAlarm
 1756              	.LVL228:
1708:.\pdo.c       ****           DelAlarm (d->PDO_status[pdoNum].event_timer);
 1757              		.loc 1 1708 0
 1758 0028 7880     		strh	r0, [r7, #2]	@ movhi
1710:.\pdo.c       ****         d->PDO_status[pdoNum].inhibit_timer =
1711:.\pdo.c       ****           DelAlarm (d->PDO_status[pdoNum].inhibit_timer);
 1759              		.loc 1 1711 0
 1760 002a D8F80870 		ldr	r7, [r8, #8]
 1761 002e 2744     		add	r7, r7, r4
 1762 0030 B7F90400 		ldrsh	r0, [r7, #4]
 1763 0034 FFF7FEFF 		bl	DelAlarm
 1764              	.LVL229:
1710:.\pdo.c       ****         d->PDO_status[pdoNum].inhibit_timer =
 1765              		.loc 1 1710 0
 1766 0038 B880     		strh	r0, [r7, #4]	@ movhi
1712:.\pdo.c       ****         /* Reset transmit type parameter */
ARM GAS  C:\Users\PANXIA~1\AppData\Local\Temp\cczfv69T.s 			page 66


1713:.\pdo.c       ****         d->PDO_status[pdoNum].transmit_type_parameter = 0;
 1767              		.loc 1 1713 0
 1768 003a D8F80820 		ldr	r2, [r8, #8]
 1769 003e 0023     		movs	r3, #0
 1770 0040 1355     		strb	r3, [r2, r4]
1714:.\pdo.c       ****         d->PDO_status[pdoNum].last_message.cob_id = 0;
 1771              		.loc 1 1714 0
 1772 0042 D8F80820 		ldr	r2, [r8, #8]
 1773 0046 1444     		add	r4, r4, r2
 1774 0048 E380     		strh	r3, [r4, #6]	@ movhi
1715:.\pdo.c       ****         pdoNum++;
 1775              		.loc 1 1715 0
 1776 004a 0135     		adds	r5, r5, #1
 1777              	.LVL230:
 1778 004c EDB2     		uxtb	r5, r5
 1779              	.LVL231:
1716:.\pdo.c       ****         offsetObjdict++;
 1780              		.loc 1 1716 0
 1781 004e 0136     		adds	r6, r6, #1
 1782              	.LVL232:
 1783 0050 B6B2     		uxth	r6, r6
 1784              	.LVL233:
 1785 0052 01E0     		b	.L117
 1786              	.LVL234:
 1787              	.L120:
 1788 0054 8046     		mov	r8, r0
 1789 0056 0025     		movs	r5, #0
 1790              	.LVL235:
 1791              	.L117:
1705:.\pdo.c       ****       {
 1792              		.loc 1 1705 0
 1793 0058 4E45     		cmp	r6, r9
 1794 005a DBD9     		bls	.L119
 1795 005c BDE8F883 		pop	{r3, r4, r5, r6, r7, r8, r9, pc}
 1796              		.cfi_endproc
 1797              	.LFE13:
 1798              		.size	PDOStop, .-PDOStop
 1799              		.text
 1800              	.Letext0:
 1801              		.file 2 "./can.h"
 1802              		.file 3 "c:\\program files (x86)\\cypress\\psoc creator\\3.3\\psoc creator\\import\\gnu\\arm\\4.9.
 1803              		.file 4 "./applicfg.h"
 1804              		.file 5 ".\\pdo.h"
 1805              		.file 6 ".\\data.h"
 1806              		.file 7 ".\\objdictdef.h"
 1807              		.file 8 ".\\objacces.h"
 1808              		.file 9 ".\\timer.h"
 1809              		.file 10 ".\\sdo.h"
 1810              		.file 11 ".\\states.h"
 1811              		.file 12 ".\\lifegrd.h"
 1812              		.file 13 ".\\sync.h"
 1813              		.file 14 ".\\emcy.h"
 1814              		.file 15 ".\\canfestival.h"
 1815              		.file 16 "c:\\program files (x86)\\cypress\\psoc creator\\3.3\\psoc creator\\import\\gnu\\arm\\4.9
 1816              		.section	.debug_info,"",%progbits
 1817              	.Ldebug_info0:
 1818 0000 22150000 		.4byte	0x1522
ARM GAS  C:\Users\PANXIA~1\AppData\Local\Temp\cczfv69T.s 			page 67


 1819 0004 0400     		.2byte	0x4
 1820 0006 00000000 		.4byte	.Ldebug_abbrev0
 1821 000a 04       		.byte	0x4
 1822 000b 01       		.uleb128 0x1
 1823 000c 36090000 		.4byte	.LASF218
 1824 0010 01       		.byte	0x1
 1825 0011 89060000 		.4byte	.LASF219
 1826 0015 9E070000 		.4byte	.LASF220
 1827 0019 20000000 		.4byte	.Ldebug_ranges0+0x20
 1828 001d 00000000 		.4byte	0
 1829 0021 00000000 		.4byte	.Ldebug_line0
 1830 0025 02       		.uleb128 0x2
 1831 0026 04       		.byte	0x4
 1832 0027 05       		.byte	0x5
 1833 0028 696E7400 		.ascii	"int\000"
 1834 002c 03       		.uleb128 0x3
 1835 002d 97030000 		.4byte	.LASF13
 1836 0031 03       		.byte	0x3
 1837 0032 D4       		.byte	0xd4
 1838 0033 37000000 		.4byte	0x37
 1839 0037 04       		.uleb128 0x4
 1840 0038 04       		.byte	0x4
 1841 0039 07       		.byte	0x7
 1842 003a 8A000000 		.4byte	.LASF0
 1843 003e 04       		.uleb128 0x4
 1844 003f 01       		.byte	0x1
 1845 0040 06       		.byte	0x6
 1846 0041 6A0A0000 		.4byte	.LASF1
 1847 0045 04       		.uleb128 0x4
 1848 0046 01       		.byte	0x1
 1849 0047 08       		.byte	0x8
 1850 0048 28090000 		.4byte	.LASF2
 1851 004c 04       		.uleb128 0x4
 1852 004d 02       		.byte	0x2
 1853 004e 05       		.byte	0x5
 1854 004f 0B070000 		.4byte	.LASF3
 1855 0053 04       		.uleb128 0x4
 1856 0054 02       		.byte	0x2
 1857 0055 07       		.byte	0x7
 1858 0056 8F0A0000 		.4byte	.LASF4
 1859 005a 04       		.uleb128 0x4
 1860 005b 04       		.byte	0x4
 1861 005c 05       		.byte	0x5
 1862 005d 1D070000 		.4byte	.LASF5
 1863 0061 04       		.uleb128 0x4
 1864 0062 04       		.byte	0x4
 1865 0063 07       		.byte	0x7
 1866 0064 42080000 		.4byte	.LASF6
 1867 0068 04       		.uleb128 0x4
 1868 0069 08       		.byte	0x8
 1869 006a 05       		.byte	0x5
 1870 006b 8D050000 		.4byte	.LASF7
 1871 006f 04       		.uleb128 0x4
 1872 0070 08       		.byte	0x8
 1873 0071 07       		.byte	0x7
 1874 0072 98020000 		.4byte	.LASF8
 1875 0076 04       		.uleb128 0x4
ARM GAS  C:\Users\PANXIA~1\AppData\Local\Temp\cczfv69T.s 			page 68


 1876 0077 04       		.byte	0x4
 1877 0078 07       		.byte	0x7
 1878 0079 39080000 		.4byte	.LASF9
 1879 007d 05       		.uleb128 0x5
 1880 007e 04       		.byte	0x4
 1881 007f 06       		.uleb128 0x6
 1882 0080 04       		.byte	0x4
 1883 0081 45000000 		.4byte	0x45
 1884 0085 04       		.uleb128 0x4
 1885 0086 01       		.byte	0x1
 1886 0087 08       		.byte	0x8
 1887 0088 8F040000 		.4byte	.LASF10
 1888 008c 07       		.uleb128 0x7
 1889 008d 0C       		.byte	0xc
 1890 008e 02       		.byte	0x2
 1891 008f 15       		.byte	0x15
 1892 0090 C5000000 		.4byte	0xc5
 1893 0094 08       		.uleb128 0x8
 1894 0095 360B0000 		.4byte	.LASF11
 1895 0099 02       		.byte	0x2
 1896 009a 16       		.byte	0x16
 1897 009b 53000000 		.4byte	0x53
 1898 009f 00       		.byte	0
 1899 00a0 09       		.uleb128 0x9
 1900 00a1 72747200 		.ascii	"rtr\000"
 1901 00a5 02       		.byte	0x2
 1902 00a6 17       		.byte	0x17
 1903 00a7 45000000 		.4byte	0x45
 1904 00ab 02       		.byte	0x2
 1905 00ac 09       		.uleb128 0x9
 1906 00ad 6C656E00 		.ascii	"len\000"
 1907 00b1 02       		.byte	0x2
 1908 00b2 18       		.byte	0x18
 1909 00b3 45000000 		.4byte	0x45
 1910 00b7 03       		.byte	0x3
 1911 00b8 08       		.uleb128 0x8
 1912 00b9 06050000 		.4byte	.LASF12
 1913 00bd 02       		.byte	0x2
 1914 00be 19       		.byte	0x19
 1915 00bf C5000000 		.4byte	0xc5
 1916 00c3 04       		.byte	0x4
 1917 00c4 00       		.byte	0
 1918 00c5 0A       		.uleb128 0xa
 1919 00c6 45000000 		.4byte	0x45
 1920 00ca D5000000 		.4byte	0xd5
 1921 00ce 0B       		.uleb128 0xb
 1922 00cf 76000000 		.4byte	0x76
 1923 00d3 07       		.byte	0x7
 1924 00d4 00       		.byte	0
 1925 00d5 03       		.uleb128 0x3
 1926 00d6 EF000000 		.4byte	.LASF14
 1927 00da 02       		.byte	0x2
 1928 00db 1A       		.byte	0x1a
 1929 00dc 8C000000 		.4byte	0x8c
 1930 00e0 06       		.uleb128 0x6
 1931 00e1 04       		.byte	0x4
 1932 00e2 D5000000 		.4byte	0xd5
ARM GAS  C:\Users\PANXIA~1\AppData\Local\Temp\cczfv69T.s 			page 69


 1933 00e6 03       		.uleb128 0x3
 1934 00e7 27010000 		.4byte	.LASF15
 1935 00eb 04       		.byte	0x4
 1936 00ec 66       		.byte	0x66
 1937 00ed 7D000000 		.4byte	0x7d
 1938 00f1 03       		.uleb128 0x3
 1939 00f2 D9010000 		.4byte	.LASF16
 1940 00f6 05       		.byte	0x5
 1941 00f7 30       		.byte	0x30
 1942 00f8 FC000000 		.4byte	0xfc
 1943 00fc 0C       		.uleb128 0xc
 1944 00fd 94040000 		.4byte	.LASF22
 1945 0101 12       		.byte	0x12
 1946 0102 05       		.byte	0x5
 1947 0103 3C       		.byte	0x3c
 1948 0104 39010000 		.4byte	0x139
 1949 0108 08       		.uleb128 0x8
 1950 0109 97000000 		.4byte	.LASF17
 1951 010d 05       		.byte	0x5
 1952 010e 3D       		.byte	0x3d
 1953 010f 45000000 		.4byte	0x45
 1954 0113 00       		.byte	0
 1955 0114 08       		.uleb128 0x8
 1956 0115 6F050000 		.4byte	.LASF18
 1957 0119 05       		.byte	0x5
 1958 011a 3E       		.byte	0x3e
 1959 011b 4C000000 		.4byte	0x4c
 1960 011f 02       		.byte	0x2
 1961 0120 08       		.uleb128 0x8
 1962 0121 BF020000 		.4byte	.LASF19
 1963 0125 05       		.byte	0x5
 1964 0126 3F       		.byte	0x3f
 1965 0127 4C000000 		.4byte	0x4c
 1966 012b 04       		.byte	0x4
 1967 012c 08       		.uleb128 0x8
 1968 012d DE090000 		.4byte	.LASF20
 1969 0131 05       		.byte	0x5
 1970 0132 40       		.byte	0x40
 1971 0133 D5000000 		.4byte	0xd5
 1972 0137 06       		.byte	0x6
 1973 0138 00       		.byte	0
 1974 0139 03       		.uleb128 0x3
 1975 013a 4C0B0000 		.4byte	.LASF21
 1976 013e 06       		.byte	0x6
 1977 013f 2C       		.byte	0x2c
 1978 0140 44010000 		.4byte	0x144
 1979 0144 0D       		.uleb128 0xd
 1980 0145 69000000 		.4byte	.LASF23
 1981 0149 AC01     		.2byte	0x1ac
 1982 014b 06       		.byte	0x6
 1983 014c 44       		.byte	0x44
 1984 014d CF030000 		.4byte	0x3cf
 1985 0151 08       		.uleb128 0x8
 1986 0152 26070000 		.4byte	.LASF24
 1987 0156 06       		.byte	0x6
 1988 0157 46       		.byte	0x46
 1989 0158 7F000000 		.4byte	0x7f
ARM GAS  C:\Users\PANXIA~1\AppData\Local\Temp\cczfv69T.s 			page 70


 1990 015c 00       		.byte	0
 1991 015d 08       		.uleb128 0x8
 1992 015e 15070000 		.4byte	.LASF25
 1993 0162 06       		.byte	0x6
 1994 0163 47       		.byte	0x47
 1995 0164 E9040000 		.4byte	0x4e9
 1996 0168 04       		.byte	0x4
 1997 0169 08       		.uleb128 0x8
 1998 016a D4030000 		.4byte	.LASF26
 1999 016e 06       		.byte	0x6
 2000 016f 48       		.byte	0x48
 2001 0170 DA080000 		.4byte	0x8da
 2002 0174 08       		.byte	0x8
 2003 0175 08       		.uleb128 0x8
 2004 0176 5C070000 		.4byte	.LASF27
 2005 017a 06       		.byte	0x6
 2006 017b 49       		.byte	0x49
 2007 017c E0080000 		.4byte	0x8e0
 2008 0180 0C       		.byte	0xc
 2009 0181 08       		.uleb128 0x8
 2010 0182 0C000000 		.4byte	.LASF28
 2011 0186 06       		.byte	0x6
 2012 0187 4A       		.byte	0x4a
 2013 0188 86050000 		.4byte	0x586
 2014 018c 10       		.byte	0x10
 2015 018d 08       		.uleb128 0x8
 2016 018e 72080000 		.4byte	.LASF29
 2017 0192 06       		.byte	0x6
 2018 0193 4B       		.byte	0x4b
 2019 0194 E6080000 		.4byte	0x8e6
 2020 0198 14       		.byte	0x14
 2021 0199 08       		.uleb128 0x8
 2022 019a D3000000 		.4byte	.LASF30
 2023 019e 06       		.byte	0x6
 2024 019f 4C       		.byte	0x4c
 2025 01a0 E6080000 		.4byte	0x8e6
 2026 01a4 18       		.byte	0x18
 2027 01a5 08       		.uleb128 0x8
 2028 01a6 66080000 		.4byte	.LASF31
 2029 01aa 06       		.byte	0x6
 2030 01ab 4D       		.byte	0x4d
 2031 01ac F1080000 		.4byte	0x8f1
 2032 01b0 1C       		.byte	0x1c
 2033 01b1 08       		.uleb128 0x8
 2034 01b2 D0050000 		.4byte	.LASF32
 2035 01b6 06       		.byte	0x6
 2036 01b7 4E       		.byte	0x4e
 2037 01b8 FC080000 		.4byte	0x8fc
 2038 01bc 20       		.byte	0x20
 2039 01bd 08       		.uleb128 0x8
 2040 01be 01020000 		.4byte	.LASF33
 2041 01c2 06       		.byte	0x6
 2042 01c3 4F       		.byte	0x4f
 2043 01c4 30050000 		.4byte	0x530
 2044 01c8 24       		.byte	0x24
 2045 01c9 08       		.uleb128 0x8
 2046 01ca 25080000 		.4byte	.LASF34
ARM GAS  C:\Users\PANXIA~1\AppData\Local\Temp\cczfv69T.s 			page 71


 2047 01ce 06       		.byte	0x6
 2048 01cf 52       		.byte	0x52
 2049 01d0 07090000 		.4byte	0x907
 2050 01d4 28       		.byte	0x28
 2051 01d5 08       		.uleb128 0x8
 2052 01d6 110B0000 		.4byte	.LASF35
 2053 01da 06       		.byte	0x6
 2054 01db 56       		.byte	0x56
 2055 01dc 51070000 		.4byte	0x751
 2056 01e0 78       		.byte	0x78
 2057 01e1 08       		.uleb128 0x8
 2058 01e2 A8040000 		.4byte	.LASF36
 2059 01e6 06       		.byte	0x6
 2060 01e7 57       		.byte	0x57
 2061 01e8 B9070000 		.4byte	0x7b9
 2062 01ec 79       		.byte	0x79
 2063 01ed 08       		.uleb128 0x8
 2064 01ee EF080000 		.4byte	.LASF37
 2065 01f2 06       		.byte	0x6
 2066 01f3 58       		.byte	0x58
 2067 01f4 C4070000 		.4byte	0x7c4
 2068 01f8 80       		.byte	0x80
 2069 01f9 08       		.uleb128 0x8
 2070 01fa 0F0A0000 		.4byte	.LASF38
 2071 01fe 06       		.byte	0x6
 2072 01ff 59       		.byte	0x59
 2073 0200 E0070000 		.4byte	0x7e0
 2074 0204 84       		.byte	0x84
 2075 0205 08       		.uleb128 0x8
 2076 0206 46040000 		.4byte	.LASF39
 2077 020a 06       		.byte	0x6
 2078 020b 5A       		.byte	0x5a
 2079 020c EB070000 		.4byte	0x7eb
 2080 0210 88       		.byte	0x88
 2081 0211 08       		.uleb128 0x8
 2082 0212 EB090000 		.4byte	.LASF40
 2083 0216 06       		.byte	0x6
 2084 0217 5B       		.byte	0x5b
 2085 0218 F6070000 		.4byte	0x7f6
 2086 021c 8C       		.byte	0x8c
 2087 021d 08       		.uleb128 0x8
 2088 021e 3E010000 		.4byte	.LASF41
 2089 0222 06       		.byte	0x6
 2090 0223 5C       		.byte	0x5c
 2091 0224 CF070000 		.4byte	0x7cf
 2092 0228 90       		.byte	0x90
 2093 0229 08       		.uleb128 0x8
 2094 022a 89080000 		.4byte	.LASF42
 2095 022e 06       		.byte	0x6
 2096 022f 5D       		.byte	0x5d
 2097 0230 CF070000 		.4byte	0x7cf
 2098 0234 94       		.byte	0x94
 2099 0235 08       		.uleb128 0x8
 2100 0236 78020000 		.4byte	.LASF43
 2101 023a 06       		.byte	0x6
 2102 023b 60       		.byte	0x60
 2103 023c 7F000000 		.4byte	0x7f
ARM GAS  C:\Users\PANXIA~1\AppData\Local\Temp\cczfv69T.s 			page 72


 2104 0240 98       		.byte	0x98
 2105 0241 08       		.uleb128 0x8
 2106 0242 760A0000 		.4byte	.LASF44
 2107 0246 06       		.byte	0x6
 2108 0247 61       		.byte	0x61
 2109 0248 1E050000 		.4byte	0x51e
 2110 024c 9C       		.byte	0x9c
 2111 024d 08       		.uleb128 0x8
 2112 024e 32050000 		.4byte	.LASF45
 2113 0252 06       		.byte	0x6
 2114 0253 62       		.byte	0x62
 2115 0254 E0080000 		.4byte	0x8e0
 2116 0258 A0       		.byte	0xa0
 2117 0259 08       		.uleb128 0x8
 2118 025a A20A0000 		.4byte	.LASF46
 2119 025e 06       		.byte	0x6
 2120 025f 63       		.byte	0x63
 2121 0260 17090000 		.4byte	0x917
 2122 0264 A4       		.byte	0xa4
 2123 0265 08       		.uleb128 0x8
 2124 0266 55030000 		.4byte	.LASF47
 2125 026a 06       		.byte	0x6
 2126 026b 64       		.byte	0x64
 2127 026c 4C000000 		.4byte	0x4c
 2128 0270 A8       		.byte	0xa8
 2129 0271 08       		.uleb128 0x8
 2130 0272 B2060000 		.4byte	.LASF48
 2131 0276 06       		.byte	0x6
 2132 0277 65       		.byte	0x65
 2133 0278 01080000 		.4byte	0x801
 2134 027c AC       		.byte	0xac
 2135 027d 08       		.uleb128 0x8
 2136 027e C1030000 		.4byte	.LASF49
 2137 0282 06       		.byte	0x6
 2138 0283 66       		.byte	0x66
 2139 0284 1D090000 		.4byte	0x91d
 2140 0288 B0       		.byte	0xb0
 2141 0289 0E       		.uleb128 0xe
 2142 028a 7B050000 		.4byte	.LASF50
 2143 028e 06       		.byte	0x6
 2144 028f 69       		.byte	0x69
 2145 0290 4C000000 		.4byte	0x4c
 2146 0294 3001     		.2byte	0x130
 2147 0296 0E       		.uleb128 0xe
 2148 0297 EE040000 		.4byte	.LASF51
 2149 029b 06       		.byte	0x6
 2150 029c 6A       		.byte	0x6a
 2151 029d 1E050000 		.4byte	0x51e
 2152 02a1 3401     		.2byte	0x134
 2153 02a3 0E       		.uleb128 0xe
 2154 02a4 B1080000 		.4byte	.LASF52
 2155 02a8 06       		.byte	0x6
 2156 02a9 6B       		.byte	0x6b
 2157 02aa 1E050000 		.4byte	0x51e
 2158 02ae 3801     		.2byte	0x138
 2159 02b0 0E       		.uleb128 0xe
 2160 02b1 7D040000 		.4byte	.LASF53
ARM GAS  C:\Users\PANXIA~1\AppData\Local\Temp\cczfv69T.s 			page 73


 2161 02b5 06       		.byte	0x6
 2162 02b6 6D       		.byte	0x6d
 2163 02b7 3D080000 		.4byte	0x83d
 2164 02bb 3C01     		.2byte	0x13c
 2165 02bd 0E       		.uleb128 0xe
 2166 02be 65050000 		.4byte	.LASF54
 2167 02c2 06       		.byte	0x6
 2168 02c3 6E       		.byte	0x6e
 2169 02c4 48080000 		.4byte	0x848
 2170 02c8 4001     		.2byte	0x140
 2171 02ca 0E       		.uleb128 0xe
 2172 02cb 76010000 		.4byte	.LASF55
 2173 02cf 06       		.byte	0x6
 2174 02d0 6F       		.byte	0x6f
 2175 02d1 0C080000 		.4byte	0x80c
 2176 02d5 4401     		.2byte	0x144
 2177 02d7 0E       		.uleb128 0xe
 2178 02d8 F0070000 		.4byte	.LASF56
 2179 02dc 06       		.byte	0x6
 2180 02dd 70       		.byte	0x70
 2181 02de 17080000 		.4byte	0x817
 2182 02e2 4801     		.2byte	0x148
 2183 02e4 0E       		.uleb128 0xe
 2184 02e5 DC050000 		.4byte	.LASF57
 2185 02e9 06       		.byte	0x6
 2186 02ea 73       		.byte	0x73
 2187 02eb 45000000 		.4byte	0x45
 2188 02ef 4C01     		.2byte	0x14c
 2189 02f1 0E       		.uleb128 0xe
 2190 02f2 87010000 		.4byte	.LASF58
 2191 02f6 06       		.byte	0x6
 2192 02f7 74       		.byte	0x74
 2193 02f8 E6000000 		.4byte	0xe6
 2194 02fc 5001     		.2byte	0x150
 2195 02fe 0E       		.uleb128 0xe
 2196 02ff ED060000 		.4byte	.LASF59
 2197 0303 06       		.byte	0x6
 2198 0304 75       		.byte	0x75
 2199 0305 F4040000 		.4byte	0x4f4
 2200 0309 5401     		.2byte	0x154
 2201 030b 0E       		.uleb128 0xe
 2202 030c 010B0000 		.4byte	.LASF60
 2203 0310 06       		.byte	0x6
 2204 0311 76       		.byte	0x76
 2205 0312 55050000 		.4byte	0x555
 2206 0316 5801     		.2byte	0x158
 2207 0318 0E       		.uleb128 0xe
 2208 0319 B8000000 		.4byte	.LASF61
 2209 031d 06       		.byte	0x6
 2210 031e 79       		.byte	0x79
 2211 031f E9040000 		.4byte	0x4e9
 2212 0323 5C01     		.2byte	0x15c
 2213 0325 0E       		.uleb128 0xe
 2214 0326 42030000 		.4byte	.LASF62
 2215 032a 06       		.byte	0x6
 2216 032b 7A       		.byte	0x7a
 2217 032c 7F000000 		.4byte	0x7f
ARM GAS  C:\Users\PANXIA~1\AppData\Local\Temp\cczfv69T.s 			page 74


 2218 0330 6001     		.2byte	0x160
 2219 0332 0E       		.uleb128 0xe
 2220 0333 54080000 		.4byte	.LASF63
 2221 0337 06       		.byte	0x6
 2222 0338 7B       		.byte	0x7b
 2223 0339 61000000 		.4byte	0x61
 2224 033d 6401     		.2byte	0x164
 2225 033f 0E       		.uleb128 0xe
 2226 0340 75030000 		.4byte	.LASF64
 2227 0344 06       		.byte	0x6
 2228 0345 7C       		.byte	0x7c
 2229 0346 45000000 		.4byte	0x45
 2230 034a 6801     		.2byte	0x168
 2231 034c 0E       		.uleb128 0xe
 2232 034d 02070000 		.4byte	.LASF65
 2233 0351 06       		.byte	0x6
 2234 0352 7D       		.byte	0x7d
 2235 0353 61000000 		.4byte	0x61
 2236 0357 6C01     		.2byte	0x16c
 2237 0359 0E       		.uleb128 0xe
 2238 035a 0B050000 		.4byte	.LASF66
 2239 035e 06       		.byte	0x6
 2240 035f 7E       		.byte	0x7e
 2241 0360 7F000000 		.4byte	0x7f
 2242 0364 7001     		.2byte	0x170
 2243 0366 0E       		.uleb128 0xe
 2244 0367 14050000 		.4byte	.LASF67
 2245 036b 06       		.byte	0x6
 2246 036c 81       		.byte	0x81
 2247 036d 6C080000 		.4byte	0x86c
 2248 0371 7401     		.2byte	0x174
 2249 0373 0E       		.uleb128 0xe
 2250 0374 DC020000 		.4byte	.LASF68
 2251 0378 06       		.byte	0x6
 2252 0379 82       		.byte	0x82
 2253 037a 45000000 		.4byte	0x45
 2254 037e 7501     		.2byte	0x175
 2255 0380 0E       		.uleb128 0xe
 2256 0381 E1040000 		.4byte	.LASF69
 2257 0385 06       		.byte	0x6
 2258 0386 83       		.byte	0x83
 2259 0387 7F000000 		.4byte	0x7f
 2260 038b 7801     		.2byte	0x178
 2261 038d 0E       		.uleb128 0xe
 2262 038e 10020000 		.4byte	.LASF70
 2263 0392 06       		.byte	0x6
 2264 0393 84       		.byte	0x84
 2265 0394 1E050000 		.4byte	0x51e
 2266 0398 7C01     		.2byte	0x17c
 2267 039a 0E       		.uleb128 0xe
 2268 039b D2040000 		.4byte	.LASF71
 2269 039f 06       		.byte	0x6
 2270 03a0 85       		.byte	0x85
 2271 03a1 7F000000 		.4byte	0x7f
 2272 03a5 8001     		.2byte	0x180
 2273 03a7 0E       		.uleb128 0xe
 2274 03a8 15090000 		.4byte	.LASF72
ARM GAS  C:\Users\PANXIA~1\AppData\Local\Temp\cczfv69T.s 			page 75


 2275 03ac 06       		.byte	0x6
 2276 03ad 86       		.byte	0x86
 2277 03ae 1E050000 		.4byte	0x51e
 2278 03b2 8401     		.2byte	0x184
 2279 03b4 0E       		.uleb128 0xe
 2280 03b5 1B0B0000 		.4byte	.LASF73
 2281 03b9 06       		.byte	0x6
 2282 03ba 87       		.byte	0x87
 2283 03bb 2D090000 		.4byte	0x92d
 2284 03bf 8801     		.2byte	0x188
 2285 03c1 0E       		.uleb128 0xe
 2286 03c2 F3090000 		.4byte	.LASF74
 2287 03c6 06       		.byte	0x6
 2288 03c7 88       		.byte	0x88
 2289 03c8 AF080000 		.4byte	0x8af
 2290 03cc A801     		.2byte	0x1a8
 2291 03ce 00       		.byte	0
 2292 03cf 0C       		.uleb128 0xc
 2293 03d0 9E030000 		.4byte	.LASF75
 2294 03d4 0C       		.byte	0xc
 2295 03d5 07       		.byte	0x7
 2296 03d6 DA       		.byte	0xda
 2297 03d7 0C040000 		.4byte	0x40c
 2298 03db 08       		.uleb128 0x8
 2299 03dc FA040000 		.4byte	.LASF76
 2300 03e0 07       		.byte	0x7
 2301 03e1 DC       		.byte	0xdc
 2302 03e2 45000000 		.4byte	0x45
 2303 03e6 00       		.byte	0
 2304 03e7 08       		.uleb128 0x8
 2305 03e8 38030000 		.4byte	.LASF77
 2306 03ec 07       		.byte	0x7
 2307 03ed DD       		.byte	0xdd
 2308 03ee 45000000 		.4byte	0x45
 2309 03f2 01       		.byte	0x1
 2310 03f3 08       		.uleb128 0x8
 2311 03f4 1F060000 		.4byte	.LASF78
 2312 03f8 07       		.byte	0x7
 2313 03f9 DE       		.byte	0xde
 2314 03fa 37000000 		.4byte	0x37
 2315 03fe 04       		.byte	0x4
 2316 03ff 08       		.uleb128 0x8
 2317 0400 87040000 		.4byte	.LASF79
 2318 0404 07       		.byte	0x7
 2319 0405 DF       		.byte	0xdf
 2320 0406 7D000000 		.4byte	0x7d
 2321 040a 08       		.byte	0x8
 2322 040b 00       		.byte	0
 2323 040c 03       		.uleb128 0x3
 2324 040d AF000000 		.4byte	.LASF80
 2325 0411 07       		.byte	0x7
 2326 0412 E0       		.byte	0xe0
 2327 0413 CF030000 		.4byte	0x3cf
 2328 0417 0C       		.uleb128 0xc
 2329 0418 DF060000 		.4byte	.LASF81
 2330 041c 08       		.byte	0x8
 2331 041d 07       		.byte	0x7
ARM GAS  C:\Users\PANXIA~1\AppData\Local\Temp\cczfv69T.s 			page 76


 2332 041e E4       		.byte	0xe4
 2333 041f 48040000 		.4byte	0x448
 2334 0423 08       		.uleb128 0x8
 2335 0424 4A020000 		.4byte	.LASF82
 2336 0428 07       		.byte	0x7
 2337 0429 E6       		.byte	0xe6
 2338 042a 48040000 		.4byte	0x448
 2339 042e 00       		.byte	0
 2340 042f 08       		.uleb128 0x8
 2341 0430 E7030000 		.4byte	.LASF83
 2342 0434 07       		.byte	0x7
 2343 0435 E7       		.byte	0xe7
 2344 0436 45000000 		.4byte	0x45
 2345 043a 04       		.byte	0x4
 2346 043b 08       		.uleb128 0x8
 2347 043c 72020000 		.4byte	.LASF84
 2348 0440 07       		.byte	0x7
 2349 0441 EB       		.byte	0xeb
 2350 0442 53000000 		.4byte	0x53
 2351 0446 06       		.byte	0x6
 2352 0447 00       		.byte	0
 2353 0448 06       		.uleb128 0x6
 2354 0449 04       		.byte	0x4
 2355 044a 0C040000 		.4byte	0x40c
 2356 044e 03       		.uleb128 0x3
 2357 044f 63060000 		.4byte	.LASF85
 2358 0453 07       		.byte	0x7
 2359 0454 EC       		.byte	0xec
 2360 0455 17040000 		.4byte	0x417
 2361 0459 0C       		.uleb128 0xc
 2362 045a A8010000 		.4byte	.LASF86
 2363 045e 0C       		.byte	0xc
 2364 045f 07       		.byte	0x7
 2365 0460 EE       		.byte	0xee
 2366 0461 AE040000 		.4byte	0x4ae
 2367 0465 08       		.uleb128 0x8
 2368 0466 620A0000 		.4byte	.LASF87
 2369 046a 07       		.byte	0x7
 2370 046b EF       		.byte	0xef
 2371 046c 45000000 		.4byte	0x45
 2372 0470 00       		.byte	0
 2373 0471 08       		.uleb128 0x8
 2374 0472 5A0A0000 		.4byte	.LASF88
 2375 0476 07       		.byte	0x7
 2376 0477 F0       		.byte	0xf0
 2377 0478 53000000 		.4byte	0x53
 2378 047c 02       		.byte	0x2
 2379 047d 08       		.uleb128 0x8
 2380 047e 52060000 		.4byte	.LASF89
 2381 0482 07       		.byte	0x7
 2382 0483 F1       		.byte	0xf1
 2383 0484 53000000 		.4byte	0x53
 2384 0488 04       		.byte	0x4
 2385 0489 08       		.uleb128 0x8
 2386 048a 52040000 		.4byte	.LASF90
 2387 048e 07       		.byte	0x7
 2388 048f F2       		.byte	0xf2
ARM GAS  C:\Users\PANXIA~1\AppData\Local\Temp\cczfv69T.s 			page 77


 2389 0490 53000000 		.4byte	0x53
 2390 0494 06       		.byte	0x6
 2391 0495 08       		.uleb128 0x8
 2392 0496 DF030000 		.4byte	.LASF91
 2393 049a 07       		.byte	0x7
 2394 049b F3       		.byte	0xf3
 2395 049c 53000000 		.4byte	0x53
 2396 04a0 08       		.byte	0x8
 2397 04a1 08       		.uleb128 0x8
 2398 04a2 7D060000 		.4byte	.LASF92
 2399 04a6 07       		.byte	0x7
 2400 04a7 F4       		.byte	0xf4
 2401 04a8 53000000 		.4byte	0x53
 2402 04ac 0A       		.byte	0xa
 2403 04ad 00       		.byte	0
 2404 04ae 03       		.uleb128 0x3
 2405 04af 13060000 		.4byte	.LASF93
 2406 04b3 07       		.byte	0x7
 2407 04b4 F5       		.byte	0xf5
 2408 04b5 59040000 		.4byte	0x459
 2409 04b9 03       		.uleb128 0x3
 2410 04ba 6E070000 		.4byte	.LASF94
 2411 04be 07       		.byte	0x7
 2412 04bf F9       		.byte	0xf9
 2413 04c0 C4040000 		.4byte	0x4c4
 2414 04c4 06       		.uleb128 0x6
 2415 04c5 04       		.byte	0x4
 2416 04c6 CA040000 		.4byte	0x4ca
 2417 04ca 0F       		.uleb128 0xf
 2418 04cb 61000000 		.4byte	0x61
 2419 04cf E3040000 		.4byte	0x4e3
 2420 04d3 10       		.uleb128 0x10
 2421 04d4 E3040000 		.4byte	0x4e3
 2422 04d8 10       		.uleb128 0x10
 2423 04d9 E9040000 		.4byte	0x4e9
 2424 04dd 10       		.uleb128 0x10
 2425 04de 45000000 		.4byte	0x45
 2426 04e2 00       		.byte	0
 2427 04e3 06       		.uleb128 0x6
 2428 04e4 04       		.byte	0x4
 2429 04e5 39010000 		.4byte	0x139
 2430 04e9 06       		.uleb128 0x6
 2431 04ea 04       		.byte	0x4
 2432 04eb EF040000 		.4byte	0x4ef
 2433 04ef 11       		.uleb128 0x11
 2434 04f0 4E040000 		.4byte	0x44e
 2435 04f4 03       		.uleb128 0x3
 2436 04f5 540B0000 		.4byte	.LASF95
 2437 04f9 07       		.byte	0x7
 2438 04fa FA       		.byte	0xfa
 2439 04fb FF040000 		.4byte	0x4ff
 2440 04ff 06       		.uleb128 0x6
 2441 0500 04       		.byte	0x4
 2442 0501 05050000 		.4byte	0x505
 2443 0505 0F       		.uleb128 0xf
 2444 0506 E9040000 		.4byte	0x4e9
 2445 050a 1E050000 		.4byte	0x51e
ARM GAS  C:\Users\PANXIA~1\AppData\Local\Temp\cczfv69T.s 			page 78


 2446 050e 10       		.uleb128 0x10
 2447 050f 53000000 		.4byte	0x53
 2448 0513 10       		.uleb128 0x10
 2449 0514 1E050000 		.4byte	0x51e
 2450 0518 10       		.uleb128 0x10
 2451 0519 24050000 		.4byte	0x524
 2452 051d 00       		.byte	0
 2453 051e 06       		.uleb128 0x6
 2454 051f 04       		.byte	0x4
 2455 0520 61000000 		.4byte	0x61
 2456 0524 06       		.uleb128 0x6
 2457 0525 04       		.byte	0x4
 2458 0526 2A050000 		.4byte	0x52a
 2459 052a 06       		.uleb128 0x6
 2460 052b 04       		.byte	0x4
 2461 052c B9040000 		.4byte	0x4b9
 2462 0530 03       		.uleb128 0x3
 2463 0531 39020000 		.4byte	.LASF96
 2464 0535 08       		.byte	0x8
 2465 0536 3E       		.byte	0x3e
 2466 0537 3B050000 		.4byte	0x53b
 2467 053b 06       		.uleb128 0x6
 2468 053c 04       		.byte	0x4
 2469 053d 41050000 		.4byte	0x541
 2470 0541 0F       		.uleb128 0xf
 2471 0542 61000000 		.4byte	0x61
 2472 0546 55050000 		.4byte	0x555
 2473 054a 10       		.uleb128 0x10
 2474 054b 45000000 		.4byte	0x45
 2475 054f 10       		.uleb128 0x10
 2476 0550 7D000000 		.4byte	0x7d
 2477 0554 00       		.byte	0
 2478 0555 03       		.uleb128 0x3
 2479 0556 DD000000 		.4byte	.LASF97
 2480 055a 08       		.byte	0x8
 2481 055b 3F       		.byte	0x3f
 2482 055c 60050000 		.4byte	0x560
 2483 0560 06       		.uleb128 0x6
 2484 0561 04       		.byte	0x4
 2485 0562 66050000 		.4byte	0x566
 2486 0566 12       		.uleb128 0x12
 2487 0567 7B050000 		.4byte	0x57b
 2488 056b 10       		.uleb128 0x10
 2489 056c E3040000 		.4byte	0x4e3
 2490 0570 10       		.uleb128 0x10
 2491 0571 53000000 		.4byte	0x53
 2492 0575 10       		.uleb128 0x10
 2493 0576 45000000 		.4byte	0x45
 2494 057a 00       		.byte	0
 2495 057b 03       		.uleb128 0x3
 2496 057c AF020000 		.4byte	.LASF98
 2497 0580 09       		.byte	0x9
 2498 0581 34       		.byte	0x34
 2499 0582 86050000 		.4byte	0x586
 2500 0586 06       		.uleb128 0x6
 2501 0587 04       		.byte	0x4
 2502 0588 8C050000 		.4byte	0x58c
ARM GAS  C:\Users\PANXIA~1\AppData\Local\Temp\cczfv69T.s 			page 79


 2503 058c 12       		.uleb128 0x12
 2504 058d 9C050000 		.4byte	0x59c
 2505 0591 10       		.uleb128 0x10
 2506 0592 E3040000 		.4byte	0x4e3
 2507 0596 10       		.uleb128 0x10
 2508 0597 61000000 		.4byte	0x61
 2509 059b 00       		.byte	0
 2510 059c 13       		.uleb128 0x13
 2511 059d 01       		.byte	0x1
 2512 059e 0A       		.byte	0xa
 2513 059f 39       		.byte	0x39
 2514 05a0 B7050000 		.4byte	0x5b7
 2515 05a4 14       		.uleb128 0x14
 2516 05a5 A6060000 		.4byte	.LASF99
 2517 05a9 00       		.sleb128 0
 2518 05aa 14       		.uleb128 0x14
 2519 05ab 3B060000 		.4byte	.LASF100
 2520 05af 01       		.sleb128 1
 2521 05b0 14       		.uleb128 0x14
 2522 05b1 F6010000 		.4byte	.LASF101
 2523 05b5 02       		.sleb128 2
 2524 05b6 00       		.byte	0
 2525 05b7 03       		.uleb128 0x3
 2526 05b8 5A060000 		.4byte	.LASF102
 2527 05bc 0A       		.byte	0xa
 2528 05bd 39       		.byte	0x39
 2529 05be 9C050000 		.4byte	0x59c
 2530 05c2 03       		.uleb128 0x3
 2531 05c3 05060000 		.4byte	.LASF103
 2532 05c7 0A       		.byte	0xa
 2533 05c8 3B       		.byte	0x3b
 2534 05c9 CD050000 		.4byte	0x5cd
 2535 05cd 06       		.uleb128 0x6
 2536 05ce 04       		.byte	0x4
 2537 05cf D3050000 		.4byte	0x5d3
 2538 05d3 12       		.uleb128 0x12
 2539 05d4 E3050000 		.4byte	0x5e3
 2540 05d8 10       		.uleb128 0x10
 2541 05d9 E3040000 		.4byte	0x4e3
 2542 05dd 10       		.uleb128 0x10
 2543 05de 45000000 		.4byte	0x45
 2544 05e2 00       		.byte	0
 2545 05e3 0C       		.uleb128 0xc
 2546 05e4 8C070000 		.4byte	.LASF104
 2547 05e8 50       		.byte	0x50
 2548 05e9 0A       		.byte	0xa
 2549 05ea 44       		.byte	0x44
 2550 05eb F8060000 		.4byte	0x6f8
 2551 05ef 08       		.uleb128 0x8
 2552 05f0 BD050000 		.4byte	.LASF105
 2553 05f4 0A       		.byte	0xa
 2554 05f5 45       		.byte	0x45
 2555 05f6 45000000 		.4byte	0x45
 2556 05fa 00       		.byte	0
 2557 05fb 08       		.uleb128 0x8
 2558 05fc CC000000 		.4byte	.LASF106
 2559 0600 0A       		.byte	0xa
ARM GAS  C:\Users\PANXIA~1\AppData\Local\Temp\cczfv69T.s 			page 80


 2560 0601 47       		.byte	0x47
 2561 0602 45000000 		.4byte	0x45
 2562 0606 01       		.byte	0x1
 2563 0607 08       		.uleb128 0x8
 2564 0608 090A0000 		.4byte	.LASF107
 2565 060c 0A       		.byte	0xa
 2566 060d 48       		.byte	0x48
 2567 060e 45000000 		.4byte	0x45
 2568 0612 02       		.byte	0x2
 2569 0613 08       		.uleb128 0x8
 2570 0614 DC050000 		.4byte	.LASF57
 2571 0618 0A       		.byte	0xa
 2572 0619 49       		.byte	0x49
 2573 061a 45000000 		.4byte	0x45
 2574 061e 03       		.byte	0x3
 2575 061f 08       		.uleb128 0x8
 2576 0620 EF020000 		.4byte	.LASF108
 2577 0624 0A       		.byte	0xa
 2578 0625 4A       		.byte	0x4a
 2579 0626 61000000 		.4byte	0x61
 2580 062a 04       		.byte	0x4
 2581 062b 08       		.uleb128 0x8
 2582 062c 72020000 		.4byte	.LASF84
 2583 0630 0A       		.byte	0xa
 2584 0631 4D       		.byte	0x4d
 2585 0632 53000000 		.4byte	0x53
 2586 0636 08       		.byte	0x8
 2587 0637 08       		.uleb128 0x8
 2588 0638 8F020000 		.4byte	.LASF109
 2589 063c 0A       		.byte	0xa
 2590 063d 4E       		.byte	0x4e
 2591 063e 45000000 		.4byte	0x45
 2592 0642 0A       		.byte	0xa
 2593 0643 08       		.uleb128 0x8
 2594 0644 6C020000 		.4byte	.LASF110
 2595 0648 0A       		.byte	0xa
 2596 0649 4F       		.byte	0x4f
 2597 064a 61000000 		.4byte	0x61
 2598 064e 0C       		.byte	0xc
 2599 064f 08       		.uleb128 0x8
 2600 0650 AA030000 		.4byte	.LASF111
 2601 0654 0A       		.byte	0xa
 2602 0655 50       		.byte	0x50
 2603 0656 61000000 		.4byte	0x61
 2604 065a 10       		.byte	0x10
 2605 065b 08       		.uleb128 0x8
 2606 065c 06050000 		.4byte	.LASF12
 2607 0660 0A       		.byte	0xa
 2608 0661 56       		.byte	0x56
 2609 0662 F8060000 		.4byte	0x6f8
 2610 0666 14       		.byte	0x14
 2611 0667 08       		.uleb128 0x8
 2612 0668 B80A0000 		.4byte	.LASF112
 2613 066c 0A       		.byte	0xa
 2614 066d 5C       		.byte	0x5c
 2615 066e 45000000 		.4byte	0x45
 2616 0672 34       		.byte	0x34
ARM GAS  C:\Users\PANXIA~1\AppData\Local\Temp\cczfv69T.s 			page 81


 2617 0673 08       		.uleb128 0x8
 2618 0674 8F030000 		.4byte	.LASF113
 2619 0678 0A       		.byte	0xa
 2620 0679 5D       		.byte	0x5d
 2621 067a 45000000 		.4byte	0x45
 2622 067e 35       		.byte	0x35
 2623 067f 08       		.uleb128 0x8
 2624 0680 C4090000 		.4byte	.LASF114
 2625 0684 0A       		.byte	0xa
 2626 0685 5E       		.byte	0x5e
 2627 0686 45000000 		.4byte	0x45
 2628 068a 36       		.byte	0x36
 2629 068b 08       		.uleb128 0x8
 2630 068c 0D090000 		.4byte	.LASF115
 2631 0690 0A       		.byte	0xa
 2632 0691 5F       		.byte	0x5f
 2633 0692 61000000 		.4byte	0x61
 2634 0696 38       		.byte	0x38
 2635 0697 08       		.uleb128 0x8
 2636 0698 B1030000 		.4byte	.LASF116
 2637 069c 0A       		.byte	0xa
 2638 069d 60       		.byte	0x60
 2639 069e 45000000 		.4byte	0x45
 2640 06a2 3C       		.byte	0x3c
 2641 06a3 08       		.uleb128 0x8
 2642 06a4 E6010000 		.4byte	.LASF117
 2643 06a8 0A       		.byte	0xa
 2644 06a9 61       		.byte	0x61
 2645 06aa 45000000 		.4byte	0x45
 2646 06ae 3D       		.byte	0x3d
 2647 06af 08       		.uleb128 0x8
 2648 06b0 D3020000 		.4byte	.LASF118
 2649 06b4 0A       		.byte	0xa
 2650 06b5 62       		.byte	0x62
 2651 06b6 45000000 		.4byte	0x45
 2652 06ba 3E       		.byte	0x3e
 2653 06bb 08       		.uleb128 0x8
 2654 06bc DD070000 		.4byte	.LASF119
 2655 06c0 0A       		.byte	0xa
 2656 06c1 63       		.byte	0x63
 2657 06c2 B7050000 		.4byte	0x5b7
 2658 06c6 3F       		.byte	0x3f
 2659 06c7 08       		.uleb128 0x8
 2660 06c8 4A060000 		.4byte	.LASF120
 2661 06cc 0A       		.byte	0xa
 2662 06cd 64       		.byte	0x64
 2663 06ce C5000000 		.4byte	0xc5
 2664 06d2 40       		.byte	0x40
 2665 06d3 08       		.uleb128 0x8
 2666 06d4 C9010000 		.4byte	.LASF121
 2667 06d8 0A       		.byte	0xa
 2668 06d9 66       		.byte	0x66
 2669 06da 45000000 		.4byte	0x45
 2670 06de 48       		.byte	0x48
 2671 06df 08       		.uleb128 0x8
 2672 06e0 460B0000 		.4byte	.LASF122
 2673 06e4 0A       		.byte	0xa
ARM GAS  C:\Users\PANXIA~1\AppData\Local\Temp\cczfv69T.s 			page 82


 2674 06e5 6A       		.byte	0x6a
 2675 06e6 4C000000 		.4byte	0x4c
 2676 06ea 4A       		.byte	0x4a
 2677 06eb 08       		.uleb128 0x8
 2678 06ec 6C030000 		.4byte	.LASF123
 2679 06f0 0A       		.byte	0xa
 2680 06f1 70       		.byte	0x70
 2681 06f2 C2050000 		.4byte	0x5c2
 2682 06f6 4C       		.byte	0x4c
 2683 06f7 00       		.byte	0
 2684 06f8 0A       		.uleb128 0xa
 2685 06f9 45000000 		.4byte	0x45
 2686 06fd 08070000 		.4byte	0x708
 2687 0701 0B       		.uleb128 0xb
 2688 0702 76000000 		.4byte	0x76
 2689 0706 1F       		.byte	0x1f
 2690 0707 00       		.byte	0
 2691 0708 03       		.uleb128 0x3
 2692 0709 C9030000 		.4byte	.LASF124
 2693 070d 0A       		.byte	0xa
 2694 070e 72       		.byte	0x72
 2695 070f E3050000 		.4byte	0x5e3
 2696 0713 15       		.uleb128 0x15
 2697 0714 6E060000 		.4byte	.LASF151
 2698 0718 01       		.byte	0x1
 2699 0719 0B       		.byte	0xb
 2700 071a 33       		.byte	0x33
 2701 071b 51070000 		.4byte	0x751
 2702 071f 14       		.uleb128 0x14
 2703 0720 F7000000 		.4byte	.LASF125
 2704 0724 00       		.sleb128 0
 2705 0725 14       		.uleb128 0x14
 2706 0726 28040000 		.4byte	.LASF126
 2707 072a 01       		.sleb128 1
 2708 072b 14       		.uleb128 0x14
 2709 072c 91010000 		.4byte	.LASF127
 2710 0730 02       		.sleb128 2
 2711 0731 14       		.uleb128 0x14
 2712 0732 63040000 		.4byte	.LASF128
 2713 0736 02       		.sleb128 2
 2714 0737 14       		.uleb128 0x14
 2715 0738 26000000 		.4byte	.LASF129
 2716 073c 04       		.sleb128 4
 2717 073d 14       		.uleb128 0x14
 2718 073e F50A0000 		.4byte	.LASF130
 2719 0742 05       		.sleb128 5
 2720 0743 14       		.uleb128 0x14
 2721 0744 260B0000 		.4byte	.LASF131
 2722 0748 FF00     		.sleb128 127
 2723 074a 14       		.uleb128 0x14
 2724 074b 9B050000 		.4byte	.LASF132
 2725 074f 0F       		.sleb128 15
 2726 0750 00       		.byte	0
 2727 0751 03       		.uleb128 0x3
 2728 0752 FD090000 		.4byte	.LASF133
 2729 0756 0B       		.byte	0xb
 2730 0757 3E       		.byte	0x3e
ARM GAS  C:\Users\PANXIA~1\AppData\Local\Temp\cczfv69T.s 			page 83


 2731 0758 13070000 		.4byte	0x713
 2732 075c 07       		.uleb128 0x7
 2733 075d 07       		.byte	0x7
 2734 075e 0B       		.byte	0xb
 2735 075f 40       		.byte	0x40
 2736 0760 B9070000 		.4byte	0x7b9
 2737 0764 08       		.uleb128 0x8
 2738 0765 E5080000 		.4byte	.LASF134
 2739 0769 0B       		.byte	0xb
 2740 076a 42       		.byte	0x42
 2741 076b 3E000000 		.4byte	0x3e
 2742 076f 00       		.byte	0
 2743 0770 08       		.uleb128 0x8
 2744 0771 CD020000 		.4byte	.LASF135
 2745 0775 0B       		.byte	0xb
 2746 0776 43       		.byte	0x43
 2747 0777 3E000000 		.4byte	0x3e
 2748 077b 01       		.byte	0x1
 2749 077c 08       		.uleb128 0x8
 2750 077d F9020000 		.4byte	.LASF136
 2751 0781 0B       		.byte	0xb
 2752 0782 44       		.byte	0x44
 2753 0783 3E000000 		.4byte	0x3e
 2754 0787 02       		.byte	0x2
 2755 0788 08       		.uleb128 0x8
 2756 0789 55070000 		.4byte	.LASF137
 2757 078d 0B       		.byte	0xb
 2758 078e 45       		.byte	0x45
 2759 078f 3E000000 		.4byte	0x3e
 2760 0793 03       		.byte	0x3
 2761 0794 08       		.uleb128 0x8
 2762 0795 00000000 		.4byte	.LASF138
 2763 0799 0B       		.byte	0xb
 2764 079a 46       		.byte	0x46
 2765 079b 3E000000 		.4byte	0x3e
 2766 079f 04       		.byte	0x4
 2767 07a0 08       		.uleb128 0x8
 2768 07a1 4B000000 		.4byte	.LASF139
 2769 07a5 0B       		.byte	0xb
 2770 07a6 47       		.byte	0x47
 2771 07a7 3E000000 		.4byte	0x3e
 2772 07ab 05       		.byte	0x5
 2773 07ac 08       		.uleb128 0x8
 2774 07ad 4A050000 		.4byte	.LASF140
 2775 07b1 0B       		.byte	0xb
 2776 07b2 48       		.byte	0x48
 2777 07b3 3E000000 		.4byte	0x3e
 2778 07b7 06       		.byte	0x6
 2779 07b8 00       		.byte	0
 2780 07b9 03       		.uleb128 0x3
 2781 07ba 0C010000 		.4byte	.LASF141
 2782 07be 0B       		.byte	0xb
 2783 07bf 49       		.byte	0x49
 2784 07c0 5C070000 		.4byte	0x75c
 2785 07c4 03       		.uleb128 0x3
 2786 07c5 7B070000 		.4byte	.LASF142
 2787 07c9 0B       		.byte	0xb
ARM GAS  C:\Users\PANXIA~1\AppData\Local\Temp\cczfv69T.s 			page 84


 2788 07ca 4F       		.byte	0x4f
 2789 07cb CF070000 		.4byte	0x7cf
 2790 07cf 06       		.uleb128 0x6
 2791 07d0 04       		.byte	0x4
 2792 07d1 D5070000 		.4byte	0x7d5
 2793 07d5 12       		.uleb128 0x12
 2794 07d6 E0070000 		.4byte	0x7e0
 2795 07da 10       		.uleb128 0x10
 2796 07db E3040000 		.4byte	0x4e3
 2797 07df 00       		.byte	0
 2798 07e0 03       		.uleb128 0x3
 2799 07e1 3B070000 		.4byte	.LASF143
 2800 07e5 0B       		.byte	0xb
 2801 07e6 50       		.byte	0x50
 2802 07e7 CF070000 		.4byte	0x7cf
 2803 07eb 03       		.uleb128 0x3
 2804 07ec 24060000 		.4byte	.LASF144
 2805 07f0 0B       		.byte	0xb
 2806 07f1 51       		.byte	0x51
 2807 07f2 CF070000 		.4byte	0x7cf
 2808 07f6 03       		.uleb128 0x3
 2809 07f7 5C010000 		.4byte	.LASF145
 2810 07fb 0B       		.byte	0xb
 2811 07fc 52       		.byte	0x52
 2812 07fd CF070000 		.4byte	0x7cf
 2813 0801 03       		.uleb128 0x3
 2814 0802 35040000 		.4byte	.LASF146
 2815 0806 0C       		.byte	0xc
 2816 0807 30       		.byte	0x30
 2817 0808 CD050000 		.4byte	0x5cd
 2818 080c 03       		.uleb128 0x3
 2819 080d EA050000 		.4byte	.LASF147
 2820 0811 0C       		.byte	0xc
 2821 0812 33       		.byte	0x33
 2822 0813 CD050000 		.4byte	0x5cd
 2823 0817 03       		.uleb128 0x3
 2824 0818 51000000 		.4byte	.LASF148
 2825 081c 0C       		.byte	0xc
 2826 081d 36       		.byte	0x36
 2827 081e 22080000 		.4byte	0x822
 2828 0822 06       		.uleb128 0x6
 2829 0823 04       		.byte	0x4
 2830 0824 28080000 		.4byte	0x828
 2831 0828 12       		.uleb128 0x12
 2832 0829 3D080000 		.4byte	0x83d
 2833 082d 10       		.uleb128 0x10
 2834 082e E3040000 		.4byte	0x4e3
 2835 0832 10       		.uleb128 0x10
 2836 0833 45000000 		.4byte	0x45
 2837 0837 10       		.uleb128 0x10
 2838 0838 51070000 		.4byte	0x751
 2839 083c 00       		.byte	0
 2840 083d 03       		.uleb128 0x3
 2841 083e 0A040000 		.4byte	.LASF149
 2842 0842 0D       		.byte	0xd
 2843 0843 2F       		.byte	0x2f
 2844 0844 CF070000 		.4byte	0x7cf
ARM GAS  C:\Users\PANXIA~1\AppData\Local\Temp\cczfv69T.s 			page 85


 2845 0848 03       		.uleb128 0x3
 2846 0849 E4070000 		.4byte	.LASF150
 2847 084d 0D       		.byte	0xd
 2848 084e 32       		.byte	0x32
 2849 084f CF070000 		.4byte	0x7cf
 2850 0853 15       		.uleb128 0x15
 2851 0854 C2040000 		.4byte	.LASF152
 2852 0858 01       		.byte	0x1
 2853 0859 0E       		.byte	0xe
 2854 085a 39       		.byte	0x39
 2855 085b 6C080000 		.4byte	0x86c
 2856 085f 14       		.uleb128 0x14
 2857 0860 72040000 		.4byte	.LASF153
 2858 0864 00       		.sleb128 0
 2859 0865 14       		.uleb128 0x14
 2860 0866 FE080000 		.4byte	.LASF154
 2861 086a 01       		.sleb128 1
 2862 086b 00       		.byte	0
 2863 086c 03       		.uleb128 0x3
 2864 086d 2B030000 		.4byte	.LASF155
 2865 0871 0E       		.byte	0xe
 2866 0872 3C       		.byte	0x3c
 2867 0873 53080000 		.4byte	0x853
 2868 0877 07       		.uleb128 0x7
 2869 0878 04       		.byte	0x4
 2870 0879 0E       		.byte	0xe
 2871 087a 3E       		.byte	0x3e
 2872 087b A4080000 		.4byte	0x8a4
 2873 087f 08       		.uleb128 0x8
 2874 0880 24020000 		.4byte	.LASF156
 2875 0884 0E       		.byte	0xe
 2876 0885 3F       		.byte	0x3f
 2877 0886 53000000 		.4byte	0x53
 2878 088a 00       		.byte	0
 2879 088b 08       		.uleb128 0x8
 2880 088c CD080000 		.4byte	.LASF157
 2881 0890 0E       		.byte	0xe
 2882 0891 40       		.byte	0x40
 2883 0892 45000000 		.4byte	0x45
 2884 0896 02       		.byte	0x2
 2885 0897 08       		.uleb128 0x8
 2886 0898 D2010000 		.4byte	.LASF158
 2887 089c 0E       		.byte	0xe
 2888 089d 41       		.byte	0x41
 2889 089e 45000000 		.4byte	0x45
 2890 08a2 03       		.byte	0x3
 2891 08a3 00       		.byte	0
 2892 08a4 03       		.uleb128 0x3
 2893 08a5 3D0B0000 		.4byte	.LASF159
 2894 08a9 0E       		.byte	0xe
 2895 08aa 42       		.byte	0x42
 2896 08ab 77080000 		.4byte	0x877
 2897 08af 03       		.uleb128 0x3
 2898 08b0 9C010000 		.4byte	.LASF160
 2899 08b4 0E       		.byte	0xe
 2900 08b5 47       		.byte	0x47
 2901 08b6 BA080000 		.4byte	0x8ba
ARM GAS  C:\Users\PANXIA~1\AppData\Local\Temp\cczfv69T.s 			page 86


 2902 08ba 06       		.uleb128 0x6
 2903 08bb 04       		.byte	0x4
 2904 08bc C0080000 		.4byte	0x8c0
 2905 08c0 12       		.uleb128 0x12
 2906 08c1 DA080000 		.4byte	0x8da
 2907 08c5 10       		.uleb128 0x10
 2908 08c6 E3040000 		.4byte	0x4e3
 2909 08ca 10       		.uleb128 0x10
 2910 08cb 45000000 		.4byte	0x45
 2911 08cf 10       		.uleb128 0x10
 2912 08d0 53000000 		.4byte	0x53
 2913 08d4 10       		.uleb128 0x10
 2914 08d5 45000000 		.4byte	0x45
 2915 08d9 00       		.byte	0
 2916 08da 06       		.uleb128 0x6
 2917 08db 04       		.byte	0x4
 2918 08dc F1000000 		.4byte	0xf1
 2919 08e0 06       		.uleb128 0x6
 2920 08e1 04       		.byte	0x4
 2921 08e2 4C000000 		.4byte	0x4c
 2922 08e6 06       		.uleb128 0x6
 2923 08e7 04       		.byte	0x4
 2924 08e8 EC080000 		.4byte	0x8ec
 2925 08ec 11       		.uleb128 0x11
 2926 08ed AE040000 		.4byte	0x4ae
 2927 08f1 06       		.uleb128 0x6
 2928 08f2 04       		.byte	0x4
 2929 08f3 F7080000 		.4byte	0x8f7
 2930 08f7 11       		.uleb128 0x11
 2931 08f8 53000000 		.4byte	0x53
 2932 08fc 06       		.uleb128 0x6
 2933 08fd 04       		.byte	0x4
 2934 08fe 02090000 		.4byte	0x902
 2935 0902 11       		.uleb128 0x11
 2936 0903 45000000 		.4byte	0x45
 2937 0907 0A       		.uleb128 0xa
 2938 0908 08070000 		.4byte	0x708
 2939 090c 17090000 		.4byte	0x917
 2940 0910 0B       		.uleb128 0xb
 2941 0911 76000000 		.4byte	0x76
 2942 0915 00       		.byte	0
 2943 0916 00       		.byte	0
 2944 0917 06       		.uleb128 0x6
 2945 0918 04       		.byte	0x4
 2946 0919 53000000 		.4byte	0x53
 2947 091d 0A       		.uleb128 0xa
 2948 091e 51070000 		.4byte	0x751
 2949 0922 2D090000 		.4byte	0x92d
 2950 0926 0B       		.uleb128 0xb
 2951 0927 76000000 		.4byte	0x76
 2952 092b 7F       		.byte	0x7f
 2953 092c 00       		.byte	0
 2954 092d 0A       		.uleb128 0xa
 2955 092e A4080000 		.4byte	0x8a4
 2956 0932 3D090000 		.4byte	0x93d
 2957 0936 0B       		.uleb128 0xb
 2958 0937 76000000 		.4byte	0x76
ARM GAS  C:\Users\PANXIA~1\AppData\Local\Temp\cczfv69T.s 			page 87


 2959 093b 07       		.byte	0x7
 2960 093c 00       		.byte	0
 2961 093d 16       		.uleb128 0x16
 2962 093e 85050000 		.4byte	.LASF221
 2963 0942 01       		.byte	0x1
 2964 0943 4F05     		.2byte	0x54f
 2965 0945 00000000 		.4byte	.LFB4
 2966 0949 2A000000 		.4byte	.LFE4-.LFB4
 2967 094d 01       		.uleb128 0x1
 2968 094e 9C       		.byte	0x9c
 2969 094f 93090000 		.4byte	0x993
 2970 0953 17       		.uleb128 0x17
 2971 0954 6400     		.ascii	"d\000"
 2972 0956 01       		.byte	0x1
 2973 0957 4F05     		.2byte	0x54f
 2974 0959 E3040000 		.4byte	0x4e3
 2975 095d 00000000 		.4byte	.LLST0
 2976 0961 18       		.uleb128 0x18
 2977 0962 65020000 		.4byte	.LASF161
 2978 0966 01       		.byte	0x1
 2979 0967 4F05     		.2byte	0x54f
 2980 0969 61000000 		.4byte	0x61
 2981 096d 21000000 		.4byte	.LLST1
 2982 0971 17       		.uleb128 0x17
 2983 0972 70646F00 		.ascii	"pdo\000"
 2984 0976 01       		.byte	0x1
 2985 0977 4F05     		.2byte	0x54f
 2986 0979 E0000000 		.4byte	0xe0
 2987 097d 42000000 		.4byte	.LLST2
 2988 0981 19       		.uleb128 0x19
 2989 0982 28000000 		.4byte	.LVL3
 2990 0986 1B140000 		.4byte	0x141b
 2991 098a 1A       		.uleb128 0x1a
 2992 098b 01       		.uleb128 0x1
 2993 098c 51       		.byte	0x51
 2994 098d 03       		.uleb128 0x3
 2995 098e F3       		.byte	0xf3
 2996 098f 01       		.uleb128 0x1
 2997 0990 52       		.byte	0x52
 2998 0991 00       		.byte	0
 2999 0992 00       		.byte	0
 3000 0993 1B       		.uleb128 0x1b
 3001 0994 80030000 		.4byte	.LASF177
 3002 0998 01       		.byte	0x1
 3003 0999 DB03     		.2byte	0x3db
 3004 099b 45000000 		.4byte	0x45
 3005 099f 00000000 		.4byte	.LFB1
 3006 09a3 5E000000 		.4byte	.LFE1-.LFB1
 3007 09a7 01       		.uleb128 0x1
 3008 09a8 9C       		.byte	0x9c
 3009 09a9 230A0000 		.4byte	0xa23
 3010 09ad 17       		.uleb128 0x17
 3011 09ae 6400     		.ascii	"d\000"
 3012 09b0 01       		.byte	0x1
 3013 09b1 DB03     		.2byte	0x3db
 3014 09b3 E3040000 		.4byte	0x4e3
 3015 09b7 63000000 		.4byte	.LLST3
ARM GAS  C:\Users\PANXIA~1\AppData\Local\Temp\cczfv69T.s 			page 88


 3016 09bb 18       		.uleb128 0x18
 3017 09bc C3080000 		.4byte	.LASF162
 3018 09c0 01       		.byte	0x1
 3019 09c1 DB03     		.2byte	0x3db
 3020 09c3 53000000 		.4byte	0x53
 3021 09c7 E8000000 		.4byte	.LLST4
 3022 09cb 1C       		.uleb128 0x1c
 3023 09cc C4000000 		.4byte	.LASF163
 3024 09d0 01       		.byte	0x1
 3025 09d1 DD03     		.2byte	0x3dd
 3026 09d3 1E050000 		.4byte	0x51e
 3027 09d7 22010000 		.4byte	.LLST5
 3028 09db 1C       		.uleb128 0x1c
 3029 09dc AA030000 		.4byte	.LASF111
 3030 09e0 01       		.byte	0x1
 3031 09e1 DE03     		.2byte	0x3de
 3032 09e3 53000000 		.4byte	0x53
 3033 09e7 5D010000 		.4byte	.LLST6
 3034 09eb 1D       		.uleb128 0x1d
 3035 09ec D3000000 		.4byte	.LASF30
 3036 09f0 01       		.byte	0x1
 3037 09f1 DF03     		.2byte	0x3df
 3038 09f3 53000000 		.4byte	0x53
 3039 09f7 01       		.uleb128 0x1
 3040 09f8 54       		.byte	0x54
 3041 09f9 1E       		.uleb128 0x1e
 3042 09fa 2E000000 		.4byte	.LBB2
 3043 09fe 1E000000 		.4byte	.LBE2-.LBB2
 3044 0a02 1F       		.uleb128 0x1f
 3045 0a03 70646F00 		.ascii	"pdo\000"
 3046 0a07 01       		.byte	0x1
 3047 0a08 F603     		.2byte	0x3f6
 3048 0a0a D5000000 		.4byte	0xd5
 3049 0a0e 02       		.uleb128 0x2
 3050 0a0f 91       		.byte	0x91
 3051 0a10 6C       		.sleb128 -20
 3052 0a11 19       		.uleb128 0x19
 3053 0a12 4A000000 		.4byte	.LVL15
 3054 0a16 1B140000 		.4byte	0x141b
 3055 0a1a 1A       		.uleb128 0x1a
 3056 0a1b 01       		.uleb128 0x1
 3057 0a1c 51       		.byte	0x51
 3058 0a1d 02       		.uleb128 0x2
 3059 0a1e 91       		.byte	0x91
 3060 0a1f 6C       		.sleb128 -20
 3061 0a20 00       		.byte	0
 3062 0a21 00       		.byte	0
 3063 0a22 00       		.byte	0
 3064 0a23 20       		.uleb128 0x20
 3065 0a24 29050000 		.4byte	.LASF191
 3066 0a28 01       		.byte	0x1
 3067 0a29 1805     		.2byte	0x518
 3068 0a2b 00000000 		.4byte	.LFB3
 3069 0a2f B8000000 		.4byte	.LFE3-.LFB3
 3070 0a33 01       		.uleb128 0x1
 3071 0a34 9C       		.byte	0x9c
 3072 0a35 130B0000 		.4byte	0xb13
ARM GAS  C:\Users\PANXIA~1\AppData\Local\Temp\cczfv69T.s 			page 89


 3073 0a39 18       		.uleb128 0x18
 3074 0a3a 44000000 		.4byte	.LASF164
 3075 0a3e 01       		.byte	0x1
 3076 0a3f 1805     		.2byte	0x518
 3077 0a41 45000000 		.4byte	0x45
 3078 0a45 D2010000 		.4byte	.LLST7
 3079 0a49 18       		.uleb128 0x18
 3080 0a4a D8080000 		.4byte	.LASF165
 3081 0a4e 01       		.byte	0x1
 3082 0a4f 1805     		.2byte	0x518
 3083 0a51 7F000000 		.4byte	0x7f
 3084 0a55 F0010000 		.4byte	.LLST8
 3085 0a59 18       		.uleb128 0x18
 3086 0a5a 9A060000 		.4byte	.LASF166
 3087 0a5e 01       		.byte	0x1
 3088 0a5f 1805     		.2byte	0x518
 3089 0a61 45000000 		.4byte	0x45
 3090 0a65 0E020000 		.4byte	.LLST9
 3091 0a69 18       		.uleb128 0x18
 3092 0a6a 2C020000 		.4byte	.LASF167
 3093 0a6e 01       		.byte	0x1
 3094 0a6f 1905     		.2byte	0x519
 3095 0a71 45000000 		.4byte	0x45
 3096 0a75 43020000 		.4byte	.LLST10
 3097 0a79 18       		.uleb128 0x18
 3098 0a7a 30010000 		.4byte	.LASF168
 3099 0a7e 01       		.byte	0x1
 3100 0a7f 1905     		.2byte	0x519
 3101 0a81 7F000000 		.4byte	0x7f
 3102 0a85 64020000 		.4byte	.LLST11
 3103 0a89 18       		.uleb128 0x18
 3104 0a8a FD030000 		.4byte	.LASF169
 3105 0a8e 01       		.byte	0x1
 3106 0a8f 1905     		.2byte	0x519
 3107 0a91 45000000 		.4byte	0x45
 3108 0a95 83020000 		.4byte	.LLST12
 3109 0a99 21       		.uleb128 0x21
 3110 0a9a 17080000 		.4byte	.LASF170
 3111 0a9e 01       		.byte	0x1
 3112 0a9f 1A05     		.2byte	0x51a
 3113 0aa1 45000000 		.4byte	0x45
 3114 0aa5 02       		.uleb128 0x2
 3115 0aa6 91       		.byte	0x91
 3116 0aa7 08       		.sleb128 8
 3117 0aa8 1E       		.uleb128 0x1e
 3118 0aa9 14000000 		.4byte	.LBB3
 3119 0aad 9C000000 		.4byte	.LBE3-.LBB3
 3120 0ab1 1C       		.uleb128 0x1c
 3121 0ab2 5E040000 		.4byte	.LASF171
 3122 0ab6 01       		.byte	0x1
 3123 0ab7 2205     		.2byte	0x522
 3124 0ab9 3E000000 		.4byte	0x3e
 3125 0abd C4020000 		.4byte	.LLST13
 3126 0ac1 1C       		.uleb128 0x1c
 3127 0ac2 FD050000 		.4byte	.LASF172
 3128 0ac6 01       		.byte	0x1
 3129 0ac7 2505     		.2byte	0x525
ARM GAS  C:\Users\PANXIA~1\AppData\Local\Temp\cczfv69T.s 			page 90


 3130 0ac9 45000000 		.4byte	0x45
 3131 0acd E7020000 		.4byte	.LLST14
 3132 0ad1 1C       		.uleb128 0x1c
 3133 0ad2 400A0000 		.4byte	.LASF173
 3134 0ad6 01       		.byte	0x1
 3135 0ad7 2905     		.2byte	0x529
 3136 0ad9 45000000 		.4byte	0x45
 3137 0add FA020000 		.4byte	.LLST15
 3138 0ae1 1C       		.uleb128 0x1c
 3139 0ae2 B2050000 		.4byte	.LASF174
 3140 0ae6 01       		.byte	0x1
 3141 0ae7 2A05     		.2byte	0x52a
 3142 0ae9 45000000 		.4byte	0x45
 3143 0aed 0D030000 		.4byte	.LLST16
 3144 0af1 1C       		.uleb128 0x1c
 3145 0af2 22010000 		.4byte	.LASF175
 3146 0af6 01       		.byte	0x1
 3147 0af7 2D05     		.2byte	0x52d
 3148 0af9 45000000 		.4byte	0x45
 3149 0afd 20030000 		.4byte	.LLST17
 3150 0b01 1C       		.uleb128 0x1c
 3151 0b02 D6060000 		.4byte	.LASF176
 3152 0b06 01       		.byte	0x1
 3153 0b07 3205     		.2byte	0x532
 3154 0b09 45000000 		.4byte	0x45
 3155 0b0d 4C030000 		.4byte	.LLST18
 3156 0b11 00       		.byte	0
 3157 0b12 00       		.byte	0
 3158 0b13 1B       		.uleb128 0x1b
 3159 0b14 5C020000 		.4byte	.LASF178
 3160 0b18 01       		.byte	0x1
 3161 0b19 9303     		.2byte	0x393
 3162 0b1b 45000000 		.4byte	0x45
 3163 0b1f 00000000 		.4byte	.LFB0
 3164 0b23 E2000000 		.4byte	.LFE0-.LFB0
 3165 0b27 01       		.uleb128 0x1
 3166 0b28 9C       		.byte	0x9c
 3167 0b29 8A0C0000 		.4byte	0xc8a
 3168 0b2d 17       		.uleb128 0x17
 3169 0b2e 6400     		.ascii	"d\000"
 3170 0b30 01       		.byte	0x1
 3171 0b31 9303     		.2byte	0x393
 3172 0b33 E3040000 		.4byte	0x4e3
 3173 0b37 5F030000 		.4byte	.LLST19
 3174 0b3b 18       		.uleb128 0x18
 3175 0b3c E3050000 		.4byte	.LASF179
 3176 0b40 01       		.byte	0x1
 3177 0b41 9303     		.2byte	0x393
 3178 0b43 45000000 		.4byte	0x45
 3179 0b47 7D030000 		.4byte	.LLST20
 3180 0b4b 17       		.uleb128 0x17
 3181 0b4c 70646F00 		.ascii	"pdo\000"
 3182 0b50 01       		.byte	0x1
 3183 0b51 9303     		.2byte	0x393
 3184 0b53 E0000000 		.4byte	0xe0
 3185 0b57 9E030000 		.4byte	.LLST21
 3186 0b5b 1C       		.uleb128 0x1c
ARM GAS  C:\Users\PANXIA~1\AppData\Local\Temp\cczfv69T.s 			page 91


 3187 0b5c F9060000 		.4byte	.LASF180
 3188 0b60 01       		.byte	0x1
 3189 0b61 9503     		.2byte	0x395
 3190 0b63 E9040000 		.4byte	0x4e9
 3191 0b67 BC030000 		.4byte	.LLST22
 3192 0b6b 1D       		.uleb128 0x1d
 3193 0b6c 4C070000 		.4byte	.LASF181
 3194 0b70 01       		.byte	0x1
 3195 0b71 9603     		.2byte	0x396
 3196 0b73 E9040000 		.4byte	0x4e9
 3197 0b77 01       		.uleb128 0x1
 3198 0b78 56       		.byte	0x56
 3199 0b79 1C       		.uleb128 0x1c
 3200 0b7a 06010000 		.4byte	.LASF182
 3201 0b7e 01       		.byte	0x1
 3202 0b7f 9803     		.2byte	0x398
 3203 0b81 45000000 		.4byte	0x45
 3204 0b85 D6030000 		.4byte	.LLST23
 3205 0b89 1C       		.uleb128 0x1c
 3206 0b8a AA030000 		.4byte	.LASF111
 3207 0b8e 01       		.byte	0x1
 3208 0b8f 9903     		.2byte	0x399
 3209 0b91 61000000 		.4byte	0x61
 3210 0b95 00040000 		.4byte	.LLST24
 3211 0b99 1D       		.uleb128 0x1d
 3212 0b9a 1E0A0000 		.4byte	.LASF183
 3213 0b9e 01       		.byte	0x1
 3214 0b9f 9A03     		.2byte	0x39a
 3215 0ba1 FC080000 		.4byte	0x8fc
 3216 0ba5 01       		.uleb128 0x1
 3217 0ba6 57       		.byte	0x57
 3218 0ba7 1E       		.uleb128 0x1e
 3219 0ba8 38000000 		.4byte	.LBB4
 3220 0bac 92000000 		.4byte	.LBE4-.LBB4
 3221 0bb0 1D       		.uleb128 0x1d
 3222 0bb1 C9010000 		.4byte	.LASF121
 3223 0bb5 01       		.byte	0x1
 3224 0bb6 A503     		.2byte	0x3a5
 3225 0bb8 45000000 		.4byte	0x45
 3226 0bbc 02       		.uleb128 0x2
 3227 0bbd 91       		.byte	0x91
 3228 0bbe 4B       		.sleb128 -53
 3229 0bbf 1F       		.uleb128 0x1f
 3230 0bc0 746D7000 		.ascii	"tmp\000"
 3231 0bc4 01       		.byte	0x1
 3232 0bc5 A603     		.2byte	0x3a6
 3233 0bc7 C5000000 		.4byte	0xc5
 3234 0bcb 02       		.uleb128 0x2
 3235 0bcc 91       		.byte	0x91
 3236 0bcd 50       		.sleb128 -48
 3237 0bce 1C       		.uleb128 0x1c
 3238 0bcf 16040000 		.4byte	.LASF184
 3239 0bd3 01       		.byte	0x1
 3240 0bd4 A903     		.2byte	0x3a9
 3241 0bd6 1E050000 		.4byte	0x51e
 3242 0bda 35040000 		.4byte	.LLST25
 3243 0bde 1C       		.uleb128 0x1c
ARM GAS  C:\Users\PANXIA~1\AppData\Local\Temp\cczfv69T.s 			page 92


 3244 0bdf 72020000 		.4byte	.LASF84
 3245 0be3 01       		.byte	0x1
 3246 0be4 AB03     		.2byte	0x3ab
 3247 0be6 53000000 		.4byte	0x53
 3248 0bea 48040000 		.4byte	.LLST26
 3249 0bee 1C       		.uleb128 0x1c
 3250 0bef 6D040000 		.4byte	.LASF185
 3251 0bf3 01       		.byte	0x1
 3252 0bf4 AC03     		.2byte	0x3ac
 3253 0bf6 61000000 		.4byte	0x61
 3254 0bfa 5B040000 		.4byte	.LLST27
 3255 0bfe 1E       		.uleb128 0x1e
 3256 0bff 7C000000 		.4byte	.LBB5
 3257 0c03 4A000000 		.4byte	.LBE5-.LBB5
 3258 0c07 1D       		.uleb128 0x1d
 3259 0c08 91060000 		.4byte	.LASF186
 3260 0c0c 01       		.byte	0x1
 3261 0c0d B103     		.2byte	0x3b1
 3262 0c0f 61000000 		.4byte	0x61
 3263 0c13 02       		.uleb128 0x2
 3264 0c14 91       		.byte	0x91
 3265 0c15 4C       		.sleb128 -52
 3266 0c16 1C       		.uleb128 0x1c
 3267 0c17 8F020000 		.4byte	.LASF109
 3268 0c1b 01       		.byte	0x1
 3269 0c1c B203     		.2byte	0x3b2
 3270 0c1e 45000000 		.4byte	0x45
 3271 0c22 73040000 		.4byte	.LLST28
 3272 0c26 22       		.uleb128 0x22
 3273 0c27 A2000000 		.4byte	.LVL60
 3274 0c2b 35140000 		.4byte	0x1435
 3275 0c2f 5A0C0000 		.4byte	0xc5a
 3276 0c33 1A       		.uleb128 0x1a
 3277 0c34 01       		.uleb128 0x1
 3278 0c35 53       		.byte	0x53
 3279 0c36 02       		.uleb128 0x2
 3280 0c37 91       		.byte	0x91
 3281 0c38 50       		.sleb128 -48
 3282 0c39 1A       		.uleb128 0x1a
 3283 0c3a 01       		.uleb128 0x1
 3284 0c3b 50       		.byte	0x50
 3285 0c3c 02       		.uleb128 0x2
 3286 0c3d 79       		.byte	0x79
 3287 0c3e 00       		.sleb128 0
 3288 0c3f 1A       		.uleb128 0x1a
 3289 0c40 02       		.uleb128 0x2
 3290 0c41 7D       		.byte	0x7d
 3291 0c42 0C       		.sleb128 12
 3292 0c43 01       		.uleb128 0x1
 3293 0c44 31       		.byte	0x31
 3294 0c45 1A       		.uleb128 0x1a
 3295 0c46 02       		.uleb128 0x2
 3296 0c47 7D       		.byte	0x7d
 3297 0c48 08       		.sleb128 8
 3298 0c49 01       		.uleb128 0x1
 3299 0c4a 30       		.byte	0x30
 3300 0c4b 1A       		.uleb128 0x1a
ARM GAS  C:\Users\PANXIA~1\AppData\Local\Temp\cczfv69T.s 			page 93


 3301 0c4c 02       		.uleb128 0x2
 3302 0c4d 7D       		.byte	0x7d
 3303 0c4e 04       		.sleb128 4
 3304 0c4f 02       		.uleb128 0x2
 3305 0c50 91       		.byte	0x91
 3306 0c51 4B       		.sleb128 -53
 3307 0c52 1A       		.uleb128 0x1a
 3308 0c53 02       		.uleb128 0x2
 3309 0c54 7D       		.byte	0x7d
 3310 0c55 00       		.sleb128 0
 3311 0c56 02       		.uleb128 0x2
 3312 0c57 91       		.byte	0x91
 3313 0c58 4C       		.sleb128 -52
 3314 0c59 00       		.byte	0
 3315 0c5a 19       		.uleb128 0x19
 3316 0c5b C4000000 		.4byte	.LVL62
 3317 0c5f 230A0000 		.4byte	0xa23
 3318 0c63 1A       		.uleb128 0x1a
 3319 0c64 01       		.uleb128 0x1
 3320 0c65 53       		.byte	0x53
 3321 0c66 01       		.uleb128 0x1
 3322 0c67 30       		.byte	0x30
 3323 0c68 1A       		.uleb128 0x1a
 3324 0c69 01       		.uleb128 0x1
 3325 0c6a 52       		.byte	0x52
 3326 0c6b 01       		.uleb128 0x1
 3327 0c6c 30       		.byte	0x30
 3328 0c6d 1A       		.uleb128 0x1a
 3329 0c6e 01       		.uleb128 0x1
 3330 0c6f 51       		.byte	0x51
 3331 0c70 02       		.uleb128 0x2
 3332 0c71 91       		.byte	0x91
 3333 0c72 50       		.sleb128 -48
 3334 0c73 1A       		.uleb128 0x1a
 3335 0c74 01       		.uleb128 0x1
 3336 0c75 50       		.byte	0x50
 3337 0c76 02       		.uleb128 0x2
 3338 0c77 7A       		.byte	0x7a
 3339 0c78 00       		.sleb128 0
 3340 0c79 1A       		.uleb128 0x1a
 3341 0c7a 02       		.uleb128 0x2
 3342 0c7b 7D       		.byte	0x7d
 3343 0c7c 08       		.sleb128 8
 3344 0c7d 01       		.uleb128 0x1
 3345 0c7e 30       		.byte	0x30
 3346 0c7f 1A       		.uleb128 0x1a
 3347 0c80 02       		.uleb128 0x2
 3348 0c81 7D       		.byte	0x7d
 3349 0c82 04       		.sleb128 4
 3350 0c83 02       		.uleb128 0x2
 3351 0c84 75       		.byte	0x75
 3352 0c85 00       		.sleb128 0
 3353 0c86 00       		.byte	0
 3354 0c87 00       		.byte	0
 3355 0c88 00       		.byte	0
 3356 0c89 00       		.byte	0
 3357 0c8a 1B       		.uleb128 0x1b
ARM GAS  C:\Users\PANXIA~1\AppData\Local\Temp\cczfv69T.s 			page 94


 3358 0c8b 66010000 		.4byte	.LASF187
 3359 0c8f 01       		.byte	0x1
 3360 0c90 6A05     		.2byte	0x56a
 3361 0c92 45000000 		.4byte	0x45
 3362 0c96 00000000 		.4byte	.LFB6
 3363 0c9a FC000000 		.4byte	.LFE6-.LFB6
 3364 0c9e 01       		.uleb128 0x1
 3365 0c9f 9C       		.byte	0x9c
 3366 0ca0 DA0D0000 		.4byte	0xdda
 3367 0ca4 17       		.uleb128 0x17
 3368 0ca5 6400     		.ascii	"d\000"
 3369 0ca7 01       		.byte	0x1
 3370 0ca8 6A05     		.2byte	0x56a
 3371 0caa E3040000 		.4byte	0x4e3
 3372 0cae 86040000 		.4byte	.LLST29
 3373 0cb2 18       		.uleb128 0x18
 3374 0cb3 65020000 		.4byte	.LASF161
 3375 0cb7 01       		.byte	0x1
 3376 0cb8 6A05     		.2byte	0x56a
 3377 0cba 45000000 		.4byte	0x45
 3378 0cbe C8040000 		.4byte	.LLST30
 3379 0cc2 1C       		.uleb128 0x1c
 3380 0cc3 36000000 		.4byte	.LASF188
 3381 0cc7 01       		.byte	0x1
 3382 0cc8 6C05     		.2byte	0x56c
 3383 0cca 53000000 		.4byte	0x53
 3384 0cce 02050000 		.4byte	.LLST31
 3385 0cd2 1F       		.uleb128 0x1f
 3386 0cd3 70646F00 		.ascii	"pdo\000"
 3387 0cd7 01       		.byte	0x1
 3388 0cd8 6D05     		.2byte	0x56d
 3389 0cda D5000000 		.4byte	0xd5
 3390 0cde 02       		.uleb128 0x2
 3391 0cdf 91       		.byte	0x91
 3392 0ce0 54       		.sleb128 -44
 3393 0ce1 23       		.uleb128 0x23
 3394 0ce2 68000000 		.4byte	.LBB6
 3395 0ce6 76000000 		.4byte	.LBE6-.LBB6
 3396 0cea 9E0D0000 		.4byte	0xd9e
 3397 0cee 1C       		.uleb128 0x1c
 3398 0cef B6010000 		.4byte	.LASF189
 3399 0cf3 01       		.byte	0x1
 3400 0cf4 8E05     		.2byte	0x58e
 3401 0cf6 61000000 		.4byte	0x61
 3402 0cfa 20050000 		.4byte	.LLST32
 3403 0cfe 1C       		.uleb128 0x1c
 3404 0cff 50050000 		.4byte	.LASF190
 3405 0d03 01       		.byte	0x1
 3406 0d04 8F05     		.2byte	0x58f
 3407 0d06 61000000 		.4byte	0x61
 3408 0d0a 33050000 		.4byte	.LLST33
 3409 0d0e 24       		.uleb128 0x24
 3410 0d0f 88000000 		.4byte	.LVL72
 3411 0d13 6D140000 		.4byte	0x146d
 3412 0d17 22       		.uleb128 0x22
 3413 0d18 9C000000 		.4byte	.LVL73
 3414 0d1c 82140000 		.4byte	0x1482
ARM GAS  C:\Users\PANXIA~1\AppData\Local\Temp\cczfv69T.s 			page 95


 3415 0d20 460D0000 		.4byte	0xd46
 3416 0d24 1A       		.uleb128 0x1a
 3417 0d25 01       		.uleb128 0x1
 3418 0d26 53       		.byte	0x53
 3419 0d27 02       		.uleb128 0x2
 3420 0d28 79       		.byte	0x79
 3421 0d29 00       		.sleb128 0
 3422 0d2a 1A       		.uleb128 0x1a
 3423 0d2b 01       		.uleb128 0x1
 3424 0d2c 52       		.byte	0x52
 3425 0d2d 05       		.uleb128 0x5
 3426 0d2e 03       		.byte	0x3
 3427 0d2f 00000000 		.4byte	PDOEventTimerAlarm
 3428 0d33 1A       		.uleb128 0x1a
 3429 0d34 01       		.uleb128 0x1
 3430 0d35 51       		.byte	0x51
 3431 0d36 02       		.uleb128 0x2
 3432 0d37 76       		.byte	0x76
 3433 0d38 00       		.sleb128 0
 3434 0d39 1A       		.uleb128 0x1a
 3435 0d3a 01       		.uleb128 0x1
 3436 0d3b 50       		.byte	0x50
 3437 0d3c 02       		.uleb128 0x2
 3438 0d3d 75       		.byte	0x75
 3439 0d3e 00       		.sleb128 0
 3440 0d3f 1A       		.uleb128 0x1a
 3441 0d40 02       		.uleb128 0x2
 3442 0d41 7D       		.byte	0x7d
 3443 0d42 00       		.sleb128 0
 3444 0d43 01       		.uleb128 0x1
 3445 0d44 30       		.byte	0x30
 3446 0d45 00       		.byte	0
 3447 0d46 24       		.uleb128 0x24
 3448 0d47 B0000000 		.4byte	.LVL74
 3449 0d4b 6D140000 		.4byte	0x146d
 3450 0d4f 22       		.uleb128 0x22
 3451 0d50 C8000000 		.4byte	.LVL75
 3452 0d54 82140000 		.4byte	0x1482
 3453 0d58 810D0000 		.4byte	0xd81
 3454 0d5c 1A       		.uleb128 0x1a
 3455 0d5d 01       		.uleb128 0x1
 3456 0d5e 53       		.byte	0x53
 3457 0d5f 05       		.uleb128 0x5
 3458 0d60 78       		.byte	0x78
 3459 0d61 00       		.sleb128 0
 3460 0d62 08       		.byte	0x8
 3461 0d63 64       		.byte	0x64
 3462 0d64 1E       		.byte	0x1e
 3463 0d65 1A       		.uleb128 0x1a
 3464 0d66 01       		.uleb128 0x1
 3465 0d67 52       		.byte	0x52
 3466 0d68 05       		.uleb128 0x5
 3467 0d69 03       		.byte	0x3
 3468 0d6a 00000000 		.4byte	PDOInhibitTimerAlarm
 3469 0d6e 1A       		.uleb128 0x1a
 3470 0d6f 01       		.uleb128 0x1
 3471 0d70 51       		.byte	0x51
ARM GAS  C:\Users\PANXIA~1\AppData\Local\Temp\cczfv69T.s 			page 96


 3472 0d71 02       		.uleb128 0x2
 3473 0d72 76       		.byte	0x76
 3474 0d73 00       		.sleb128 0
 3475 0d74 1A       		.uleb128 0x1a
 3476 0d75 01       		.uleb128 0x1
 3477 0d76 50       		.byte	0x50
 3478 0d77 02       		.uleb128 0x2
 3479 0d78 75       		.byte	0x75
 3480 0d79 00       		.sleb128 0
 3481 0d7a 1A       		.uleb128 0x1a
 3482 0d7b 02       		.uleb128 0x2
 3483 0d7c 7D       		.byte	0x7d
 3484 0d7d 00       		.sleb128 0
 3485 0d7e 01       		.uleb128 0x1
 3486 0d7f 30       		.byte	0x30
 3487 0d80 00       		.byte	0
 3488 0d81 19       		.uleb128 0x19
 3489 0d82 DE000000 		.4byte	.LVL76
 3490 0d86 3D090000 		.4byte	0x93d
 3491 0d8a 1A       		.uleb128 0x1a
 3492 0d8b 01       		.uleb128 0x1
 3493 0d8c 52       		.byte	0x52
 3494 0d8d 02       		.uleb128 0x2
 3495 0d8e 91       		.byte	0x91
 3496 0d8f 54       		.sleb128 -44
 3497 0d90 1A       		.uleb128 0x1a
 3498 0d91 01       		.uleb128 0x1
 3499 0d92 51       		.byte	0x51
 3500 0d93 02       		.uleb128 0x2
 3501 0d94 76       		.byte	0x76
 3502 0d95 00       		.sleb128 0
 3503 0d96 1A       		.uleb128 0x1a
 3504 0d97 01       		.uleb128 0x1
 3505 0d98 50       		.byte	0x50
 3506 0d99 02       		.uleb128 0x2
 3507 0d9a 75       		.byte	0x75
 3508 0d9b 00       		.sleb128 0
 3509 0d9c 00       		.byte	0
 3510 0d9d 00       		.byte	0
 3511 0d9e 22       		.uleb128 0x22
 3512 0d9f 3A000000 		.4byte	.LVL68
 3513 0da3 130B0000 		.4byte	0xb13
 3514 0da7 BE0D0000 		.4byte	0xdbe
 3515 0dab 1A       		.uleb128 0x1a
 3516 0dac 01       		.uleb128 0x1
 3517 0dad 52       		.byte	0x52
 3518 0dae 02       		.uleb128 0x2
 3519 0daf 91       		.byte	0x91
 3520 0db0 54       		.sleb128 -44
 3521 0db1 1A       		.uleb128 0x1a
 3522 0db2 01       		.uleb128 0x1
 3523 0db3 51       		.byte	0x51
 3524 0db4 02       		.uleb128 0x2
 3525 0db5 76       		.byte	0x76
 3526 0db6 00       		.sleb128 0
 3527 0db7 1A       		.uleb128 0x1a
 3528 0db8 01       		.uleb128 0x1
ARM GAS  C:\Users\PANXIA~1\AppData\Local\Temp\cczfv69T.s 			page 97


 3529 0db9 50       		.byte	0x50
 3530 0dba 02       		.uleb128 0x2
 3531 0dbb 75       		.byte	0x75
 3532 0dbc 00       		.sleb128 0
 3533 0dbd 00       		.byte	0
 3534 0dbe 19       		.uleb128 0x19
 3535 0dbf 64000000 		.4byte	.LVL69
 3536 0dc3 AB140000 		.4byte	0x14ab
 3537 0dc7 1A       		.uleb128 0x1a
 3538 0dc8 01       		.uleb128 0x1
 3539 0dc9 52       		.byte	0x52
 3540 0dca 01       		.uleb128 0x1
 3541 0dcb 38       		.byte	0x38
 3542 0dcc 1A       		.uleb128 0x1a
 3543 0dcd 01       		.uleb128 0x1
 3544 0dce 51       		.byte	0x51
 3545 0dcf 02       		.uleb128 0x2
 3546 0dd0 91       		.byte	0x91
 3547 0dd1 58       		.sleb128 -40
 3548 0dd2 1A       		.uleb128 0x1a
 3549 0dd3 01       		.uleb128 0x1
 3550 0dd4 50       		.byte	0x50
 3551 0dd5 02       		.uleb128 0x2
 3552 0dd6 74       		.byte	0x74
 3553 0dd7 0A       		.sleb128 10
 3554 0dd8 00       		.byte	0
 3555 0dd9 00       		.byte	0
 3556 0dda 20       		.uleb128 0x20
 3557 0ddb CB090000 		.4byte	.LASF192
 3558 0ddf 01       		.byte	0x1
 3559 0de0 B505     		.2byte	0x5b5
 3560 0de2 00000000 		.4byte	.LFB7
 3561 0de6 22000000 		.4byte	.LFE7-.LFB7
 3562 0dea 01       		.uleb128 0x1
 3563 0deb 9C       		.byte	0x9c
 3564 0dec 270E0000 		.4byte	0xe27
 3565 0df0 17       		.uleb128 0x17
 3566 0df1 6400     		.ascii	"d\000"
 3567 0df3 01       		.byte	0x1
 3568 0df4 B505     		.2byte	0x5b5
 3569 0df6 E3040000 		.4byte	0x4e3
 3570 0dfa 46050000 		.4byte	.LLST34
 3571 0dfe 18       		.uleb128 0x18
 3572 0dff 65020000 		.4byte	.LASF161
 3573 0e03 01       		.byte	0x1
 3574 0e04 B505     		.2byte	0x5b5
 3575 0e06 61000000 		.4byte	0x61
 3576 0e0a 67050000 		.4byte	.LLST35
 3577 0e0e 19       		.uleb128 0x19
 3578 0e0f 20000000 		.4byte	.LVL82
 3579 0e13 8A0C0000 		.4byte	0xc8a
 3580 0e17 1A       		.uleb128 0x1a
 3581 0e18 01       		.uleb128 0x1
 3582 0e19 51       		.byte	0x51
 3583 0e1a 03       		.uleb128 0x3
 3584 0e1b F3       		.byte	0xf3
 3585 0e1c 01       		.uleb128 0x1
ARM GAS  C:\Users\PANXIA~1\AppData\Local\Temp\cczfv69T.s 			page 98


 3586 0e1d 51       		.byte	0x51
 3587 0e1e 1A       		.uleb128 0x1a
 3588 0e1f 01       		.uleb128 0x1
 3589 0e20 50       		.byte	0x50
 3590 0e21 03       		.uleb128 0x3
 3591 0e22 F3       		.byte	0xf3
 3592 0e23 01       		.uleb128 0x1
 3593 0e24 50       		.byte	0x50
 3594 0e25 00       		.byte	0
 3595 0e26 00       		.byte	0
 3596 0e27 1B       		.uleb128 0x1b
 3597 0e28 350A0000 		.4byte	.LASF193
 3598 0e2c 01       		.byte	0x1
 3599 0e2d 0C04     		.2byte	0x40c
 3600 0e2f 45000000 		.4byte	0x45
 3601 0e33 00000000 		.4byte	.LFB2
 3602 0e37 62020000 		.4byte	.LFE2-.LFB2
 3603 0e3b 01       		.uleb128 0x1
 3604 0e3c 9C       		.byte	0x9c
 3605 0e3d 8A100000 		.4byte	0x108a
 3606 0e41 17       		.uleb128 0x17
 3607 0e42 6400     		.ascii	"d\000"
 3608 0e44 01       		.byte	0x1
 3609 0e45 0C04     		.2byte	0x40c
 3610 0e47 E3040000 		.4byte	0x4e3
 3611 0e4b 88050000 		.4byte	.LLST36
 3612 0e4f 17       		.uleb128 0x17
 3613 0e50 6D00     		.ascii	"m\000"
 3614 0e52 01       		.byte	0x1
 3615 0e53 0C04     		.2byte	0x40c
 3616 0e55 E0000000 		.4byte	0xe0
 3617 0e59 E8050000 		.4byte	.LLST37
 3618 0e5d 1C       		.uleb128 0x1c
 3619 0e5e E3050000 		.4byte	.LASF179
 3620 0e62 01       		.byte	0x1
 3621 0e63 0E04     		.2byte	0x40e
 3622 0e65 45000000 		.4byte	0x45
 3623 0e69 68060000 		.4byte	.LLST38
 3624 0e6d 1C       		.uleb128 0x1c
 3625 0e6e 21090000 		.4byte	.LASF194
 3626 0e72 01       		.byte	0x1
 3627 0e73 0F04     		.2byte	0x40f
 3628 0e75 45000000 		.4byte	0x45
 3629 0e79 F9060000 		.4byte	.LLST39
 3630 0e7d 1C       		.uleb128 0x1c
 3631 0e7e 1E0A0000 		.4byte	.LASF183
 3632 0e82 01       		.byte	0x1
 3633 0e83 1004     		.2byte	0x410
 3634 0e85 7F000000 		.4byte	0x7f
 3635 0e89 2F070000 		.4byte	.LLST40
 3636 0e8d 1C       		.uleb128 0x1c
 3637 0e8e 16040000 		.4byte	.LASF184
 3638 0e92 01       		.byte	0x1
 3639 0e93 1504     		.2byte	0x415
 3640 0e95 1E050000 		.4byte	0x51e
 3641 0e99 5A070000 		.4byte	.LLST41
 3642 0e9d 1C       		.uleb128 0x1c
ARM GAS  C:\Users\PANXIA~1\AppData\Local\Temp\cczfv69T.s 			page 99


 3643 0e9e 78000000 		.4byte	.LASF195
 3644 0ea2 01       		.byte	0x1
 3645 0ea3 1604     		.2byte	0x416
 3646 0ea5 7F000000 		.4byte	0x7f
 3647 0ea9 85070000 		.4byte	.LLST42
 3648 0ead 1C       		.uleb128 0x1c
 3649 0eae C4000000 		.4byte	.LASF163
 3650 0eb2 01       		.byte	0x1
 3651 0eb3 1804     		.2byte	0x418
 3652 0eb5 1E050000 		.4byte	0x51e
 3653 0eb9 FB070000 		.4byte	.LLST43
 3654 0ebd 1C       		.uleb128 0x1c
 3655 0ebe 6D040000 		.4byte	.LASF185
 3656 0ec2 01       		.byte	0x1
 3657 0ec3 1904     		.2byte	0x419
 3658 0ec5 45000000 		.4byte	0x45
 3659 0ec9 A0080000 		.4byte	.LLST44
 3660 0ecd 1C       		.uleb128 0x1c
 3661 0ece AA030000 		.4byte	.LASF111
 3662 0ed2 01       		.byte	0x1
 3663 0ed3 1A04     		.2byte	0x41a
 3664 0ed5 45000000 		.4byte	0x45
 3665 0ed9 C0080000 		.4byte	.LLST45
 3666 0edd 1C       		.uleb128 0x1c
 3667 0ede 34070000 		.4byte	.LASF196
 3668 0ee2 01       		.byte	0x1
 3669 0ee3 1B04     		.2byte	0x41b
 3670 0ee5 45000000 		.4byte	0x45
 3671 0ee9 F6080000 		.4byte	.LLST46
 3672 0eed 1C       		.uleb128 0x1c
 3673 0eee 54020000 		.4byte	.LASF197
 3674 0ef2 01       		.byte	0x1
 3675 0ef3 1C04     		.2byte	0x41c
 3676 0ef5 61000000 		.4byte	0x61
 3677 0ef9 CD090000 		.4byte	.LLST47
 3678 0efd 1C       		.uleb128 0x1c
 3679 0efe 36000000 		.4byte	.LASF188
 3680 0f02 01       		.byte	0x1
 3681 0f03 1D04     		.2byte	0x41d
 3682 0f05 53000000 		.4byte	0x53
 3683 0f09 E0090000 		.4byte	.LLST48
 3684 0f0d 1C       		.uleb128 0x1c
 3685 0f0e D3000000 		.4byte	.LASF30
 3686 0f12 01       		.byte	0x1
 3687 0f13 1E04     		.2byte	0x41e
 3688 0f15 53000000 		.4byte	0x53
 3689 0f19 4C0A0000 		.4byte	.LLST49
 3690 0f1d 1C       		.uleb128 0x1c
 3691 0f1e B6010000 		.4byte	.LASF189
 3692 0f22 01       		.byte	0x1
 3693 0f23 1F04     		.2byte	0x41f
 3694 0f25 61000000 		.4byte	0x61
 3695 0f29 DD0A0000 		.4byte	.LLST50
 3696 0f2d 23       		.uleb128 0x23
 3697 0f2e 72000000 		.4byte	.LBB7
 3698 0f32 A6000000 		.4byte	.LBE7-.LBB7
 3699 0f36 C50F0000 		.4byte	0xfc5
ARM GAS  C:\Users\PANXIA~1\AppData\Local\Temp\cczfv69T.s 			page 100


 3700 0f3a 1F       		.uleb128 0x1f
 3701 0f3b 746D7000 		.ascii	"tmp\000"
 3702 0f3f 01       		.byte	0x1
 3703 0f40 5C04     		.2byte	0x45c
 3704 0f42 C5000000 		.4byte	0xc5
 3705 0f46 02       		.uleb128 0x2
 3706 0f47 91       		.byte	0x91
 3707 0f48 4C       		.sleb128 -52
 3708 0f49 1D       		.uleb128 0x1d
 3709 0f4a 91060000 		.4byte	.LASF186
 3710 0f4e 01       		.byte	0x1
 3711 0f4f 5D04     		.2byte	0x45d
 3712 0f51 61000000 		.4byte	0x61
 3713 0f55 02       		.uleb128 0x2
 3714 0f56 91       		.byte	0x91
 3715 0f57 48       		.sleb128 -56
 3716 0f58 22       		.uleb128 0x22
 3717 0f59 DE000000 		.4byte	.LVL108
 3718 0f5d 230A0000 		.4byte	0xa23
 3719 0f61 9B0F0000 		.4byte	0xf9b
 3720 0f65 1A       		.uleb128 0x1a
 3721 0f66 01       		.uleb128 0x1
 3722 0f67 53       		.byte	0x53
 3723 0f68 01       		.uleb128 0x1
 3724 0f69 30       		.byte	0x30
 3725 0f6a 1A       		.uleb128 0x1a
 3726 0f6b 01       		.uleb128 0x1
 3727 0f6c 52       		.byte	0x52
 3728 0f6d 04       		.uleb128 0x4
 3729 0f6e 7B       		.byte	0x7b
 3730 0f6f 00       		.sleb128 0
 3731 0f70 37       		.byte	0x37
 3732 0f71 1A       		.byte	0x1a
 3733 0f72 1A       		.uleb128 0x1a
 3734 0f73 01       		.uleb128 0x1
 3735 0f74 51       		.byte	0x51
 3736 0f75 0B       		.uleb128 0xb
 3737 0f76 7B       		.byte	0x7b
 3738 0f77 00       		.sleb128 0
 3739 0f78 33       		.byte	0x33
 3740 0f79 25       		.byte	0x25
 3741 0f7a 91       		.byte	0x91
 3742 0f7b B87F     		.sleb128 -72
 3743 0f7d 06       		.byte	0x6
 3744 0f7e 22       		.byte	0x22
 3745 0f7f 23       		.byte	0x23
 3746 0f80 04       		.uleb128 0x4
 3747 0f81 1A       		.uleb128 0x1a
 3748 0f82 01       		.uleb128 0x1
 3749 0f83 50       		.byte	0x50
 3750 0f84 02       		.uleb128 0x2
 3751 0f85 78       		.byte	0x78
 3752 0f86 00       		.sleb128 0
 3753 0f87 1A       		.uleb128 0x1a
 3754 0f88 02       		.uleb128 0x2
 3755 0f89 7D       		.byte	0x7d
 3756 0f8a 08       		.sleb128 8
ARM GAS  C:\Users\PANXIA~1\AppData\Local\Temp\cczfv69T.s 			page 101


 3757 0f8b 01       		.uleb128 0x1
 3758 0f8c 30       		.byte	0x30
 3759 0f8d 1A       		.uleb128 0x1a
 3760 0f8e 02       		.uleb128 0x2
 3761 0f8f 7D       		.byte	0x7d
 3762 0f90 04       		.sleb128 4
 3763 0f91 01       		.uleb128 0x1
 3764 0f92 30       		.byte	0x30
 3765 0f93 1A       		.uleb128 0x1a
 3766 0f94 02       		.uleb128 0x2
 3767 0f95 7D       		.byte	0x7d
 3768 0f96 00       		.sleb128 0
 3769 0f97 02       		.uleb128 0x2
 3770 0f98 91       		.byte	0x91
 3771 0f99 4C       		.sleb128 -52
 3772 0f9a 00       		.byte	0
 3773 0f9b 19       		.uleb128 0x19
 3774 0f9c 04010000 		.4byte	.LVL111
 3775 0fa0 D1140000 		.4byte	0x14d1
 3776 0fa4 1A       		.uleb128 0x1a
 3777 0fa5 01       		.uleb128 0x1
 3778 0fa6 53       		.byte	0x53
 3779 0fa7 02       		.uleb128 0x2
 3780 0fa8 91       		.byte	0x91
 3781 0fa9 4C       		.sleb128 -52
 3782 0faa 1A       		.uleb128 0x1a
 3783 0fab 01       		.uleb128 0x1
 3784 0fac 50       		.byte	0x50
 3785 0fad 02       		.uleb128 0x2
 3786 0fae 77       		.byte	0x77
 3787 0faf 00       		.sleb128 0
 3788 0fb0 1A       		.uleb128 0x1a
 3789 0fb1 02       		.uleb128 0x2
 3790 0fb2 7D       		.byte	0x7d
 3791 0fb3 08       		.sleb128 8
 3792 0fb4 01       		.uleb128 0x1
 3793 0fb5 31       		.byte	0x31
 3794 0fb6 1A       		.uleb128 0x1a
 3795 0fb7 02       		.uleb128 0x2
 3796 0fb8 7D       		.byte	0x7d
 3797 0fb9 04       		.sleb128 4
 3798 0fba 01       		.uleb128 0x1
 3799 0fbb 30       		.byte	0x30
 3800 0fbc 1A       		.uleb128 0x1a
 3801 0fbd 02       		.uleb128 0x2
 3802 0fbe 7D       		.byte	0x7d
 3803 0fbf 00       		.sleb128 0
 3804 0fc0 02       		.uleb128 0x2
 3805 0fc1 91       		.byte	0x91
 3806 0fc2 48       		.sleb128 -56
 3807 0fc3 00       		.byte	0
 3808 0fc4 00       		.byte	0
 3809 0fc5 23       		.uleb128 0x23
 3810 0fc6 16020000 		.4byte	.LBB8
 3811 0fca 20000000 		.4byte	.LBE8-.LBB8
 3812 0fce 12100000 		.4byte	0x1012
 3813 0fd2 1F       		.uleb128 0x1f
ARM GAS  C:\Users\PANXIA~1\AppData\Local\Temp\cczfv69T.s 			page 102


 3814 0fd3 70646F00 		.ascii	"pdo\000"
 3815 0fd7 01       		.byte	0x1
 3816 0fd8 FC04     		.2byte	0x4fc
 3817 0fda D5000000 		.4byte	0xd5
 3818 0fde 02       		.uleb128 0x2
 3819 0fdf 91       		.byte	0x91
 3820 0fe0 4C       		.sleb128 -52
 3821 0fe1 22       		.uleb128 0x22
 3822 0fe2 20020000 		.4byte	.LVL149
 3823 0fe6 130B0000 		.4byte	0xb13
 3824 0fea 01100000 		.4byte	0x1001
 3825 0fee 1A       		.uleb128 0x1a
 3826 0fef 01       		.uleb128 0x1
 3827 0ff0 52       		.byte	0x52
 3828 0ff1 02       		.uleb128 0x2
 3829 0ff2 91       		.byte	0x91
 3830 0ff3 4C       		.sleb128 -52
 3831 0ff4 1A       		.uleb128 0x1a
 3832 0ff5 01       		.uleb128 0x1
 3833 0ff6 51       		.byte	0x51
 3834 0ff7 02       		.uleb128 0x2
 3835 0ff8 74       		.byte	0x74
 3836 0ff9 00       		.sleb128 0
 3837 0ffa 1A       		.uleb128 0x1a
 3838 0ffb 01       		.uleb128 0x1
 3839 0ffc 50       		.byte	0x50
 3840 0ffd 02       		.uleb128 0x2
 3841 0ffe 77       		.byte	0x77
 3842 0fff 00       		.sleb128 0
 3843 1000 00       		.byte	0
 3844 1001 19       		.uleb128 0x19
 3845 1002 2E020000 		.4byte	.LVL150
 3846 1006 1B140000 		.4byte	0x141b
 3847 100a 1A       		.uleb128 0x1a
 3848 100b 01       		.uleb128 0x1
 3849 100c 51       		.byte	0x51
 3850 100d 02       		.uleb128 0x2
 3851 100e 91       		.byte	0x91
 3852 100f 4C       		.sleb128 -52
 3853 1010 00       		.byte	0
 3854 1011 00       		.byte	0
 3855 1012 24       		.uleb128 0x24
 3856 1013 3A010000 		.4byte	.LVL117
 3857 1017 6D140000 		.4byte	0x146d
 3858 101b 22       		.uleb128 0x22
 3859 101c 4C010000 		.4byte	.LVL119
 3860 1020 82140000 		.4byte	0x1482
 3861 1024 41100000 		.4byte	0x1041
 3862 1028 1A       		.uleb128 0x1a
 3863 1029 01       		.uleb128 0x1
 3864 102a 53       		.byte	0x53
 3865 102b 02       		.uleb128 0x2
 3866 102c 75       		.byte	0x75
 3867 102d 00       		.sleb128 0
 3868 102e 1A       		.uleb128 0x1a
 3869 102f 01       		.uleb128 0x1
 3870 1030 51       		.byte	0x51
ARM GAS  C:\Users\PANXIA~1\AppData\Local\Temp\cczfv69T.s 			page 103


 3871 1031 02       		.uleb128 0x2
 3872 1032 76       		.byte	0x76
 3873 1033 00       		.sleb128 0
 3874 1034 1A       		.uleb128 0x1a
 3875 1035 01       		.uleb128 0x1
 3876 1036 50       		.byte	0x50
 3877 1037 02       		.uleb128 0x2
 3878 1038 77       		.byte	0x77
 3879 1039 00       		.sleb128 0
 3880 103a 1A       		.uleb128 0x1a
 3881 103b 02       		.uleb128 0x2
 3882 103c 7D       		.byte	0x7d
 3883 103d 00       		.sleb128 0
 3884 103e 01       		.uleb128 0x1
 3885 103f 30       		.byte	0x30
 3886 1040 00       		.byte	0
 3887 1041 22       		.uleb128 0x22
 3888 1042 CE010000 		.4byte	.LVL139
 3889 1046 1B140000 		.4byte	0x141b
 3890 104a 61100000 		.4byte	0x1061
 3891 104e 1A       		.uleb128 0x1a
 3892 104f 01       		.uleb128 0x1
 3893 1050 51       		.byte	0x51
 3894 1051 0E       		.uleb128 0xe
 3895 1052 74       		.byte	0x74
 3896 1053 00       		.sleb128 0
 3897 1054 33       		.byte	0x33
 3898 1055 24       		.byte	0x24
 3899 1056 74       		.byte	0x74
 3900 1057 00       		.sleb128 0
 3901 1058 22       		.byte	0x22
 3902 1059 31       		.byte	0x31
 3903 105a 24       		.byte	0x24
 3904 105b 75       		.byte	0x75
 3905 105c 00       		.sleb128 0
 3906 105d 22       		.byte	0x22
 3907 105e 23       		.byte	0x23
 3908 105f 06       		.uleb128 0x6
 3909 1060 00       		.byte	0
 3910 1061 24       		.uleb128 0x24
 3911 1062 EE010000 		.4byte	.LVL143
 3912 1066 6D140000 		.4byte	0x146d
 3913 106a 24       		.uleb128 0x24
 3914 106b FC010000 		.4byte	.LVL144
 3915 106f 6D140000 		.4byte	0x146d
 3916 1073 19       		.uleb128 0x19
 3917 1074 10020000 		.4byte	.LVL145
 3918 1078 DA0D0000 		.4byte	0xdda
 3919 107c 1A       		.uleb128 0x1a
 3920 107d 01       		.uleb128 0x1
 3921 107e 51       		.byte	0x51
 3922 107f 02       		.uleb128 0x2
 3923 1080 74       		.byte	0x74
 3924 1081 00       		.sleb128 0
 3925 1082 1A       		.uleb128 0x1a
 3926 1083 01       		.uleb128 0x1
 3927 1084 50       		.byte	0x50
ARM GAS  C:\Users\PANXIA~1\AppData\Local\Temp\cczfv69T.s 			page 104


 3928 1085 02       		.uleb128 0x2
 3929 1086 77       		.byte	0x77
 3930 1087 00       		.sleb128 0
 3931 1088 00       		.byte	0
 3932 1089 00       		.byte	0
 3933 108a 1B       		.uleb128 0x1b
 3934 108b 05030000 		.4byte	.LASF198
 3935 108f 01       		.byte	0x1
 3936 1090 5F06     		.2byte	0x65f
 3937 1092 61000000 		.4byte	0x61
 3938 1096 00000000 		.4byte	.LFB11
 3939 109a 5A000000 		.4byte	.LFE11-.LFB11
 3940 109e 01       		.uleb128 0x1
 3941 109f 9C       		.byte	0x9c
 3942 10a0 25110000 		.4byte	0x1125
 3943 10a4 17       		.uleb128 0x17
 3944 10a5 6400     		.ascii	"d\000"
 3945 10a7 01       		.byte	0x1
 3946 10a8 5F06     		.2byte	0x65f
 3947 10aa E3040000 		.4byte	0x4e3
 3948 10ae 380B0000 		.4byte	.LLST51
 3949 10b2 18       		.uleb128 0x18
 3950 10b3 20050000 		.4byte	.LASF199
 3951 10b7 01       		.byte	0x1
 3952 10b8 6006     		.2byte	0x660
 3953 10ba E9040000 		.4byte	0x4e9
 3954 10be 640B0000 		.4byte	.LLST52
 3955 10c2 18       		.uleb128 0x18
 3956 10c3 EC010000 		.4byte	.LASF200
 3957 10c7 01       		.byte	0x1
 3958 10c8 6106     		.2byte	0x661
 3959 10ca 45000000 		.4byte	0x45
 3960 10ce 850B0000 		.4byte	.LLST53
 3961 10d2 1E       		.uleb128 0x1e
 3962 10d3 16000000 		.4byte	.LBB9
 3963 10d7 40000000 		.4byte	.LBE9-.LBB9
 3964 10db 1C       		.uleb128 0x1c
 3965 10dc F9060000 		.4byte	.LASF180
 3966 10e0 01       		.byte	0x1
 3967 10e1 6B06     		.2byte	0x66b
 3968 10e3 E9040000 		.4byte	0x4e9
 3969 10e7 A60B0000 		.4byte	.LLST54
 3970 10eb 1C       		.uleb128 0x1c
 3971 10ec E3050000 		.4byte	.LASF179
 3972 10f0 01       		.byte	0x1
 3973 10f1 6C06     		.2byte	0x66c
 3974 10f3 45000000 		.4byte	0x45
 3975 10f7 D10B0000 		.4byte	.LLST55
 3976 10fb 24       		.uleb128 0x24
 3977 10fc 38000000 		.4byte	.LVL166
 3978 1100 6D140000 		.4byte	0x146d
 3979 1104 24       		.uleb128 0x24
 3980 1105 46000000 		.4byte	.LVL167
 3981 1109 6D140000 		.4byte	0x146d
 3982 110d 19       		.uleb128 0x19
 3983 110e 56000000 		.4byte	.LVL168
 3984 1112 DA0D0000 		.4byte	0xdda
ARM GAS  C:\Users\PANXIA~1\AppData\Local\Temp\cczfv69T.s 			page 105


 3985 1116 1A       		.uleb128 0x1a
 3986 1117 01       		.uleb128 0x1
 3987 1118 51       		.byte	0x51
 3988 1119 02       		.uleb128 0x2
 3989 111a 75       		.byte	0x75
 3990 111b 00       		.sleb128 0
 3991 111c 1A       		.uleb128 0x1a
 3992 111d 01       		.uleb128 0x1
 3993 111e 50       		.byte	0x50
 3994 111f 02       		.uleb128 0x2
 3995 1120 74       		.byte	0x74
 3996 1121 00       		.sleb128 0
 3997 1122 00       		.byte	0
 3998 1123 00       		.byte	0
 3999 1124 00       		.byte	0
 4000 1125 20       		.uleb128 0x20
 4001 1126 C1060000 		.4byte	.LASF201
 4002 112a 01       		.byte	0x1
 4003 112b BF05     		.2byte	0x5bf
 4004 112d 00000000 		.4byte	.LFB8
 4005 1131 24000000 		.4byte	.LFE8-.LFB8
 4006 1135 01       		.uleb128 0x1
 4007 1136 9C       		.byte	0x9c
 4008 1137 72110000 		.4byte	0x1172
 4009 113b 17       		.uleb128 0x17
 4010 113c 6400     		.ascii	"d\000"
 4011 113e 01       		.byte	0x1
 4012 113f BF05     		.2byte	0x5bf
 4013 1141 E3040000 		.4byte	0x4e3
 4014 1145 050C0000 		.4byte	.LLST56
 4015 1149 18       		.uleb128 0x18
 4016 114a 65020000 		.4byte	.LASF161
 4017 114e 01       		.byte	0x1
 4018 114f BF05     		.2byte	0x5bf
 4019 1151 61000000 		.4byte	0x61
 4020 1155 260C0000 		.4byte	.LLST57
 4021 1159 19       		.uleb128 0x19
 4022 115a 22000000 		.4byte	.LVL171
 4023 115e 8A0C0000 		.4byte	0xc8a
 4024 1162 1A       		.uleb128 0x1a
 4025 1163 01       		.uleb128 0x1
 4026 1164 51       		.byte	0x51
 4027 1165 03       		.uleb128 0x3
 4028 1166 F3       		.byte	0xf3
 4029 1167 01       		.uleb128 0x1
 4030 1168 51       		.byte	0x51
 4031 1169 1A       		.uleb128 0x1a
 4032 116a 01       		.uleb128 0x1
 4033 116b 50       		.byte	0x50
 4034 116c 03       		.uleb128 0x3
 4035 116d F3       		.byte	0xf3
 4036 116e 01       		.uleb128 0x1
 4037 116f 50       		.byte	0x50
 4038 1170 00       		.byte	0
 4039 1171 00       		.byte	0
 4040 1172 20       		.uleb128 0x20
 4041 1173 D30A0000 		.4byte	.LASF202
ARM GAS  C:\Users\PANXIA~1\AppData\Local\Temp\cczfv69T.s 			page 106


 4042 1177 01       		.byte	0x1
 4043 1178 C905     		.2byte	0x5c9
 4044 117a 00000000 		.4byte	.LFB9
 4045 117e 02000000 		.4byte	.LFE9-.LFB9
 4046 1182 01       		.uleb128 0x1
 4047 1183 9C       		.byte	0x9c
 4048 1184 A3110000 		.4byte	0x11a3
 4049 1188 25       		.uleb128 0x25
 4050 1189 6400     		.ascii	"d\000"
 4051 118b 01       		.byte	0x1
 4052 118c C905     		.2byte	0x5c9
 4053 118e E3040000 		.4byte	0x4e3
 4054 1192 01       		.uleb128 0x1
 4055 1193 50       		.byte	0x50
 4056 1194 21       		.uleb128 0x21
 4057 1195 65020000 		.4byte	.LASF161
 4058 1199 01       		.byte	0x1
 4059 119a C905     		.2byte	0x5c9
 4060 119c 61000000 		.4byte	0x61
 4061 11a0 01       		.uleb128 0x1
 4062 11a1 51       		.byte	0x51
 4063 11a2 00       		.byte	0
 4064 11a3 1B       		.uleb128 0x1b
 4065 11a4 6F0B0000 		.4byte	.LASF203
 4066 11a8 01       		.byte	0x1
 4067 11a9 D705     		.2byte	0x5d7
 4068 11ab 45000000 		.4byte	0x45
 4069 11af 00000000 		.4byte	.LFB10
 4070 11b3 54010000 		.4byte	.LFE10-.LFB10
 4071 11b7 01       		.uleb128 0x1
 4072 11b8 9C       		.byte	0x9c
 4073 11b9 BF120000 		.4byte	0x12bf
 4074 11bd 17       		.uleb128 0x17
 4075 11be 6400     		.ascii	"d\000"
 4076 11c0 01       		.byte	0x1
 4077 11c1 D705     		.2byte	0x5d7
 4078 11c3 E3040000 		.4byte	0x4e3
 4079 11c7 470C0000 		.4byte	.LLST58
 4080 11cb 18       		.uleb128 0x18
 4081 11cc F1030000 		.4byte	.LASF204
 4082 11d0 01       		.byte	0x1
 4083 11d1 D705     		.2byte	0x5d7
 4084 11d3 45000000 		.4byte	0x45
 4085 11d7 970C0000 		.4byte	.LLST59
 4086 11db 1C       		.uleb128 0x1c
 4087 11dc 65020000 		.4byte	.LASF161
 4088 11e0 01       		.byte	0x1
 4089 11e1 D905     		.2byte	0x5d9
 4090 11e3 45000000 		.4byte	0x45
 4091 11e7 D10C0000 		.4byte	.LLST60
 4092 11eb 1C       		.uleb128 0x1c
 4093 11ec 78000000 		.4byte	.LASF195
 4094 11f0 01       		.byte	0x1
 4095 11f1 DA05     		.2byte	0x5da
 4096 11f3 7F000000 		.4byte	0x7f
 4097 11f7 FC0C0000 		.4byte	.LLST61
 4098 11fb 1C       		.uleb128 0x1c
ARM GAS  C:\Users\PANXIA~1\AppData\Local\Temp\cczfv69T.s 			page 107


 4099 11fc 34070000 		.4byte	.LASF196
 4100 1200 01       		.byte	0x1
 4101 1201 DB05     		.2byte	0x5db
 4102 1203 45000000 		.4byte	0x45
 4103 1207 480D0000 		.4byte	.LLST62
 4104 120b 1C       		.uleb128 0x1c
 4105 120c 36000000 		.4byte	.LASF188
 4106 1210 01       		.byte	0x1
 4107 1211 DC05     		.2byte	0x5dc
 4108 1213 53000000 		.4byte	0x53
 4109 1217 C30D0000 		.4byte	.LLST63
 4110 121b 1C       		.uleb128 0x1c
 4111 121c 06080000 		.4byte	.LASF205
 4112 1220 01       		.byte	0x1
 4113 1221 DD05     		.2byte	0x5dd
 4114 1223 53000000 		.4byte	0x53
 4115 1227 E10D0000 		.4byte	.LLST64
 4116 122b 1D       		.uleb128 0x1d
 4117 122c D3000000 		.4byte	.LASF30
 4118 1230 01       		.byte	0x1
 4119 1231 DE05     		.2byte	0x5de
 4120 1233 53000000 		.4byte	0x53
 4121 1237 01       		.uleb128 0x1
 4122 1238 56       		.byte	0x56
 4123 1239 26       		.uleb128 0x26
 4124 123a 00000000 		.4byte	.Ldebug_ranges0+0
 4125 123e 1F       		.uleb128 0x1f
 4126 123f 70646F00 		.ascii	"pdo\000"
 4127 1243 01       		.byte	0x1
 4128 1244 E905     		.2byte	0x5e9
 4129 1246 D5000000 		.4byte	0xd5
 4130 124a 02       		.uleb128 0x2
 4131 124b 91       		.byte	0x91
 4132 124c 54       		.sleb128 -44
 4133 124d 22       		.uleb128 0x22
 4134 124e 86000000 		.4byte	.LVL184
 4135 1252 130B0000 		.4byte	0xb13
 4136 1256 6D120000 		.4byte	0x126d
 4137 125a 1A       		.uleb128 0x1a
 4138 125b 01       		.uleb128 0x1
 4139 125c 52       		.byte	0x52
 4140 125d 02       		.uleb128 0x2
 4141 125e 91       		.byte	0x91
 4142 125f 54       		.sleb128 -44
 4143 1260 1A       		.uleb128 0x1a
 4144 1261 01       		.uleb128 0x1
 4145 1262 51       		.byte	0x51
 4146 1263 02       		.uleb128 0x2
 4147 1264 77       		.byte	0x77
 4148 1265 00       		.sleb128 0
 4149 1266 1A       		.uleb128 0x1a
 4150 1267 01       		.uleb128 0x1
 4151 1268 50       		.byte	0x50
 4152 1269 02       		.uleb128 0x2
 4153 126a 74       		.byte	0x74
 4154 126b 00       		.sleb128 0
 4155 126c 00       		.byte	0
ARM GAS  C:\Users\PANXIA~1\AppData\Local\Temp\cczfv69T.s 			page 108


 4156 126d 22       		.uleb128 0x22
 4157 126e B2000000 		.4byte	.LVL187
 4158 1272 130B0000 		.4byte	0xb13
 4159 1276 87120000 		.4byte	0x1287
 4160 127a 1A       		.uleb128 0x1a
 4161 127b 01       		.uleb128 0x1
 4162 127c 51       		.byte	0x51
 4163 127d 02       		.uleb128 0x2
 4164 127e 77       		.byte	0x77
 4165 127f 00       		.sleb128 0
 4166 1280 1A       		.uleb128 0x1a
 4167 1281 01       		.uleb128 0x1
 4168 1282 50       		.byte	0x50
 4169 1283 02       		.uleb128 0x2
 4170 1284 74       		.byte	0x74
 4171 1285 00       		.sleb128 0
 4172 1286 00       		.byte	0
 4173 1287 22       		.uleb128 0x22
 4174 1288 0A010000 		.4byte	.LVL190
 4175 128c 8A0C0000 		.4byte	0xc8a
 4176 1290 A1120000 		.4byte	0x12a1
 4177 1294 1A       		.uleb128 0x1a
 4178 1295 01       		.uleb128 0x1
 4179 1296 51       		.byte	0x51
 4180 1297 02       		.uleb128 0x2
 4181 1298 77       		.byte	0x77
 4182 1299 00       		.sleb128 0
 4183 129a 1A       		.uleb128 0x1a
 4184 129b 01       		.uleb128 0x1
 4185 129c 50       		.byte	0x50
 4186 129d 02       		.uleb128 0x2
 4187 129e 74       		.byte	0x74
 4188 129f 00       		.sleb128 0
 4189 12a0 00       		.byte	0
 4190 12a1 19       		.uleb128 0x19
 4191 12a2 18010000 		.4byte	.LVL192
 4192 12a6 3D090000 		.4byte	0x93d
 4193 12aa 1A       		.uleb128 0x1a
 4194 12ab 01       		.uleb128 0x1
 4195 12ac 52       		.byte	0x52
 4196 12ad 02       		.uleb128 0x2
 4197 12ae 91       		.byte	0x91
 4198 12af 54       		.sleb128 -44
 4199 12b0 1A       		.uleb128 0x1a
 4200 12b1 01       		.uleb128 0x1
 4201 12b2 51       		.byte	0x51
 4202 12b3 02       		.uleb128 0x2
 4203 12b4 77       		.byte	0x77
 4204 12b5 00       		.sleb128 0
 4205 12b6 1A       		.uleb128 0x1a
 4206 12b7 01       		.uleb128 0x1
 4207 12b8 50       		.byte	0x50
 4208 12b9 02       		.uleb128 0x2
 4209 12ba 74       		.byte	0x74
 4210 12bb 00       		.sleb128 0
 4211 12bc 00       		.byte	0
 4212 12bd 00       		.byte	0
ARM GAS  C:\Users\PANXIA~1\AppData\Local\Temp\cczfv69T.s 			page 109


 4213 12be 00       		.byte	0
 4214 12bf 1B       		.uleb128 0x1b
 4215 12c0 4D0A0000 		.4byte	.LASF206
 4216 12c4 01       		.byte	0x1
 4217 12c5 6305     		.2byte	0x563
 4218 12c7 45000000 		.4byte	0x45
 4219 12cb 00000000 		.4byte	.LFB5
 4220 12cf 0A000000 		.4byte	.LFE5-.LFB5
 4221 12d3 01       		.uleb128 0x1
 4222 12d4 9C       		.byte	0x9c
 4223 12d5 FE120000 		.4byte	0x12fe
 4224 12d9 17       		.uleb128 0x17
 4225 12da 6400     		.ascii	"d\000"
 4226 12dc 01       		.byte	0x1
 4227 12dd 6305     		.2byte	0x563
 4228 12df E3040000 		.4byte	0x4e3
 4229 12e3 340E0000 		.4byte	.LLST65
 4230 12e7 19       		.uleb128 0x19
 4231 12e8 08000000 		.4byte	.LVL207
 4232 12ec A3110000 		.4byte	0x11a3
 4233 12f0 1A       		.uleb128 0x1a
 4234 12f1 01       		.uleb128 0x1
 4235 12f2 51       		.byte	0x51
 4236 12f3 01       		.uleb128 0x1
 4237 12f4 30       		.byte	0x30
 4238 12f5 1A       		.uleb128 0x1a
 4239 12f6 01       		.uleb128 0x1
 4240 12f7 50       		.byte	0x50
 4241 12f8 03       		.uleb128 0x3
 4242 12f9 F3       		.byte	0xf3
 4243 12fa 01       		.uleb128 0x1
 4244 12fb 50       		.byte	0x50
 4245 12fc 00       		.byte	0
 4246 12fd 00       		.byte	0
 4247 12fe 20       		.uleb128 0x20
 4248 12ff C8050000 		.4byte	.LASF207
 4249 1303 01       		.byte	0x1
 4250 1304 8006     		.2byte	0x680
 4251 1306 00000000 		.4byte	.LFB12
 4252 130a 50000000 		.4byte	.LFE12-.LFB12
 4253 130e 01       		.uleb128 0x1
 4254 130f 9C       		.byte	0x9c
 4255 1310 B6130000 		.4byte	0x13b6
 4256 1314 17       		.uleb128 0x17
 4257 1315 6400     		.ascii	"d\000"
 4258 1317 01       		.byte	0x1
 4259 1318 8006     		.2byte	0x680
 4260 131a E3040000 		.4byte	0x4e3
 4261 131e 550E0000 		.4byte	.LLST66
 4262 1322 1C       		.uleb128 0x1c
 4263 1323 A9050000 		.4byte	.LASF208
 4264 1327 01       		.byte	0x1
 4265 1328 8306     		.2byte	0x683
 4266 132a 53000000 		.4byte	0x53
 4267 132e 970E0000 		.4byte	.LLST67
 4268 1332 1C       		.uleb128 0x1c
 4269 1333 36000000 		.4byte	.LASF188
ARM GAS  C:\Users\PANXIA~1\AppData\Local\Temp\cczfv69T.s 			page 110


 4270 1337 01       		.byte	0x1
 4271 1338 8506     		.2byte	0x685
 4272 133a 53000000 		.4byte	0x53
 4273 133e DC0E0000 		.4byte	.LLST68
 4274 1342 1C       		.uleb128 0x1c
 4275 1343 D3000000 		.4byte	.LASF30
 4276 1347 01       		.byte	0x1
 4277 1348 8606     		.2byte	0x686
 4278 134a 53000000 		.4byte	0x53
 4279 134e FA0E0000 		.4byte	.LLST69
 4280 1352 23       		.uleb128 0x23
 4281 1353 12000000 		.4byte	.LBB13
 4282 1357 26000000 		.4byte	.LBE13-.LBB13
 4283 135b A0130000 		.4byte	0x13a0
 4284 135f 1D       		.uleb128 0x1d
 4285 1360 2F080000 		.4byte	.LASF209
 4286 1364 01       		.byte	0x1
 4287 1365 8B06     		.2byte	0x68b
 4288 1367 61000000 		.4byte	0x61
 4289 136b 02       		.uleb128 0x2
 4290 136c 91       		.byte	0x91
 4291 136d 60       		.sleb128 -32
 4292 136e 1D       		.uleb128 0x1d
 4293 136f 620B0000 		.4byte	.LASF210
 4294 1373 01       		.byte	0x1
 4295 1374 8C06     		.2byte	0x68c
 4296 1376 2A050000 		.4byte	0x52a
 4297 137a 02       		.uleb128 0x2
 4298 137b 91       		.byte	0x91
 4299 137c 64       		.sleb128 -28
 4300 137d 19       		.uleb128 0x19
 4301 137e 1E000000 		.4byte	.LVL213
 4302 1382 04150000 		.4byte	0x1504
 4303 1386 1A       		.uleb128 0x1a
 4304 1387 01       		.uleb128 0x1
 4305 1388 53       		.byte	0x53
 4306 1389 02       		.uleb128 0x2
 4307 138a 91       		.byte	0x91
 4308 138b 64       		.sleb128 -28
 4309 138c 1A       		.uleb128 0x1a
 4310 138d 01       		.uleb128 0x1
 4311 138e 52       		.byte	0x52
 4312 138f 02       		.uleb128 0x2
 4313 1390 7D       		.byte	0x7d
 4314 1391 00       		.sleb128 0
 4315 1392 1A       		.uleb128 0x1a
 4316 1393 01       		.uleb128 0x1
 4317 1394 51       		.byte	0x51
 4318 1395 02       		.uleb128 0x2
 4319 1396 75       		.byte	0x75
 4320 1397 00       		.sleb128 0
 4321 1398 1A       		.uleb128 0x1a
 4322 1399 01       		.uleb128 0x1
 4323 139a 50       		.byte	0x50
 4324 139b 02       		.uleb128 0x2
 4325 139c 76       		.byte	0x76
 4326 139d 00       		.sleb128 0
ARM GAS  C:\Users\PANXIA~1\AppData\Local\Temp\cczfv69T.s 			page 111


 4327 139e 00       		.byte	0
 4328 139f 00       		.byte	0
 4329 13a0 19       		.uleb128 0x19
 4330 13a1 48000000 		.4byte	.LVL221
 4331 13a5 A3110000 		.4byte	0x11a3
 4332 13a9 1A       		.uleb128 0x1a
 4333 13aa 01       		.uleb128 0x1
 4334 13ab 51       		.byte	0x51
 4335 13ac 01       		.uleb128 0x1
 4336 13ad 30       		.byte	0x30
 4337 13ae 1A       		.uleb128 0x1a
 4338 13af 01       		.uleb128 0x1
 4339 13b0 50       		.byte	0x50
 4340 13b1 02       		.uleb128 0x2
 4341 13b2 76       		.byte	0x76
 4342 13b3 00       		.sleb128 0
 4343 13b4 00       		.byte	0
 4344 13b5 00       		.byte	0
 4345 13b6 20       		.uleb128 0x20
 4346 13b7 2E000000 		.4byte	.LASF211
 4347 13bb 01       		.byte	0x1
 4348 13bc A206     		.2byte	0x6a2
 4349 13be 00000000 		.4byte	.LFB13
 4350 13c2 60000000 		.4byte	.LFE13-.LFB13
 4351 13c6 01       		.uleb128 0x1
 4352 13c7 9C       		.byte	0x9c
 4353 13c8 1B140000 		.4byte	0x141b
 4354 13cc 17       		.uleb128 0x17
 4355 13cd 6400     		.ascii	"d\000"
 4356 13cf 01       		.byte	0x1
 4357 13d0 A206     		.2byte	0x6a2
 4358 13d2 E3040000 		.4byte	0x4e3
 4359 13d6 0D0F0000 		.4byte	.LLST70
 4360 13da 1C       		.uleb128 0x1c
 4361 13db 65020000 		.4byte	.LASF161
 4362 13df 01       		.byte	0x1
 4363 13e0 A506     		.2byte	0x6a5
 4364 13e2 45000000 		.4byte	0x45
 4365 13e6 410F0000 		.4byte	.LLST71
 4366 13ea 1C       		.uleb128 0x1c
 4367 13eb 36000000 		.4byte	.LASF188
 4368 13ef 01       		.byte	0x1
 4369 13f0 A606     		.2byte	0x6a6
 4370 13f2 53000000 		.4byte	0x53
 4371 13f6 820F0000 		.4byte	.LLST72
 4372 13fa 1D       		.uleb128 0x1d
 4373 13fb D3000000 		.4byte	.LASF30
 4374 13ff 01       		.byte	0x1
 4375 1400 A706     		.2byte	0x6a7
 4376 1402 53000000 		.4byte	0x53
 4377 1406 01       		.uleb128 0x1
 4378 1407 59       		.byte	0x59
 4379 1408 24       		.uleb128 0x24
 4380 1409 28000000 		.4byte	.LVL228
 4381 140d 6D140000 		.4byte	0x146d
 4382 1411 24       		.uleb128 0x24
 4383 1412 38000000 		.4byte	.LVL229
ARM GAS  C:\Users\PANXIA~1\AppData\Local\Temp\cczfv69T.s 			page 112


 4384 1416 6D140000 		.4byte	0x146d
 4385 141a 00       		.byte	0
 4386 141b 27       		.uleb128 0x27
 4387 141c 4D030000 		.4byte	.LASF212
 4388 1420 0F       		.byte	0xf
 4389 1421 45       		.byte	0x45
 4390 1422 45000000 		.4byte	0x45
 4391 1426 35140000 		.4byte	0x1435
 4392 142a 10       		.uleb128 0x10
 4393 142b E6000000 		.4byte	0xe6
 4394 142f 10       		.uleb128 0x10
 4395 1430 E0000000 		.4byte	0xe0
 4396 1434 00       		.byte	0
 4397 1435 27       		.uleb128 0x27
 4398 1436 C70A0000 		.4byte	.LASF213
 4399 143a 08       		.byte	0x8
 4400 143b 7E       		.byte	0x7e
 4401 143c 61000000 		.4byte	0x61
 4402 1440 6D140000 		.4byte	0x146d
 4403 1444 10       		.uleb128 0x10
 4404 1445 E3040000 		.4byte	0x4e3
 4405 1449 10       		.uleb128 0x10
 4406 144a 53000000 		.4byte	0x53
 4407 144e 10       		.uleb128 0x10
 4408 144f 45000000 		.4byte	0x45
 4409 1453 10       		.uleb128 0x10
 4410 1454 7D000000 		.4byte	0x7d
 4411 1458 10       		.uleb128 0x10
 4412 1459 1E050000 		.4byte	0x51e
 4413 145d 10       		.uleb128 0x10
 4414 145e 7F000000 		.4byte	0x7f
 4415 1462 10       		.uleb128 0x10
 4416 1463 45000000 		.4byte	0x45
 4417 1467 10       		.uleb128 0x10
 4418 1468 45000000 		.4byte	0x45
 4419 146c 00       		.byte	0
 4420 146d 27       		.uleb128 0x27
 4421 146e 32060000 		.4byte	.LASF214
 4422 1472 09       		.byte	0x9
 4423 1473 55       		.byte	0x55
 4424 1474 4C000000 		.4byte	0x4c
 4425 1478 82140000 		.4byte	0x1482
 4426 147c 10       		.uleb128 0x10
 4427 147d 4C000000 		.4byte	0x4c
 4428 1481 00       		.byte	0
 4429 1482 27       		.uleb128 0x27
 4430 1483 2C0A0000 		.4byte	.LASF215
 4431 1487 09       		.byte	0x9
 4432 1488 4D       		.byte	0x4d
 4433 1489 4C000000 		.4byte	0x4c
 4434 148d AB140000 		.4byte	0x14ab
 4435 1491 10       		.uleb128 0x10
 4436 1492 E3040000 		.4byte	0x4e3
 4437 1496 10       		.uleb128 0x10
 4438 1497 61000000 		.4byte	0x61
 4439 149b 10       		.uleb128 0x10
 4440 149c 7B050000 		.4byte	0x57b
ARM GAS  C:\Users\PANXIA~1\AppData\Local\Temp\cczfv69T.s 			page 113


 4441 14a0 10       		.uleb128 0x10
 4442 14a1 61000000 		.4byte	0x61
 4443 14a5 10       		.uleb128 0x10
 4444 14a6 61000000 		.4byte	0x61
 4445 14aa 00       		.byte	0
 4446 14ab 27       		.uleb128 0x27
 4447 14ac EE0A0000 		.4byte	.LASF216
 4448 14b0 10       		.byte	0x10
 4449 14b1 16       		.byte	0x16
 4450 14b2 25000000 		.4byte	0x25
 4451 14b6 CA140000 		.4byte	0x14ca
 4452 14ba 10       		.uleb128 0x10
 4453 14bb CA140000 		.4byte	0x14ca
 4454 14bf 10       		.uleb128 0x10
 4455 14c0 CA140000 		.4byte	0x14ca
 4456 14c4 10       		.uleb128 0x10
 4457 14c5 2C000000 		.4byte	0x2c
 4458 14c9 00       		.byte	0
 4459 14ca 06       		.uleb128 0x6
 4460 14cb 04       		.byte	0x4
 4461 14cc D0140000 		.4byte	0x14d0
 4462 14d0 28       		.uleb128 0x28
 4463 14d1 27       		.uleb128 0x27
 4464 14d2 7D080000 		.4byte	.LASF217
 4465 14d6 08       		.byte	0x8
 4466 14d7 D2       		.byte	0xd2
 4467 14d8 61000000 		.4byte	0x61
 4468 14dc 04150000 		.4byte	0x1504
 4469 14e0 10       		.uleb128 0x10
 4470 14e1 E3040000 		.4byte	0x4e3
 4471 14e5 10       		.uleb128 0x10
 4472 14e6 53000000 		.4byte	0x53
 4473 14ea 10       		.uleb128 0x10
 4474 14eb 45000000 		.4byte	0x45
 4475 14ef 10       		.uleb128 0x10
 4476 14f0 7D000000 		.4byte	0x7d
 4477 14f4 10       		.uleb128 0x10
 4478 14f5 1E050000 		.4byte	0x51e
 4479 14f9 10       		.uleb128 0x10
 4480 14fa 45000000 		.4byte	0x45
 4481 14fe 10       		.uleb128 0x10
 4482 14ff 45000000 		.4byte	0x45
 4483 1503 00       		.byte	0
 4484 1504 29       		.uleb128 0x29
 4485 1505 ED060000 		.4byte	.LASF59
 4486 1509 08       		.byte	0x8
 4487 150a 2301     		.2byte	0x123
 4488 150c E9040000 		.4byte	0x4e9
 4489 1510 10       		.uleb128 0x10
 4490 1511 E3040000 		.4byte	0x4e3
 4491 1515 10       		.uleb128 0x10
 4492 1516 53000000 		.4byte	0x53
 4493 151a 10       		.uleb128 0x10
 4494 151b 1E050000 		.4byte	0x51e
 4495 151f 10       		.uleb128 0x10
 4496 1520 24050000 		.4byte	0x524
 4497 1524 00       		.byte	0
ARM GAS  C:\Users\PANXIA~1\AppData\Local\Temp\cczfv69T.s 			page 114


 4498 1525 00       		.byte	0
 4499              		.section	.debug_abbrev,"",%progbits
 4500              	.Ldebug_abbrev0:
 4501 0000 01       		.uleb128 0x1
 4502 0001 11       		.uleb128 0x11
 4503 0002 01       		.byte	0x1
 4504 0003 25       		.uleb128 0x25
 4505 0004 0E       		.uleb128 0xe
 4506 0005 13       		.uleb128 0x13
 4507 0006 0B       		.uleb128 0xb
 4508 0007 03       		.uleb128 0x3
 4509 0008 0E       		.uleb128 0xe
 4510 0009 1B       		.uleb128 0x1b
 4511 000a 0E       		.uleb128 0xe
 4512 000b 55       		.uleb128 0x55
 4513 000c 17       		.uleb128 0x17
 4514 000d 11       		.uleb128 0x11
 4515 000e 01       		.uleb128 0x1
 4516 000f 10       		.uleb128 0x10
 4517 0010 17       		.uleb128 0x17
 4518 0011 00       		.byte	0
 4519 0012 00       		.byte	0
 4520 0013 02       		.uleb128 0x2
 4521 0014 24       		.uleb128 0x24
 4522 0015 00       		.byte	0
 4523 0016 0B       		.uleb128 0xb
 4524 0017 0B       		.uleb128 0xb
 4525 0018 3E       		.uleb128 0x3e
 4526 0019 0B       		.uleb128 0xb
 4527 001a 03       		.uleb128 0x3
 4528 001b 08       		.uleb128 0x8
 4529 001c 00       		.byte	0
 4530 001d 00       		.byte	0
 4531 001e 03       		.uleb128 0x3
 4532 001f 16       		.uleb128 0x16
 4533 0020 00       		.byte	0
 4534 0021 03       		.uleb128 0x3
 4535 0022 0E       		.uleb128 0xe
 4536 0023 3A       		.uleb128 0x3a
 4537 0024 0B       		.uleb128 0xb
 4538 0025 3B       		.uleb128 0x3b
 4539 0026 0B       		.uleb128 0xb
 4540 0027 49       		.uleb128 0x49
 4541 0028 13       		.uleb128 0x13
 4542 0029 00       		.byte	0
 4543 002a 00       		.byte	0
 4544 002b 04       		.uleb128 0x4
 4545 002c 24       		.uleb128 0x24
 4546 002d 00       		.byte	0
 4547 002e 0B       		.uleb128 0xb
 4548 002f 0B       		.uleb128 0xb
 4549 0030 3E       		.uleb128 0x3e
 4550 0031 0B       		.uleb128 0xb
 4551 0032 03       		.uleb128 0x3
 4552 0033 0E       		.uleb128 0xe
 4553 0034 00       		.byte	0
 4554 0035 00       		.byte	0
ARM GAS  C:\Users\PANXIA~1\AppData\Local\Temp\cczfv69T.s 			page 115


 4555 0036 05       		.uleb128 0x5
 4556 0037 0F       		.uleb128 0xf
 4557 0038 00       		.byte	0
 4558 0039 0B       		.uleb128 0xb
 4559 003a 0B       		.uleb128 0xb
 4560 003b 00       		.byte	0
 4561 003c 00       		.byte	0
 4562 003d 06       		.uleb128 0x6
 4563 003e 0F       		.uleb128 0xf
 4564 003f 00       		.byte	0
 4565 0040 0B       		.uleb128 0xb
 4566 0041 0B       		.uleb128 0xb
 4567 0042 49       		.uleb128 0x49
 4568 0043 13       		.uleb128 0x13
 4569 0044 00       		.byte	0
 4570 0045 00       		.byte	0
 4571 0046 07       		.uleb128 0x7
 4572 0047 13       		.uleb128 0x13
 4573 0048 01       		.byte	0x1
 4574 0049 0B       		.uleb128 0xb
 4575 004a 0B       		.uleb128 0xb
 4576 004b 3A       		.uleb128 0x3a
 4577 004c 0B       		.uleb128 0xb
 4578 004d 3B       		.uleb128 0x3b
 4579 004e 0B       		.uleb128 0xb
 4580 004f 01       		.uleb128 0x1
 4581 0050 13       		.uleb128 0x13
 4582 0051 00       		.byte	0
 4583 0052 00       		.byte	0
 4584 0053 08       		.uleb128 0x8
 4585 0054 0D       		.uleb128 0xd
 4586 0055 00       		.byte	0
 4587 0056 03       		.uleb128 0x3
 4588 0057 0E       		.uleb128 0xe
 4589 0058 3A       		.uleb128 0x3a
 4590 0059 0B       		.uleb128 0xb
 4591 005a 3B       		.uleb128 0x3b
 4592 005b 0B       		.uleb128 0xb
 4593 005c 49       		.uleb128 0x49
 4594 005d 13       		.uleb128 0x13
 4595 005e 38       		.uleb128 0x38
 4596 005f 0B       		.uleb128 0xb
 4597 0060 00       		.byte	0
 4598 0061 00       		.byte	0
 4599 0062 09       		.uleb128 0x9
 4600 0063 0D       		.uleb128 0xd
 4601 0064 00       		.byte	0
 4602 0065 03       		.uleb128 0x3
 4603 0066 08       		.uleb128 0x8
 4604 0067 3A       		.uleb128 0x3a
 4605 0068 0B       		.uleb128 0xb
 4606 0069 3B       		.uleb128 0x3b
 4607 006a 0B       		.uleb128 0xb
 4608 006b 49       		.uleb128 0x49
 4609 006c 13       		.uleb128 0x13
 4610 006d 38       		.uleb128 0x38
 4611 006e 0B       		.uleb128 0xb
ARM GAS  C:\Users\PANXIA~1\AppData\Local\Temp\cczfv69T.s 			page 116


 4612 006f 00       		.byte	0
 4613 0070 00       		.byte	0
 4614 0071 0A       		.uleb128 0xa
 4615 0072 01       		.uleb128 0x1
 4616 0073 01       		.byte	0x1
 4617 0074 49       		.uleb128 0x49
 4618 0075 13       		.uleb128 0x13
 4619 0076 01       		.uleb128 0x1
 4620 0077 13       		.uleb128 0x13
 4621 0078 00       		.byte	0
 4622 0079 00       		.byte	0
 4623 007a 0B       		.uleb128 0xb
 4624 007b 21       		.uleb128 0x21
 4625 007c 00       		.byte	0
 4626 007d 49       		.uleb128 0x49
 4627 007e 13       		.uleb128 0x13
 4628 007f 2F       		.uleb128 0x2f
 4629 0080 0B       		.uleb128 0xb
 4630 0081 00       		.byte	0
 4631 0082 00       		.byte	0
 4632 0083 0C       		.uleb128 0xc
 4633 0084 13       		.uleb128 0x13
 4634 0085 01       		.byte	0x1
 4635 0086 03       		.uleb128 0x3
 4636 0087 0E       		.uleb128 0xe
 4637 0088 0B       		.uleb128 0xb
 4638 0089 0B       		.uleb128 0xb
 4639 008a 3A       		.uleb128 0x3a
 4640 008b 0B       		.uleb128 0xb
 4641 008c 3B       		.uleb128 0x3b
 4642 008d 0B       		.uleb128 0xb
 4643 008e 01       		.uleb128 0x1
 4644 008f 13       		.uleb128 0x13
 4645 0090 00       		.byte	0
 4646 0091 00       		.byte	0
 4647 0092 0D       		.uleb128 0xd
 4648 0093 13       		.uleb128 0x13
 4649 0094 01       		.byte	0x1
 4650 0095 03       		.uleb128 0x3
 4651 0096 0E       		.uleb128 0xe
 4652 0097 0B       		.uleb128 0xb
 4653 0098 05       		.uleb128 0x5
 4654 0099 3A       		.uleb128 0x3a
 4655 009a 0B       		.uleb128 0xb
 4656 009b 3B       		.uleb128 0x3b
 4657 009c 0B       		.uleb128 0xb
 4658 009d 01       		.uleb128 0x1
 4659 009e 13       		.uleb128 0x13
 4660 009f 00       		.byte	0
 4661 00a0 00       		.byte	0
 4662 00a1 0E       		.uleb128 0xe
 4663 00a2 0D       		.uleb128 0xd
 4664 00a3 00       		.byte	0
 4665 00a4 03       		.uleb128 0x3
 4666 00a5 0E       		.uleb128 0xe
 4667 00a6 3A       		.uleb128 0x3a
 4668 00a7 0B       		.uleb128 0xb
ARM GAS  C:\Users\PANXIA~1\AppData\Local\Temp\cczfv69T.s 			page 117


 4669 00a8 3B       		.uleb128 0x3b
 4670 00a9 0B       		.uleb128 0xb
 4671 00aa 49       		.uleb128 0x49
 4672 00ab 13       		.uleb128 0x13
 4673 00ac 38       		.uleb128 0x38
 4674 00ad 05       		.uleb128 0x5
 4675 00ae 00       		.byte	0
 4676 00af 00       		.byte	0
 4677 00b0 0F       		.uleb128 0xf
 4678 00b1 15       		.uleb128 0x15
 4679 00b2 01       		.byte	0x1
 4680 00b3 27       		.uleb128 0x27
 4681 00b4 19       		.uleb128 0x19
 4682 00b5 49       		.uleb128 0x49
 4683 00b6 13       		.uleb128 0x13
 4684 00b7 01       		.uleb128 0x1
 4685 00b8 13       		.uleb128 0x13
 4686 00b9 00       		.byte	0
 4687 00ba 00       		.byte	0
 4688 00bb 10       		.uleb128 0x10
 4689 00bc 05       		.uleb128 0x5
 4690 00bd 00       		.byte	0
 4691 00be 49       		.uleb128 0x49
 4692 00bf 13       		.uleb128 0x13
 4693 00c0 00       		.byte	0
 4694 00c1 00       		.byte	0
 4695 00c2 11       		.uleb128 0x11
 4696 00c3 26       		.uleb128 0x26
 4697 00c4 00       		.byte	0
 4698 00c5 49       		.uleb128 0x49
 4699 00c6 13       		.uleb128 0x13
 4700 00c7 00       		.byte	0
 4701 00c8 00       		.byte	0
 4702 00c9 12       		.uleb128 0x12
 4703 00ca 15       		.uleb128 0x15
 4704 00cb 01       		.byte	0x1
 4705 00cc 27       		.uleb128 0x27
 4706 00cd 19       		.uleb128 0x19
 4707 00ce 01       		.uleb128 0x1
 4708 00cf 13       		.uleb128 0x13
 4709 00d0 00       		.byte	0
 4710 00d1 00       		.byte	0
 4711 00d2 13       		.uleb128 0x13
 4712 00d3 04       		.uleb128 0x4
 4713 00d4 01       		.byte	0x1
 4714 00d5 0B       		.uleb128 0xb
 4715 00d6 0B       		.uleb128 0xb
 4716 00d7 3A       		.uleb128 0x3a
 4717 00d8 0B       		.uleb128 0xb
 4718 00d9 3B       		.uleb128 0x3b
 4719 00da 0B       		.uleb128 0xb
 4720 00db 01       		.uleb128 0x1
 4721 00dc 13       		.uleb128 0x13
 4722 00dd 00       		.byte	0
 4723 00de 00       		.byte	0
 4724 00df 14       		.uleb128 0x14
 4725 00e0 28       		.uleb128 0x28
ARM GAS  C:\Users\PANXIA~1\AppData\Local\Temp\cczfv69T.s 			page 118


 4726 00e1 00       		.byte	0
 4727 00e2 03       		.uleb128 0x3
 4728 00e3 0E       		.uleb128 0xe
 4729 00e4 1C       		.uleb128 0x1c
 4730 00e5 0D       		.uleb128 0xd
 4731 00e6 00       		.byte	0
 4732 00e7 00       		.byte	0
 4733 00e8 15       		.uleb128 0x15
 4734 00e9 04       		.uleb128 0x4
 4735 00ea 01       		.byte	0x1
 4736 00eb 03       		.uleb128 0x3
 4737 00ec 0E       		.uleb128 0xe
 4738 00ed 0B       		.uleb128 0xb
 4739 00ee 0B       		.uleb128 0xb
 4740 00ef 3A       		.uleb128 0x3a
 4741 00f0 0B       		.uleb128 0xb
 4742 00f1 3B       		.uleb128 0x3b
 4743 00f2 0B       		.uleb128 0xb
 4744 00f3 01       		.uleb128 0x1
 4745 00f4 13       		.uleb128 0x13
 4746 00f5 00       		.byte	0
 4747 00f6 00       		.byte	0
 4748 00f7 16       		.uleb128 0x16
 4749 00f8 2E       		.uleb128 0x2e
 4750 00f9 01       		.byte	0x1
 4751 00fa 03       		.uleb128 0x3
 4752 00fb 0E       		.uleb128 0xe
 4753 00fc 3A       		.uleb128 0x3a
 4754 00fd 0B       		.uleb128 0xb
 4755 00fe 3B       		.uleb128 0x3b
 4756 00ff 05       		.uleb128 0x5
 4757 0100 27       		.uleb128 0x27
 4758 0101 19       		.uleb128 0x19
 4759 0102 11       		.uleb128 0x11
 4760 0103 01       		.uleb128 0x1
 4761 0104 12       		.uleb128 0x12
 4762 0105 06       		.uleb128 0x6
 4763 0106 40       		.uleb128 0x40
 4764 0107 18       		.uleb128 0x18
 4765 0108 9742     		.uleb128 0x2117
 4766 010a 19       		.uleb128 0x19
 4767 010b 01       		.uleb128 0x1
 4768 010c 13       		.uleb128 0x13
 4769 010d 00       		.byte	0
 4770 010e 00       		.byte	0
 4771 010f 17       		.uleb128 0x17
 4772 0110 05       		.uleb128 0x5
 4773 0111 00       		.byte	0
 4774 0112 03       		.uleb128 0x3
 4775 0113 08       		.uleb128 0x8
 4776 0114 3A       		.uleb128 0x3a
 4777 0115 0B       		.uleb128 0xb
 4778 0116 3B       		.uleb128 0x3b
 4779 0117 05       		.uleb128 0x5
 4780 0118 49       		.uleb128 0x49
 4781 0119 13       		.uleb128 0x13
 4782 011a 02       		.uleb128 0x2
ARM GAS  C:\Users\PANXIA~1\AppData\Local\Temp\cczfv69T.s 			page 119


 4783 011b 17       		.uleb128 0x17
 4784 011c 00       		.byte	0
 4785 011d 00       		.byte	0
 4786 011e 18       		.uleb128 0x18
 4787 011f 05       		.uleb128 0x5
 4788 0120 00       		.byte	0
 4789 0121 03       		.uleb128 0x3
 4790 0122 0E       		.uleb128 0xe
 4791 0123 3A       		.uleb128 0x3a
 4792 0124 0B       		.uleb128 0xb
 4793 0125 3B       		.uleb128 0x3b
 4794 0126 05       		.uleb128 0x5
 4795 0127 49       		.uleb128 0x49
 4796 0128 13       		.uleb128 0x13
 4797 0129 02       		.uleb128 0x2
 4798 012a 17       		.uleb128 0x17
 4799 012b 00       		.byte	0
 4800 012c 00       		.byte	0
 4801 012d 19       		.uleb128 0x19
 4802 012e 898201   		.uleb128 0x4109
 4803 0131 01       		.byte	0x1
 4804 0132 11       		.uleb128 0x11
 4805 0133 01       		.uleb128 0x1
 4806 0134 31       		.uleb128 0x31
 4807 0135 13       		.uleb128 0x13
 4808 0136 00       		.byte	0
 4809 0137 00       		.byte	0
 4810 0138 1A       		.uleb128 0x1a
 4811 0139 8A8201   		.uleb128 0x410a
 4812 013c 00       		.byte	0
 4813 013d 02       		.uleb128 0x2
 4814 013e 18       		.uleb128 0x18
 4815 013f 9142     		.uleb128 0x2111
 4816 0141 18       		.uleb128 0x18
 4817 0142 00       		.byte	0
 4818 0143 00       		.byte	0
 4819 0144 1B       		.uleb128 0x1b
 4820 0145 2E       		.uleb128 0x2e
 4821 0146 01       		.byte	0x1
 4822 0147 3F       		.uleb128 0x3f
 4823 0148 19       		.uleb128 0x19
 4824 0149 03       		.uleb128 0x3
 4825 014a 0E       		.uleb128 0xe
 4826 014b 3A       		.uleb128 0x3a
 4827 014c 0B       		.uleb128 0xb
 4828 014d 3B       		.uleb128 0x3b
 4829 014e 05       		.uleb128 0x5
 4830 014f 27       		.uleb128 0x27
 4831 0150 19       		.uleb128 0x19
 4832 0151 49       		.uleb128 0x49
 4833 0152 13       		.uleb128 0x13
 4834 0153 11       		.uleb128 0x11
 4835 0154 01       		.uleb128 0x1
 4836 0155 12       		.uleb128 0x12
 4837 0156 06       		.uleb128 0x6
 4838 0157 40       		.uleb128 0x40
 4839 0158 18       		.uleb128 0x18
ARM GAS  C:\Users\PANXIA~1\AppData\Local\Temp\cczfv69T.s 			page 120


 4840 0159 9742     		.uleb128 0x2117
 4841 015b 19       		.uleb128 0x19
 4842 015c 01       		.uleb128 0x1
 4843 015d 13       		.uleb128 0x13
 4844 015e 00       		.byte	0
 4845 015f 00       		.byte	0
 4846 0160 1C       		.uleb128 0x1c
 4847 0161 34       		.uleb128 0x34
 4848 0162 00       		.byte	0
 4849 0163 03       		.uleb128 0x3
 4850 0164 0E       		.uleb128 0xe
 4851 0165 3A       		.uleb128 0x3a
 4852 0166 0B       		.uleb128 0xb
 4853 0167 3B       		.uleb128 0x3b
 4854 0168 05       		.uleb128 0x5
 4855 0169 49       		.uleb128 0x49
 4856 016a 13       		.uleb128 0x13
 4857 016b 02       		.uleb128 0x2
 4858 016c 17       		.uleb128 0x17
 4859 016d 00       		.byte	0
 4860 016e 00       		.byte	0
 4861 016f 1D       		.uleb128 0x1d
 4862 0170 34       		.uleb128 0x34
 4863 0171 00       		.byte	0
 4864 0172 03       		.uleb128 0x3
 4865 0173 0E       		.uleb128 0xe
 4866 0174 3A       		.uleb128 0x3a
 4867 0175 0B       		.uleb128 0xb
 4868 0176 3B       		.uleb128 0x3b
 4869 0177 05       		.uleb128 0x5
 4870 0178 49       		.uleb128 0x49
 4871 0179 13       		.uleb128 0x13
 4872 017a 02       		.uleb128 0x2
 4873 017b 18       		.uleb128 0x18
 4874 017c 00       		.byte	0
 4875 017d 00       		.byte	0
 4876 017e 1E       		.uleb128 0x1e
 4877 017f 0B       		.uleb128 0xb
 4878 0180 01       		.byte	0x1
 4879 0181 11       		.uleb128 0x11
 4880 0182 01       		.uleb128 0x1
 4881 0183 12       		.uleb128 0x12
 4882 0184 06       		.uleb128 0x6
 4883 0185 00       		.byte	0
 4884 0186 00       		.byte	0
 4885 0187 1F       		.uleb128 0x1f
 4886 0188 34       		.uleb128 0x34
 4887 0189 00       		.byte	0
 4888 018a 03       		.uleb128 0x3
 4889 018b 08       		.uleb128 0x8
 4890 018c 3A       		.uleb128 0x3a
 4891 018d 0B       		.uleb128 0xb
 4892 018e 3B       		.uleb128 0x3b
 4893 018f 05       		.uleb128 0x5
 4894 0190 49       		.uleb128 0x49
 4895 0191 13       		.uleb128 0x13
 4896 0192 02       		.uleb128 0x2
ARM GAS  C:\Users\PANXIA~1\AppData\Local\Temp\cczfv69T.s 			page 121


 4897 0193 18       		.uleb128 0x18
 4898 0194 00       		.byte	0
 4899 0195 00       		.byte	0
 4900 0196 20       		.uleb128 0x20
 4901 0197 2E       		.uleb128 0x2e
 4902 0198 01       		.byte	0x1
 4903 0199 3F       		.uleb128 0x3f
 4904 019a 19       		.uleb128 0x19
 4905 019b 03       		.uleb128 0x3
 4906 019c 0E       		.uleb128 0xe
 4907 019d 3A       		.uleb128 0x3a
 4908 019e 0B       		.uleb128 0xb
 4909 019f 3B       		.uleb128 0x3b
 4910 01a0 05       		.uleb128 0x5
 4911 01a1 27       		.uleb128 0x27
 4912 01a2 19       		.uleb128 0x19
 4913 01a3 11       		.uleb128 0x11
 4914 01a4 01       		.uleb128 0x1
 4915 01a5 12       		.uleb128 0x12
 4916 01a6 06       		.uleb128 0x6
 4917 01a7 40       		.uleb128 0x40
 4918 01a8 18       		.uleb128 0x18
 4919 01a9 9742     		.uleb128 0x2117
 4920 01ab 19       		.uleb128 0x19
 4921 01ac 01       		.uleb128 0x1
 4922 01ad 13       		.uleb128 0x13
 4923 01ae 00       		.byte	0
 4924 01af 00       		.byte	0
 4925 01b0 21       		.uleb128 0x21
 4926 01b1 05       		.uleb128 0x5
 4927 01b2 00       		.byte	0
 4928 01b3 03       		.uleb128 0x3
 4929 01b4 0E       		.uleb128 0xe
 4930 01b5 3A       		.uleb128 0x3a
 4931 01b6 0B       		.uleb128 0xb
 4932 01b7 3B       		.uleb128 0x3b
 4933 01b8 05       		.uleb128 0x5
 4934 01b9 49       		.uleb128 0x49
 4935 01ba 13       		.uleb128 0x13
 4936 01bb 02       		.uleb128 0x2
 4937 01bc 18       		.uleb128 0x18
 4938 01bd 00       		.byte	0
 4939 01be 00       		.byte	0
 4940 01bf 22       		.uleb128 0x22
 4941 01c0 898201   		.uleb128 0x4109
 4942 01c3 01       		.byte	0x1
 4943 01c4 11       		.uleb128 0x11
 4944 01c5 01       		.uleb128 0x1
 4945 01c6 31       		.uleb128 0x31
 4946 01c7 13       		.uleb128 0x13
 4947 01c8 01       		.uleb128 0x1
 4948 01c9 13       		.uleb128 0x13
 4949 01ca 00       		.byte	0
 4950 01cb 00       		.byte	0
 4951 01cc 23       		.uleb128 0x23
 4952 01cd 0B       		.uleb128 0xb
 4953 01ce 01       		.byte	0x1
ARM GAS  C:\Users\PANXIA~1\AppData\Local\Temp\cczfv69T.s 			page 122


 4954 01cf 11       		.uleb128 0x11
 4955 01d0 01       		.uleb128 0x1
 4956 01d1 12       		.uleb128 0x12
 4957 01d2 06       		.uleb128 0x6
 4958 01d3 01       		.uleb128 0x1
 4959 01d4 13       		.uleb128 0x13
 4960 01d5 00       		.byte	0
 4961 01d6 00       		.byte	0
 4962 01d7 24       		.uleb128 0x24
 4963 01d8 898201   		.uleb128 0x4109
 4964 01db 00       		.byte	0
 4965 01dc 11       		.uleb128 0x11
 4966 01dd 01       		.uleb128 0x1
 4967 01de 31       		.uleb128 0x31
 4968 01df 13       		.uleb128 0x13
 4969 01e0 00       		.byte	0
 4970 01e1 00       		.byte	0
 4971 01e2 25       		.uleb128 0x25
 4972 01e3 05       		.uleb128 0x5
 4973 01e4 00       		.byte	0
 4974 01e5 03       		.uleb128 0x3
 4975 01e6 08       		.uleb128 0x8
 4976 01e7 3A       		.uleb128 0x3a
 4977 01e8 0B       		.uleb128 0xb
 4978 01e9 3B       		.uleb128 0x3b
 4979 01ea 05       		.uleb128 0x5
 4980 01eb 49       		.uleb128 0x49
 4981 01ec 13       		.uleb128 0x13
 4982 01ed 02       		.uleb128 0x2
 4983 01ee 18       		.uleb128 0x18
 4984 01ef 00       		.byte	0
 4985 01f0 00       		.byte	0
 4986 01f1 26       		.uleb128 0x26
 4987 01f2 0B       		.uleb128 0xb
 4988 01f3 01       		.byte	0x1
 4989 01f4 55       		.uleb128 0x55
 4990 01f5 17       		.uleb128 0x17
 4991 01f6 00       		.byte	0
 4992 01f7 00       		.byte	0
 4993 01f8 27       		.uleb128 0x27
 4994 01f9 2E       		.uleb128 0x2e
 4995 01fa 01       		.byte	0x1
 4996 01fb 3F       		.uleb128 0x3f
 4997 01fc 19       		.uleb128 0x19
 4998 01fd 03       		.uleb128 0x3
 4999 01fe 0E       		.uleb128 0xe
 5000 01ff 3A       		.uleb128 0x3a
 5001 0200 0B       		.uleb128 0xb
 5002 0201 3B       		.uleb128 0x3b
 5003 0202 0B       		.uleb128 0xb
 5004 0203 27       		.uleb128 0x27
 5005 0204 19       		.uleb128 0x19
 5006 0205 49       		.uleb128 0x49
 5007 0206 13       		.uleb128 0x13
 5008 0207 3C       		.uleb128 0x3c
 5009 0208 19       		.uleb128 0x19
 5010 0209 01       		.uleb128 0x1
ARM GAS  C:\Users\PANXIA~1\AppData\Local\Temp\cczfv69T.s 			page 123


 5011 020a 13       		.uleb128 0x13
 5012 020b 00       		.byte	0
 5013 020c 00       		.byte	0
 5014 020d 28       		.uleb128 0x28
 5015 020e 26       		.uleb128 0x26
 5016 020f 00       		.byte	0
 5017 0210 00       		.byte	0
 5018 0211 00       		.byte	0
 5019 0212 29       		.uleb128 0x29
 5020 0213 2E       		.uleb128 0x2e
 5021 0214 01       		.byte	0x1
 5022 0215 3F       		.uleb128 0x3f
 5023 0216 19       		.uleb128 0x19
 5024 0217 03       		.uleb128 0x3
 5025 0218 0E       		.uleb128 0xe
 5026 0219 3A       		.uleb128 0x3a
 5027 021a 0B       		.uleb128 0xb
 5028 021b 3B       		.uleb128 0x3b
 5029 021c 05       		.uleb128 0x5
 5030 021d 27       		.uleb128 0x27
 5031 021e 19       		.uleb128 0x19
 5032 021f 49       		.uleb128 0x49
 5033 0220 13       		.uleb128 0x13
 5034 0221 3C       		.uleb128 0x3c
 5035 0222 19       		.uleb128 0x19
 5036 0223 00       		.byte	0
 5037 0224 00       		.byte	0
 5038 0225 00       		.byte	0
 5039              		.section	.debug_loc,"",%progbits
 5040              	.Ldebug_loc0:
 5041              	.LLST0:
 5042 0000 00000000 		.4byte	.LVL0
 5043 0004 22000000 		.4byte	.LVL2
 5044 0008 0100     		.2byte	0x1
 5045 000a 50       		.byte	0x50
 5046 000b 22000000 		.4byte	.LVL2
 5047 000f 2A000000 		.4byte	.LFE4
 5048 0013 0400     		.2byte	0x4
 5049 0015 F3       		.byte	0xf3
 5050 0016 01       		.uleb128 0x1
 5051 0017 50       		.byte	0x50
 5052 0018 9F       		.byte	0x9f
 5053 0019 00000000 		.4byte	0
 5054 001d 00000000 		.4byte	0
 5055              	.LLST1:
 5056 0021 00000000 		.4byte	.LVL0
 5057 0025 08000000 		.4byte	.LVL1
 5058 0029 0100     		.2byte	0x1
 5059 002b 51       		.byte	0x51
 5060 002c 08000000 		.4byte	.LVL1
 5061 0030 2A000000 		.4byte	.LFE4
 5062 0034 0400     		.2byte	0x4
 5063 0036 F3       		.byte	0xf3
 5064 0037 01       		.uleb128 0x1
 5065 0038 51       		.byte	0x51
 5066 0039 9F       		.byte	0x9f
 5067 003a 00000000 		.4byte	0
ARM GAS  C:\Users\PANXIA~1\AppData\Local\Temp\cczfv69T.s 			page 124


 5068 003e 00000000 		.4byte	0
 5069              	.LLST2:
 5070 0042 00000000 		.4byte	.LVL0
 5071 0046 27000000 		.4byte	.LVL3-1
 5072 004a 0100     		.2byte	0x1
 5073 004c 52       		.byte	0x52
 5074 004d 27000000 		.4byte	.LVL3-1
 5075 0051 2A000000 		.4byte	.LFE4
 5076 0055 0400     		.2byte	0x4
 5077 0057 F3       		.byte	0xf3
 5078 0058 01       		.uleb128 0x1
 5079 0059 52       		.byte	0x52
 5080 005a 9F       		.byte	0x9f
 5081 005b 00000000 		.4byte	0
 5082 005f 00000000 		.4byte	0
 5083              	.LLST3:
 5084 0063 00000000 		.4byte	.LVL4
 5085 0067 44000000 		.4byte	.LVL13
 5086 006b 0100     		.2byte	0x1
 5087 006d 50       		.byte	0x50
 5088 006e 44000000 		.4byte	.LVL13
 5089 0072 4C000000 		.4byte	.LVL16
 5090 0076 0400     		.2byte	0x4
 5091 0078 F3       		.byte	0xf3
 5092 0079 01       		.uleb128 0x1
 5093 007a 50       		.byte	0x50
 5094 007b 9F       		.byte	0x9f
 5095 007c 4C000000 		.4byte	.LVL16
 5096 0080 4E000000 		.4byte	.LVL17
 5097 0084 0100     		.2byte	0x1
 5098 0086 50       		.byte	0x50
 5099 0087 4E000000 		.4byte	.LVL17
 5100 008b 50000000 		.4byte	.LVL18
 5101 008f 0400     		.2byte	0x4
 5102 0091 F3       		.byte	0xf3
 5103 0092 01       		.uleb128 0x1
 5104 0093 50       		.byte	0x50
 5105 0094 9F       		.byte	0x9f
 5106 0095 50000000 		.4byte	.LVL18
 5107 0099 52000000 		.4byte	.LVL19
 5108 009d 0100     		.2byte	0x1
 5109 009f 50       		.byte	0x50
 5110 00a0 52000000 		.4byte	.LVL19
 5111 00a4 54000000 		.4byte	.LVL20
 5112 00a8 0400     		.2byte	0x4
 5113 00aa F3       		.byte	0xf3
 5114 00ab 01       		.uleb128 0x1
 5115 00ac 50       		.byte	0x50
 5116 00ad 9F       		.byte	0x9f
 5117 00ae 54000000 		.4byte	.LVL20
 5118 00b2 56000000 		.4byte	.LVL21
 5119 00b6 0100     		.2byte	0x1
 5120 00b8 50       		.byte	0x50
 5121 00b9 56000000 		.4byte	.LVL21
 5122 00bd 58000000 		.4byte	.LVL22
 5123 00c1 0400     		.2byte	0x4
 5124 00c3 F3       		.byte	0xf3
ARM GAS  C:\Users\PANXIA~1\AppData\Local\Temp\cczfv69T.s 			page 125


 5125 00c4 01       		.uleb128 0x1
 5126 00c5 50       		.byte	0x50
 5127 00c6 9F       		.byte	0x9f
 5128 00c7 58000000 		.4byte	.LVL22
 5129 00cb 5A000000 		.4byte	.LVL23
 5130 00cf 0100     		.2byte	0x1
 5131 00d1 50       		.byte	0x50
 5132 00d2 5A000000 		.4byte	.LVL23
 5133 00d6 5E000000 		.4byte	.LFE1
 5134 00da 0400     		.2byte	0x4
 5135 00dc F3       		.byte	0xf3
 5136 00dd 01       		.uleb128 0x1
 5137 00de 50       		.byte	0x50
 5138 00df 9F       		.byte	0x9f
 5139 00e0 00000000 		.4byte	0
 5140 00e4 00000000 		.4byte	0
 5141              	.LLST4:
 5142 00e8 00000000 		.4byte	.LVL4
 5143 00ec 46000000 		.4byte	.LVL14
 5144 00f0 0100     		.2byte	0x1
 5145 00f2 51       		.byte	0x51
 5146 00f3 46000000 		.4byte	.LVL14
 5147 00f7 4C000000 		.4byte	.LVL16
 5148 00fb 0400     		.2byte	0x4
 5149 00fd F3       		.byte	0xf3
 5150 00fe 01       		.uleb128 0x1
 5151 00ff 51       		.byte	0x51
 5152 0100 9F       		.byte	0x9f
 5153 0101 4C000000 		.4byte	.LVL16
 5154 0105 5A000000 		.4byte	.LVL23
 5155 0109 0100     		.2byte	0x1
 5156 010b 51       		.byte	0x51
 5157 010c 5A000000 		.4byte	.LVL23
 5158 0110 5E000000 		.4byte	.LFE1
 5159 0114 0400     		.2byte	0x4
 5160 0116 F3       		.byte	0xf3
 5161 0117 01       		.uleb128 0x1
 5162 0118 51       		.byte	0x51
 5163 0119 9F       		.byte	0x9f
 5164 011a 00000000 		.4byte	0
 5165 011e 00000000 		.4byte	0
 5166              	.LLST5:
 5167 0122 2E000000 		.4byte	.LVL10
 5168 0126 30000000 		.4byte	.LVL11
 5169 012a 0100     		.2byte	0x1
 5170 012c 53       		.byte	0x53
 5171 012d 30000000 		.4byte	.LVL11
 5172 0131 34000000 		.4byte	.LVL12
 5173 0135 1E00     		.2byte	0x1e
 5174 0137 70       		.byte	0x70
 5175 0138 14       		.sleb128 20
 5176 0139 06       		.byte	0x6
 5177 013a 23       		.byte	0x23
 5178 013b 04       		.uleb128 0x4
 5179 013c 94       		.byte	0x94
 5180 013d 02       		.byte	0x2
 5181 013e 0A       		.byte	0xa
ARM GAS  C:\Users\PANXIA~1\AppData\Local\Temp\cczfv69T.s 			page 126


 5182 013f FFFF     		.2byte	0xffff
 5183 0141 1A       		.byte	0x1a
 5184 0142 71       		.byte	0x71
 5185 0143 00       		.sleb128 0
 5186 0144 22       		.byte	0x22
 5187 0145 0A       		.byte	0xa
 5188 0146 0014     		.2byte	0x1400
 5189 0148 1C       		.byte	0x1c
 5190 0149 0A       		.byte	0xa
 5191 014a FFFF     		.2byte	0xffff
 5192 014c 1A       		.byte	0x1a
 5193 014d 33       		.byte	0x33
 5194 014e 24       		.byte	0x24
 5195 014f 72       		.byte	0x72
 5196 0150 00       		.sleb128 0
 5197 0151 22       		.byte	0x22
 5198 0152 06       		.byte	0x6
 5199 0153 23       		.byte	0x23
 5200 0154 14       		.uleb128 0x14
 5201 0155 00000000 		.4byte	0
 5202 0159 00000000 		.4byte	0
 5203              	.LLST6:
 5204 015d 08000000 		.4byte	.LVL5
 5205 0161 1C000000 		.4byte	.LVL7
 5206 0165 0100     		.2byte	0x1
 5207 0167 53       		.byte	0x53
 5208 0168 1C000000 		.4byte	.LVL7
 5209 016c 22000000 		.4byte	.LVL8
 5210 0170 0500     		.2byte	0x5
 5211 0172 70       		.byte	0x70
 5212 0173 14       		.sleb128 20
 5213 0174 06       		.byte	0x6
 5214 0175 23       		.byte	0x23
 5215 0176 04       		.uleb128 0x4
 5216 0177 22000000 		.4byte	.LVL8
 5217 017b 2C000000 		.4byte	.LVL9
 5218 017f 0100     		.2byte	0x1
 5219 0181 53       		.byte	0x53
 5220 0182 2C000000 		.4byte	.LVL9
 5221 0186 44000000 		.4byte	.LVL13
 5222 018a 1300     		.2byte	0x13
 5223 018c 70       		.byte	0x70
 5224 018d 14       		.sleb128 20
 5225 018e 06       		.byte	0x6
 5226 018f 23       		.byte	0x23
 5227 0190 04       		.uleb128 0x4
 5228 0191 94       		.byte	0x94
 5229 0192 02       		.byte	0x2
 5230 0193 0A       		.byte	0xa
 5231 0194 FFFF     		.2byte	0xffff
 5232 0196 1A       		.byte	0x1a
 5233 0197 71       		.byte	0x71
 5234 0198 00       		.sleb128 0
 5235 0199 22       		.byte	0x22
 5236 019a 0A       		.byte	0xa
 5237 019b 0014     		.2byte	0x1400
 5238 019d 1C       		.byte	0x1c
ARM GAS  C:\Users\PANXIA~1\AppData\Local\Temp\cczfv69T.s 			page 127


 5239 019e 9F       		.byte	0x9f
 5240 019f 44000000 		.4byte	.LVL13
 5241 01a3 46000000 		.4byte	.LVL14
 5242 01a7 1600     		.2byte	0x16
 5243 01a9 F3       		.byte	0xf3
 5244 01aa 01       		.uleb128 0x1
 5245 01ab 50       		.byte	0x50
 5246 01ac 23       		.byte	0x23
 5247 01ad 14       		.uleb128 0x14
 5248 01ae 06       		.byte	0x6
 5249 01af 23       		.byte	0x23
 5250 01b0 04       		.uleb128 0x4
 5251 01b1 94       		.byte	0x94
 5252 01b2 02       		.byte	0x2
 5253 01b3 0A       		.byte	0xa
 5254 01b4 FFFF     		.2byte	0xffff
 5255 01b6 1A       		.byte	0x1a
 5256 01b7 71       		.byte	0x71
 5257 01b8 00       		.sleb128 0
 5258 01b9 22       		.byte	0x22
 5259 01ba 0A       		.byte	0xa
 5260 01bb 0014     		.2byte	0x1400
 5261 01bd 1C       		.byte	0x1c
 5262 01be 9F       		.byte	0x9f
 5263 01bf 4C000000 		.4byte	.LVL16
 5264 01c3 5A000000 		.4byte	.LVL23
 5265 01c7 0100     		.2byte	0x1
 5266 01c9 53       		.byte	0x53
 5267 01ca 00000000 		.4byte	0
 5268 01ce 00000000 		.4byte	0
 5269              	.LLST7:
 5270 01d2 00000000 		.4byte	.LVL24
 5271 01d6 AE000000 		.4byte	.LVL45
 5272 01da 0100     		.2byte	0x1
 5273 01dc 50       		.byte	0x50
 5274 01dd B0000000 		.4byte	.LVL46
 5275 01e1 B8000000 		.4byte	.LFE3
 5276 01e5 0100     		.2byte	0x1
 5277 01e7 50       		.byte	0x50
 5278 01e8 00000000 		.4byte	0
 5279 01ec 00000000 		.4byte	0
 5280              	.LLST8:
 5281 01f0 00000000 		.4byte	.LVL24
 5282 01f4 94000000 		.4byte	.LVL38
 5283 01f8 0100     		.2byte	0x1
 5284 01fa 51       		.byte	0x51
 5285 01fb 94000000 		.4byte	.LVL38
 5286 01ff B8000000 		.4byte	.LFE3
 5287 0203 0100     		.2byte	0x1
 5288 0205 51       		.byte	0x51
 5289 0206 00000000 		.4byte	0
 5290 020a 00000000 		.4byte	0
 5291              	.LLST9:
 5292 020e 00000000 		.4byte	.LVL24
 5293 0212 7E000000 		.4byte	.LVL35
 5294 0216 0100     		.2byte	0x1
 5295 0218 52       		.byte	0x52
ARM GAS  C:\Users\PANXIA~1\AppData\Local\Temp\cczfv69T.s 			page 128


 5296 0219 80000000 		.4byte	.LVL36
 5297 021d 84000000 		.4byte	.LVL37
 5298 0221 0100     		.2byte	0x1
 5299 0223 52       		.byte	0x52
 5300 0224 84000000 		.4byte	.LVL37
 5301 0228 96000000 		.4byte	.LVL39
 5302 022c 0200     		.2byte	0x2
 5303 022e 30       		.byte	0x30
 5304 022f 9F       		.byte	0x9f
 5305 0230 96000000 		.4byte	.LVL39
 5306 0234 B8000000 		.4byte	.LFE3
 5307 0238 0100     		.2byte	0x1
 5308 023a 52       		.byte	0x52
 5309 023b 00000000 		.4byte	0
 5310 023f 00000000 		.4byte	0
 5311              	.LLST10:
 5312 0243 00000000 		.4byte	.LVL24
 5313 0247 12000000 		.4byte	.LVL25
 5314 024b 0100     		.2byte	0x1
 5315 024d 53       		.byte	0x53
 5316 024e 12000000 		.4byte	.LVL25
 5317 0252 B8000000 		.4byte	.LFE3
 5318 0256 0400     		.2byte	0x4
 5319 0258 F3       		.byte	0xf3
 5320 0259 01       		.uleb128 0x1
 5321 025a 53       		.byte	0x53
 5322 025b 9F       		.byte	0x9f
 5323 025c 00000000 		.4byte	0
 5324 0260 00000000 		.4byte	0
 5325              	.LLST11:
 5326 0264 00000000 		.4byte	.LVL24
 5327 0268 14000000 		.4byte	.LVL26
 5328 026c 0200     		.2byte	0x2
 5329 026e 91       		.byte	0x91
 5330 026f 00       		.sleb128 0
 5331 0270 14000000 		.4byte	.LVL26
 5332 0274 B8000000 		.4byte	.LFE3
 5333 0278 0100     		.2byte	0x1
 5334 027a 5C       		.byte	0x5c
 5335 027b 00000000 		.4byte	0
 5336 027f 00000000 		.4byte	0
 5337              	.LLST12:
 5338 0283 00000000 		.4byte	.LVL24
 5339 0287 14000000 		.4byte	.LVL26
 5340 028b 0200     		.2byte	0x2
 5341 028d 91       		.byte	0x91
 5342 028e 04       		.sleb128 4
 5343 028f 14000000 		.4byte	.LVL26
 5344 0293 98000000 		.4byte	.LVL40
 5345 0297 0100     		.2byte	0x1
 5346 0299 56       		.byte	0x56
 5347 029a 9A000000 		.4byte	.LVL41
 5348 029e 9E000000 		.4byte	.LVL42
 5349 02a2 0100     		.2byte	0x1
 5350 02a4 56       		.byte	0x56
 5351 02a5 9E000000 		.4byte	.LVL42
 5352 02a9 AC000000 		.4byte	.LVL44
ARM GAS  C:\Users\PANXIA~1\AppData\Local\Temp\cczfv69T.s 			page 129


 5353 02ad 0200     		.2byte	0x2
 5354 02af 30       		.byte	0x30
 5355 02b0 9F       		.byte	0x9f
 5356 02b1 AC000000 		.4byte	.LVL44
 5357 02b5 B8000000 		.4byte	.LFE3
 5358 02b9 0100     		.2byte	0x1
 5359 02bb 56       		.byte	0x56
 5360 02bc 00000000 		.4byte	0
 5361 02c0 00000000 		.4byte	0
 5362              	.LLST13:
 5363 02c4 18000000 		.4byte	.LVL27
 5364 02c8 58000000 		.4byte	.LVL31
 5365 02cc 0100     		.2byte	0x1
 5366 02ce 57       		.byte	0x57
 5367 02cf 58000000 		.4byte	.LVL31
 5368 02d3 7E000000 		.4byte	.LVL35
 5369 02d7 0600     		.2byte	0x6
 5370 02d9 76       		.byte	0x76
 5371 02da 00       		.sleb128 0
 5372 02db 72       		.byte	0x72
 5373 02dc 00       		.sleb128 0
 5374 02dd 1C       		.byte	0x1c
 5375 02de 9F       		.byte	0x9f
 5376 02df 00000000 		.4byte	0
 5377 02e3 00000000 		.4byte	0
 5378              	.LLST14:
 5379 02e7 3C000000 		.4byte	.LVL28
 5380 02eb 6E000000 		.4byte	.LVL33
 5381 02ef 0100     		.2byte	0x1
 5382 02f1 5E       		.byte	0x5e
 5383 02f2 00000000 		.4byte	0
 5384 02f6 00000000 		.4byte	0
 5385              	.LLST15:
 5386 02fa 50000000 		.4byte	.LVL29
 5387 02fe 56000000 		.4byte	.LVL30
 5388 0302 0100     		.2byte	0x1
 5389 0304 54       		.byte	0x54
 5390 0305 00000000 		.4byte	0
 5391 0309 00000000 		.4byte	0
 5392              	.LLST16:
 5393 030d 56000000 		.4byte	.LVL30
 5394 0311 B0000000 		.4byte	.LVL46
 5395 0315 0100     		.2byte	0x1
 5396 0317 54       		.byte	0x54
 5397 0318 00000000 		.4byte	0
 5398 031c 00000000 		.4byte	0
 5399              	.LLST17:
 5400 0320 6A000000 		.4byte	.LVL32
 5401 0324 74000000 		.4byte	.LVL34
 5402 0328 0100     		.2byte	0x1
 5403 032a 55       		.byte	0x55
 5404 032b 74000000 		.4byte	.LVL34
 5405 032f 98000000 		.4byte	.LVL40
 5406 0333 0F00     		.2byte	0xf
 5407 0335 08       		.byte	0x8
 5408 0336 FF       		.byte	0xff
 5409 0337 79       		.byte	0x79
ARM GAS  C:\Users\PANXIA~1\AppData\Local\Temp\cczfv69T.s 			page 130


 5410 0338 00       		.sleb128 0
 5411 0339 26       		.byte	0x26
 5412 033a 08       		.byte	0x8
 5413 033b FF       		.byte	0xff
 5414 033c 76       		.byte	0x76
 5415 033d 00       		.sleb128 0
 5416 033e 74       		.byte	0x74
 5417 033f 00       		.sleb128 0
 5418 0340 22       		.byte	0x22
 5419 0341 24       		.byte	0x24
 5420 0342 21       		.byte	0x21
 5421 0343 9F       		.byte	0x9f
 5422 0344 00000000 		.4byte	0
 5423 0348 00000000 		.4byte	0
 5424              	.LLST18:
 5425 034c 6E000000 		.4byte	.LVL33
 5426 0350 B0000000 		.4byte	.LVL46
 5427 0354 0100     		.2byte	0x1
 5428 0356 5E       		.byte	0x5e
 5429 0357 00000000 		.4byte	0
 5430 035b 00000000 		.4byte	0
 5431              	.LLST19:
 5432 035f 00000000 		.4byte	.LVL47
 5433 0363 10000000 		.4byte	.LVL49
 5434 0367 0100     		.2byte	0x1
 5435 0369 50       		.byte	0x50
 5436 036a 10000000 		.4byte	.LVL49
 5437 036e E2000000 		.4byte	.LFE0
 5438 0372 0100     		.2byte	0x1
 5439 0374 59       		.byte	0x59
 5440 0375 00000000 		.4byte	0
 5441 0379 00000000 		.4byte	0
 5442              	.LLST20:
 5443 037d 00000000 		.4byte	.LVL47
 5444 0381 16000000 		.4byte	.LVL51
 5445 0385 0100     		.2byte	0x1
 5446 0387 51       		.byte	0x51
 5447 0388 16000000 		.4byte	.LVL51
 5448 038c E2000000 		.4byte	.LFE0
 5449 0390 0400     		.2byte	0x4
 5450 0392 F3       		.byte	0xf3
 5451 0393 01       		.uleb128 0x1
 5452 0394 51       		.byte	0x51
 5453 0395 9F       		.byte	0x9f
 5454 0396 00000000 		.4byte	0
 5455 039a 00000000 		.4byte	0
 5456              	.LLST21:
 5457 039e 00000000 		.4byte	.LVL47
 5458 03a2 0C000000 		.4byte	.LVL48
 5459 03a6 0100     		.2byte	0x1
 5460 03a8 52       		.byte	0x52
 5461 03a9 0C000000 		.4byte	.LVL48
 5462 03ad E2000000 		.4byte	.LFE0
 5463 03b1 0100     		.2byte	0x1
 5464 03b3 58       		.byte	0x58
 5465 03b4 00000000 		.4byte	0
 5466 03b8 00000000 		.4byte	0
ARM GAS  C:\Users\PANXIA~1\AppData\Local\Temp\cczfv69T.s 			page 131


 5467              	.LLST22:
 5468 03bc 12000000 		.4byte	.LVL50
 5469 03c0 38000000 		.4byte	.LVL54
 5470 03c4 0800     		.2byte	0x8
 5471 03c6 70       		.byte	0x70
 5472 03c7 00       		.sleb128 0
 5473 03c8 33       		.byte	0x33
 5474 03c9 24       		.byte	0x24
 5475 03ca 72       		.byte	0x72
 5476 03cb 00       		.sleb128 0
 5477 03cc 22       		.byte	0x22
 5478 03cd 9F       		.byte	0x9f
 5479 03ce 00000000 		.4byte	0
 5480 03d2 00000000 		.4byte	0
 5481              	.LLST23:
 5482 03d6 1A000000 		.4byte	.LVL52
 5483 03da 38000000 		.4byte	.LVL54
 5484 03de 0200     		.2byte	0x2
 5485 03e0 30       		.byte	0x30
 5486 03e1 9F       		.byte	0x9f
 5487 03e2 38000000 		.4byte	.LVL54
 5488 03e6 C8000000 		.4byte	.LVL64
 5489 03ea 0100     		.2byte	0x1
 5490 03ec 54       		.byte	0x54
 5491 03ed CA000000 		.4byte	.LVL65
 5492 03f1 E2000000 		.4byte	.LFE0
 5493 03f5 0100     		.2byte	0x1
 5494 03f7 54       		.byte	0x54
 5495 03f8 00000000 		.4byte	0
 5496 03fc 00000000 		.4byte	0
 5497              	.LLST24:
 5498 0400 1A000000 		.4byte	.LVL52
 5499 0404 38000000 		.4byte	.LVL54
 5500 0408 0200     		.2byte	0x2
 5501 040a 30       		.byte	0x30
 5502 040b 9F       		.byte	0x9f
 5503 040c 38000000 		.4byte	.LVL54
 5504 0410 B4000000 		.4byte	.LVL61
 5505 0414 0100     		.2byte	0x1
 5506 0416 55       		.byte	0x55
 5507 0417 C4000000 		.4byte	.LVL62
 5508 041b C6000000 		.4byte	.LVL63
 5509 041f 0100     		.2byte	0x1
 5510 0421 5B       		.byte	0x5b
 5511 0422 C6000000 		.4byte	.LVL63
 5512 0426 E2000000 		.4byte	.LFE0
 5513 042a 0100     		.2byte	0x1
 5514 042c 55       		.byte	0x55
 5515 042d 00000000 		.4byte	0
 5516 0431 00000000 		.4byte	0
 5517              	.LLST25:
 5518 0435 68000000 		.4byte	.LVL55
 5519 0439 8A000000 		.4byte	.LVL58
 5520 043d 0100     		.2byte	0x1
 5521 043f 53       		.byte	0x53
 5522 0440 00000000 		.4byte	0
 5523 0444 00000000 		.4byte	0
ARM GAS  C:\Users\PANXIA~1\AppData\Local\Temp\cczfv69T.s 			page 132


 5524              	.LLST26:
 5525 0448 6C000000 		.4byte	.LVL56
 5526 044c A1000000 		.4byte	.LVL60-1
 5527 0450 0100     		.2byte	0x1
 5528 0452 51       		.byte	0x51
 5529 0453 00000000 		.4byte	0
 5530 0457 00000000 		.4byte	0
 5531              	.LLST27:
 5532 045b 6C000000 		.4byte	.LVL56
 5533 045f 9C000000 		.4byte	.LVL59
 5534 0463 0600     		.2byte	0x6
 5535 0465 70       		.byte	0x70
 5536 0466 00       		.sleb128 0
 5537 0467 08       		.byte	0x8
 5538 0468 FF       		.byte	0xff
 5539 0469 1A       		.byte	0x1a
 5540 046a 9F       		.byte	0x9f
 5541 046b 00000000 		.4byte	0
 5542 046f 00000000 		.4byte	0
 5543              	.LLST28:
 5544 0473 88000000 		.4byte	.LVL57
 5545 0477 A1000000 		.4byte	.LVL60-1
 5546 047b 0100     		.2byte	0x1
 5547 047d 52       		.byte	0x52
 5548 047e 00000000 		.4byte	0
 5549 0482 00000000 		.4byte	0
 5550              	.LLST29:
 5551 0486 00000000 		.4byte	.LVL66
 5552 048a 39000000 		.4byte	.LVL68-1
 5553 048e 0100     		.2byte	0x1
 5554 0490 50       		.byte	0x50
 5555 0491 39000000 		.4byte	.LVL68-1
 5556 0495 E2000000 		.4byte	.LVL77
 5557 0499 0100     		.2byte	0x1
 5558 049b 55       		.byte	0x55
 5559 049c E2000000 		.4byte	.LVL77
 5560 04a0 EA000000 		.4byte	.LVL78
 5561 04a4 0100     		.2byte	0x1
 5562 04a6 50       		.byte	0x50
 5563 04a7 EA000000 		.4byte	.LVL78
 5564 04ab EC000000 		.4byte	.LVL79
 5565 04af 0100     		.2byte	0x1
 5566 04b1 55       		.byte	0x55
 5567 04b2 EC000000 		.4byte	.LVL79
 5568 04b6 FC000000 		.4byte	.LFE6
 5569 04ba 0400     		.2byte	0x4
 5570 04bc F3       		.byte	0xf3
 5571 04bd 01       		.uleb128 0x1
 5572 04be 50       		.byte	0x50
 5573 04bf 9F       		.byte	0x9f
 5574 04c0 00000000 		.4byte	0
 5575 04c4 00000000 		.4byte	0
 5576              	.LLST30:
 5577 04c8 00000000 		.4byte	.LVL66
 5578 04cc 39000000 		.4byte	.LVL68-1
 5579 04d0 0100     		.2byte	0x1
 5580 04d2 51       		.byte	0x51
ARM GAS  C:\Users\PANXIA~1\AppData\Local\Temp\cczfv69T.s 			page 133


 5581 04d3 39000000 		.4byte	.LVL68-1
 5582 04d7 E2000000 		.4byte	.LVL77
 5583 04db 0400     		.2byte	0x4
 5584 04dd F3       		.byte	0xf3
 5585 04de 01       		.uleb128 0x1
 5586 04df 51       		.byte	0x51
 5587 04e0 9F       		.byte	0x9f
 5588 04e1 E2000000 		.4byte	.LVL77
 5589 04e5 EA000000 		.4byte	.LVL78
 5590 04e9 0100     		.2byte	0x1
 5591 04eb 51       		.byte	0x51
 5592 04ec EA000000 		.4byte	.LVL78
 5593 04f0 FC000000 		.4byte	.LFE6
 5594 04f4 0400     		.2byte	0x4
 5595 04f6 F3       		.byte	0xf3
 5596 04f7 01       		.uleb128 0x1
 5597 04f8 51       		.byte	0x51
 5598 04f9 9F       		.byte	0x9f
 5599 04fa 00000000 		.4byte	0
 5600 04fe 00000000 		.4byte	0
 5601              	.LLST31:
 5602 0502 2C000000 		.4byte	.LVL67
 5603 0506 7A000000 		.4byte	.LVL71
 5604 050a 0100     		.2byte	0x1
 5605 050c 58       		.byte	0x58
 5606 050d EA000000 		.4byte	.LVL78
 5607 0511 EC000000 		.4byte	.LVL79
 5608 0515 0100     		.2byte	0x1
 5609 0517 58       		.byte	0x58
 5610 0518 00000000 		.4byte	0
 5611 051c 00000000 		.4byte	0
 5612              	.LLST32:
 5613 0520 74000000 		.4byte	.LVL70
 5614 0524 E2000000 		.4byte	.LVL77
 5615 0528 0100     		.2byte	0x1
 5616 052a 59       		.byte	0x59
 5617 052b 00000000 		.4byte	0
 5618 052f 00000000 		.4byte	0
 5619              	.LLST33:
 5620 0533 7A000000 		.4byte	.LVL71
 5621 0537 E2000000 		.4byte	.LVL77
 5622 053b 0100     		.2byte	0x1
 5623 053d 58       		.byte	0x58
 5624 053e 00000000 		.4byte	0
 5625 0542 00000000 		.4byte	0
 5626              	.LLST34:
 5627 0546 00000000 		.4byte	.LVL80
 5628 054a 1F000000 		.4byte	.LVL82-1
 5629 054e 0100     		.2byte	0x1
 5630 0550 50       		.byte	0x50
 5631 0551 1F000000 		.4byte	.LVL82-1
 5632 0555 22000000 		.4byte	.LFE7
 5633 0559 0400     		.2byte	0x4
 5634 055b F3       		.byte	0xf3
 5635 055c 01       		.uleb128 0x1
 5636 055d 50       		.byte	0x50
 5637 055e 9F       		.byte	0x9f
ARM GAS  C:\Users\PANXIA~1\AppData\Local\Temp\cczfv69T.s 			page 134


 5638 055f 00000000 		.4byte	0
 5639 0563 00000000 		.4byte	0
 5640              	.LLST35:
 5641 0567 00000000 		.4byte	.LVL80
 5642 056b 1C000000 		.4byte	.LVL81
 5643 056f 0100     		.2byte	0x1
 5644 0571 51       		.byte	0x51
 5645 0572 1C000000 		.4byte	.LVL81
 5646 0576 22000000 		.4byte	.LFE7
 5647 057a 0400     		.2byte	0x4
 5648 057c F3       		.byte	0xf3
 5649 057d 01       		.uleb128 0x1
 5650 057e 51       		.byte	0x51
 5651 057f 9F       		.byte	0x9f
 5652 0580 00000000 		.4byte	0
 5653 0584 00000000 		.4byte	0
 5654              	.LLST36:
 5655 0588 00000000 		.4byte	.LVL83
 5656 058c 24000000 		.4byte	.LVL87
 5657 0590 0100     		.2byte	0x1
 5658 0592 50       		.byte	0x50
 5659 0593 24000000 		.4byte	.LVL87
 5660 0597 52010000 		.4byte	.LVL120
 5661 059b 0100     		.2byte	0x1
 5662 059d 57       		.byte	0x57
 5663 059e 52010000 		.4byte	.LVL120
 5664 05a2 5A010000 		.4byte	.LVL122
 5665 05a6 0100     		.2byte	0x1
 5666 05a8 50       		.byte	0x50
 5667 05a9 5A010000 		.4byte	.LVL122
 5668 05ad 62010000 		.4byte	.LVL123
 5669 05b1 0100     		.2byte	0x1
 5670 05b3 57       		.byte	0x57
 5671 05b4 62010000 		.4byte	.LVL123
 5672 05b8 70010000 		.4byte	.LVL126
 5673 05bc 0100     		.2byte	0x1
 5674 05be 50       		.byte	0x50
 5675 05bf 70010000 		.4byte	.LVL126
 5676 05c3 50020000 		.4byte	.LVL157
 5677 05c7 0100     		.2byte	0x1
 5678 05c9 57       		.byte	0x57
 5679 05ca 50020000 		.4byte	.LVL157
 5680 05ce 56020000 		.4byte	.LVL158
 5681 05d2 0100     		.2byte	0x1
 5682 05d4 50       		.byte	0x50
 5683 05d5 56020000 		.4byte	.LVL158
 5684 05d9 62020000 		.4byte	.LFE2
 5685 05dd 0100     		.2byte	0x1
 5686 05df 57       		.byte	0x57
 5687 05e0 00000000 		.4byte	0
 5688 05e4 00000000 		.4byte	0
 5689              	.LLST37:
 5690 05e8 00000000 		.4byte	.LVL83
 5691 05ec 24000000 		.4byte	.LVL87
 5692 05f0 0100     		.2byte	0x1
 5693 05f2 51       		.byte	0x51
 5694 05f3 24000000 		.4byte	.LVL87
ARM GAS  C:\Users\PANXIA~1\AppData\Local\Temp\cczfv69T.s 			page 135


 5695 05f7 52010000 		.4byte	.LVL120
 5696 05fb 0300     		.2byte	0x3
 5697 05fd 91       		.byte	0x91
 5698 05fe B87F     		.sleb128 -72
 5699 0600 52010000 		.4byte	.LVL120
 5700 0604 56010000 		.4byte	.LVL121
 5701 0608 0100     		.2byte	0x1
 5702 060a 51       		.byte	0x51
 5703 060b 56010000 		.4byte	.LVL121
 5704 060f 62010000 		.4byte	.LVL123
 5705 0613 0300     		.2byte	0x3
 5706 0615 91       		.byte	0x91
 5707 0616 B87F     		.sleb128 -72
 5708 0618 62010000 		.4byte	.LVL123
 5709 061c 78010000 		.4byte	.LVL127
 5710 0620 0100     		.2byte	0x1
 5711 0622 51       		.byte	0x51
 5712 0623 78010000 		.4byte	.LVL127
 5713 0627 42020000 		.4byte	.LVL154
 5714 062b 0300     		.2byte	0x3
 5715 062d 91       		.byte	0x91
 5716 062e B87F     		.sleb128 -72
 5717 0630 42020000 		.4byte	.LVL154
 5718 0634 46020000 		.4byte	.LVL155
 5719 0638 0100     		.2byte	0x1
 5720 063a 51       		.byte	0x51
 5721 063b 46020000 		.4byte	.LVL155
 5722 063f 50020000 		.4byte	.LVL157
 5723 0643 0300     		.2byte	0x3
 5724 0645 91       		.byte	0x91
 5725 0646 B87F     		.sleb128 -72
 5726 0648 50020000 		.4byte	.LVL157
 5727 064c 56020000 		.4byte	.LVL158
 5728 0650 0100     		.2byte	0x1
 5729 0652 51       		.byte	0x51
 5730 0653 56020000 		.4byte	.LVL158
 5731 0657 62020000 		.4byte	.LFE2
 5732 065b 0300     		.2byte	0x3
 5733 065d 91       		.byte	0x91
 5734 065e B87F     		.sleb128 -72
 5735 0660 00000000 		.4byte	0
 5736 0664 00000000 		.4byte	0
 5737              	.LLST38:
 5738 0668 0A000000 		.4byte	.LVL84
 5739 066c 24000000 		.4byte	.LVL87
 5740 0670 0200     		.2byte	0x2
 5741 0672 30       		.byte	0x30
 5742 0673 9F       		.byte	0x9f
 5743 0674 24000000 		.4byte	.LVL87
 5744 0678 4E000000 		.4byte	.LVL94
 5745 067c 0100     		.2byte	0x1
 5746 067e 51       		.byte	0x51
 5747 067f 50000000 		.4byte	.LVL95
 5748 0683 5E000000 		.4byte	.LVL102
 5749 0687 0100     		.2byte	0x1
 5750 0689 51       		.byte	0x51
 5751 068a 52010000 		.4byte	.LVL120
ARM GAS  C:\Users\PANXIA~1\AppData\Local\Temp\cczfv69T.s 			page 136


 5752 068e 5A010000 		.4byte	.LVL122
 5753 0692 0200     		.2byte	0x2
 5754 0694 30       		.byte	0x30
 5755 0695 9F       		.byte	0x9f
 5756 0696 5A010000 		.4byte	.LVL122
 5757 069a 62010000 		.4byte	.LVL123
 5758 069e 0100     		.2byte	0x1
 5759 06a0 51       		.byte	0x51
 5760 06a1 62010000 		.4byte	.LVL123
 5761 06a5 78010000 		.4byte	.LVL127
 5762 06a9 0200     		.2byte	0x2
 5763 06ab 30       		.byte	0x30
 5764 06ac 9F       		.byte	0x9f
 5765 06ad 78010000 		.4byte	.LVL127
 5766 06b1 98010000 		.4byte	.LVL130
 5767 06b5 0100     		.2byte	0x1
 5768 06b7 54       		.byte	0x54
 5769 06b8 9A010000 		.4byte	.LVL131
 5770 06bc 42020000 		.4byte	.LVL154
 5771 06c0 0100     		.2byte	0x1
 5772 06c2 54       		.byte	0x54
 5773 06c3 42020000 		.4byte	.LVL154
 5774 06c7 46020000 		.4byte	.LVL155
 5775 06cb 0200     		.2byte	0x2
 5776 06cd 30       		.byte	0x30
 5777 06ce 9F       		.byte	0x9f
 5778 06cf 46020000 		.4byte	.LVL155
 5779 06d3 50020000 		.4byte	.LVL157
 5780 06d7 0100     		.2byte	0x1
 5781 06d9 54       		.byte	0x54
 5782 06da 50020000 		.4byte	.LVL157
 5783 06de 56020000 		.4byte	.LVL158
 5784 06e2 0200     		.2byte	0x2
 5785 06e4 30       		.byte	0x30
 5786 06e5 9F       		.byte	0x9f
 5787 06e6 56020000 		.4byte	.LVL158
 5788 06ea 5A020000 		.4byte	.LVL159
 5789 06ee 0100     		.2byte	0x1
 5790 06f0 54       		.byte	0x54
 5791 06f1 00000000 		.4byte	0
 5792 06f5 00000000 		.4byte	0
 5793              	.LLST39:
 5794 06f9 0A000000 		.4byte	.LVL84
 5795 06fd 72000000 		.4byte	.LVL105
 5796 0701 0200     		.2byte	0x2
 5797 0703 30       		.byte	0x30
 5798 0704 9F       		.byte	0x9f
 5799 0705 72000000 		.4byte	.LVL105
 5800 0709 0E010000 		.4byte	.LVL114
 5801 070d 0100     		.2byte	0x1
 5802 070f 54       		.byte	0x54
 5803 0710 10010000 		.4byte	.LVL115
 5804 0714 3C010000 		.4byte	.LVL118
 5805 0718 0100     		.2byte	0x1
 5806 071a 54       		.byte	0x54
 5807 071b 52010000 		.4byte	.LVL120
 5808 071f 5A020000 		.4byte	.LVL159
ARM GAS  C:\Users\PANXIA~1\AppData\Local\Temp\cczfv69T.s 			page 137


 5809 0723 0200     		.2byte	0x2
 5810 0725 30       		.byte	0x30
 5811 0726 9F       		.byte	0x9f
 5812 0727 00000000 		.4byte	0
 5813 072b 00000000 		.4byte	0
 5814              	.LLST40:
 5815 072f 0A000000 		.4byte	.LVL84
 5816 0733 6A000000 		.4byte	.LVL104
 5817 0737 0200     		.2byte	0x2
 5818 0739 30       		.byte	0x30
 5819 073a 9F       		.byte	0x9f
 5820 073b 6A000000 		.4byte	.LVL104
 5821 073f 52010000 		.4byte	.LVL120
 5822 0743 0100     		.2byte	0x1
 5823 0745 59       		.byte	0x59
 5824 0746 52010000 		.4byte	.LVL120
 5825 074a 5A020000 		.4byte	.LVL159
 5826 074e 0200     		.2byte	0x2
 5827 0750 30       		.byte	0x30
 5828 0751 9F       		.byte	0x9f
 5829 0752 00000000 		.4byte	0
 5830 0756 00000000 		.4byte	0
 5831              	.LLST41:
 5832 075a 0A000000 		.4byte	.LVL84
 5833 075e 72000000 		.4byte	.LVL105
 5834 0762 0200     		.2byte	0x2
 5835 0764 30       		.byte	0x30
 5836 0765 9F       		.byte	0x9f
 5837 0766 A6000000 		.4byte	.LVL106
 5838 076a 18010000 		.4byte	.LVL116
 5839 076e 0100     		.2byte	0x1
 5840 0770 56       		.byte	0x56
 5841 0771 52010000 		.4byte	.LVL120
 5842 0775 5A020000 		.4byte	.LVL159
 5843 0779 0200     		.2byte	0x2
 5844 077b 30       		.byte	0x30
 5845 077c 9F       		.byte	0x9f
 5846 077d 00000000 		.4byte	0
 5847 0781 00000000 		.4byte	0
 5848              	.LLST42:
 5849 0785 0A000000 		.4byte	.LVL84
 5850 0789 78010000 		.4byte	.LVL127
 5851 078d 0200     		.2byte	0x2
 5852 078f 30       		.byte	0x30
 5853 0790 9F       		.byte	0x9f
 5854 0791 A8010000 		.4byte	.LVL136
 5855 0795 AA010000 		.4byte	.LVL137
 5856 0799 0100     		.2byte	0x1
 5857 079b 52       		.byte	0x52
 5858 079c AA010000 		.4byte	.LVL137
 5859 07a0 CD010000 		.4byte	.LVL139-1
 5860 07a4 0B00     		.2byte	0xb
 5861 07a6 73       		.byte	0x73
 5862 07a7 00       		.sleb128 0
 5863 07a8 33       		.byte	0x33
 5864 07a9 24       		.byte	0x24
 5865 07aa 77       		.byte	0x77
ARM GAS  C:\Users\PANXIA~1\AppData\Local\Temp\cczfv69T.s 			page 138


 5866 07ab 04       		.sleb128 4
 5867 07ac 06       		.byte	0x6
 5868 07ad 22       		.byte	0x22
 5869 07ae 06       		.byte	0x6
 5870 07af 23       		.byte	0x23
 5871 07b0 20       		.uleb128 0x20
 5872 07b1 D4010000 		.4byte	.LVL140
 5873 07b5 D6010000 		.4byte	.LVL141
 5874 07b9 0B00     		.2byte	0xb
 5875 07bb 73       		.byte	0x73
 5876 07bc 00       		.sleb128 0
 5877 07bd 33       		.byte	0x33
 5878 07be 24       		.byte	0x24
 5879 07bf 77       		.byte	0x77
 5880 07c0 04       		.sleb128 4
 5881 07c1 06       		.byte	0x6
 5882 07c2 22       		.byte	0x22
 5883 07c3 06       		.byte	0x6
 5884 07c4 23       		.byte	0x23
 5885 07c5 20       		.uleb128 0x20
 5886 07c6 3A020000 		.4byte	.LVL153
 5887 07ca 42020000 		.4byte	.LVL154
 5888 07ce 0B00     		.2byte	0xb
 5889 07d0 73       		.byte	0x73
 5890 07d1 00       		.sleb128 0
 5891 07d2 33       		.byte	0x33
 5892 07d3 24       		.byte	0x24
 5893 07d4 77       		.byte	0x77
 5894 07d5 04       		.sleb128 4
 5895 07d6 06       		.byte	0x6
 5896 07d7 22       		.byte	0x22
 5897 07d8 06       		.byte	0x6
 5898 07d9 23       		.byte	0x23
 5899 07da 20       		.uleb128 0x20
 5900 07db 42020000 		.4byte	.LVL154
 5901 07df 46020000 		.4byte	.LVL155
 5902 07e3 0200     		.2byte	0x2
 5903 07e5 30       		.byte	0x30
 5904 07e6 9F       		.byte	0x9f
 5905 07e7 50020000 		.4byte	.LVL157
 5906 07eb 56020000 		.4byte	.LVL158
 5907 07ef 0200     		.2byte	0x2
 5908 07f1 30       		.byte	0x30
 5909 07f2 9F       		.byte	0x9f
 5910 07f3 00000000 		.4byte	0
 5911 07f7 00000000 		.4byte	0
 5912              	.LLST43:
 5913 07fb 0A000000 		.4byte	.LVL84
 5914 07ff 24000000 		.4byte	.LVL87
 5915 0803 0200     		.2byte	0x2
 5916 0805 30       		.byte	0x30
 5917 0806 9F       		.byte	0x9f
 5918 0807 36000000 		.4byte	.LVL88
 5919 080b 3C000000 		.4byte	.LVL89
 5920 080f 0100     		.2byte	0x1
 5921 0811 56       		.byte	0x56
 5922 0812 3C000000 		.4byte	.LVL89
ARM GAS  C:\Users\PANXIA~1\AppData\Local\Temp\cczfv69T.s 			page 139


 5923 0816 56000000 		.4byte	.LVL98
 5924 081a 0200     		.2byte	0x2
 5925 081c 70       		.byte	0x70
 5926 081d 14       		.sleb128 20
 5927 081e 52010000 		.4byte	.LVL120
 5928 0822 5A010000 		.4byte	.LVL122
 5929 0826 0200     		.2byte	0x2
 5930 0828 30       		.byte	0x30
 5931 0829 9F       		.byte	0x9f
 5932 082a 62010000 		.4byte	.LVL123
 5933 082e 78010000 		.4byte	.LVL127
 5934 0832 0200     		.2byte	0x2
 5935 0834 30       		.byte	0x30
 5936 0835 9F       		.byte	0x9f
 5937 0836 8C010000 		.4byte	.LVL128
 5938 083a 90010000 		.4byte	.LVL129
 5939 083e 0100     		.2byte	0x1
 5940 0840 51       		.byte	0x51
 5941 0841 90010000 		.4byte	.LVL129
 5942 0845 9C010000 		.4byte	.LVL132
 5943 0849 0B00     		.2byte	0xb
 5944 084b 73       		.byte	0x73
 5945 084c 00       		.sleb128 0
 5946 084d 33       		.byte	0x33
 5947 084e 24       		.byte	0x24
 5948 084f 77       		.byte	0x77
 5949 0850 04       		.sleb128 4
 5950 0851 06       		.byte	0x6
 5951 0852 22       		.byte	0x22
 5952 0853 06       		.byte	0x6
 5953 0854 23       		.byte	0x23
 5954 0855 14       		.uleb128 0x14
 5955 0856 9C010000 		.4byte	.LVL132
 5956 085a 9E010000 		.4byte	.LVL133
 5957 085e 0B00     		.2byte	0xb
 5958 0860 73       		.byte	0x73
 5959 0861 7F       		.sleb128 -1
 5960 0862 33       		.byte	0x33
 5961 0863 24       		.byte	0x24
 5962 0864 77       		.byte	0x77
 5963 0865 04       		.sleb128 4
 5964 0866 06       		.byte	0x6
 5965 0867 22       		.byte	0x22
 5966 0868 06       		.byte	0x6
 5967 0869 23       		.byte	0x23
 5968 086a 14       		.uleb128 0x14
 5969 086b 36020000 		.4byte	.LVL151
 5970 086f 3A020000 		.4byte	.LVL153
 5971 0873 0B00     		.2byte	0xb
 5972 0875 73       		.byte	0x73
 5973 0876 00       		.sleb128 0
 5974 0877 33       		.byte	0x33
 5975 0878 24       		.byte	0x24
 5976 0879 77       		.byte	0x77
 5977 087a 04       		.sleb128 4
 5978 087b 06       		.byte	0x6
 5979 087c 22       		.byte	0x22
ARM GAS  C:\Users\PANXIA~1\AppData\Local\Temp\cczfv69T.s 			page 140


 5980 087d 06       		.byte	0x6
 5981 087e 23       		.byte	0x23
 5982 087f 14       		.uleb128 0x14
 5983 0880 42020000 		.4byte	.LVL154
 5984 0884 46020000 		.4byte	.LVL155
 5985 0888 0200     		.2byte	0x2
 5986 088a 30       		.byte	0x30
 5987 088b 9F       		.byte	0x9f
 5988 088c 50020000 		.4byte	.LVL157
 5989 0890 56020000 		.4byte	.LVL158
 5990 0894 0200     		.2byte	0x2
 5991 0896 30       		.byte	0x30
 5992 0897 9F       		.byte	0x9f
 5993 0898 00000000 		.4byte	0
 5994 089c 00000000 		.4byte	0
 5995              	.LLST44:
 5996 08a0 AC000000 		.4byte	.LVL107
 5997 08a4 E0000000 		.4byte	.LVL109
 5998 08a8 0100     		.2byte	0x1
 5999 08aa 55       		.byte	0x55
 6000 08ab E0000000 		.4byte	.LVL109
 6001 08af E2000000 		.4byte	.LVL110
 6002 08b3 0300     		.2byte	0x3
 6003 08b5 75       		.byte	0x75
 6004 08b6 01       		.sleb128 1
 6005 08b7 9F       		.byte	0x9f
 6006 08b8 00000000 		.4byte	0
 6007 08bc 00000000 		.4byte	0
 6008              	.LLST45:
 6009 08c0 0A000000 		.4byte	.LVL84
 6010 08c4 72000000 		.4byte	.LVL105
 6011 08c8 0200     		.2byte	0x2
 6012 08ca 30       		.byte	0x30
 6013 08cb 9F       		.byte	0x9f
 6014 08cc 72000000 		.4byte	.LVL105
 6015 08d0 08010000 		.4byte	.LVL112
 6016 08d4 0100     		.2byte	0x1
 6017 08d6 5B       		.byte	0x5b
 6018 08d7 0C010000 		.4byte	.LVL113
 6019 08db 52010000 		.4byte	.LVL120
 6020 08df 0100     		.2byte	0x1
 6021 08e1 5B       		.byte	0x5b
 6022 08e2 52010000 		.4byte	.LVL120
 6023 08e6 5A020000 		.4byte	.LVL159
 6024 08ea 0200     		.2byte	0x2
 6025 08ec 30       		.byte	0x30
 6026 08ed 9F       		.byte	0x9f
 6027 08ee 00000000 		.4byte	0
 6028 08f2 00000000 		.4byte	0
 6029              	.LLST46:
 6030 08f6 0A000000 		.4byte	.LVL84
 6031 08fa 24000000 		.4byte	.LVL87
 6032 08fe 0200     		.2byte	0x2
 6033 0900 32       		.byte	0x32
 6034 0901 9F       		.byte	0x9f
 6035 0902 24000000 		.4byte	.LVL87
 6036 0906 42000000 		.4byte	.LVL90
ARM GAS  C:\Users\PANXIA~1\AppData\Local\Temp\cczfv69T.s 			page 141


 6037 090a 0100     		.2byte	0x1
 6038 090c 52       		.byte	0x52
 6039 090d 42000000 		.4byte	.LVL90
 6040 0911 4C000000 		.4byte	.LVL93
 6041 0915 0200     		.2byte	0x2
 6042 0917 34       		.byte	0x34
 6043 0918 9F       		.byte	0x9f
 6044 0919 4C000000 		.4byte	.LVL93
 6045 091d 54000000 		.4byte	.LVL97
 6046 0921 0100     		.2byte	0x1
 6047 0923 52       		.byte	0x52
 6048 0924 54000000 		.4byte	.LVL97
 6049 0928 56000000 		.4byte	.LVL98
 6050 092c 0200     		.2byte	0x2
 6051 092e 32       		.byte	0x32
 6052 092f 9F       		.byte	0x9f
 6053 0930 56000000 		.4byte	.LVL98
 6054 0934 5A000000 		.4byte	.LVL100
 6055 0938 0100     		.2byte	0x1
 6056 093a 52       		.byte	0x52
 6057 093b 52010000 		.4byte	.LVL120
 6058 093f 5A010000 		.4byte	.LVL122
 6059 0943 0200     		.2byte	0x2
 6060 0945 32       		.byte	0x32
 6061 0946 9F       		.byte	0x9f
 6062 0947 5A010000 		.4byte	.LVL122
 6063 094b 62010000 		.4byte	.LVL123
 6064 094f 0100     		.2byte	0x1
 6065 0951 52       		.byte	0x52
 6066 0952 62010000 		.4byte	.LVL123
 6067 0956 68010000 		.4byte	.LVL124
 6068 095a 0200     		.2byte	0x2
 6069 095c 32       		.byte	0x32
 6070 095d 9F       		.byte	0x9f
 6071 095e 68010000 		.4byte	.LVL124
 6072 0962 78010000 		.4byte	.LVL127
 6073 0966 0200     		.2byte	0x2
 6074 0968 31       		.byte	0x31
 6075 0969 9F       		.byte	0x9f
 6076 096a 78010000 		.4byte	.LVL127
 6077 096e 9E010000 		.4byte	.LVL133
 6078 0972 0100     		.2byte	0x1
 6079 0974 52       		.byte	0x52
 6080 0975 9E010000 		.4byte	.LVL133
 6081 0979 A0010000 		.4byte	.LVL134
 6082 097d 0200     		.2byte	0x2
 6083 097f 31       		.byte	0x31
 6084 0980 9F       		.byte	0x9f
 6085 0981 A0010000 		.4byte	.LVL134
 6086 0985 A2010000 		.4byte	.LVL135
 6087 0989 0100     		.2byte	0x1
 6088 098b 52       		.byte	0x52
 6089 098c 16020000 		.4byte	.LVL146
 6090 0990 1C020000 		.4byte	.LVL148
 6091 0994 0100     		.2byte	0x1
 6092 0996 52       		.byte	0x52
 6093 0997 36020000 		.4byte	.LVL151
ARM GAS  C:\Users\PANXIA~1\AppData\Local\Temp\cczfv69T.s 			page 142


 6094 099b 38020000 		.4byte	.LVL152
 6095 099f 0100     		.2byte	0x1
 6096 09a1 52       		.byte	0x52
 6097 09a2 42020000 		.4byte	.LVL154
 6098 09a6 46020000 		.4byte	.LVL155
 6099 09aa 0200     		.2byte	0x2
 6100 09ac 31       		.byte	0x31
 6101 09ad 9F       		.byte	0x9f
 6102 09ae 46020000 		.4byte	.LVL155
 6103 09b2 50020000 		.4byte	.LVL157
 6104 09b6 0100     		.2byte	0x1
 6105 09b8 52       		.byte	0x52
 6106 09b9 50020000 		.4byte	.LVL157
 6107 09bd 56020000 		.4byte	.LVL158
 6108 09c1 0200     		.2byte	0x2
 6109 09c3 32       		.byte	0x32
 6110 09c4 9F       		.byte	0x9f
 6111 09c5 00000000 		.4byte	0
 6112 09c9 00000000 		.4byte	0
 6113              	.LLST47:
 6114 09cd 04010000 		.4byte	.LVL111
 6115 09d1 0C010000 		.4byte	.LVL113
 6116 09d5 0100     		.2byte	0x1
 6117 09d7 50       		.byte	0x50
 6118 09d8 00000000 		.4byte	0
 6119 09dc 00000000 		.4byte	0
 6120              	.LLST48:
 6121 09e0 18000000 		.4byte	.LVL85
 6122 09e4 52000000 		.4byte	.LVL96
 6123 09e8 0100     		.2byte	0x1
 6124 09ea 53       		.byte	0x53
 6125 09eb 54000000 		.4byte	.LVL97
 6126 09ef 66000000 		.4byte	.LVL103
 6127 09f3 0100     		.2byte	0x1
 6128 09f5 53       		.byte	0x53
 6129 09f6 66000000 		.4byte	.LVL103
 6130 09fa 72000000 		.4byte	.LVL105
 6131 09fe 0200     		.2byte	0x2
 6132 0a00 75       		.byte	0x75
 6133 0a01 06       		.sleb128 6
 6134 0a02 52010000 		.4byte	.LVL120
 6135 0a06 62010000 		.4byte	.LVL123
 6136 0a0a 0100     		.2byte	0x1
 6137 0a0c 53       		.byte	0x53
 6138 0a0d 6C010000 		.4byte	.LVL125
 6139 0a11 9C010000 		.4byte	.LVL132
 6140 0a15 0100     		.2byte	0x1
 6141 0a17 53       		.byte	0x53
 6142 0a18 9E010000 		.4byte	.LVL133
 6143 0a1c CD010000 		.4byte	.LVL139-1
 6144 0a20 0100     		.2byte	0x1
 6145 0a22 53       		.byte	0x53
 6146 0a23 D4010000 		.4byte	.LVL140
 6147 0a27 D6010000 		.4byte	.LVL141
 6148 0a2b 0100     		.2byte	0x1
 6149 0a2d 53       		.byte	0x53
 6150 0a2e 16020000 		.4byte	.LVL146
ARM GAS  C:\Users\PANXIA~1\AppData\Local\Temp\cczfv69T.s 			page 143


 6151 0a32 1F020000 		.4byte	.LVL149-1
 6152 0a36 0100     		.2byte	0x1
 6153 0a38 53       		.byte	0x53
 6154 0a39 36020000 		.4byte	.LVL151
 6155 0a3d 4C020000 		.4byte	.LVL156
 6156 0a41 0100     		.2byte	0x1
 6157 0a43 53       		.byte	0x53
 6158 0a44 00000000 		.4byte	0
 6159 0a48 00000000 		.4byte	0
 6160              	.LLST49:
 6161 0a4c 1C000000 		.4byte	.LVL86
 6162 0a50 58000000 		.4byte	.LVL99
 6163 0a54 0100     		.2byte	0x1
 6164 0a56 54       		.byte	0x54
 6165 0a57 58000000 		.4byte	.LVL99
 6166 0a5b 5C000000 		.4byte	.LVL101
 6167 0a5f 0500     		.2byte	0x5
 6168 0a61 77       		.byte	0x77
 6169 0a62 18       		.sleb128 24
 6170 0a63 06       		.byte	0x6
 6171 0a64 23       		.byte	0x23
 6172 0a65 06       		.uleb128 0x6
 6173 0a66 52010000 		.4byte	.LVL120
 6174 0a6a 62010000 		.4byte	.LVL123
 6175 0a6e 0100     		.2byte	0x1
 6176 0a70 54       		.byte	0x54
 6177 0a71 70010000 		.4byte	.LVL126
 6178 0a75 C8010000 		.4byte	.LVL138
 6179 0a79 0100     		.2byte	0x1
 6180 0a7b 50       		.byte	0x50
 6181 0a7c C8010000 		.4byte	.LVL138
 6182 0a80 CD010000 		.4byte	.LVL139-1
 6183 0a84 0500     		.2byte	0x5
 6184 0a86 77       		.byte	0x77
 6185 0a87 18       		.sleb128 24
 6186 0a88 06       		.byte	0x6
 6187 0a89 23       		.byte	0x23
 6188 0a8a 08       		.uleb128 0x8
 6189 0a8b D4010000 		.4byte	.LVL140
 6190 0a8f EA010000 		.4byte	.LVL142
 6191 0a93 0100     		.2byte	0x1
 6192 0a95 50       		.byte	0x50
 6193 0a96 EA010000 		.4byte	.LVL142
 6194 0a9a ED010000 		.4byte	.LVL143-1
 6195 0a9e 0500     		.2byte	0x5
 6196 0aa0 77       		.byte	0x77
 6197 0aa1 18       		.sleb128 24
 6198 0aa2 06       		.byte	0x6
 6199 0aa3 23       		.byte	0x23
 6200 0aa4 08       		.uleb128 0x8
 6201 0aa5 16020000 		.4byte	.LVL146
 6202 0aa9 18020000 		.4byte	.LVL147
 6203 0aad 0100     		.2byte	0x1
 6204 0aaf 50       		.byte	0x50
 6205 0ab0 18020000 		.4byte	.LVL147
 6206 0ab4 1F020000 		.4byte	.LVL149-1
 6207 0ab8 0500     		.2byte	0x5
ARM GAS  C:\Users\PANXIA~1\AppData\Local\Temp\cczfv69T.s 			page 144


 6208 0aba 77       		.byte	0x77
 6209 0abb 18       		.sleb128 24
 6210 0abc 06       		.byte	0x6
 6211 0abd 23       		.byte	0x23
 6212 0abe 08       		.uleb128 0x8
 6213 0abf 36020000 		.4byte	.LVL151
 6214 0ac3 50020000 		.4byte	.LVL157
 6215 0ac7 0100     		.2byte	0x1
 6216 0ac9 50       		.byte	0x50
 6217 0aca 56020000 		.4byte	.LVL158
 6218 0ace 5A020000 		.4byte	.LVL159
 6219 0ad2 0100     		.2byte	0x1
 6220 0ad4 50       		.byte	0x50
 6221 0ad5 00000000 		.4byte	0
 6222 0ad9 00000000 		.4byte	0
 6223              	.LLST50:
 6224 0add 0A000000 		.4byte	.LVL84
 6225 0ae1 24000000 		.4byte	.LVL87
 6226 0ae5 0200     		.2byte	0x2
 6227 0ae7 30       		.byte	0x30
 6228 0ae8 9F       		.byte	0x9f
 6229 0ae9 24000000 		.4byte	.LVL87
 6230 0aed 48000000 		.4byte	.LVL91
 6231 0af1 0200     		.2byte	0x2
 6232 0af3 91       		.byte	0x91
 6233 0af4 40       		.sleb128 -64
 6234 0af5 48000000 		.4byte	.LVL91
 6235 0af9 4A000000 		.4byte	.LVL92
 6236 0afd 0100     		.2byte	0x1
 6237 0aff 52       		.byte	0x52
 6238 0b00 4A000000 		.4byte	.LVL92
 6239 0b04 52010000 		.4byte	.LVL120
 6240 0b08 0200     		.2byte	0x2
 6241 0b0a 91       		.byte	0x91
 6242 0b0b 40       		.sleb128 -64
 6243 0b0c 52010000 		.4byte	.LVL120
 6244 0b10 5A010000 		.4byte	.LVL122
 6245 0b14 0200     		.2byte	0x2
 6246 0b16 30       		.byte	0x30
 6247 0b17 9F       		.byte	0x9f
 6248 0b18 5A010000 		.4byte	.LVL122
 6249 0b1c 62010000 		.4byte	.LVL123
 6250 0b20 0200     		.2byte	0x2
 6251 0b22 91       		.byte	0x91
 6252 0b23 40       		.sleb128 -64
 6253 0b24 62010000 		.4byte	.LVL123
 6254 0b28 5A020000 		.4byte	.LVL159
 6255 0b2c 0200     		.2byte	0x2
 6256 0b2e 30       		.byte	0x30
 6257 0b2f 9F       		.byte	0x9f
 6258 0b30 00000000 		.4byte	0
 6259 0b34 00000000 		.4byte	0
 6260              	.LLST51:
 6261 0b38 00000000 		.4byte	.LVL160
 6262 0b3c 34000000 		.4byte	.LVL165
 6263 0b40 0100     		.2byte	0x1
 6264 0b42 50       		.byte	0x50
ARM GAS  C:\Users\PANXIA~1\AppData\Local\Temp\cczfv69T.s 			page 145


 6265 0b43 34000000 		.4byte	.LVL165
 6266 0b47 56000000 		.4byte	.LVL168
 6267 0b4b 0100     		.2byte	0x1
 6268 0b4d 54       		.byte	0x54
 6269 0b4e 56000000 		.4byte	.LVL168
 6270 0b52 5A000000 		.4byte	.LFE11
 6271 0b56 0400     		.2byte	0x4
 6272 0b58 F3       		.byte	0xf3
 6273 0b59 01       		.uleb128 0x1
 6274 0b5a 50       		.byte	0x50
 6275 0b5b 9F       		.byte	0x9f
 6276 0b5c 00000000 		.4byte	0
 6277 0b60 00000000 		.4byte	0
 6278              	.LLST52:
 6279 0b64 00000000 		.4byte	.LVL160
 6280 0b68 37000000 		.4byte	.LVL166-1
 6281 0b6c 0100     		.2byte	0x1
 6282 0b6e 51       		.byte	0x51
 6283 0b6f 37000000 		.4byte	.LVL166-1
 6284 0b73 5A000000 		.4byte	.LFE11
 6285 0b77 0400     		.2byte	0x4
 6286 0b79 F3       		.byte	0xf3
 6287 0b7a 01       		.uleb128 0x1
 6288 0b7b 51       		.byte	0x51
 6289 0b7c 9F       		.byte	0x9f
 6290 0b7d 00000000 		.4byte	0
 6291 0b81 00000000 		.4byte	0
 6292              	.LLST53:
 6293 0b85 00000000 		.4byte	.LVL160
 6294 0b89 1A000000 		.4byte	.LVL161
 6295 0b8d 0100     		.2byte	0x1
 6296 0b8f 52       		.byte	0x52
 6297 0b90 1A000000 		.4byte	.LVL161
 6298 0b94 5A000000 		.4byte	.LFE11
 6299 0b98 0400     		.2byte	0x4
 6300 0b9a F3       		.byte	0xf3
 6301 0b9b 01       		.uleb128 0x1
 6302 0b9c 52       		.byte	0x52
 6303 0b9d 9F       		.byte	0x9f
 6304 0b9e 00000000 		.4byte	0
 6305 0ba2 00000000 		.4byte	0
 6306              	.LLST54:
 6307 0ba6 20000000 		.4byte	.LVL162
 6308 0baa 22000000 		.4byte	.LVL163
 6309 0bae 0100     		.2byte	0x1
 6310 0bb0 55       		.byte	0x55
 6311 0bb1 22000000 		.4byte	.LVL163
 6312 0bb5 37000000 		.4byte	.LVL166-1
 6313 0bb9 0E00     		.2byte	0xe
 6314 0bbb 72       		.byte	0x72
 6315 0bbc 08       		.sleb128 8
 6316 0bbd 94       		.byte	0x94
 6317 0bbe 02       		.byte	0x2
 6318 0bbf 0A       		.byte	0xa
 6319 0bc0 FFFF     		.2byte	0xffff
 6320 0bc2 1A       		.byte	0x1a
 6321 0bc3 33       		.byte	0x33
ARM GAS  C:\Users\PANXIA~1\AppData\Local\Temp\cczfv69T.s 			page 146


 6322 0bc4 24       		.byte	0x24
 6323 0bc5 73       		.byte	0x73
 6324 0bc6 00       		.sleb128 0
 6325 0bc7 22       		.byte	0x22
 6326 0bc8 9F       		.byte	0x9f
 6327 0bc9 00000000 		.4byte	0
 6328 0bcd 00000000 		.4byte	0
 6329              	.LLST55:
 6330 0bd1 22000000 		.4byte	.LVL163
 6331 0bd5 28000000 		.4byte	.LVL164
 6332 0bd9 0500     		.2byte	0x5
 6333 0bdb 75       		.byte	0x75
 6334 0bdc 00       		.sleb128 0
 6335 0bdd 33       		.byte	0x33
 6336 0bde 26       		.byte	0x26
 6337 0bdf 9F       		.byte	0x9f
 6338 0be0 28000000 		.4byte	.LVL164
 6339 0be4 37000000 		.4byte	.LVL166-1
 6340 0be8 1300     		.2byte	0x13
 6341 0bea 71       		.byte	0x71
 6342 0beb 00       		.sleb128 0
 6343 0bec 73       		.byte	0x73
 6344 0bed 00       		.sleb128 0
 6345 0bee 1C       		.byte	0x1c
 6346 0bef 72       		.byte	0x72
 6347 0bf0 08       		.sleb128 8
 6348 0bf1 94       		.byte	0x94
 6349 0bf2 02       		.byte	0x2
 6350 0bf3 0A       		.byte	0xa
 6351 0bf4 FFFF     		.2byte	0xffff
 6352 0bf6 1A       		.byte	0x1a
 6353 0bf7 33       		.byte	0x33
 6354 0bf8 24       		.byte	0x24
 6355 0bf9 1C       		.byte	0x1c
 6356 0bfa 33       		.byte	0x33
 6357 0bfb 26       		.byte	0x26
 6358 0bfc 9F       		.byte	0x9f
 6359 0bfd 00000000 		.4byte	0
 6360 0c01 00000000 		.4byte	0
 6361              	.LLST56:
 6362 0c05 00000000 		.4byte	.LVL169
 6363 0c09 21000000 		.4byte	.LVL171-1
 6364 0c0d 0100     		.2byte	0x1
 6365 0c0f 50       		.byte	0x50
 6366 0c10 21000000 		.4byte	.LVL171-1
 6367 0c14 24000000 		.4byte	.LFE8
 6368 0c18 0400     		.2byte	0x4
 6369 0c1a F3       		.byte	0xf3
 6370 0c1b 01       		.uleb128 0x1
 6371 0c1c 50       		.byte	0x50
 6372 0c1d 9F       		.byte	0x9f
 6373 0c1e 00000000 		.4byte	0
 6374 0c22 00000000 		.4byte	0
 6375              	.LLST57:
 6376 0c26 00000000 		.4byte	.LVL169
 6377 0c2a 1E000000 		.4byte	.LVL170
 6378 0c2e 0100     		.2byte	0x1
ARM GAS  C:\Users\PANXIA~1\AppData\Local\Temp\cczfv69T.s 			page 147


 6379 0c30 51       		.byte	0x51
 6380 0c31 1E000000 		.4byte	.LVL170
 6381 0c35 24000000 		.4byte	.LFE8
 6382 0c39 0400     		.2byte	0x4
 6383 0c3b F3       		.byte	0xf3
 6384 0c3c 01       		.uleb128 0x1
 6385 0c3d 51       		.byte	0x51
 6386 0c3e 9F       		.byte	0x9f
 6387 0c3f 00000000 		.4byte	0
 6388 0c43 00000000 		.4byte	0
 6389              	.LLST58:
 6390 0c47 00000000 		.4byte	.LVL173
 6391 0c4b 30000000 		.4byte	.LVL180
 6392 0c4f 0100     		.2byte	0x1
 6393 0c51 50       		.byte	0x50
 6394 0c52 30000000 		.4byte	.LVL180
 6395 0c56 48010000 		.4byte	.LVL202
 6396 0c5a 0100     		.2byte	0x1
 6397 0c5c 54       		.byte	0x54
 6398 0c5d 48010000 		.4byte	.LVL202
 6399 0c61 4A010000 		.4byte	.LVL203
 6400 0c65 0100     		.2byte	0x1
 6401 0c67 50       		.byte	0x50
 6402 0c68 4A010000 		.4byte	.LVL203
 6403 0c6c 4C010000 		.4byte	.LVL204
 6404 0c70 0400     		.2byte	0x4
 6405 0c72 F3       		.byte	0xf3
 6406 0c73 01       		.uleb128 0x1
 6407 0c74 50       		.byte	0x50
 6408 0c75 9F       		.byte	0x9f
 6409 0c76 4C010000 		.4byte	.LVL204
 6410 0c7a 4E010000 		.4byte	.LVL205
 6411 0c7e 0100     		.2byte	0x1
 6412 0c80 50       		.byte	0x50
 6413 0c81 4E010000 		.4byte	.LVL205
 6414 0c85 54010000 		.4byte	.LFE10
 6415 0c89 0400     		.2byte	0x4
 6416 0c8b F3       		.byte	0xf3
 6417 0c8c 01       		.uleb128 0x1
 6418 0c8d 50       		.byte	0x50
 6419 0c8e 9F       		.byte	0x9f
 6420 0c8f 00000000 		.4byte	0
 6421 0c93 00000000 		.4byte	0
 6422              	.LLST59:
 6423 0c97 00000000 		.4byte	.LVL173
 6424 0c9b 24000000 		.4byte	.LVL178
 6425 0c9f 0100     		.2byte	0x1
 6426 0ca1 51       		.byte	0x51
 6427 0ca2 24000000 		.4byte	.LVL178
 6428 0ca6 48010000 		.4byte	.LVL202
 6429 0caa 0400     		.2byte	0x4
 6430 0cac F3       		.byte	0xf3
 6431 0cad 01       		.uleb128 0x1
 6432 0cae 51       		.byte	0x51
 6433 0caf 9F       		.byte	0x9f
 6434 0cb0 48010000 		.4byte	.LVL202
 6435 0cb4 4E010000 		.4byte	.LVL205
ARM GAS  C:\Users\PANXIA~1\AppData\Local\Temp\cczfv69T.s 			page 148


 6436 0cb8 0100     		.2byte	0x1
 6437 0cba 51       		.byte	0x51
 6438 0cbb 4E010000 		.4byte	.LVL205
 6439 0cbf 54010000 		.4byte	.LFE10
 6440 0cc3 0400     		.2byte	0x4
 6441 0cc5 F3       		.byte	0xf3
 6442 0cc6 01       		.uleb128 0x1
 6443 0cc7 51       		.byte	0x51
 6444 0cc8 9F       		.byte	0x9f
 6445 0cc9 00000000 		.4byte	0
 6446 0ccd 00000000 		.4byte	0
 6447              	.LLST60:
 6448 0cd1 06000000 		.4byte	.LVL174
 6449 0cd5 30000000 		.4byte	.LVL180
 6450 0cd9 0200     		.2byte	0x2
 6451 0cdb 30       		.byte	0x30
 6452 0cdc 9F       		.byte	0x9f
 6453 0cdd 30000000 		.4byte	.LVL180
 6454 0ce1 48010000 		.4byte	.LVL202
 6455 0ce5 0100     		.2byte	0x1
 6456 0ce7 57       		.byte	0x57
 6457 0ce8 48010000 		.4byte	.LVL202
 6458 0cec 4E010000 		.4byte	.LVL205
 6459 0cf0 0200     		.2byte	0x2
 6460 0cf2 30       		.byte	0x30
 6461 0cf3 9F       		.byte	0x9f
 6462 0cf4 00000000 		.4byte	0
 6463 0cf8 00000000 		.4byte	0
 6464              	.LLST61:
 6465 0cfc 06000000 		.4byte	.LVL174
 6466 0d00 30000000 		.4byte	.LVL180
 6467 0d04 0200     		.2byte	0x2
 6468 0d06 30       		.byte	0x30
 6469 0d07 9F       		.byte	0x9f
 6470 0d08 4C000000 		.4byte	.LVL182
 6471 0d0c 74000000 		.4byte	.LVL183
 6472 0d10 0100     		.2byte	0x1
 6473 0d12 53       		.byte	0x53
 6474 0d13 8E000000 		.4byte	.LVL185
 6475 0d17 9C000000 		.4byte	.LVL186
 6476 0d1b 0100     		.2byte	0x1
 6477 0d1d 53       		.byte	0x53
 6478 0d1e D8000000 		.4byte	.LVL188
 6479 0d22 EA000000 		.4byte	.LVL189
 6480 0d26 0100     		.2byte	0x1
 6481 0d28 53       		.byte	0x53
 6482 0d29 34010000 		.4byte	.LVL199
 6483 0d2d 36010000 		.4byte	.LVL200
 6484 0d31 0100     		.2byte	0x1
 6485 0d33 53       		.byte	0x53
 6486 0d34 48010000 		.4byte	.LVL202
 6487 0d38 4E010000 		.4byte	.LVL205
 6488 0d3c 0200     		.2byte	0x2
 6489 0d3e 30       		.byte	0x30
 6490 0d3f 9F       		.byte	0x9f
 6491 0d40 00000000 		.4byte	0
 6492 0d44 00000000 		.4byte	0
ARM GAS  C:\Users\PANXIA~1\AppData\Local\Temp\cczfv69T.s 			page 149


 6493              	.LLST62:
 6494 0d48 06000000 		.4byte	.LVL174
 6495 0d4c 30000000 		.4byte	.LVL180
 6496 0d50 0200     		.2byte	0x2
 6497 0d52 33       		.byte	0x33
 6498 0d53 9F       		.byte	0x9f
 6499 0d54 30000000 		.4byte	.LVL180
 6500 0d58 3E000000 		.4byte	.LVL181
 6501 0d5c 0100     		.2byte	0x1
 6502 0d5e 53       		.byte	0x53
 6503 0d5f 0A010000 		.4byte	.LVL190
 6504 0d63 0E010000 		.4byte	.LVL191
 6505 0d67 0200     		.2byte	0x2
 6506 0d69 3B       		.byte	0x3b
 6507 0d6a 9F       		.byte	0x9f
 6508 0d6b 0E010000 		.4byte	.LVL191
 6509 0d6f 17010000 		.4byte	.LVL192-1
 6510 0d73 0100     		.2byte	0x1
 6511 0d75 53       		.byte	0x53
 6512 0d76 18010000 		.4byte	.LVL192
 6513 0d7a 1C010000 		.4byte	.LVL193
 6514 0d7e 0200     		.2byte	0x2
 6515 0d80 3B       		.byte	0x3b
 6516 0d81 9F       		.byte	0x9f
 6517 0d82 1C010000 		.4byte	.LVL193
 6518 0d86 24010000 		.4byte	.LVL196
 6519 0d8a 0100     		.2byte	0x1
 6520 0d8c 53       		.byte	0x53
 6521 0d8d 24010000 		.4byte	.LVL196
 6522 0d91 28010000 		.4byte	.LVL197
 6523 0d95 0200     		.2byte	0x2
 6524 0d97 33       		.byte	0x33
 6525 0d98 9F       		.byte	0x9f
 6526 0d99 28010000 		.4byte	.LVL197
 6527 0d9d 2C010000 		.4byte	.LVL198
 6528 0da1 0100     		.2byte	0x1
 6529 0da3 53       		.byte	0x53
 6530 0da4 3E010000 		.4byte	.LVL201
 6531 0da8 48010000 		.4byte	.LVL202
 6532 0dac 0100     		.2byte	0x1
 6533 0dae 53       		.byte	0x53
 6534 0daf 48010000 		.4byte	.LVL202
 6535 0db3 4E010000 		.4byte	.LVL205
 6536 0db7 0200     		.2byte	0x2
 6537 0db9 33       		.byte	0x33
 6538 0dba 9F       		.byte	0x9f
 6539 0dbb 00000000 		.4byte	0
 6540 0dbf 00000000 		.4byte	0
 6541              	.LLST63:
 6542 0dc3 0A000000 		.4byte	.LVL175
 6543 0dc7 22010000 		.4byte	.LVL195
 6544 0dcb 0100     		.2byte	0x1
 6545 0dcd 55       		.byte	0x55
 6546 0dce 24010000 		.4byte	.LVL196
 6547 0dd2 54010000 		.4byte	.LFE10
 6548 0dd6 0100     		.2byte	0x1
 6549 0dd8 55       		.byte	0x55
ARM GAS  C:\Users\PANXIA~1\AppData\Local\Temp\cczfv69T.s 			page 150


 6550 0dd9 00000000 		.4byte	0
 6551 0ddd 00000000 		.4byte	0
 6552              	.LLST64:
 6553 0de1 0A000000 		.4byte	.LVL175
 6554 0de5 0C000000 		.4byte	.LVL176
 6555 0de9 0200     		.2byte	0x2
 6556 0deb 73       		.byte	0x73
 6557 0dec 0A       		.sleb128 10
 6558 0ded 0C000000 		.4byte	.LVL176
 6559 0df1 26000000 		.4byte	.LVL179
 6560 0df5 0500     		.2byte	0x5
 6561 0df7 70       		.byte	0x70
 6562 0df8 14       		.sleb128 20
 6563 0df9 06       		.byte	0x6
 6564 0dfa 23       		.byte	0x23
 6565 0dfb 0A       		.uleb128 0xa
 6566 0dfc 48010000 		.4byte	.LVL202
 6567 0e00 4A010000 		.4byte	.LVL203
 6568 0e04 0500     		.2byte	0x5
 6569 0e06 70       		.byte	0x70
 6570 0e07 14       		.sleb128 20
 6571 0e08 06       		.byte	0x6
 6572 0e09 23       		.byte	0x23
 6573 0e0a 0A       		.uleb128 0xa
 6574 0e0b 4A010000 		.4byte	.LVL203
 6575 0e0f 4C010000 		.4byte	.LVL204
 6576 0e13 0800     		.2byte	0x8
 6577 0e15 F3       		.byte	0xf3
 6578 0e16 01       		.uleb128 0x1
 6579 0e17 50       		.byte	0x50
 6580 0e18 23       		.byte	0x23
 6581 0e19 14       		.uleb128 0x14
 6582 0e1a 06       		.byte	0x6
 6583 0e1b 23       		.byte	0x23
 6584 0e1c 0A       		.uleb128 0xa
 6585 0e1d 4C010000 		.4byte	.LVL204
 6586 0e21 4E010000 		.4byte	.LVL205
 6587 0e25 0500     		.2byte	0x5
 6588 0e27 70       		.byte	0x70
 6589 0e28 14       		.sleb128 20
 6590 0e29 06       		.byte	0x6
 6591 0e2a 23       		.byte	0x23
 6592 0e2b 0A       		.uleb128 0xa
 6593 0e2c 00000000 		.4byte	0
 6594 0e30 00000000 		.4byte	0
 6595              	.LLST65:
 6596 0e34 00000000 		.4byte	.LVL206
 6597 0e38 07000000 		.4byte	.LVL207-1
 6598 0e3c 0100     		.2byte	0x1
 6599 0e3e 50       		.byte	0x50
 6600 0e3f 07000000 		.4byte	.LVL207-1
 6601 0e43 0A000000 		.4byte	.LFE5
 6602 0e47 0400     		.2byte	0x4
 6603 0e49 F3       		.byte	0xf3
 6604 0e4a 01       		.uleb128 0x1
 6605 0e4b 50       		.byte	0x50
 6606 0e4c 9F       		.byte	0x9f
ARM GAS  C:\Users\PANXIA~1\AppData\Local\Temp\cczfv69T.s 			page 151


 6607 0e4d 00000000 		.4byte	0
 6608 0e51 00000000 		.4byte	0
 6609              	.LLST66:
 6610 0e55 00000000 		.4byte	.LVL208
 6611 0e59 12000000 		.4byte	.LVL212
 6612 0e5d 0100     		.2byte	0x1
 6613 0e5f 50       		.byte	0x50
 6614 0e60 12000000 		.4byte	.LVL212
 6615 0e64 38000000 		.4byte	.LVL218
 6616 0e68 0100     		.2byte	0x1
 6617 0e6a 56       		.byte	0x56
 6618 0e6b 38000000 		.4byte	.LVL218
 6619 0e6f 3C000000 		.4byte	.LVL219
 6620 0e73 0100     		.2byte	0x1
 6621 0e75 50       		.byte	0x50
 6622 0e76 3C000000 		.4byte	.LVL219
 6623 0e7a 4C000000 		.4byte	.LVL222
 6624 0e7e 0100     		.2byte	0x1
 6625 0e80 56       		.byte	0x56
 6626 0e81 4C000000 		.4byte	.LVL222
 6627 0e85 50000000 		.4byte	.LFE12
 6628 0e89 0400     		.2byte	0x4
 6629 0e8b F3       		.byte	0xf3
 6630 0e8c 01       		.uleb128 0x1
 6631 0e8d 50       		.byte	0x50
 6632 0e8e 9F       		.byte	0x9f
 6633 0e8f 00000000 		.4byte	0
 6634 0e93 00000000 		.4byte	0
 6635              	.LLST67:
 6636 0e97 06000000 		.4byte	.LVL209
 6637 0e9b 12000000 		.4byte	.LVL212
 6638 0e9f 0400     		.2byte	0x4
 6639 0ea1 0A       		.byte	0xa
 6640 0ea2 0018     		.2byte	0x1800
 6641 0ea4 9F       		.byte	0x9f
 6642 0ea5 12000000 		.4byte	.LVL212
 6643 0ea9 30000000 		.4byte	.LVL214
 6644 0ead 0100     		.2byte	0x1
 6645 0eaf 55       		.byte	0x55
 6646 0eb0 32000000 		.4byte	.LVL215
 6647 0eb4 38000000 		.4byte	.LVL218
 6648 0eb8 0100     		.2byte	0x1
 6649 0eba 55       		.byte	0x55
 6650 0ebb 38000000 		.4byte	.LVL218
 6651 0ebf 3C000000 		.4byte	.LVL219
 6652 0ec3 0400     		.2byte	0x4
 6653 0ec5 0A       		.byte	0xa
 6654 0ec6 0018     		.2byte	0x1800
 6655 0ec8 9F       		.byte	0x9f
 6656 0ec9 3C000000 		.4byte	.LVL219
 6657 0ecd 40000000 		.4byte	.LVL220
 6658 0ed1 0100     		.2byte	0x1
 6659 0ed3 55       		.byte	0x55
 6660 0ed4 00000000 		.4byte	0
 6661 0ed8 00000000 		.4byte	0
 6662              	.LLST68:
 6663 0edc 0A000000 		.4byte	.LVL210
ARM GAS  C:\Users\PANXIA~1\AppData\Local\Temp\cczfv69T.s 			page 152


 6664 0ee0 34000000 		.4byte	.LVL216
 6665 0ee4 0100     		.2byte	0x1
 6666 0ee6 54       		.byte	0x54
 6667 0ee7 36000000 		.4byte	.LVL217
 6668 0eeb 4C000000 		.4byte	.LVL222
 6669 0eef 0100     		.2byte	0x1
 6670 0ef1 54       		.byte	0x54
 6671 0ef2 00000000 		.4byte	0
 6672 0ef6 00000000 		.4byte	0
 6673              	.LLST69:
 6674 0efa 0E000000 		.4byte	.LVL211
 6675 0efe 4C000000 		.4byte	.LVL222
 6676 0f02 0100     		.2byte	0x1
 6677 0f04 57       		.byte	0x57
 6678 0f05 00000000 		.4byte	0
 6679 0f09 00000000 		.4byte	0
 6680              	.LLST70:
 6681 0f0d 00000000 		.4byte	.LVL223
 6682 0f11 14000000 		.4byte	.LVL227
 6683 0f15 0100     		.2byte	0x1
 6684 0f17 50       		.byte	0x50
 6685 0f18 14000000 		.4byte	.LVL227
 6686 0f1c 54000000 		.4byte	.LVL234
 6687 0f20 0100     		.2byte	0x1
 6688 0f22 58       		.byte	0x58
 6689 0f23 54000000 		.4byte	.LVL234
 6690 0f27 58000000 		.4byte	.LVL235
 6691 0f2b 0100     		.2byte	0x1
 6692 0f2d 50       		.byte	0x50
 6693 0f2e 58000000 		.4byte	.LVL235
 6694 0f32 60000000 		.4byte	.LFE13
 6695 0f36 0100     		.2byte	0x1
 6696 0f38 58       		.byte	0x58
 6697 0f39 00000000 		.4byte	0
 6698 0f3d 00000000 		.4byte	0
 6699              	.LLST71:
 6700 0f41 04000000 		.4byte	.LVL224
 6701 0f45 14000000 		.4byte	.LVL227
 6702 0f49 0200     		.2byte	0x2
 6703 0f4b 30       		.byte	0x30
 6704 0f4c 9F       		.byte	0x9f
 6705 0f4d 14000000 		.4byte	.LVL227
 6706 0f51 4C000000 		.4byte	.LVL230
 6707 0f55 0100     		.2byte	0x1
 6708 0f57 55       		.byte	0x55
 6709 0f58 4E000000 		.4byte	.LVL231
 6710 0f5c 54000000 		.4byte	.LVL234
 6711 0f60 0100     		.2byte	0x1
 6712 0f62 55       		.byte	0x55
 6713 0f63 54000000 		.4byte	.LVL234
 6714 0f67 58000000 		.4byte	.LVL235
 6715 0f6b 0200     		.2byte	0x2
 6716 0f6d 30       		.byte	0x30
 6717 0f6e 9F       		.byte	0x9f
 6718 0f6f 58000000 		.4byte	.LVL235
 6719 0f73 60000000 		.4byte	.LFE13
 6720 0f77 0100     		.2byte	0x1
ARM GAS  C:\Users\PANXIA~1\AppData\Local\Temp\cczfv69T.s 			page 153


 6721 0f79 55       		.byte	0x55
 6722 0f7a 00000000 		.4byte	0
 6723 0f7e 00000000 		.4byte	0
 6724              	.LLST72:
 6725 0f82 08000000 		.4byte	.LVL225
 6726 0f86 50000000 		.4byte	.LVL232
 6727 0f8a 0100     		.2byte	0x1
 6728 0f8c 56       		.byte	0x56
 6729 0f8d 52000000 		.4byte	.LVL233
 6730 0f91 60000000 		.4byte	.LFE13
 6731 0f95 0100     		.2byte	0x1
 6732 0f97 56       		.byte	0x56
 6733 0f98 00000000 		.4byte	0
 6734 0f9c 00000000 		.4byte	0
 6735              		.section	.debug_aranges,"",%progbits
 6736 0000 84000000 		.4byte	0x84
 6737 0004 0200     		.2byte	0x2
 6738 0006 00000000 		.4byte	.Ldebug_info0
 6739 000a 04       		.byte	0x4
 6740 000b 00       		.byte	0
 6741 000c 0000     		.2byte	0
 6742 000e 0000     		.2byte	0
 6743 0010 00000000 		.4byte	.LFB4
 6744 0014 2A000000 		.4byte	.LFE4-.LFB4
 6745 0018 00000000 		.4byte	.LFB1
 6746 001c 5E000000 		.4byte	.LFE1-.LFB1
 6747 0020 00000000 		.4byte	.LFB3
 6748 0024 B8000000 		.4byte	.LFE3-.LFB3
 6749 0028 00000000 		.4byte	.LFB0
 6750 002c E2000000 		.4byte	.LFE0-.LFB0
 6751 0030 00000000 		.4byte	.LFB6
 6752 0034 FC000000 		.4byte	.LFE6-.LFB6
 6753 0038 00000000 		.4byte	.LFB7
 6754 003c 22000000 		.4byte	.LFE7-.LFB7
 6755 0040 00000000 		.4byte	.LFB2
 6756 0044 62020000 		.4byte	.LFE2-.LFB2
 6757 0048 00000000 		.4byte	.LFB11
 6758 004c 5A000000 		.4byte	.LFE11-.LFB11
 6759 0050 00000000 		.4byte	.LFB8
 6760 0054 24000000 		.4byte	.LFE8-.LFB8
 6761 0058 00000000 		.4byte	.LFB9
 6762 005c 02000000 		.4byte	.LFE9-.LFB9
 6763 0060 00000000 		.4byte	.LFB10
 6764 0064 54010000 		.4byte	.LFE10-.LFB10
 6765 0068 00000000 		.4byte	.LFB5
 6766 006c 0A000000 		.4byte	.LFE5-.LFB5
 6767 0070 00000000 		.4byte	.LFB12
 6768 0074 50000000 		.4byte	.LFE12-.LFB12
 6769 0078 00000000 		.4byte	.LFB13
 6770 007c 60000000 		.4byte	.LFE13-.LFB13
 6771 0080 00000000 		.4byte	0
 6772 0084 00000000 		.4byte	0
 6773              		.section	.debug_ranges,"",%progbits
 6774              	.Ldebug_ranges0:
 6775 0000 22000000 		.4byte	.LBB10
 6776 0004 2A000000 		.4byte	.LBE10
 6777 0008 2E000000 		.4byte	.LBB11
ARM GAS  C:\Users\PANXIA~1\AppData\Local\Temp\cczfv69T.s 			page 154


 6778 000c 44010000 		.4byte	.LBE11
 6779 0010 46010000 		.4byte	.LBB12
 6780 0014 48010000 		.4byte	.LBE12
 6781 0018 00000000 		.4byte	0
 6782 001c 00000000 		.4byte	0
 6783 0020 00000000 		.4byte	.LFB4
 6784 0024 2A000000 		.4byte	.LFE4
 6785 0028 00000000 		.4byte	.LFB1
 6786 002c 5E000000 		.4byte	.LFE1
 6787 0030 00000000 		.4byte	.LFB3
 6788 0034 B8000000 		.4byte	.LFE3
 6789 0038 00000000 		.4byte	.LFB0
 6790 003c E2000000 		.4byte	.LFE0
 6791 0040 00000000 		.4byte	.LFB6
 6792 0044 FC000000 		.4byte	.LFE6
 6793 0048 00000000 		.4byte	.LFB7
 6794 004c 22000000 		.4byte	.LFE7
 6795 0050 00000000 		.4byte	.LFB2
 6796 0054 62020000 		.4byte	.LFE2
 6797 0058 00000000 		.4byte	.LFB11
 6798 005c 5A000000 		.4byte	.LFE11
 6799 0060 00000000 		.4byte	.LFB8
 6800 0064 24000000 		.4byte	.LFE8
 6801 0068 00000000 		.4byte	.LFB9
 6802 006c 02000000 		.4byte	.LFE9
 6803 0070 00000000 		.4byte	.LFB10
 6804 0074 54010000 		.4byte	.LFE10
 6805 0078 00000000 		.4byte	.LFB5
 6806 007c 0A000000 		.4byte	.LFE5
 6807 0080 00000000 		.4byte	.LFB12
 6808 0084 50000000 		.4byte	.LFE12
 6809 0088 00000000 		.4byte	.LFB13
 6810 008c 60000000 		.4byte	.LFE13
 6811 0090 00000000 		.4byte	0
 6812 0094 00000000 		.4byte	0
 6813              		.section	.debug_line,"",%progbits
 6814              	.Ldebug_line0:
 6815 0000 CF040000 		.section	.debug_str,"MS",%progbits,1
 6815      0200C801 
 6815      00000201 
 6815      FB0E0D00 
 6815      01010101 
 6816              	.LASF138:
 6817 0000 63734865 		.ascii	"csHeartbeat\000"
 6817      61727462 
 6817      65617400 
 6818              	.LASF28:
 6819 000c 52785044 		.ascii	"RxPDO_EventTimers_Handler\000"
 6819      4F5F4576 
 6819      656E7454 
 6819      696D6572 
 6819      735F4861 
 6820              	.LASF129:
 6821 0026 53746F70 		.ascii	"Stopped\000"
 6821      70656400 
 6822              	.LASF211:
 6823 002e 50444F53 		.ascii	"PDOStop\000"
ARM GAS  C:\Users\PANXIA~1\AppData\Local\Temp\cczfv69T.s 			page 155


 6823      746F7000 
 6824              	.LASF188:
 6825 0036 6F666673 		.ascii	"offsetObjdict\000"
 6825      65744F62 
 6825      6A646963 
 6825      7400
 6826              	.LASF164:
 6827 0044 4E624269 		.ascii	"NbBits\000"
 6827      747300
 6828              	.LASF139:
 6829 004b 63735044 		.ascii	"csPDO\000"
 6829      4F00
 6830              	.LASF148:
 6831 0051 706F7374 		.ascii	"post_SlaveStateChange_t\000"
 6831      5F536C61 
 6831      76655374 
 6831      61746543 
 6831      68616E67 
 6832              	.LASF23:
 6833 0069 73747275 		.ascii	"struct_CO_Data\000"
 6833      63745F43 
 6833      4F5F4461 
 6833      746100
 6834              	.LASF195:
 6835 0078 70547261 		.ascii	"pTransmissionType\000"
 6835      6E736D69 
 6835      7373696F 
 6835      6E547970 
 6835      6500
 6836              	.LASF0:
 6837 008a 756E7369 		.ascii	"unsigned int\000"
 6837      676E6564 
 6837      20696E74 
 6837      00
 6838              	.LASF17:
 6839 0097 7472616E 		.ascii	"transmit_type_parameter\000"
 6839      736D6974 
 6839      5F747970 
 6839      655F7061 
 6839      72616D65 
 6840              	.LASF80:
 6841 00af 73756269 		.ascii	"subindex\000"
 6841      6E646578 
 6841      00
 6842              	.LASF61:
 6843 00b8 6463665F 		.ascii	"dcf_odentry\000"
 6843      6F64656E 
 6843      74727900 
 6844              	.LASF163:
 6845 00c4 7077436F 		.ascii	"pwCobId\000"
 6845      62496400 
 6846              	.LASF106:
 6847 00cc 77686F61 		.ascii	"whoami\000"
 6847      6D6900
 6848              	.LASF30:
 6849 00d3 6C617374 		.ascii	"lastIndex\000"
 6849      496E6465 
ARM GAS  C:\Users\PANXIA~1\AppData\Local\Temp\cczfv69T.s 			page 156


 6849      7800
 6850              	.LASF97:
 6851 00dd 73746F72 		.ascii	"storeODSubIndex_t\000"
 6851      654F4453 
 6851      7562496E 
 6851      6465785F 
 6851      7400
 6852              	.LASF14:
 6853 00ef 4D657373 		.ascii	"Message\000"
 6853      61676500 
 6854              	.LASF125:
 6855 00f7 496E6974 		.ascii	"Initialisation\000"
 6855      69616C69 
 6855      73617469 
 6855      6F6E00
 6856              	.LASF182:
 6857 0106 7072705F 		.ascii	"prp_j\000"
 6857      6A00
 6858              	.LASF141:
 6859 010c 735F7374 		.ascii	"s_state_communication\000"
 6859      6174655F 
 6859      636F6D6D 
 6859      756E6963 
 6859      6174696F 
 6860              	.LASF175:
 6861 0122 4D61736B 		.ascii	"Mask\000"
 6861      00
 6862              	.LASF15:
 6863 0127 43414E5F 		.ascii	"CAN_PORT\000"
 6863      504F5254 
 6863      00
 6864              	.LASF168:
 6865 0130 44657374 		.ascii	"DestByteIndex\000"
 6865      42797465 
 6865      496E6465 
 6865      7800
 6866              	.LASF41:
 6867 013e 4E4D545F 		.ascii	"NMT_Slave_Node_Reset_Callback\000"
 6867      536C6176 
 6867      655F4E6F 
 6867      64655F52 
 6867      65736574 
 6868              	.LASF145:
 6869 015c 73746F70 		.ascii	"stopped_t\000"
 6869      7065645F 
 6869      7400
 6870              	.LASF187:
 6871 0166 73656E64 		.ascii	"sendOnePDOevent\000"
 6871      4F6E6550 
 6871      444F6576 
 6871      656E7400 
 6872              	.LASF55:
 6873 0176 706F7374 		.ascii	"post_SlaveBootup\000"
 6873      5F536C61 
 6873      7665426F 
 6873      6F747570 
 6873      00
ARM GAS  C:\Users\PANXIA~1\AppData\Local\Temp\cczfv69T.s 			page 157


 6874              	.LASF58:
 6875 0187 63616E48 		.ascii	"canHandle\000"
 6875      616E646C 
 6875      6500
 6876              	.LASF127:
 6877 0191 436F6E6E 		.ascii	"Connecting\000"
 6877      65637469 
 6877      6E6700
 6878              	.LASF160:
 6879 019c 706F7374 		.ascii	"post_emcy_t\000"
 6879      5F656D63 
 6879      795F7400 
 6880              	.LASF86:
 6881 01a8 735F7175 		.ascii	"s_quick_index\000"
 6881      69636B5F 
 6881      696E6465 
 6881      7800
 6882              	.LASF189:
 6883 01b6 4576656E 		.ascii	"EventTimerDuration\000"
 6883      7454696D 
 6883      65724475 
 6883      72617469 
 6883      6F6E00
 6884              	.LASF121:
 6885 01c9 64617461 		.ascii	"dataType\000"
 6885      54797065 
 6885      00
 6886              	.LASF158:
 6887 01d2 61637469 		.ascii	"active\000"
 6887      766500
 6888              	.LASF16:
 6889 01d9 735F5044 		.ascii	"s_PDO_status\000"
 6889      4F5F7374 
 6889      61747573 
 6889      00
 6890              	.LASF117:
 6891 01e6 7365716E 		.ascii	"seqno\000"
 6891      6F00
 6892              	.LASF200:
 6893 01ec 62537562 		.ascii	"bSubindex\000"
 6893      696E6465 
 6893      7800
 6894              	.LASF101:
 6895 01f6 52585354 		.ascii	"RXSTEP_END\000"
 6895      45505F45 
 6895      4E4400
 6896              	.LASF33:
 6897 0201 76616C75 		.ascii	"valueRangeTest\000"
 6897      6552616E 
 6897      67655465 
 6897      737400
 6898              	.LASF70:
 6899 0210 6572726F 		.ascii	"error_first_element\000"
 6899      725F6669 
 6899      7273745F 
 6899      656C656D 
 6899      656E7400 
ARM GAS  C:\Users\PANXIA~1\AppData\Local\Temp\cczfv69T.s 			page 158


 6900              	.LASF156:
 6901 0224 65727243 		.ascii	"errCode\000"
 6901      6F646500 
 6902              	.LASF167:
 6903 022c 53726342 		.ascii	"SrcBigEndian\000"
 6903      6967456E 
 6903      6469616E 
 6903      00
 6904              	.LASF96:
 6905 0239 76616C75 		.ascii	"valueRangeTest_t\000"
 6905      6552616E 
 6905      67655465 
 6905      73745F74 
 6905      00
 6906              	.LASF82:
 6907 024a 70537562 		.ascii	"pSubindex\000"
 6907      696E6465 
 6907      7800
 6908              	.LASF197:
 6909 0254 6F626A44 		.ascii	"objDict\000"
 6909      69637400 
 6910              	.LASF178:
 6911 025c 6275696C 		.ascii	"buildPDO\000"
 6911      6450444F 
 6911      00
 6912              	.LASF161:
 6913 0265 70646F4E 		.ascii	"pdoNum\000"
 6913      756D00
 6914              	.LASF110:
 6915 026c 636F756E 		.ascii	"count\000"
 6915      7400
 6916              	.LASF84:
 6917 0272 696E6465 		.ascii	"index\000"
 6917      7800
 6918              	.LASF43:
 6919 0278 436F6E73 		.ascii	"ConsumerHeartbeatCount\000"
 6919      756D6572 
 6919      48656172 
 6919      74626561 
 6919      74436F75 
 6920              	.LASF109:
 6921 028f 73756249 		.ascii	"subIndex\000"
 6921      6E646578 
 6921      00
 6922              	.LASF8:
 6923 0298 6C6F6E67 		.ascii	"long long unsigned int\000"
 6923      206C6F6E 
 6923      6720756E 
 6923      7369676E 
 6923      65642069 
 6924              	.LASF98:
 6925 02af 54696D65 		.ascii	"TimerCallback_t\000"
 6925      7243616C 
 6925      6C626163 
 6925      6B5F7400 
 6926              	.LASF19:
 6927 02bf 696E6869 		.ascii	"inhibit_timer\000"
ARM GAS  C:\Users\PANXIA~1\AppData\Local\Temp\cczfv69T.s 			page 159


 6927      6269745F 
 6927      74696D65 
 6927      7200
 6928              	.LASF135:
 6929 02cd 63735344 		.ascii	"csSDO\000"
 6929      4F00
 6930              	.LASF118:
 6931 02d3 656E6466 		.ascii	"endfield\000"
 6931      69656C64 
 6931      00
 6932              	.LASF68:
 6933 02dc 6572726F 		.ascii	"error_history_size\000"
 6933      725F6869 
 6933      73746F72 
 6933      795F7369 
 6933      7A6500
 6934              	.LASF108:
 6935 02ef 61626F72 		.ascii	"abortCode\000"
 6935      74436F64 
 6935      6500
 6936              	.LASF136:
 6937 02f9 6373456D 		.ascii	"csEmergency\000"
 6937      65726765 
 6937      6E637900 
 6938              	.LASF198:
 6939 0305 5450444F 		.ascii	"TPDO_Communication_Parameter_Callback\000"
 6939      5F436F6D 
 6939      6D756E69 
 6939      63617469 
 6939      6F6E5F50 
 6940              	.LASF155:
 6941 032b 655F6572 		.ascii	"e_errorState\000"
 6941      726F7253 
 6941      74617465 
 6941      00
 6942              	.LASF77:
 6943 0338 62446174 		.ascii	"bDataType\000"
 6943      61547970 
 6943      6500
 6944              	.LASF62:
 6945 0342 6463665F 		.ascii	"dcf_cursor\000"
 6945      63757273 
 6945      6F7200
 6946              	.LASF212:
 6947 034d 63616E53 		.ascii	"canSend\000"
 6947      656E6400 
 6948              	.LASF47:
 6949 0355 50726F64 		.ascii	"ProducerHeartBeatTimer\000"
 6949      75636572 
 6949      48656172 
 6949      74426561 
 6949      7454696D 
 6950              	.LASF123:
 6951 036c 43616C6C 		.ascii	"Callback\000"
 6951      6261636B 
 6951      00
 6952              	.LASF64:
ARM GAS  C:\Users\PANXIA~1\AppData\Local\Temp\cczfv69T.s 			page 160


 6953 0375 6463665F 		.ascii	"dcf_status\000"
 6953      73746174 
 6953      757300
 6954              	.LASF177:
 6955 0380 73656E64 		.ascii	"sendPDOrequest\000"
 6955      50444F72 
 6955      65717565 
 6955      737400
 6956              	.LASF113:
 6957 038f 626C6B73 		.ascii	"blksize\000"
 6957      697A6500 
 6958              	.LASF13:
 6959 0397 73697A65 		.ascii	"size_t\000"
 6959      5F7400
 6960              	.LASF75:
 6961 039e 74645F73 		.ascii	"td_subindex\000"
 6961      7562696E 
 6961      64657800 
 6962              	.LASF111:
 6963 03aa 6F666673 		.ascii	"offset\000"
 6963      657400
 6964              	.LASF116:
 6965 03b1 6C617374 		.ascii	"lastblockoffset\000"
 6965      626C6F63 
 6965      6B6F6666 
 6965      73657400 
 6966              	.LASF49:
 6967 03c1 4E4D5461 		.ascii	"NMTable\000"
 6967      626C6500 
 6968              	.LASF124:
 6969 03c9 735F7472 		.ascii	"s_transfer\000"
 6969      616E7366 
 6969      657200
 6970              	.LASF26:
 6971 03d4 50444F5F 		.ascii	"PDO_status\000"
 6971      73746174 
 6971      757300
 6972              	.LASF91:
 6973 03df 50444F5F 		.ascii	"PDO_TRS\000"
 6973      54525300 
 6974              	.LASF83:
 6975 03e7 62537562 		.ascii	"bSubCount\000"
 6975      436F756E 
 6975      7400
 6976              	.LASF204:
 6977 03f1 69735379 		.ascii	"isSyncEvent\000"
 6977      6E634576 
 6977      656E7400 
 6978              	.LASF169:
 6979 03fd 44657374 		.ascii	"DestBitIndex\000"
 6979      42697449 
 6979      6E646578 
 6979      00
 6980              	.LASF149:
 6981 040a 706F7374 		.ascii	"post_sync_t\000"
 6981      5F73796E 
 6981      635F7400 
ARM GAS  C:\Users\PANXIA~1\AppData\Local\Temp\cczfv69T.s 			page 161


 6982              	.LASF184:
 6983 0416 704D6170 		.ascii	"pMappingParameter\000"
 6983      70696E67 
 6983      50617261 
 6983      6D657465 
 6983      7200
 6984              	.LASF126:
 6985 0428 44697363 		.ascii	"Disconnected\000"
 6985      6F6E6E65 
 6985      63746564 
 6985      00
 6986              	.LASF146:
 6987 0435 68656172 		.ascii	"heartbeatError_t\000"
 6987      74626561 
 6987      74457272 
 6987      6F725F74 
 6987      00
 6988              	.LASF39:
 6989 0446 6F706572 		.ascii	"operational\000"
 6989      6174696F 
 6989      6E616C00 
 6990              	.LASF90:
 6991 0452 50444F5F 		.ascii	"PDO_RCV_MAP\000"
 6991      5243565F 
 6991      4D415000 
 6992              	.LASF171:
 6993 045e 56656374 		.ascii	"Vect\000"
 6993      00
 6994              	.LASF128:
 6995 0463 50726570 		.ascii	"Preparing\000"
 6995      6172696E 
 6995      6700
 6996              	.LASF185:
 6997 046d 53697A65 		.ascii	"Size\000"
 6997      00
 6998              	.LASF153:
 6999 0472 4572726F 		.ascii	"Error_free\000"
 6999      725F6672 
 6999      656500
 7000              	.LASF53:
 7001 047d 706F7374 		.ascii	"post_sync\000"
 7001      5F73796E 
 7001      6300
 7002              	.LASF79:
 7003 0487 704F626A 		.ascii	"pObject\000"
 7003      65637400 
 7004              	.LASF10:
 7005 048f 63686172 		.ascii	"char\000"
 7005      00
 7006              	.LASF22:
 7007 0494 73747275 		.ascii	"struct_s_PDO_status\000"
 7007      63745F73 
 7007      5F50444F 
 7007      5F737461 
 7007      74757300 
 7008              	.LASF36:
 7009 04a8 43757272 		.ascii	"CurrentCommunicationState\000"
ARM GAS  C:\Users\PANXIA~1\AppData\Local\Temp\cczfv69T.s 			page 162


 7009      656E7443 
 7009      6F6D6D75 
 7009      6E696361 
 7009      74696F6E 
 7010              	.LASF152:
 7011 04c2 656E756D 		.ascii	"enum_errorState\000"
 7011      5F657272 
 7011      6F725374 
 7011      61746500 
 7012              	.LASF71:
 7013 04d2 6572726F 		.ascii	"error_register\000"
 7013      725F7265 
 7013      67697374 
 7013      657200
 7014              	.LASF69:
 7015 04e1 6572726F 		.ascii	"error_number\000"
 7015      725F6E75 
 7015      6D626572 
 7015      00
 7016              	.LASF51:
 7017 04ee 434F425F 		.ascii	"COB_ID_Sync\000"
 7017      49445F53 
 7017      796E6300 
 7018              	.LASF76:
 7019 04fa 62416363 		.ascii	"bAccessType\000"
 7019      65737354 
 7019      79706500 
 7020              	.LASF12:
 7021 0506 64617461 		.ascii	"data\000"
 7021      00
 7022              	.LASF66:
 7023 050b 6463665F 		.ascii	"dcf_data\000"
 7023      64617461 
 7023      00
 7024              	.LASF67:
 7025 0514 6572726F 		.ascii	"error_state\000"
 7025      725F7374 
 7025      61746500 
 7026              	.LASF199:
 7027 0520 4F445F65 		.ascii	"OD_entry\000"
 7027      6E747279 
 7027      00
 7028              	.LASF191:
 7029 0529 436F7079 		.ascii	"CopyBits\000"
 7029      42697473 
 7029      00
 7030              	.LASF45:
 7031 0532 436F6E73 		.ascii	"ConsumerHeartBeatTimers\000"
 7031      756D6572 
 7031      48656172 
 7031      74426561 
 7031      7454696D 
 7032              	.LASF140:
 7033 054a 63734C53 		.ascii	"csLSS\000"
 7033      5300
 7034              	.LASF190:
 7035 0550 496E6869 		.ascii	"InhibitTimerDuration\000"
ARM GAS  C:\Users\PANXIA~1\AppData\Local\Temp\cczfv69T.s 			page 163


 7035      62697454 
 7035      696D6572 
 7035      44757261 
 7035      74696F6E 
 7036              	.LASF54:
 7037 0565 706F7374 		.ascii	"post_TPDO\000"
 7037      5F545044 
 7037      4F00
 7038              	.LASF18:
 7039 056f 6576656E 		.ascii	"event_timer\000"
 7039      745F7469 
 7039      6D657200 
 7040              	.LASF50:
 7041 057b 73796E63 		.ascii	"syncTimer\000"
 7041      54696D65 
 7041      7200
 7042              	.LASF221:
 7043 0585 73656E64 		.ascii	"sendPdo\000"
 7043      50646F00 
 7044              	.LASF7:
 7045 058d 6C6F6E67 		.ascii	"long long int\000"
 7045      206C6F6E 
 7045      6720696E 
 7045      7400
 7046              	.LASF132:
 7047 059b 556E6B6E 		.ascii	"Unknown_state\000"
 7047      6F776E5F 
 7047      73746174 
 7047      6500
 7048              	.LASF208:
 7049 05a9 70646F49 		.ascii	"pdoIndex\000"
 7049      6E646578 
 7049      00
 7050              	.LASF174:
 7051 05b2 42697473 		.ascii	"BitsToCopy\000"
 7051      546F436F 
 7051      707900
 7052              	.LASF105:
 7053 05bd 436C6953 		.ascii	"CliServNbr\000"
 7053      6572764E 
 7053      627200
 7054              	.LASF207:
 7055 05c8 50444F49 		.ascii	"PDOInit\000"
 7055      6E697400 
 7056              	.LASF32:
 7057 05d0 69616D5F 		.ascii	"iam_a_slave\000"
 7057      615F736C 
 7057      61766500 
 7058              	.LASF57:
 7059 05dc 746F6767 		.ascii	"toggle\000"
 7059      6C6500
 7060              	.LASF179:
 7061 05e3 6E756D50 		.ascii	"numPdo\000"
 7061      646F00
 7062              	.LASF147:
 7063 05ea 706F7374 		.ascii	"post_SlaveBootup_t\000"
 7063      5F536C61 
ARM GAS  C:\Users\PANXIA~1\AppData\Local\Temp\cczfv69T.s 			page 164


 7063      7665426F 
 7063      6F747570 
 7063      5F7400
 7064              	.LASF172:
 7065 05fd 416C6967 		.ascii	"Aligned\000"
 7065      6E656400 
 7066              	.LASF103:
 7067 0605 53444F43 		.ascii	"SDOCallback_t\000"
 7067      616C6C62 
 7067      61636B5F 
 7067      7400
 7068              	.LASF93:
 7069 0613 71756963 		.ascii	"quick_index\000"
 7069      6B5F696E 
 7069      64657800 
 7070              	.LASF78:
 7071 061f 73697A65 		.ascii	"size\000"
 7071      00
 7072              	.LASF144:
 7073 0624 6F706572 		.ascii	"operational_t\000"
 7073      6174696F 
 7073      6E616C5F 
 7073      7400
 7074              	.LASF214:
 7075 0632 44656C41 		.ascii	"DelAlarm\000"
 7075      6C61726D 
 7075      00
 7076              	.LASF100:
 7077 063b 52585354 		.ascii	"RXSTEP_STARTED\000"
 7077      45505F53 
 7077      54415254 
 7077      454400
 7078              	.LASF120:
 7079 064a 746D7044 		.ascii	"tmpData\000"
 7079      61746100 
 7080              	.LASF89:
 7081 0652 50444F5F 		.ascii	"PDO_RCV\000"
 7081      52435600 
 7082              	.LASF102:
 7083 065a 72785374 		.ascii	"rxStep_t\000"
 7083      65705F74 
 7083      00
 7084              	.LASF85:
 7085 0663 696E6465 		.ascii	"indextable\000"
 7085      78746162 
 7085      6C6500
 7086              	.LASF151:
 7087 066e 656E756D 		.ascii	"enum_nodeState\000"
 7087      5F6E6F64 
 7087      65537461 
 7087      746500
 7088              	.LASF92:
 7089 067d 50444F5F 		.ascii	"PDO_TRS_MAP\000"
 7089      5452535F 
 7089      4D415000 
 7090              	.LASF219:
 7091 0689 2E5C7064 		.ascii	".\\pdo.c\000"
ARM GAS  C:\Users\PANXIA~1\AppData\Local\Temp\cczfv69T.s 			page 165


 7091      6F2E6300 
 7092              	.LASF186:
 7093 0691 42797465 		.ascii	"ByteSize\000"
 7093      53697A65 
 7093      00
 7094              	.LASF166:
 7095 069a 53726342 		.ascii	"SrcBitIndex\000"
 7095      6974496E 
 7095      64657800 
 7096              	.LASF99:
 7097 06a6 52585354 		.ascii	"RXSTEP_INIT\000"
 7097      45505F49 
 7097      4E495400 
 7098              	.LASF48:
 7099 06b2 68656172 		.ascii	"heartbeatError\000"
 7099      74626561 
 7099      74457272 
 7099      6F7200
 7100              	.LASF201:
 7101 06c1 50444F49 		.ascii	"PDOInhibitTimerAlarm\000"
 7101      6E686962 
 7101      69745469 
 7101      6D657241 
 7101      6C61726D 
 7102              	.LASF176:
 7103 06d6 46696C74 		.ascii	"Filtered\000"
 7103      65726564 
 7103      00
 7104              	.LASF81:
 7105 06df 74645F69 		.ascii	"td_indextable\000"
 7105      6E646578 
 7105      7461626C 
 7105      6500
 7106              	.LASF59:
 7107 06ed 7363616E 		.ascii	"scanIndexOD\000"
 7107      496E6465 
 7107      784F4400 
 7108              	.LASF180:
 7109 06f9 5450444F 		.ascii	"TPDO_com\000"
 7109      5F636F6D 
 7109      00
 7110              	.LASF65:
 7111 0702 6463665F 		.ascii	"dcf_size\000"
 7111      73697A65 
 7111      00
 7112              	.LASF3:
 7113 070b 73686F72 		.ascii	"short int\000"
 7113      7420696E 
 7113      7400
 7114              	.LASF25:
 7115 0715 6F626A64 		.ascii	"objdict\000"
 7115      69637400 
 7116              	.LASF5:
 7117 071d 6C6F6E67 		.ascii	"long int\000"
 7117      20696E74 
 7117      00
 7118              	.LASF24:
ARM GAS  C:\Users\PANXIA~1\AppData\Local\Temp\cczfv69T.s 			page 166


 7119 0726 62446576 		.ascii	"bDeviceNodeId\000"
 7119      6963654E 
 7119      6F646549 
 7119      6400
 7120              	.LASF196:
 7121 0734 73746174 		.ascii	"status\000"
 7121      757300
 7122              	.LASF143:
 7123 073b 7072654F 		.ascii	"preOperational_t\000"
 7123      70657261 
 7123      74696F6E 
 7123      616C5F74 
 7123      00
 7124              	.LASF181:
 7125 074c 5450444F 		.ascii	"TPDO_map\000"
 7125      5F6D6170 
 7125      00
 7126              	.LASF137:
 7127 0755 63735359 		.ascii	"csSYNC\000"
 7127      4E4300
 7128              	.LASF27:
 7129 075c 52785044 		.ascii	"RxPDO_EventTimers\000"
 7129      4F5F4576 
 7129      656E7454 
 7129      696D6572 
 7129      7300
 7130              	.LASF94:
 7131 076e 4F444361 		.ascii	"ODCallback_t\000"
 7131      6C6C6261 
 7131      636B5F74 
 7131      00
 7132              	.LASF142:
 7133 077b 696E6974 		.ascii	"initialisation_t\000"
 7133      69616C69 
 7133      73617469 
 7133      6F6E5F74 
 7133      00
 7134              	.LASF104:
 7135 078c 73747275 		.ascii	"struct_s_transfer\000"
 7135      63745F73 
 7135      5F747261 
 7135      6E736665 
 7135      7200
 7136              	.LASF220:
 7137 079e 443A5C47 		.ascii	"D:\\GIT\\A20_CANfestival\\posoc\\MOTION-T1-Ver1.0-2"
 7137      49545C41 
 7137      32305F43 
 7137      414E6665 
 7137      73746976 
 7138 07cd 3031362D 		.ascii	"016-09-18.cydsn\000"
 7138      30392D31 
 7138      382E6379 
 7138      64736E00 
 7139              	.LASF119:
 7140 07dd 72787374 		.ascii	"rxstep\000"
 7140      657000
 7141              	.LASF150:
ARM GAS  C:\Users\PANXIA~1\AppData\Local\Temp\cczfv69T.s 			page 167


 7142 07e4 706F7374 		.ascii	"post_TPDO_t\000"
 7142      5F545044 
 7142      4F5F7400 
 7143              	.LASF56:
 7144 07f0 706F7374 		.ascii	"post_SlaveStateChange\000"
 7144      5F536C61 
 7144      76655374 
 7144      61746543 
 7144      68616E67 
 7145              	.LASF205:
 7146 0806 6F666673 		.ascii	"offsetObjdictMap\000"
 7146      65744F62 
 7146      6A646963 
 7146      744D6170 
 7146      00
 7147              	.LASF170:
 7148 0817 44657374 		.ascii	"DestBigEndian\000"
 7148      42696745 
 7148      6E646961 
 7148      6E00
 7149              	.LASF34:
 7150 0825 7472616E 		.ascii	"transfers\000"
 7150      73666572 
 7150      7300
 7151              	.LASF209:
 7152 082f 6572726F 		.ascii	"errorCode\000"
 7152      72436F64 
 7152      6500
 7153              	.LASF9:
 7154 0839 73697A65 		.ascii	"sizetype\000"
 7154      74797065 
 7154      00
 7155              	.LASF6:
 7156 0842 6C6F6E67 		.ascii	"long unsigned int\000"
 7156      20756E73 
 7156      69676E65 
 7156      6420696E 
 7156      7400
 7157              	.LASF63:
 7158 0854 6463665F 		.ascii	"dcf_entries_count\000"
 7158      656E7472 
 7158      6965735F 
 7158      636F756E 
 7158      7400
 7159              	.LASF31:
 7160 0866 4F626A64 		.ascii	"ObjdictSize\000"
 7160      69637453 
 7160      697A6500 
 7161              	.LASF29:
 7162 0872 66697273 		.ascii	"firstIndex\000"
 7162      74496E64 
 7162      657800
 7163              	.LASF217:
 7164 087d 5F736574 		.ascii	"_setODentry\000"
 7164      4F44656E 
 7164      74727900 
 7165              	.LASF42:
ARM GAS  C:\Users\PANXIA~1\AppData\Local\Temp\cczfv69T.s 			page 168


 7166 0889 4E4D545F 		.ascii	"NMT_Slave_Communications_Reset_Callback\000"
 7166      536C6176 
 7166      655F436F 
 7166      6D6D756E 
 7166      69636174 
 7167              	.LASF52:
 7168 08b1 53796E63 		.ascii	"Sync_Cycle_Period\000"
 7168      5F437963 
 7168      6C655F50 
 7168      6572696F 
 7168      6400
 7169              	.LASF162:
 7170 08c3 5250444F 		.ascii	"RPDOIndex\000"
 7170      496E6465 
 7170      7800
 7171              	.LASF157:
 7172 08cd 65727252 		.ascii	"errRegMask\000"
 7172      65674D61 
 7172      736B00
 7173              	.LASF165:
 7174 08d8 53726342 		.ascii	"SrcByteIndex\000"
 7174      79746549 
 7174      6E646578 
 7174      00
 7175              	.LASF134:
 7176 08e5 6373426F 		.ascii	"csBoot_Up\000"
 7176      6F745F55 
 7176      7000
 7177              	.LASF37:
 7178 08ef 696E6974 		.ascii	"initialisation\000"
 7178      69616C69 
 7178      73617469 
 7178      6F6E00
 7179              	.LASF154:
 7180 08fe 4572726F 		.ascii	"Error_occurred\000"
 7180      725F6F63 
 7180      63757272 
 7180      656400
 7181              	.LASF115:
 7182 090d 6F626A73 		.ascii	"objsize\000"
 7182      697A6500 
 7183              	.LASF72:
 7184 0915 6572726F 		.ascii	"error_cobid\000"
 7184      725F636F 
 7184      62696400 
 7185              	.LASF194:
 7186 0921 6E756D4D 		.ascii	"numMap\000"
 7186      617000
 7187              	.LASF2:
 7188 0928 756E7369 		.ascii	"unsigned char\000"
 7188      676E6564 
 7188      20636861 
 7188      7200
 7189              	.LASF218:
 7190 0936 474E5520 		.ascii	"GNU C 4.9.3 20150303 (release) [ARM/embedded-4_9-br"
 7190      4320342E 
 7190      392E3320 
ARM GAS  C:\Users\PANXIA~1\AppData\Local\Temp\cczfv69T.s 			page 169


 7190      32303135 
 7190      30333033 
 7191 0969 616E6368 		.ascii	"anch revision 221220] -mcpu=cortex-m3 -mthumb -g -O"
 7191      20726576 
 7191      6973696F 
 7191      6E203232 
 7191      31323230 
 7192 099c 67202D66 		.ascii	"g -ffunction-sections -ffat-lto-objects\000"
 7192      66756E63 
 7192      74696F6E 
 7192      2D736563 
 7192      74696F6E 
 7193              	.LASF114:
 7194 09c4 61636B73 		.ascii	"ackseq\000"
 7194      657100
 7195              	.LASF192:
 7196 09cb 50444F45 		.ascii	"PDOEventTimerAlarm\000"
 7196      76656E74 
 7196      54696D65 
 7196      72416C61 
 7196      726D00
 7197              	.LASF20:
 7198 09de 6C617374 		.ascii	"last_message\000"
 7198      5F6D6573 
 7198      73616765 
 7198      00
 7199              	.LASF40:
 7200 09eb 73746F70 		.ascii	"stopped\000"
 7200      70656400 
 7201              	.LASF74:
 7202 09f3 706F7374 		.ascii	"post_emcy\000"
 7202      5F656D63 
 7202      7900
 7203              	.LASF133:
 7204 09fd 655F6E6F 		.ascii	"e_nodeState\000"
 7204      64655374 
 7204      61746500 
 7205              	.LASF107:
 7206 0a09 73746174 		.ascii	"state\000"
 7206      6500
 7207              	.LASF38:
 7208 0a0f 7072654F 		.ascii	"preOperational\000"
 7208      70657261 
 7208      74696F6E 
 7208      616C00
 7209              	.LASF183:
 7210 0a1e 704D6170 		.ascii	"pMappingCount\000"
 7210      70696E67 
 7210      436F756E 
 7210      7400
 7211              	.LASF215:
 7212 0a2c 53657441 		.ascii	"SetAlarm\000"
 7212      6C61726D 
 7212      00
 7213              	.LASF193:
 7214 0a35 70726F63 		.ascii	"proceedPDO\000"
 7214      65656450 
ARM GAS  C:\Users\PANXIA~1\AppData\Local\Temp\cczfv69T.s 			page 170


 7214      444F00
 7215              	.LASF173:
 7216 0a40 426F7564 		.ascii	"BoudaryLimit\000"
 7216      6172794C 
 7216      696D6974 
 7216      00
 7217              	.LASF206:
 7218 0a4d 73656E64 		.ascii	"sendPDOevent\000"
 7218      50444F65 
 7218      76656E74 
 7218      00
 7219              	.LASF88:
 7220 0a5a 53444F5F 		.ascii	"SDO_CLT\000"
 7220      434C5400 
 7221              	.LASF87:
 7222 0a62 53444F5F 		.ascii	"SDO_SVR\000"
 7222      53565200 
 7223              	.LASF1:
 7224 0a6a 7369676E 		.ascii	"signed char\000"
 7224      65642063 
 7224      68617200 
 7225              	.LASF44:
 7226 0a76 436F6E73 		.ascii	"ConsumerHeartbeatEntries\000"
 7226      756D6572 
 7226      48656172 
 7226      74626561 
 7226      74456E74 
 7227              	.LASF4:
 7228 0a8f 73686F72 		.ascii	"short unsigned int\000"
 7228      7420756E 
 7228      7369676E 
 7228      65642069 
 7228      6E7400
 7229              	.LASF46:
 7230 0aa2 50726F64 		.ascii	"ProducerHeartBeatTime\000"
 7230      75636572 
 7230      48656172 
 7230      74426561 
 7230      7454696D 
 7231              	.LASF112:
 7232 0ab8 70656572 		.ascii	"peerCRCsupport\000"
 7232      43524373 
 7232      7570706F 
 7232      727400
 7233              	.LASF213:
 7234 0ac7 5F676574 		.ascii	"_getODentry\000"
 7234      4F44656E 
 7234      74727900 
 7235              	.LASF202:
 7236 0ad3 5F527850 		.ascii	"_RxPDO_EventTimers_Handler\000"
 7236      444F5F45 
 7236      76656E74 
 7236      54696D65 
 7236      72735F48 
 7237              	.LASF216:
 7238 0aee 6D656D63 		.ascii	"memcmp\000"
 7238      6D7000
ARM GAS  C:\Users\PANXIA~1\AppData\Local\Temp\cczfv69T.s 			page 171


 7239              	.LASF130:
 7240 0af5 4F706572 		.ascii	"Operational\000"
 7240      6174696F 
 7240      6E616C00 
 7241              	.LASF60:
 7242 0b01 73746F72 		.ascii	"storeODSubIndex\000"
 7242      654F4453 
 7242      7562496E 
 7242      64657800 
 7243              	.LASF35:
 7244 0b11 6E6F6465 		.ascii	"nodeState\000"
 7244      53746174 
 7244      6500
 7245              	.LASF73:
 7246 0b1b 6572726F 		.ascii	"error_data\000"
 7246      725F6461 
 7246      746100
 7247              	.LASF131:
 7248 0b26 5072655F 		.ascii	"Pre_operational\000"
 7248      6F706572 
 7248      6174696F 
 7248      6E616C00 
 7249              	.LASF11:
 7250 0b36 636F625F 		.ascii	"cob_id\000"
 7250      696400
 7251              	.LASF159:
 7252 0b3d 735F6572 		.ascii	"s_errors\000"
 7252      726F7273 
 7252      00
 7253              	.LASF122:
 7254 0b46 74696D65 		.ascii	"timer\000"
 7254      7200
 7255              	.LASF21:
 7256 0b4c 434F5F44 		.ascii	"CO_Data\000"
 7256      61746100 
 7257              	.LASF95:
 7258 0b54 7363616E 		.ascii	"scanIndexOD_t\000"
 7258      496E6465 
 7258      784F445F 
 7258      7400
 7259              	.LASF210:
 7260 0b62 43616C6C 		.ascii	"CallbackList\000"
 7260      6261636B 
 7260      4C697374 
 7260      00
 7261              	.LASF203:
 7262 0b6f 5F73656E 		.ascii	"_sendPDOevent\000"
 7262      6450444F 
 7262      6576656E 
 7262      7400
 7263              		.ident	"GCC: (GNU Tools for ARM Embedded Processors) 4.9.3 20150303 (release) [ARM/embedded-4_9-br
