ARM GAS  C:\Users\pxc\AppData\Local\Temp\ccofNc3q.s 			page 1


   1              		.syntax unified
   2              		.cpu cortex-m3
   3              		.fpu softvfp
   4              		.eabi_attribute 20, 1
   5              		.eabi_attribute 21, 1
   6              		.eabi_attribute 23, 3
   7              		.eabi_attribute 24, 1
   8              		.eabi_attribute 25, 1
   9              		.eabi_attribute 26, 1
  10              		.eabi_attribute 30, 1
  11              		.eabi_attribute 34, 1
  12              		.eabi_attribute 18, 4
  13              		.thumb
  14              		.file	"Valve_Control.c"
  15              		.text
  16              	.Ltext0:
  17              		.cfi_sections	.debug_frame
  18              		.section	.text.EEPROM_Array_Read,"ax",%progbits
  19              		.align	2
  20              		.global	EEPROM_Array_Read
  21              		.thumb
  22              		.thumb_func
  23              		.type	EEPROM_Array_Read, %function
  24              	EEPROM_Array_Read:
  25              	.LFB65:
  26              		.file 1 ".\\Valve_Control.c"
   1:.\Valve_Control.c **** /* ========================================
   2:.\Valve_Control.c ****  *
   3:.\Valve_Control.c ****  * Copyright YOUR COMPANY, THE YEAR
   4:.\Valve_Control.c ****  * All Rights Reserved
   5:.\Valve_Control.c ****  * UNPUBLISHED, LICENSED SOFTWARE.
   6:.\Valve_Control.c ****  *
   7:.\Valve_Control.c ****  * CONFIDENTIAL AND PROPRIETARY INFORMATION
   8:.\Valve_Control.c ****  * WHICH IS THE PROPERTY OF your company.
   9:.\Valve_Control.c ****  *
  10:.\Valve_Control.c ****  * ========================================
  11:.\Valve_Control.c **** */
  12:.\Valve_Control.c **** /* ========================================
  13:.\Valve_Control.c ****  *
  14:.\Valve_Control.c ****  * Copyright YOUR COMPANY, THE YEAR
  15:.\Valve_Control.c ****  * All Rights Reserved
  16:.\Valve_Control.c ****  * UNPUBLISHED, LICENSED SOFTWARE.
  17:.\Valve_Control.c ****  *
  18:.\Valve_Control.c ****  * CONFIDENTIAL AND PROPRIETARY INFORMATION
  19:.\Valve_Control.c ****  * WHICH IS THE PROPERTY OF your company.
  20:.\Valve_Control.c ****  *
  21:.\Valve_Control.c ****  * ========================================
  22:.\Valve_Control.c **** */
  23:.\Valve_Control.c **** #include "product.h"
  24:.\Valve_Control.c **** #include "TestSlave.h"
  25:.\Valve_Control.c **** 
  26:.\Valve_Control.c **** #define BIT1 0X01       //KA1
  27:.\Valve_Control.c **** #define BIT2 0X02       //KA2
  28:.\Valve_Control.c **** #define BIT3 0X04       //KA3
  29:.\Valve_Control.c **** #define BIT4 0X08       //KA4
  30:.\Valve_Control.c **** #define BIT5 0X10       //KA5
  31:.\Valve_Control.c **** #define BIT6 0X20       //KA6
ARM GAS  C:\Users\pxc\AppData\Local\Temp\ccofNc3q.s 			page 2


  32:.\Valve_Control.c **** #define BIT7 0X40
  33:.\Valve_Control.c **** #define BIT8 0X80
  34:.\Valve_Control.c **** 
  35:.\Valve_Control.c **** #define KA1_bit     0
  36:.\Valve_Control.c **** #define KA2_bit     1
  37:.\Valve_Control.c **** #define KA3_bit     2
  38:.\Valve_Control.c **** #define KA4_bit     3
  39:.\Valve_Control.c **** #define KA5_bit     4
  40:.\Valve_Control.c **** #define KA6_bit     5
  41:.\Valve_Control.c **** 
  42:.\Valve_Control.c **** #define INITIAL        0x01
  43:.\Valve_Control.c **** static const uint8 CYCODE Test_Array[1]={0XFF};
  44:.\Valve_Control.c **** static const uint8 CYCODE eepromArray[]={0x00, 0x00, 0x00, 0x00, 0x00, 0x00,0x00,0x00};  //ÈòÄÁªÑÈÖ
  45:.\Valve_Control.c **** //static const uint8 CYCODE eepromUnlodeTime = 0;  //ÈòÄÁªÑÈÖçÁΩÆÂàùÂßãÂåñÂÄº
  46:.\Valve_Control.c **** //static const uint8 CYCODE eepromKeepTime   = 0;  //ÈòÄÁªÑÈÖçÁΩÆÂàùÂßãÂåñÂÄº
  47:.\Valve_Control.c **** 
  48:.\Valve_Control.c **** struct CUTPARA	CutReg;
  49:.\Valve_Control.c **** 
  50:.\Valve_Control.c **** uint8 LED_Status[]={0x01,0x02,0x04,0x08,0x10,0x20};
  51:.\Valve_Control.c **** uint8 FootStart_state = 0x01;
  52:.\Valve_Control.c **** uint8 FootUP_State    = 0x01;
  53:.\Valve_Control.c **** static lastValue = 0xFF;
  54:.\Valve_Control.c **** static lastMode  = 0xFF;
  55:.\Valve_Control.c **** CY_ISR_PROTO(Stroke_ISRHandle);
  56:.\Valve_Control.c **** uint16 Get_ADvalue(uint8 timetype);
  57:.\Valve_Control.c **** void Read_config(void);
  58:.\Valve_Control.c **** void LCD_DISPLAY(uint8 value);
  59:.\Valve_Control.c **** extern int ISR_Stroke_Timer_states;
  60:.\Valve_Control.c **** /**********************************************************
  61:.\Valve_Control.c **** ÂáΩÊï∞ÂêçÔºö
  62:.\Valve_Control.c **** Âäü  ËÉΩÔºö
  63:.\Valve_Control.c **** ÂèÇ  Êï∞ÔºöÊó†
  64:.\Valve_Control.c **** ËøîÂõûÂÄºÔºöÊó†
  65:.\Valve_Control.c **** ËØ¥Êòé  ÔºöËß¶Âèë‰∏≠Êñ≠Êó∂Èó¥10ms
  66:.\Valve_Control.c **** ************************************************************/
  67:.\Valve_Control.c **** void timer_10ms(void)
  68:.\Valve_Control.c **** {
  69:.\Valve_Control.c **** 	//Stroke_Timer_STATUS;
  70:.\Valve_Control.c **** //	ISR_Stroke_Timer_ClearPending();
  71:.\Valve_Control.c **** //	if(CutReg.ModeRunFlag == 0x01)
  72:.\Valve_Control.c **** //	{
  73:.\Valve_Control.c ****    ISR_Stroke_Timer_states = 0x00; 
  74:.\Valve_Control.c ****  
  75:.\Valve_Control.c ****    if(((Enter_Start == System_enable) ||(Enter_CUTJMODE != System_enable) || ( One_Work_Runing == C
  76:.\Valve_Control.c ****     {
  77:.\Valve_Control.c ****         
  78:.\Valve_Control.c **** 		if(CutMode() == CUTSMODE && CutReg.CutTimeStatus < VUnload && (!FootStart()))
  79:.\Valve_Control.c **** 		{
  80:.\Valve_Control.c **** 			CyDelay(5);
  81:.\Valve_Control.c **** 			if(!FootStart())
  82:.\Valve_Control.c **** 			{
  83:.\Valve_Control.c **** 				ValveOut(CutReg.Action[VBack]);
  84:.\Valve_Control.c ****                 LED_WRITE(LED_Status[VBack]);
  85:.\Valve_Control.c **** 				CutReg.CutTimeStatus = VBack;
  86:.\Valve_Control.c ****               //CutReg.OneWorkFinshState = One_Work_Runing;   /* Â¢ûÂä†Âä®‰ΩúÂÆåÊàêÊ†áÂøó20160820*/
  87:.\Valve_Control.c **** 			}
  88:.\Valve_Control.c **** 		} 
ARM GAS  C:\Users\pxc\AppData\Local\Temp\ccofNc3q.s 			page 3


  89:.\Valve_Control.c ****        // 
  90:.\Valve_Control.c ****         
  91:.\Valve_Control.c **** 		switch(CutReg.CutTimeStatus)
  92:.\Valve_Control.c **** 		{
  93:.\Valve_Control.c **** 		case VFast:
  94:.\Valve_Control.c ****            Read_config();
  95:.\Valve_Control.c ****            CutReg.OneWorkFinshState = One_Work_Runing;   /* Â¢ûÂä†Âä®‰ΩúÂÆåÊàêÊ†áÂøó20160820*/
  96:.\Valve_Control.c **** 			if(DownPoint())
  97:.\Valve_Control.c **** 			{
  98:.\Valve_Control.c **** 				ValveOut(CutReg.Action[VSlow]);
  99:.\Valve_Control.c ****                 LED_WRITE(LED_Status[VSlow]);
 100:.\Valve_Control.c **** 				CutReg.CutTimeStatus = VSlow;
 101:.\Valve_Control.c **** 			}
 102:.\Valve_Control.c **** 			else
 103:.\Valve_Control.c **** 			{
 104:.\Valve_Control.c **** 				ValveOut(CutReg.Action[VFast]);
 105:.\Valve_Control.c ****                 LED_WRITE(LED_Status[VFast]);
 106:.\Valve_Control.c **** 				CutReg.CutTimeStatus = VFast;
 107:.\Valve_Control.c **** 			}
 108:.\Valve_Control.c **** 			break;
 109:.\Valve_Control.c **** 		case VSlow:
 110:.\Valve_Control.c ****             //  CutReg.OneWorkFinshState = One_Work_Runing;   /* Â¢ûÂä†Âä®‰ΩúÂÆåÊàêÊ†áÂøó20160820*/
 111:.\Valve_Control.c **** 			if(DownPoint())
 112:.\Valve_Control.c **** 			{
 113:.\Valve_Control.c **** 				ValveOut(CutReg.Action[VKeep]);
 114:.\Valve_Control.c ****                 LED_WRITE(LED_Status[VKeep]);
 115:.\Valve_Control.c **** 				CutReg.CutTimeStatus = VKeep;
 116:.\Valve_Control.c **** 				CutReg.Cnt = 0;
 117:.\Valve_Control.c **** 			}
 118:.\Valve_Control.c **** 			else
 119:.\Valve_Control.c **** 			{
 120:.\Valve_Control.c **** 				ValveOut(CutReg.Action[VFast]);
 121:.\Valve_Control.c ****                 LED_WRITE(LED_Status[VFast]);
 122:.\Valve_Control.c **** 				CutReg.CutTimeStatus = VFast;
 123:.\Valve_Control.c **** 			}
 124:.\Valve_Control.c **** 			break;
 125:.\Valve_Control.c **** 		case VKeep:
 126:.\Valve_Control.c ****            //  CutReg.OneWorkFinshState = One_Work_Runing;   /* Â¢ûÂä†Âä®‰ΩúÂÆåÊàêÊ†áÂøó20160820*/
 127:.\Valve_Control.c **** 			CutReg.Cnt++;
 128:.\Valve_Control.c **** 			if(CutReg.Cnt >= CutReg.KeepTime)
 129:.\Valve_Control.c **** 			{
 130:.\Valve_Control.c **** 				CutReg.Cnt = 0;
 131:.\Valve_Control.c **** 				ValveOut(CutReg.Action[VUnload]);
 132:.\Valve_Control.c ****                 LED_WRITE(LED_Status[VUnload]);
 133:.\Valve_Control.c **** 				CutReg.CutTimeStatus = VUnload;
 134:.\Valve_Control.c **** 			}
 135:.\Valve_Control.c **** 			else
 136:.\Valve_Control.c **** 			{
 137:.\Valve_Control.c **** 				ValveOut(CutReg.Action[VKeep]);
 138:.\Valve_Control.c ****                 LED_WRITE(LED_Status[VKeep]);
 139:.\Valve_Control.c **** 				CutReg.CutTimeStatus = VKeep;
 140:.\Valve_Control.c **** 			}
 141:.\Valve_Control.c **** 			break;
 142:.\Valve_Control.c **** 		case VUnload:
 143:.\Valve_Control.c ****           //    CutReg.OneWorkFinshState = One_Work_Runing;   /* Â¢ûÂä†Âä®‰ΩúÂÆåÊàêÊ†áÂøó20160820*/
 144:.\Valve_Control.c **** 			CutReg.Cnt++;
 145:.\Valve_Control.c **** 			if(CutReg.Cnt >= CutReg.UnloadTime)
ARM GAS  C:\Users\pxc\AppData\Local\Temp\ccofNc3q.s 			page 4


 146:.\Valve_Control.c **** 			{
 147:.\Valve_Control.c **** 				CutReg.Cnt = 0;
 148:.\Valve_Control.c **** 				ValveOut(CutReg.Action[VBack]);
 149:.\Valve_Control.c ****                 LED_WRITE(LED_Status[VBack]);
 150:.\Valve_Control.c **** 				CutReg.CutTimeStatus = VBack;
 151:.\Valve_Control.c **** 			}
 152:.\Valve_Control.c **** 			else
 153:.\Valve_Control.c **** 			{
 154:.\Valve_Control.c **** 				ValveOut(CutReg.Action[VUnload]);
 155:.\Valve_Control.c ****                 LED_WRITE(LED_Status[VUnload]);
 156:.\Valve_Control.c **** 				CutReg.CutTimeStatus = VUnload;
 157:.\Valve_Control.c **** 			}
 158:.\Valve_Control.c **** 			break;
 159:.\Valve_Control.c **** 		case VBack:
 160:.\Valve_Control.c ****          //   CutReg.OneWorkFinshState = One_Work_Runing;   /* Â¢ûÂä†Âä®‰ΩúÂÆåÊàêÊ†áÂøó20160820*/
 161:.\Valve_Control.c **** 			if(UpperPoint())
 162:.\Valve_Control.c **** 			{
 163:.\Valve_Control.c **** 				if(UpperPoint())
 164:.\Valve_Control.c **** 				{
 165:.\Valve_Control.c **** 					ValveOut(CutReg.Action[VStop]);
 166:.\Valve_Control.c ****                     LED_WRITE(LED_Status[VStop]);
 167:.\Valve_Control.c **** 					CutReg.CutTimeStatus = VStop;
 168:.\Valve_Control.c **** 					CutReg.Cnt = 0;
 169:.\Valve_Control.c ****                     CutReg.OneWorkFinshState = One_Work_Finish;//ÂÆåÊàê‰∏ÄÊ¨°Âä®‰ΩúÊ†áÂøó 20160829Á
 170:.\Valve_Control.c **** 				}
 171:.\Valve_Control.c **** 			}
 172:.\Valve_Control.c **** 			else
 173:.\Valve_Control.c **** 			{
 174:.\Valve_Control.c **** 				ValveOut(CutReg.Action[VBack]);
 175:.\Valve_Control.c ****                 LED_WRITE(LED_Status[VBack]);
 176:.\Valve_Control.c **** 				CutReg.CutTimeStatus = VBack;
 177:.\Valve_Control.c **** 			}
 178:.\Valve_Control.c **** 			break;
 179:.\Valve_Control.c **** 		case VStop:
 180:.\Valve_Control.c **** 			CutReg.Cnt++;
 181:.\Valve_Control.c **** 			if(CutReg.Cnt >= 100  )//
 182:.\Valve_Control.c **** 			{
 183:.\Valve_Control.c **** 				CutReg.Cnt = 0;
 184:.\Valve_Control.c **** 				ISR_Stroke_Timer_states =0x01;
 185:.\Valve_Control.c **** 				CutReg.CutTimeStatus = VFast;  //ÁªìÊùü
 186:.\Valve_Control.c ****       
 187:.\Valve_Control.c **** 				CutReg.CutStatus = JudgMode;
 188:.\Valve_Control.c ****              
 189:.\Valve_Control.c **** 			}
 190:.\Valve_Control.c **** 			else
 191:.\Valve_Control.c **** 			{
 192:.\Valve_Control.c **** 				ValveOut(CutReg.Action[VStop]);
 193:.\Valve_Control.c ****                 LED_WRITE(LED_Status[VStop]);
 194:.\Valve_Control.c **** 				CutReg.CutTimeStatus = VStop;
 195:.\Valve_Control.c ****             
 196:.\Valve_Control.c **** 			}
 197:.\Valve_Control.c ****            
 198:.\Valve_Control.c **** 			break;
 199:.\Valve_Control.c **** 		default : break;
 200:.\Valve_Control.c **** 		}
 201:.\Valve_Control.c ****     }
 202:.\Valve_Control.c **** //	}
ARM GAS  C:\Users\pxc\AppData\Local\Temp\ccofNc3q.s 			page 5


 203:.\Valve_Control.c **** //	else if(CutReg.ModeRunFlag == 0x02)//ÁÇπÂä®
 204:.\Valve_Control.c **** //	{
 205:.\Valve_Control.c **** //		CutReg.Cnt++;
 206:.\Valve_Control.c **** //	}
 207:.\Valve_Control.c **** //	else
 208:.\Valve_Control.c **** //	{
 209:.\Valve_Control.c **** //		CutReg.Cnt++;
 210:.\Valve_Control.c **** //	}
 211:.\Valve_Control.c **** 
 212:.\Valve_Control.c **** }
 213:.\Valve_Control.c **** 
 214:.\Valve_Control.c **** 
 215:.\Valve_Control.c **** /*****************************************************
 216:.\Valve_Control.c **** ÂáΩÊï∞ÂêçÔºöuint8 Stroke_Process(void)
 217:.\Valve_Control.c **** Âäü  ËÉΩÔºöÂâ™ÂàáË°åÁ®ãÊéßÂà∂ÊµÅÁ®ã
 218:.\Valve_Control.c **** ÂèÇ  Êï∞ÔºöÊó†
 219:.\Valve_Control.c **** ËøîÂõûÂÄºÔºöÊó†
 220:.\Valve_Control.c **** *****************************************************/
 221:.\Valve_Control.c **** uint8 Stroke_Process(void)
 222:.\Valve_Control.c **** {
 223:.\Valve_Control.c **** 	uint8 ModeFlag = 0;
 224:.\Valve_Control.c **** 	static int16 UnloadTime = 0;
 225:.\Valve_Control.c **** 	ModeFlag = 0;
 226:.\Valve_Control.c **** 
 227:.\Valve_Control.c **** 	switch(CutReg.CutStatus)
 228:.\Valve_Control.c **** 	{
 229:.\Valve_Control.c **** 	case StrokeStart:
 230:.\Valve_Control.c **** 		if((CutMode() == CUTCMODE || CutMode() == CUTSMODE) && Enter_CUTJMODE == System_enable)
 231:.\Valve_Control.c **** 		{
 232:.\Valve_Control.c ****             CutReg.CutStatus = StrokeStart;
 233:.\Valve_Control.c **** 		}
 234:.\Valve_Control.c ****         else if((CutMode() == CUTCMODE || CutMode() == CUTSMODE) && Enter_CUTJMODE != System_enable
 235:.\Valve_Control.c **** 		{
 236:.\Valve_Control.c ****             CutReg.CutStatus = WaitNoFoot;
 237:.\Valve_Control.c **** 		}
 238:.\Valve_Control.c **** 		else if(CutMode() == CUTJMODE)//ÁÇπÂä®
 239:.\Valve_Control.c **** 		{
 240:.\Valve_Control.c **** 			CutReg.CutStatus = JOGMODE;
 241:.\Valve_Control.c **** 		}
 242:.\Valve_Control.c ****         if(System_enable == Enter_return)
 243:.\Valve_Control.c ****         {
 244:.\Valve_Control.c ****             CutReg.CutStatus = JOGMODE;
 245:.\Valve_Control.c ****         }
 246:.\Valve_Control.c **** 		break;
 247:.\Valve_Control.c **** 	case JOGMODE:
 248:.\Valve_Control.c ****         
 249:.\Valve_Control.c **** 		if((CutMode() != CUTJMODE)&& System_enable != Enter_return)
 250:.\Valve_Control.c **** 		{
 251:.\Valve_Control.c **** 			ValveOut(CutReg.Action[VStop]);
 252:.\Valve_Control.c ****             LED_WRITE(LED_Status[VStop]);
 253:.\Valve_Control.c **** 			CutReg.CutStatus = StrokeStart;
 254:.\Valve_Control.c **** 		}
 255:.\Valve_Control.c **** 		else if(FootStart() && FootStart_state)//‰∏ã
 256:.\Valve_Control.c **** 		{
 257:.\Valve_Control.c ****             /* Â¢ûÂä†Âä®‰ΩúÂÆåÊàêÊ†áÂøó20160820*/
 258:.\Valve_Control.c ****             CutReg.OneWorkFinshState = One_Work_Runing;
 259:.\Valve_Control.c **** 			while(FootStart())
ARM GAS  C:\Users\pxc\AppData\Local\Temp\ccofNc3q.s 			page 6


 260:.\Valve_Control.c **** 			{
 261:.\Valve_Control.c **** //				MoveLED(1);
 262:.\Valve_Control.c **** 				if(DownPoint())
 263:.\Valve_Control.c **** 				{
 264:.\Valve_Control.c **** 					ValveOut(CutReg.Action[VSlow]);
 265:.\Valve_Control.c ****                     LED_WRITE(LED_Status[VSlow]);
 266:.\Valve_Control.c **** 					UnloadTime = CutReg.UnloadTime;
 267:.\Valve_Control.c **** 				}
 268:.\Valve_Control.c **** 				else
 269:.\Valve_Control.c **** 				{
 270:.\Valve_Control.c **** 					ValveOut(CutReg.Action[VFast]);
 271:.\Valve_Control.c ****                     LED_WRITE(LED_Status[VFast]);
 272:.\Valve_Control.c **** 				}
 273:.\Valve_Control.c **** 				if(CutMode() != CUTJMODE)
 274:.\Valve_Control.c **** 				{
 275:.\Valve_Control.c **** 					ValveOut(CutReg.Action[VStop]);
 276:.\Valve_Control.c ****                     LED_WRITE(LED_Status[VStop]);
 277:.\Valve_Control.c **** 					CutReg.CutStatus = StrokeStart;
 278:.\Valve_Control.c **** 					break;
 279:.\Valve_Control.c **** 				}
 280:.\Valve_Control.c **** 			}
 281:.\Valve_Control.c **** 			ValveOut(CutReg.Action[VStop]);
 282:.\Valve_Control.c ****             LED_WRITE(LED_Status[VStop]);
 283:.\Valve_Control.c **** //			MoveLED(0);
 284:.\Valve_Control.c **** 		}
 285:.\Valve_Control.c **** 		else if(FootUp() && FootUP_State)//‰∏ä
 286:.\Valve_Control.c **** 		{
 287:.\Valve_Control.c **** 			UnloadTime = 0;
 288:.\Valve_Control.c **** 			while(FootUp())
 289:.\Valve_Control.c **** 			{
 290:.\Valve_Control.c **** //				MoveLED(1);
 291:.\Valve_Control.c **** 				if(UpperPoint())
 292:.\Valve_Control.c **** 				{
 293:.\Valve_Control.c **** 					ValveOut(CutReg.Action[VStop]);
 294:.\Valve_Control.c ****                     LED_WRITE(LED_Status[VStop]);
 295:.\Valve_Control.c **** 				}
 296:.\Valve_Control.c **** 				else
 297:.\Valve_Control.c **** 				{
 298:.\Valve_Control.c **** 					ValveOut(CutReg.Action[VBack]);
 299:.\Valve_Control.c ****                     LED_WRITE(LED_Status[VBack]);
 300:.\Valve_Control.c **** 				}
 301:.\Valve_Control.c **** 				if(CutMode() != CUTJMODE && System_enable != Enter_return)
 302:.\Valve_Control.c **** 				{
 303:.\Valve_Control.c **** 					ValveOut(CutReg.Action[VStop]);
 304:.\Valve_Control.c ****                     LED_WRITE(LED_Status[VStop]);
 305:.\Valve_Control.c **** 					CutReg.CutStatus = StrokeStart;
 306:.\Valve_Control.c **** 					break;
 307:.\Valve_Control.c **** 				}
 308:.\Valve_Control.c **** 			}
 309:.\Valve_Control.c **** 			ValveOut(CutReg.Action[VStop]);
 310:.\Valve_Control.c ****             LED_WRITE(LED_Status[VStop]);
 311:.\Valve_Control.c **** //			MoveLED(0);
 312:.\Valve_Control.c **** 		}
 313:.\Valve_Control.c **** 			
 314:.\Valve_Control.c **** 		if(CutMode() == CUTJMODE && !FootStart() && CutReg.Action[VUnload] != 0 && UnloadTime > 0)
 315:.\Valve_Control.c **** 		{
 316:.\Valve_Control.c **** 			ValveOut(CutReg.Action[VUnload]);//Âç∏Ëç∑	
ARM GAS  C:\Users\pxc\AppData\Local\Temp\ccofNc3q.s 			page 7


 317:.\Valve_Control.c ****              LED_WRITE(LED_Status[VUnload]);
 318:.\Valve_Control.c ****            // LED_WRITE(LED_Status(VUnload));
 319:.\Valve_Control.c **** 			UnloadTime -= 1;
 320:.\Valve_Control.c **** 			CyDelay(10);
 321:.\Valve_Control.c **** 		}
 322:.\Valve_Control.c **** 		else
 323:.\Valve_Control.c ****         {
 324:.\Valve_Control.c **** 			 ValveOut(CutReg.Action[VStop]);//ÂÅúÊ≠¢
 325:.\Valve_Control.c ****             /* Â¢ûÂä†Âä®‰ΩúÂÆåÊàêÊ†áÂøó20160820*/
 326:.\Valve_Control.c ****              CutReg.OneWorkFinshState = One_Work_Finish;
 327:.\Valve_Control.c ****         }
 328:.\Valve_Control.c **** 		
 329:.\Valve_Control.c **** 		break;
 330:.\Valve_Control.c **** 	case WaitNoFoot://ËØªÂâ™ÂàáÊï∞ÊçÆ
 331:.\Valve_Control.c **** 		if(!FootStart())
 332:.\Valve_Control.c ****         {
 333:.\Valve_Control.c **** 			CyDelay(5);
 334:.\Valve_Control.c **** 			if(!FootStart())
 335:.\Valve_Control.c **** 			{
 336:.\Valve_Control.c ****             	CutReg.CutStatus = WaitFoot;
 337:.\Valve_Control.c **** 			}
 338:.\Valve_Control.c ****         }
 339:.\Valve_Control.c ****         else
 340:.\Valve_Control.c ****         {
 341:.\Valve_Control.c ****             CutReg.CutStatus = WaitNoFoot;	
 342:.\Valve_Control.c ****         }
 343:.\Valve_Control.c **** 		break;
 344:.\Valve_Control.c **** 	case WaitFoot: //Á≠âÂæÖËÑöË∏èÂºÄÂÖ≥ÊúâÊïà‰ø°Âè∑
 345:.\Valve_Control.c **** 		if(FootStart())
 346:.\Valve_Control.c **** 		{
 347:.\Valve_Control.c **** 			CyDelay(5);
 348:.\Valve_Control.c **** 			if(FootStart())
 349:.\Valve_Control.c **** 			{                
 350:.\Valve_Control.c **** 				CutReg.CutStatus  = CutStart;
 351:.\Valve_Control.c ****                 CutReg.SToDotFlag = 0;
 352:.\Valve_Control.c **** 			}
 353:.\Valve_Control.c **** 		}
 354:.\Valve_Control.c **** 		else
 355:.\Valve_Control.c **** 		{
 356:.\Valve_Control.c **** 			CutReg.CutStatus = WaitFoot;   
 357:.\Valve_Control.c ****             if( CutReg.SToDotFlag && CutMode() == CUTJMODE)
 358:.\Valve_Control.c ****             {
 359:.\Valve_Control.c ****                 CutReg.CutStatus = JOGMODE;
 360:.\Valve_Control.c ****             }
 361:.\Valve_Control.c **** 		}
 362:.\Valve_Control.c **** 		break;
 363:.\Valve_Control.c **** 	case CutStart:
 364:.\Valve_Control.c **** 
 365:.\Valve_Control.c **** 		CutReg.CutStatus = Cutting;
 366:.\Valve_Control.c **** 		CutReg.Cnt = 0;
 367:.\Valve_Control.c **** 		CutReg.CutTimeStatus = VFast;
 368:.\Valve_Control.c **** 		ISR_Stroke_Timer_states = 0x00;
 369:.\Valve_Control.c **** //		MoveLED(1);
 370:.\Valve_Control.c **** 		break;
 371:.\Valve_Control.c **** 	case Cutting: break;
 372:.\Valve_Control.c **** 	case JudgMode://Âà§Êñ≠ ÂçïÊ¨°/ËøûÁª≠
 373:.\Valve_Control.c **** //		MoveLED(0);
ARM GAS  C:\Users\pxc\AppData\Local\Temp\ccofNc3q.s 			page 8


 374:.\Valve_Control.c **** 		if(CutMode() == CUTCMODE)//ËøûÁª≠
 375:.\Valve_Control.c **** 		{
 376:.\Valve_Control.c ****             CyDelay(5);
 377:.\Valve_Control.c ****             if(CutMode() == CUTCMODE)//ËøûÁª≠
 378:.\Valve_Control.c **** 		    {
 379:.\Valve_Control.c **** 		    	CutReg.CutStatus = CutStart;//Âõû
 380:.\Valve_Control.c ****             }
 381:.\Valve_Control.c **** 		
 382:.\Valve_Control.c **** 		}
 383:.\Valve_Control.c **** 		else if(CutMode() == CUTSMODE)//ÂçïÊ¨°
 384:.\Valve_Control.c **** 		{
 385:.\Valve_Control.c ****                CyDelay(5);
 386:.\Valve_Control.c ****              if(CutMode() == CUTSMODE)//ÂçïÊ¨°
 387:.\Valve_Control.c ****             {
 388:.\Valve_Control.c **** 			CutReg.CutStatus = WaitNoFoot;
 389:.\Valve_Control.c ****             CutReg.SToDotFlag = 1;
 390:.\Valve_Control.c ****             }
 391:.\Valve_Control.c ****            
 392:.\Valve_Control.c **** 		}
 393:.\Valve_Control.c **** 		else if(CutMode() == CUTJMODE)//ÁÇπÂä®
 394:.\Valve_Control.c **** 		{
 395:.\Valve_Control.c ****             CyDelay(5);
 396:.\Valve_Control.c ****             if(CutMode() == CUTSMODE)//ÂçïÊ¨°
 397:.\Valve_Control.c ****             {
 398:.\Valve_Control.c **** 			CutReg.CutStatus = JOGMODE;
 399:.\Valve_Control.c ****             ModeFlag = 1;
 400:.\Valve_Control.c ****             }
 401:.\Valve_Control.c **** 		}
 402:.\Valve_Control.c **** 		break;
 403:.\Valve_Control.c **** 	default : break;
 404:.\Valve_Control.c **** 	}
 405:.\Valve_Control.c **** 	return ModeFlag;
 406:.\Valve_Control.c **** }
 407:.\Valve_Control.c **** 
 408:.\Valve_Control.c **** /**********************************************************
 409:.\Valve_Control.c **** ÂáΩÊï∞ÂêçÔºö
 410:.\Valve_Control.c **** Âäü  ËÉΩÔºö
 411:.\Valve_Control.c **** ÂèÇ  Êï∞ÔºöÊó†
 412:.\Valve_Control.c **** ËøîÂõûÂÄºÔºöÊó†
 413:.\Valve_Control.c **** ************************************************************/
 414:.\Valve_Control.c **** void EEPROM_Array_Read(uint8 *eepromPtr,uint8 *buf,uint16 len)
 415:.\Valve_Control.c **** {
  27              		.loc 1 415 0
  28              		.cfi_startproc
  29              		@ args = 0, pretend = 0, frame = 0
  30              		@ frame_needed = 0, uses_anonymous_args = 0
  31              	.LVL0:
  32 0000 70B5     		push	{r4, r5, r6, lr}
  33              		.cfi_def_cfa_offset 16
  34              		.cfi_offset 4, -16
  35              		.cfi_offset 5, -12
  36              		.cfi_offset 6, -8
  37              		.cfi_offset 14, -4
  38 0002 0E46     		mov	r6, r1
  39 0004 1546     		mov	r5, r2
  40              	.LVL1:
 416:.\Valve_Control.c **** 	reg8 * RegPointer;
ARM GAS  C:\Users\pxc\AppData\Local\Temp\ccofNc3q.s 			page 9


 417:.\Valve_Control.c **** 	uint16 i;
 418:.\Valve_Control.c **** 	
 419:.\Valve_Control.c **** //	RegPointer = (reg8 *)CYDEV_EE_BASE;
 420:.\Valve_Control.c ****     
 421:.\Valve_Control.c **** // RegPointer = eepromPtr;
 422:.\Valve_Control.c **** 	for(i = 0; i < len; i++)
  41              		.loc 1 422 0
  42 0006 0024     		movs	r4, #0
  43 0008 05E0     		b	.L2
  44              	.LVL2:
  45              	.L3:
 423:.\Valve_Control.c **** 	{
 424:.\Valve_Control.c **** 		buf[i] = EEPROM_1_ReadByte(i);
  46              		.loc 1 424 0 discriminator 3
  47 000a 2046     		mov	r0, r4
  48 000c FFF7FEFF 		bl	EEPROM_1_ReadByte
  49              	.LVL3:
  50 0010 3055     		strb	r0, [r6, r4]
 422:.\Valve_Control.c **** 	{
  51              		.loc 1 422 0 discriminator 3
  52 0012 0134     		adds	r4, r4, #1
  53              	.LVL4:
  54 0014 A4B2     		uxth	r4, r4
  55              	.LVL5:
  56              	.L2:
 422:.\Valve_Control.c **** 	{
  57              		.loc 1 422 0 is_stmt 0 discriminator 1
  58 0016 AC42     		cmp	r4, r5
  59 0018 F7D3     		bcc	.L3
 425:.\Valve_Control.c **** 	}
 426:.\Valve_Control.c **** }
  60              		.loc 1 426 0 is_stmt 1
  61 001a 70BD     		pop	{r4, r5, r6, pc}
  62              		.cfi_endproc
  63              	.LFE65:
  64              		.size	EEPROM_Array_Read, .-EEPROM_Array_Read
  65              		.section	.text.EEPROM_Array_Write,"ax",%progbits
  66              		.align	2
  67              		.global	EEPROM_Array_Write
  68              		.thumb
  69              		.thumb_func
  70              		.type	EEPROM_Array_Write, %function
  71              	EEPROM_Array_Write:
  72              	.LFB66:
 427:.\Valve_Control.c **** void EEPROM_Array_Write(uint8 *eepromPtr,uint8 *buf,uint16 len) //Ê≤°ÊúâÂÅöË∂äÁïåÂ§ÑÁêÜÔºåË∂ÖËøá16‰
 428:.\Valve_Control.c **** {
  73              		.loc 1 428 0
  74              		.cfi_startproc
  75              		@ args = 0, pretend = 0, frame = 0
  76              		@ frame_needed = 0, uses_anonymous_args = 0
  77              	.LVL6:
 429:.\Valve_Control.c ****     if(--len)
  78              		.loc 1 429 0
  79 0000 012A     		cmp	r2, #1
  80 0002 06D0     		beq	.L8
 428:.\Valve_Control.c ****     if(--len)
  81              		.loc 1 428 0
ARM GAS  C:\Users\pxc\AppData\Local\Temp\ccofNc3q.s 			page 10


  82 0004 08B5     		push	{r3, lr}
  83              		.cfi_def_cfa_offset 8
  84              		.cfi_offset 3, -8
  85              		.cfi_offset 14, -4
  86 0006 0346     		mov	r3, r0
 430:.\Valve_Control.c ****     EEPROM_1_Write(buf,eepromPtr[0]);
  87              		.loc 1 430 0
  88 0008 0846     		mov	r0, r1
  89              	.LVL7:
  90 000a 1978     		ldrb	r1, [r3]	@ zero_extendqisi2
  91              	.LVL8:
  92 000c FFF7FEFF 		bl	EEPROM_1_Write
  93              	.LVL9:
  94 0010 08BD     		pop	{r3, pc}
  95              	.LVL10:
  96              	.L8:
  97              		.cfi_def_cfa_offset 0
  98              		.cfi_restore 3
  99              		.cfi_restore 14
 100 0012 7047     		bx	lr
 101              		.cfi_endproc
 102              	.LFE66:
 103              		.size	EEPROM_Array_Write, .-EEPROM_Array_Write
 104              		.section	.text.Read_config,"ax",%progbits
 105              		.align	2
 106              		.global	Read_config
 107              		.thumb
 108              		.thumb_func
 109              		.type	Read_config, %function
 110              	Read_config:
 111              	.LFB69:
 431:.\Valve_Control.c ****     
 432:.\Valve_Control.c **** }
 433:.\Valve_Control.c **** ///**********************************************************
 434:.\Valve_Control.c **** //ÂáΩÊï∞ÂêçÔºö
 435:.\Valve_Control.c **** //Âäü  ËÉΩÔºö
 436:.\Valve_Control.c **** //ÂèÇ  Êï∞ÔºöÊó†
 437:.\Valve_Control.c **** //ËøîÂõûÂÄºÔºöÊó†
 438:.\Valve_Control.c **** //************************************************************/
 439:.\Valve_Control.c **** //void EEPROM_Byte_Write(uint16 StartAddr,uint8 byte)
 440:.\Valve_Control.c **** //{
 441:.\Valve_Control.c **** //	EEPROM_1_ByteWrite(byte, StartAddr/16,StartAddr%16);
 442:.\Valve_Control.c **** //}
 443:.\Valve_Control.c **** /**********************************************************
 444:.\Valve_Control.c **** ÂáΩÊï∞ÂêçÔºö
 445:.\Valve_Control.c **** Âäü  ËÉΩÔºö
 446:.\Valve_Control.c **** ÂèÇ  Êï∞ÔºöÊó†
 447:.\Valve_Control.c **** ËøîÂõûÂÄºÔºöÊó†
 448:.\Valve_Control.c **** ************************************************************/
 449:.\Valve_Control.c **** /**********************************************************
 450:.\Valve_Control.c **** ÂáΩÊï∞ÂêçÔºö
 451:.\Valve_Control.c **** Âäü  ËÉΩÔºö
 452:.\Valve_Control.c **** ÂèÇ  Êï∞ÔºöÊó†
 453:.\Valve_Control.c **** ËøîÂõûÂÄºÔºöÊó†
 454:.\Valve_Control.c **** ************************************************************/
 455:.\Valve_Control.c **** //void MoveLED(uint8 step)
 456:.\Valve_Control.c **** //{
ARM GAS  C:\Users\pxc\AppData\Local\Temp\ccofNc3q.s 			page 11


 457:.\Valve_Control.c **** //	switch(step)
 458:.\Valve_Control.c **** //	{
 459:.\Valve_Control.c **** //	case 0: //Âø´‰∏ã
 460:.\Valve_Control.c **** //        LED_WRITE(0x01);
 461:.\Valve_Control.c **** //		break;
 462:.\Valve_Control.c **** //	case 1:
 463:.\Valve_Control.c **** //		StopLED_OFF(); 
 464:.\Valve_Control.c **** //		RunLED_FLASH(); 
 465:.\Valve_Control.c **** //		break;
 466:.\Valve_Control.c **** //	default : break;
 467:.\Valve_Control.c **** //	}
 468:.\Valve_Control.c **** //}
 469:.\Valve_Control.c **** /*****************************************************
 470:.\Valve_Control.c **** ÂáΩÊï∞ÂêçÔºövoid Init_Stroke_Timer(void)
 471:.\Valve_Control.c **** Âäü  ËÉΩÔºöÂàùÂßãÂåñÂâ™Á®ãË°åÁ®ãÊéßÂà∂Êó∂ÈíüÂÆöÊó∂Âô®
 472:.\Valve_Control.c **** ÂèÇ  Êï∞ÔºöÊó†
 473:.\Valve_Control.c **** ËøîÂõûÂÄºÔºöÊó†
 474:.\Valve_Control.c **** *****************************************************/
 475:.\Valve_Control.c **** void Init_Stroke_Timer(void)
 476:.\Valve_Control.c **** {	
 477:.\Valve_Control.c **** 	Clock_1_Start();   
 478:.\Valve_Control.c ****     
 479:.\Valve_Control.c ****     Timer_1_Start();
 480:.\Valve_Control.c ****     
 481:.\Valve_Control.c **** 	EEPROM_1_Start();
 482:.\Valve_Control.c ****     
 483:.\Valve_Control.c **** 	ISR_Stroke_Timer_Start();
 484:.\Valve_Control.c ****     
 485:.\Valve_Control.c ****     Read_config();
 486:.\Valve_Control.c **** 
 487:.\Valve_Control.c **** 	CutReg.CutStatus = StrokeStart;
 488:.\Valve_Control.c **** 	CutReg.ModeRunFlag = 0;
 489:.\Valve_Control.c ****     
 490:.\Valve_Control.c ****     CutReg.ValveNum = 6;
 491:.\Valve_Control.c **** 	CutReg.Version = 2000;//V1.001
 492:.\Valve_Control.c **** 
 493:.\Valve_Control.c **** }
 494:.\Valve_Control.c **** 
 495:.\Valve_Control.c **** 
 496:.\Valve_Control.c **** void Valve_config(uint8 valve_config_flag)             //ÈòÄÁªÑÈÖçÁΩÆ
 497:.\Valve_Control.c **** {
 498:.\Valve_Control.c ****     uint8   key_com = 0x03; 
 499:.\Valve_Control.c ****     uint16  key_time = 0;
 500:.\Valve_Control.c ****     enum VALVE_ACTION_ENUM   step_flag  = VFast;            //ÈªòËÆ§ÈÄâÊã©‚ÄúÂø´‰∏ã‚ÄùÂäüËÉΩ
 501:.\Valve_Control.c ****     uint8   valve_flag = 0;                                 //ÈªòËÆ§Êú™ÈÄâÊã©ÈòÄÁªÑ
 502:.\Valve_Control.c ****     uint16  delay_num = 0;                                  //ÈòÄÁªÑÊåáÁ§∫ÁÅØÈó™ÁÉÅÂª∂Êó∂ÂèòÈáè
 503:.\Valve_Control.c ****     uint16  delay_num_count = 500;                          //
 504:.\Valve_Control.c ****     uint8     KA_valve = 0;                                   //ÈòÄÁªÑ‰ΩçÁä∂ÊÄÅÂèòÈáè
 505:.\Valve_Control.c ****     uint8     KA_valve_temp = 0;                              //ÈòÄÁªÑ‰ΩçÁä∂ÊÄÅ‰∏¥Êó∂ÂèòÈáè
 506:.\Valve_Control.c ****     uint8   KA_state_temp = 0;                              //ÈòÄÁªÑÁä∂ÊÄÅ‰∏¥Êó∂ÂèòÈáè
 507:.\Valve_Control.c ****     uint8   KA_num = 0;                                     //ÈòÄÁªÑ ‰Ωç ‰ΩçÁΩÆ
 508:.\Valve_Control.c ****     uint8   valvech_flag = 0;                               //ÈòÄÁªÑ ‰Ωç Áä∂ÊÄÅ‰øÆÊîπÊ†áÂøó
 509:.\Valve_Control.c ****     
 510:.\Valve_Control.c ****     while(valve_config_flag)
 511:.\Valve_Control.c ****     {
 512:.\Valve_Control.c ****       //  key_com = Read_KeyValue();   //ËØªÂèñÊåâÈîÆÂÄº
 513:.\Valve_Control.c ****        if(1)                            // if((key_com != Key_Null) && (valvech_flag == 0))
ARM GAS  C:\Users\pxc\AppData\Local\Temp\ccofNc3q.s 			page 12


 514:.\Valve_Control.c ****         {
 515:.\Valve_Control.c ****            // switch(key_com)
 516:.\Valve_Control.c ****             {
 517:.\Valve_Control.c ****                // case Key_step:
 518:.\Valve_Control.c ****                 {
 519:.\Valve_Control.c ****                     key_time = 0;
 520:.\Valve_Control.c ****                   //  while((Read_KeyValue() == Key_step) && (key_time < 40) )
 521:.\Valve_Control.c ****                     {
 522:.\Valve_Control.c ****                         key_time ++;
 523:.\Valve_Control.c ****                         CyDelay(1);
 524:.\Valve_Control.c ****                     }
 525:.\Valve_Control.c ****                     if(key_time >= 39)                          //ÈïøÊåâ
 526:.\Valve_Control.c ****                     {
 527:.\Valve_Control.c ****                        
 528:.\Valve_Control.c ****                         EEPROM_Array_Write(eepromArray,CutReg.Action,6);  //‰øùÂ≠òÈÖçÁΩÆ
 529:.\Valve_Control.c ****                         LED_WRITE(0X00);
 530:.\Valve_Control.c ****                         CyDelay(500);                                     //ÈÄÄÂá∫ÊåáÁ§∫
 531:.\Valve_Control.c ****                         ValveOut(0X3F);
 532:.\Valve_Control.c ****                         CyDelay(500);
 533:.\Valve_Control.c ****                         ValveOut(0X00);
 534:.\Valve_Control.c ****                         CyDelay(500);
 535:.\Valve_Control.c ****                         ValveOut(0X3F);
 536:.\Valve_Control.c ****                         CyDelay(500);
 537:.\Valve_Control.c ****                         ValveOut(0X00);
 538:.\Valve_Control.c ****                         valve_config_flag = 0;                  //ÈÖçÁΩÆÊ†áÂøóÊ∏ÖÈõ∂(‰øùÂ≠òÈÄÄÂá∫)
 539:.\Valve_Control.c **** //                        CySoftwareReset();                      //Á≥ªÁªüËΩØÂ§ç‰Ωç            
 540:.\Valve_Control.c ****                     }
 541:.\Valve_Control.c ****                     else                                        //Áü≠Êåâ
 542:.\Valve_Control.c ****                     {
 543:.\Valve_Control.c ****                         if(valve_flag == 0)                     //Êú™ÈÖçÁΩÆÊâçËøõË°åÂäüËÉΩÊ≠•È™§Âàá
 544:.\Valve_Control.c ****                         {
 545:.\Valve_Control.c ****                             if(++step_flag == (VStop+1))
 546:.\Valve_Control.c ****                                 step_flag = VFast;
 547:.\Valve_Control.c ****                         }
 548:.\Valve_Control.c ****                         else
 549:.\Valve_Control.c ****                         {
 550:.\Valve_Control.c ****                             valve_flag = 0;                     //Ê∏ÖÈô§ÊòæÁ§∫Áä∂ÊÄÅÊ†áÂøó
 551:.\Valve_Control.c ****                         }
 552:.\Valve_Control.c ****                         ValveOut(CutReg.Action[step_flag]);     //ÊòæÁ§∫ÂΩìÂâçÈòÄÁªÑÈÖçÁΩÆÁä∂ÊÄÅ   
 553:.\Valve_Control.c ****                         switch(step_flag)
 554:.\Valve_Control.c ****                         {
 555:.\Valve_Control.c ****                             case    VFast:                      //Âø´‰∏ã
 556:.\Valve_Control.c ****                             {
 557:.\Valve_Control.c ****                                 LED_WRITE(LED_Status[VFast]);
 558:.\Valve_Control.c ****                             }
 559:.\Valve_Control.c ****                             break;
 560:.\Valve_Control.c ****                             case    VSlow:                      //Â∑•Ëøõ
 561:.\Valve_Control.c ****                             {
 562:.\Valve_Control.c ****                                 LED_WRITE(LED_Status[VSlow]);
 563:.\Valve_Control.c ****                             }
 564:.\Valve_Control.c ****                             break;
 565:.\Valve_Control.c ****                             case    VKeep:                      //‰øùÂéã
 566:.\Valve_Control.c ****                             {
 567:.\Valve_Control.c ****                                 LED_WRITE(LED_Status[VKeep]);
 568:.\Valve_Control.c ****                             }
 569:.\Valve_Control.c ****                             break;
 570:.\Valve_Control.c ****                             case    VUnload:                    //Âç∏Ëç∑
ARM GAS  C:\Users\pxc\AppData\Local\Temp\ccofNc3q.s 			page 13


 571:.\Valve_Control.c ****                             {
 572:.\Valve_Control.c ****                                 LED_WRITE(LED_Status[VUnload]);
 573:.\Valve_Control.c ****                             }
 574:.\Valve_Control.c ****                             break;
 575:.\Valve_Control.c ****                             case    VBack:                      //ÂõûÁ®ã
 576:.\Valve_Control.c ****                             {
 577:.\Valve_Control.c ****                                 LED_WRITE(LED_Status[VBack]);
 578:.\Valve_Control.c ****                             }
 579:.\Valve_Control.c ****                             break;
 580:.\Valve_Control.c ****                             case    VStop:                      //ÂÅúÊ≠¢
 581:.\Valve_Control.c ****                             {
 582:.\Valve_Control.c ****                                 LED_WRITE(LED_Status[VStop]);
 583:.\Valve_Control.c ****                             }
 584:.\Valve_Control.c ****                             break;
 585:.\Valve_Control.c ****                             default:
 586:.\Valve_Control.c ****                             break;
 587:.\Valve_Control.c ****                         }
 588:.\Valve_Control.c ****                     }
 589:.\Valve_Control.c ****                 }
 590:.\Valve_Control.c ****                 break;
 591:.\Valve_Control.c ****              //   case Key_valve:
 592:.\Valve_Control.c ****                 {
 593:.\Valve_Control.c ****                     key_time = 0;
 594:.\Valve_Control.c ****                //     while((Read_KeyValue() == Key_valve) && (key_time < 40) )
 595:.\Valve_Control.c ****                     {
 596:.\Valve_Control.c ****                         key_time ++; 
 597:.\Valve_Control.c ****                         CyDelay(1);
 598:.\Valve_Control.c ****                     }              
 599:.\Valve_Control.c ****                     if((key_time >= 39) && (valvech_flag == 0))                             //ÈïøÊå
 600:.\Valve_Control.c ****                     {
 601:.\Valve_Control.c ****                         if( (valve_flag >= 1) && (valve_flag <= 6) )
 602:.\Valve_Control.c ****                         {
 603:.\Valve_Control.c ****                             KA_valve = (~ KA_valve) & 0x01;
 604:.\Valve_Control.c ****                             CutReg.Action[step_flag] = ((CutReg.Action[step_flag] & (~(1 << KA_num)
 605:.\Valve_Control.c ****                             ValveOut(CutReg.Action[step_flag]);
 606:.\Valve_Control.c ****                             valvech_flag = 1;
 607:.\Valve_Control.c ****                         } 
 608:.\Valve_Control.c ****                         if(valve_flag == 0)                                                 //Êú™ÈÄ
 609:.\Valve_Control.c ****                         {
 610:.\Valve_Control.c ****                             valvech_flag = 1;
 611:.\Valve_Control.c ****                         }
 612:.\Valve_Control.c ****                     }
 613:.\Valve_Control.c ****                     
 614:.\Valve_Control.c ****                     if((key_time < 49) || (valvech_flag == 1))                              //Áü≠Êå
 615:.\Valve_Control.c ****                     {
 616:.\Valve_Control.c ****                         if((++valve_flag) == 7)
 617:.\Valve_Control.c ****                             valve_flag = 1;
 618:.\Valve_Control.c ****                         
 619:.\Valve_Control.c ****                         switch(valve_flag)
 620:.\Valve_Control.c ****                         {
 621:.\Valve_Control.c ****                             case    1:                  //KA1
 622:.\Valve_Control.c ****                             {
 623:.\Valve_Control.c ****                                 KA_num = KA1_bit;
 624:.\Valve_Control.c ****                                 KA_valve = ((CutReg.Action[step_flag] >> KA_num) & 0X01);    //ÂæóÂ
 625:.\Valve_Control.c ****                                 KA_valve_temp = KA_valve;
 626:.\Valve_Control.c ****                                 
 627:.\Valve_Control.c ****                                 ValveOut(CutReg.Action[step_flag] | BIT1);                   //ÁÇπ‰
ARM GAS  C:\Users\pxc\AppData\Local\Temp\ccofNc3q.s 			page 14


 628:.\Valve_Control.c ****                             }
 629:.\Valve_Control.c ****                             break;
 630:.\Valve_Control.c ****                             case    2:                  //KA2
 631:.\Valve_Control.c ****                             {
 632:.\Valve_Control.c ****                                 KA_num = KA2_bit;
 633:.\Valve_Control.c ****                                 KA_valve = ((CutReg.Action[step_flag] >> KA_num) & 0X01);    //ÂæóÂ
 634:.\Valve_Control.c ****                                 KA_valve_temp = KA_valve;
 635:.\Valve_Control.c ****                                 
 636:.\Valve_Control.c ****                                 ValveOut(CutReg.Action[step_flag] | BIT2);
 637:.\Valve_Control.c ****                             }
 638:.\Valve_Control.c ****                             break;
 639:.\Valve_Control.c ****                             case    3:                  //KA3
 640:.\Valve_Control.c ****                             {
 641:.\Valve_Control.c ****                                 KA_num = KA3_bit;
 642:.\Valve_Control.c ****                                 KA_valve = ((CutReg.Action[step_flag] >> KA_num) & 0X01);    //ÂæóÂ
 643:.\Valve_Control.c ****                                 KA_valve_temp = KA_valve;
 644:.\Valve_Control.c ****                                 
 645:.\Valve_Control.c ****                                 ValveOut(CutReg.Action[step_flag] | BIT3);
 646:.\Valve_Control.c ****                             }
 647:.\Valve_Control.c ****                             break;
 648:.\Valve_Control.c ****                             case    4:                  //KA4
 649:.\Valve_Control.c ****                             {
 650:.\Valve_Control.c ****                                 KA_num = KA4_bit;
 651:.\Valve_Control.c ****                                 KA_valve = ((CutReg.Action[step_flag] >> KA_num) & 0X01);    //ÂæóÂ
 652:.\Valve_Control.c ****                                 KA_valve_temp = KA_valve;
 653:.\Valve_Control.c ****                                 
 654:.\Valve_Control.c ****                                 ValveOut(CutReg.Action[step_flag] | BIT4);
 655:.\Valve_Control.c ****                             }
 656:.\Valve_Control.c ****                             break;
 657:.\Valve_Control.c ****                             case    5:                  //KA5
 658:.\Valve_Control.c ****                             {
 659:.\Valve_Control.c ****                                 KA_num = KA5_bit;
 660:.\Valve_Control.c ****                                 KA_valve = ((CutReg.Action[step_flag] >> KA_num) & 0X01);    //ÂæóÂ
 661:.\Valve_Control.c ****                                 KA_valve_temp = KA_valve;
 662:.\Valve_Control.c ****                                 
 663:.\Valve_Control.c ****                                 ValveOut(CutReg.Action[step_flag] | BIT5);
 664:.\Valve_Control.c ****                             }
 665:.\Valve_Control.c ****                             break;
 666:.\Valve_Control.c ****                             case    6:                  //KA6
 667:.\Valve_Control.c ****                             {
 668:.\Valve_Control.c ****                                 KA_num = KA6_bit;
 669:.\Valve_Control.c ****                                 KA_valve = ((CutReg.Action[step_flag] >> KA_num) & 0X01);    //ÂæóÂ
 670:.\Valve_Control.c ****                                 KA_valve_temp = KA_valve;
 671:.\Valve_Control.c ****                                 
 672:.\Valve_Control.c ****                                 ValveOut(CutReg.Action[step_flag] | BIT6);
 673:.\Valve_Control.c ****                             }
 674:.\Valve_Control.c ****                             break;
 675:.\Valve_Control.c ****                         }
 676:.\Valve_Control.c ****                     }    
 677:.\Valve_Control.c ****                 }
 678:.\Valve_Control.c ****                 break;
 679:.\Valve_Control.c ****             }
 680:.\Valve_Control.c ****         }
 681:.\Valve_Control.c ****         else
 682:.\Valve_Control.c ****         {
 683:.\Valve_Control.c ****             if(1)//if(key_com == Key_Null)             //Êó†ÊåâÈîÆÊåâ‰∏ãÊó∂Â∞ÜÈòÄÁªÑ‰øÆÊîπÊ†áÂøóÊ∏Ö
 684:.\Valve_Control.c ****             {
ARM GAS  C:\Users\pxc\AppData\Local\Temp\ccofNc3q.s 			page 15


 685:.\Valve_Control.c ****                 valvech_flag = 0;
 686:.\Valve_Control.c ****                 delay_num_count = 400;
 687:.\Valve_Control.c ****             }    
 688:.\Valve_Control.c ****             else
 689:.\Valve_Control.c ****                 delay_num_count = 8;
 690:.\Valve_Control.c **** 
 691:.\Valve_Control.c ****             if( (valve_flag >= 1) && (valve_flag <= 6) )//ÈÄâ‰∏≠ÈòÄÁªÑÊó∂Áõ∏Â∫î‰ΩçÊåáÁ§∫ÁÅØÈó™ÁÉÅÊé
 692:.\Valve_Control.c ****             {
 693:.\Valve_Control.c ****                 delay_num  ++;
 694:.\Valve_Control.c ****                 if(delay_num >= delay_num_count)
 695:.\Valve_Control.c ****                 {                            
 696:.\Valve_Control.c ****                     delay_num = 0;
 697:.\Valve_Control.c ****                     KA_valve_temp = (~ KA_valve_temp)&0x01;                                        
 698:.\Valve_Control.c ****                     KA_state_temp = ((CutReg.Action[step_flag] & (~(1 << KA_num))) | (((uint8)KA_va
 699:.\Valve_Control.c ****                     ValveOut(KA_state_temp);
 700:.\Valve_Control.c ****                 }  
 701:.\Valve_Control.c ****                 CyDelay(1);
 702:.\Valve_Control.c ****             }
 703:.\Valve_Control.c ****             else
 704:.\Valve_Control.c ****             {
 705:.\Valve_Control.c ****                 delay_num = 0;
 706:.\Valve_Control.c ****             }
 707:.\Valve_Control.c ****             
 708:.\Valve_Control.c ****         }      
 709:.\Valve_Control.c ****     }
 710:.\Valve_Control.c **** }
 711:.\Valve_Control.c **** void Read_config(void)
 712:.\Valve_Control.c **** {
 112              		.loc 1 712 0
 113              		.cfi_startproc
 114              		@ args = 0, pretend = 0, frame = 16
 115              		@ frame_needed = 0, uses_anonymous_args = 0
 116 0000 00B5     		push	{lr}
 117              		.cfi_def_cfa_offset 4
 118              		.cfi_offset 14, -4
 119 0002 85B0     		sub	sp, sp, #20
 120              		.cfi_def_cfa_offset 24
 713:.\Valve_Control.c ****         uint8 tempBuf[sizeof(config_para)-1] ;
 714:.\Valve_Control.c ****         EEPROM_Array_Read(eepromArray,tempBuf,sizeof(tempBuf));//ËØªÈòÄÁªÑÈÖçÁΩÆ
 121              		.loc 1 714 0
 122 0004 1048     		ldr	r0, .L11
 123 0006 01A9     		add	r1, sp, #4
 124 0008 0B22     		movs	r2, #11
 125 000a FFF7FEFF 		bl	EEPROM_Array_Read
 126              	.LVL11:
 715:.\Valve_Control.c ****         memcpy(&config_para,tempBuf,sizeof(tempBuf));//----Ê≥®ÊÑèÂ§ßÂ∞è
 127              		.loc 1 715 0
 128 000e 0F4B     		ldr	r3, .L11+4
 129 0010 01AA     		add	r2, sp, #4
 130 0012 03CA     		ldmia	r2!, {r0, r1}
 131 0014 1860     		str	r0, [r3]	@ unaligned
 132 0016 5960     		str	r1, [r3, #4]	@ unaligned
 133 0018 1188     		ldrh	r1, [r2]	@ unaligned
 134 001a 9278     		ldrb	r2, [r2, #2]	@ zero_extendqisi2
 135 001c 1981     		strh	r1, [r3, #8]	@ unaligned
 136 001e 9A72     		strb	r2, [r3, #10]
 716:.\Valve_Control.c ****         CutReg.Action[VFast]   =   config_para.Config_VFast;
ARM GAS  C:\Users\pxc\AppData\Local\Temp\ccofNc3q.s 			page 16


 137              		.loc 1 716 0
 138 0020 1978     		ldrb	r1, [r3]	@ zero_extendqisi2
 139 0022 0B4A     		ldr	r2, .L11+8
 140 0024 1172     		strb	r1, [r2, #8]
 717:.\Valve_Control.c ****         CutReg.Action[VSlow]   =   config_para.Config_VSlow;
 141              		.loc 1 717 0
 142 0026 5978     		ldrb	r1, [r3, #1]	@ zero_extendqisi2
 143 0028 5172     		strb	r1, [r2, #9]
 718:.\Valve_Control.c ****         CutReg.Action[VKeep]   =   config_para.Config_VKeep;
 144              		.loc 1 718 0
 145 002a 9978     		ldrb	r1, [r3, #2]	@ zero_extendqisi2
 146 002c 9172     		strb	r1, [r2, #10]
 719:.\Valve_Control.c ****         CutReg.Action[VUnload] =   config_para.Config_VUnload;
 147              		.loc 1 719 0
 148 002e D978     		ldrb	r1, [r3, #3]	@ zero_extendqisi2
 149 0030 D172     		strb	r1, [r2, #11]
 720:.\Valve_Control.c ****         CutReg.Action[VBack]   =   config_para.Config_VBack;
 150              		.loc 1 720 0
 151 0032 1979     		ldrb	r1, [r3, #4]	@ zero_extendqisi2
 152 0034 1173     		strb	r1, [r2, #12]
 721:.\Valve_Control.c ****         CutReg.Action[VStop]   =   config_para.Config_VStop;
 153              		.loc 1 721 0
 154 0036 5979     		ldrb	r1, [r3, #5]	@ zero_extendqisi2
 155 0038 5173     		strb	r1, [r2, #13]
 722:.\Valve_Control.c ****         CutReg.KeepTime        =   config_para.Config_KeepTime;
 156              		.loc 1 722 0
 157 003a D988     		ldrh	r1, [r3, #6]
 158 003c 1180     		strh	r1, [r2]	@ movhi
 723:.\Valve_Control.c ****         CutReg.UnloadTime      =   config_para.Config_UnloadTime;
 159              		.loc 1 723 0
 160 003e 1B89     		ldrh	r3, [r3, #8]
 161 0040 5380     		strh	r3, [r2, #2]	@ movhi
 724:.\Valve_Control.c **** 
 725:.\Valve_Control.c **** 
 726:.\Valve_Control.c **** }
 162              		.loc 1 726 0
 163 0042 05B0     		add	sp, sp, #20
 164              		.cfi_def_cfa_offset 4
 165              		@ sp needed
 166 0044 5DF804FB 		ldr	pc, [sp], #4
 167              	.L12:
 168              		.align	2
 169              	.L11:
 170 0048 00000000 		.word	.LANCHOR0
 171 004c 00000000 		.word	config_para
 172 0050 00000000 		.word	CutReg
 173              		.cfi_endproc
 174              	.LFE69:
 175              		.size	Read_config, .-Read_config
 176              		.section	.text.Init_Stroke_Timer,"ax",%progbits
 177              		.align	2
 178              		.global	Init_Stroke_Timer
 179              		.thumb
 180              		.thumb_func
 181              		.type	Init_Stroke_Timer, %function
 182              	Init_Stroke_Timer:
 183              	.LFB67:
ARM GAS  C:\Users\pxc\AppData\Local\Temp\ccofNc3q.s 			page 17


 476:.\Valve_Control.c **** 	Clock_1_Start();   
 184              		.loc 1 476 0
 185              		.cfi_startproc
 186              		@ args = 0, pretend = 0, frame = 0
 187              		@ frame_needed = 0, uses_anonymous_args = 0
 188 0000 08B5     		push	{r3, lr}
 189              		.cfi_def_cfa_offset 8
 190              		.cfi_offset 3, -8
 191              		.cfi_offset 14, -4
 477:.\Valve_Control.c ****     
 192              		.loc 1 477 0
 193 0002 FFF7FEFF 		bl	Clock_1_Start
 194              	.LVL12:
 479:.\Valve_Control.c ****     
 195              		.loc 1 479 0
 196 0006 FFF7FEFF 		bl	Timer_1_Start
 197              	.LVL13:
 481:.\Valve_Control.c ****     
 198              		.loc 1 481 0
 199 000a FFF7FEFF 		bl	EEPROM_1_Start
 200              	.LVL14:
 483:.\Valve_Control.c ****     
 201              		.loc 1 483 0
 202 000e FFF7FEFF 		bl	ISR_Stroke_Timer_Start
 203              	.LVL15:
 485:.\Valve_Control.c **** 
 204              		.loc 1 485 0
 205 0012 FFF7FEFF 		bl	Read_config
 206              	.LVL16:
 487:.\Valve_Control.c **** 	CutReg.ModeRunFlag = 0;
 207              		.loc 1 487 0
 208 0016 054B     		ldr	r3, .L15
 209 0018 0022     		movs	r2, #0
 210 001a 1A74     		strb	r2, [r3, #16]
 488:.\Valve_Control.c ****     
 211              		.loc 1 488 0
 212 001c 1A75     		strb	r2, [r3, #20]
 490:.\Valve_Control.c **** 	CutReg.Version = 2000;//V1.001
 213              		.loc 1 490 0
 214 001e 0622     		movs	r2, #6
 215 0020 5A75     		strb	r2, [r3, #21]
 491:.\Valve_Control.c **** 
 216              		.loc 1 491 0
 217 0022 4FF4FA62 		mov	r2, #2000
 218 0026 5A82     		strh	r2, [r3, #18]	@ movhi
 219 0028 08BD     		pop	{r3, pc}
 220              	.L16:
 221 002a 00BF     		.align	2
 222              	.L15:
 223 002c 00000000 		.word	CutReg
 224              		.cfi_endproc
 225              	.LFE67:
 226              		.size	Init_Stroke_Timer, .-Init_Stroke_Timer
 227              		.section	.text.Write_config,"ax",%progbits
 228              		.align	2
 229              		.global	Write_config
 230              		.thumb
ARM GAS  C:\Users\pxc\AppData\Local\Temp\ccofNc3q.s 			page 18


 231              		.thumb_func
 232              		.type	Write_config, %function
 233              	Write_config:
 234              	.LFB70:
 727:.\Valve_Control.c **** void Write_config(void)
 728:.\Valve_Control.c **** {
 235              		.loc 1 728 0
 236              		.cfi_startproc
 237              		@ args = 0, pretend = 0, frame = 16
 238              		@ frame_needed = 0, uses_anonymous_args = 0
 239 0000 10B5     		push	{r4, lr}
 240              		.cfi_def_cfa_offset 8
 241              		.cfi_offset 4, -8
 242              		.cfi_offset 14, -4
 243 0002 84B0     		sub	sp, sp, #16
 244              		.cfi_def_cfa_offset 24
 729:.\Valve_Control.c ****         uint8 tempBuf[sizeof(config_para)-1];
 730:.\Valve_Control.c ****         memcpy(tempBuf,(&config_para),sizeof(config_para)-1);        
 245              		.loc 1 730 0
 246 0004 104C     		ldr	r4, .L19
 247 0006 01AB     		add	r3, sp, #4
 248 0008 2068     		ldr	r0, [r4]	@ unaligned
 249 000a 6168     		ldr	r1, [r4, #4]	@ unaligned
 250 000c 03C3     		stmia	r3!, {r0, r1}
 251 000e 2189     		ldrh	r1, [r4, #8]	@ unaligned
 252 0010 A27A     		ldrb	r2, [r4, #10]	@ zero_extendqisi2
 253 0012 1980     		strh	r1, [r3]	@ unaligned
 254 0014 9A70     		strb	r2, [r3, #2]
 731:.\Valve_Control.c ****         EEPROM_Array_Write(eepromArray,tempBuf,sizeof(tempBuf));
 255              		.loc 1 731 0
 256 0016 0D48     		ldr	r0, .L19+4
 257 0018 01A9     		add	r1, sp, #4
 258 001a 0B22     		movs	r2, #11
 259 001c FFF7FEFF 		bl	EEPROM_Array_Write
 260              	.LVL17:
 732:.\Valve_Control.c ****         CutReg.Action[VFast]   =   config_para.Config_VFast;
 261              		.loc 1 732 0
 262 0020 2278     		ldrb	r2, [r4]	@ zero_extendqisi2
 263 0022 0B4B     		ldr	r3, .L19+8
 264 0024 1A72     		strb	r2, [r3, #8]
 733:.\Valve_Control.c ****         CutReg.Action[VSlow]   =   config_para.Config_VSlow;
 265              		.loc 1 733 0
 266 0026 6278     		ldrb	r2, [r4, #1]	@ zero_extendqisi2
 267 0028 5A72     		strb	r2, [r3, #9]
 734:.\Valve_Control.c ****         CutReg.Action[VKeep]   =   config_para.Config_VKeep;
 268              		.loc 1 734 0
 269 002a A278     		ldrb	r2, [r4, #2]	@ zero_extendqisi2
 270 002c 9A72     		strb	r2, [r3, #10]
 735:.\Valve_Control.c ****         CutReg.Action[VUnload] =   config_para.Config_VUnload;
 271              		.loc 1 735 0
 272 002e E278     		ldrb	r2, [r4, #3]	@ zero_extendqisi2
 273 0030 DA72     		strb	r2, [r3, #11]
 736:.\Valve_Control.c ****         CutReg.Action[VBack]   =   config_para.Config_VBack;
 274              		.loc 1 736 0
 275 0032 2279     		ldrb	r2, [r4, #4]	@ zero_extendqisi2
 276 0034 1A73     		strb	r2, [r3, #12]
 737:.\Valve_Control.c ****         CutReg.Action[VStop]   =   config_para.Config_VStop;
ARM GAS  C:\Users\pxc\AppData\Local\Temp\ccofNc3q.s 			page 19


 277              		.loc 1 737 0
 278 0036 6279     		ldrb	r2, [r4, #5]	@ zero_extendqisi2
 279 0038 5A73     		strb	r2, [r3, #13]
 738:.\Valve_Control.c ****         CutReg.KeepTime        =   config_para.Config_KeepTime;
 280              		.loc 1 738 0
 281 003a E288     		ldrh	r2, [r4, #6]
 282 003c 1A80     		strh	r2, [r3]	@ movhi
 739:.\Valve_Control.c ****         CutReg.UnloadTime      =   config_para.Config_UnloadTime;
 283              		.loc 1 739 0
 284 003e 2289     		ldrh	r2, [r4, #8]
 285 0040 5A80     		strh	r2, [r3, #2]	@ movhi
 740:.\Valve_Control.c ****            
 741:.\Valve_Control.c **** }
 286              		.loc 1 741 0
 287 0042 04B0     		add	sp, sp, #16
 288              		.cfi_def_cfa_offset 8
 289              		@ sp needed
 290 0044 10BD     		pop	{r4, pc}
 291              	.L20:
 292 0046 00BF     		.align	2
 293              	.L19:
 294 0048 00000000 		.word	config_para
 295 004c 00000000 		.word	.LANCHOR0
 296 0050 00000000 		.word	CutReg
 297              		.cfi_endproc
 298              	.LFE70:
 299              		.size	Write_config, .-Write_config
 300              		.section	.text.LCD_DISPLAY,"ax",%progbits
 301              		.align	2
 302              		.global	LCD_DISPLAY
 303              		.thumb
 304              		.thumb_func
 305              		.type	LCD_DISPLAY, %function
 306              	LCD_DISPLAY:
 307              	.LFB71:
 742:.\Valve_Control.c **** 
 743:.\Valve_Control.c **** void LCD_DISPLAY(uint8 value)
 744:.\Valve_Control.c **** {
 308              		.loc 1 744 0
 309              		.cfi_startproc
 310              		@ args = 0, pretend = 0, frame = 0
 311              		@ frame_needed = 0, uses_anonymous_args = 0
 312              	.LVL18:
 313 0000 08B5     		push	{r3, lr}
 314              		.cfi_def_cfa_offset 8
 315              		.cfi_offset 3, -8
 316              		.cfi_offset 14, -4
 745:.\Valve_Control.c ****     
 746:.\Valve_Control.c ****     if(lastValue != value)
 317              		.loc 1 746 0
 318 0002 2A4B     		ldr	r3, .L30
 319 0004 1B68     		ldr	r3, [r3]
 320 0006 9842     		cmp	r0, r3
 321 0008 4FD0     		beq	.L21
 747:.\Valve_Control.c ****     {
 748:.\Valve_Control.c ****         //LCD_Char_1_WriteControl(0x01);
 749:.\Valve_Control.c ****         lastValue = value;
ARM GAS  C:\Users\pxc\AppData\Local\Temp\ccofNc3q.s 			page 20


 322              		.loc 1 749 0
 323 000a 284B     		ldr	r3, .L30
 324 000c 1860     		str	r0, [r3]
 750:.\Valve_Control.c ****     }
 751:.\Valve_Control.c **** 
 752:.\Valve_Control.c ****     else 
 753:.\Valve_Control.c ****     {
 754:.\Valve_Control.c ****         return;
 755:.\Valve_Control.c ****     }
 756:.\Valve_Control.c ****     if(value == LED_Status[VFast] )
 325              		.loc 1 756 0
 326 000e 1B79     		ldrb	r3, [r3, #4]	@ zero_extendqisi2
 327 0010 8342     		cmp	r3, r0
 328 0012 07D1     		bne	.L23
 757:.\Valve_Control.c ****     {
 758:.\Valve_Control.c ****        LCD_Char_1_Position(1,0) ;
 329              		.loc 1 758 0
 330 0014 0120     		movs	r0, #1
 331              	.LVL19:
 332 0016 0021     		movs	r1, #0
 333 0018 FFF7FEFF 		bl	LCD_Char_1_Position
 334              	.LVL20:
 759:.\Valve_Control.c ****        LCD_Char_1_PrintString("  Fast  ");
 335              		.loc 1 759 0
 336 001c 2448     		ldr	r0, .L30+4
 337 001e FFF7FEFF 		bl	LCD_Char_1_PrintString
 338              	.LVL21:
 339 0022 08BD     		pop	{r3, pc}
 340              	.LVL22:
 341              	.L23:
 760:.\Valve_Control.c ****     }
 761:.\Valve_Control.c ****     else if(value == LED_Status[VSlow] )
 342              		.loc 1 761 0
 343 0024 214B     		ldr	r3, .L30
 344 0026 5B79     		ldrb	r3, [r3, #5]	@ zero_extendqisi2
 345 0028 8342     		cmp	r3, r0
 346 002a 07D1     		bne	.L24
 762:.\Valve_Control.c ****     {
 763:.\Valve_Control.c ****         LCD_Char_1_Position(1,0) ;
 347              		.loc 1 763 0
 348 002c 0120     		movs	r0, #1
 349              	.LVL23:
 350 002e 0021     		movs	r1, #0
 351 0030 FFF7FEFF 		bl	LCD_Char_1_Position
 352              	.LVL24:
 764:.\Valve_Control.c ****         LCD_Char_1_PrintString("  Slow  ");
 353              		.loc 1 764 0
 354 0034 1F48     		ldr	r0, .L30+8
 355 0036 FFF7FEFF 		bl	LCD_Char_1_PrintString
 356              	.LVL25:
 357 003a 08BD     		pop	{r3, pc}
 358              	.LVL26:
 359              	.L24:
 765:.\Valve_Control.c ****     }
 766:.\Valve_Control.c ****        else if(value == LED_Status[VKeep] )
 360              		.loc 1 766 0
 361 003c 1B4B     		ldr	r3, .L30
ARM GAS  C:\Users\pxc\AppData\Local\Temp\ccofNc3q.s 			page 21


 362 003e 9B79     		ldrb	r3, [r3, #6]	@ zero_extendqisi2
 363 0040 8342     		cmp	r3, r0
 364 0042 07D1     		bne	.L25
 767:.\Valve_Control.c ****     {
 768:.\Valve_Control.c ****         LCD_Char_1_Position(1,0) ;
 365              		.loc 1 768 0
 366 0044 0120     		movs	r0, #1
 367              	.LVL27:
 368 0046 0021     		movs	r1, #0
 369 0048 FFF7FEFF 		bl	LCD_Char_1_Position
 370              	.LVL28:
 769:.\Valve_Control.c ****         LCD_Char_1_PrintString("  Keep  ");
 371              		.loc 1 769 0
 372 004c 1A48     		ldr	r0, .L30+12
 373 004e FFF7FEFF 		bl	LCD_Char_1_PrintString
 374              	.LVL29:
 375 0052 08BD     		pop	{r3, pc}
 376              	.LVL30:
 377              	.L25:
 770:.\Valve_Control.c ****     }
 771:.\Valve_Control.c ****        else if(value == LED_Status[VUnload] )
 378              		.loc 1 771 0
 379 0054 154B     		ldr	r3, .L30
 380 0056 DB79     		ldrb	r3, [r3, #7]	@ zero_extendqisi2
 381 0058 8342     		cmp	r3, r0
 382 005a 07D1     		bne	.L26
 772:.\Valve_Control.c ****     {
 773:.\Valve_Control.c ****         LCD_Char_1_Position(1,0) ;
 383              		.loc 1 773 0
 384 005c 0120     		movs	r0, #1
 385              	.LVL31:
 386 005e 0021     		movs	r1, #0
 387 0060 FFF7FEFF 		bl	LCD_Char_1_Position
 388              	.LVL32:
 774:.\Valve_Control.c ****         LCD_Char_1_PrintString(" Unload");
 389              		.loc 1 774 0
 390 0064 1548     		ldr	r0, .L30+16
 391 0066 FFF7FEFF 		bl	LCD_Char_1_PrintString
 392              	.LVL33:
 393 006a 08BD     		pop	{r3, pc}
 394              	.LVL34:
 395              	.L26:
 775:.\Valve_Control.c ****     }
 776:.\Valve_Control.c ****        else if(value == LED_Status[VStop] )
 396              		.loc 1 776 0
 397 006c 0F4B     		ldr	r3, .L30
 398 006e 5B7A     		ldrb	r3, [r3, #9]	@ zero_extendqisi2
 399 0070 8342     		cmp	r3, r0
 400 0072 07D1     		bne	.L27
 777:.\Valve_Control.c ****     {
 778:.\Valve_Control.c ****         LCD_Char_1_Position(1,0) ;
 401              		.loc 1 778 0
 402 0074 0120     		movs	r0, #1
 403              	.LVL35:
 404 0076 0021     		movs	r1, #0
 405 0078 FFF7FEFF 		bl	LCD_Char_1_Position
 406              	.LVL36:
ARM GAS  C:\Users\pxc\AppData\Local\Temp\ccofNc3q.s 			page 22


 779:.\Valve_Control.c ****         LCD_Char_1_PrintString("  Stop  ");
 407              		.loc 1 779 0
 408 007c 1048     		ldr	r0, .L30+20
 409 007e FFF7FEFF 		bl	LCD_Char_1_PrintString
 410              	.LVL37:
 411 0082 08BD     		pop	{r3, pc}
 412              	.LVL38:
 413              	.L27:
 780:.\Valve_Control.c ****     }
 781:.\Valve_Control.c ****          else if(value == LED_Status[VBack] )
 414              		.loc 1 781 0
 415 0084 094B     		ldr	r3, .L30
 416 0086 1B7A     		ldrb	r3, [r3, #8]	@ zero_extendqisi2
 417 0088 8342     		cmp	r3, r0
 418 008a 07D1     		bne	.L28
 782:.\Valve_Control.c ****     {
 783:.\Valve_Control.c ****         LCD_Char_1_Position(1,0) ;
 419              		.loc 1 783 0
 420 008c 0120     		movs	r0, #1
 421              	.LVL39:
 422 008e 0021     		movs	r1, #0
 423 0090 FFF7FEFF 		bl	LCD_Char_1_Position
 424              	.LVL40:
 784:.\Valve_Control.c ****         LCD_Char_1_PrintString("  Back  ");
 425              		.loc 1 784 0
 426 0094 0B48     		ldr	r0, .L30+24
 427 0096 FFF7FEFF 		bl	LCD_Char_1_PrintString
 428              	.LVL41:
 429 009a 08BD     		pop	{r3, pc}
 430              	.LVL42:
 431              	.L28:
 785:.\Valve_Control.c ****     }
 786:.\Valve_Control.c ****     else
 787:.\Valve_Control.c ****     {
 788:.\Valve_Control.c ****         LCD_Char_1_Position(1,0) ;
 432              		.loc 1 788 0
 433 009c 0120     		movs	r0, #1
 434              	.LVL43:
 435 009e 0021     		movs	r1, #0
 436 00a0 FFF7FEFF 		bl	LCD_Char_1_Position
 437              	.LVL44:
 789:.\Valve_Control.c ****         LCD_Char_1_PrintString("  Error ");
 438              		.loc 1 789 0
 439 00a4 0848     		ldr	r0, .L30+28
 440 00a6 FFF7FEFF 		bl	LCD_Char_1_PrintString
 441              	.LVL45:
 442              	.L21:
 443 00aa 08BD     		pop	{r3, pc}
 444              	.L31:
 445              		.align	2
 446              	.L30:
 447 00ac 00000000 		.word	.LANCHOR1
 448 00b0 00000000 		.word	.LC0
 449 00b4 0C000000 		.word	.LC1
 450 00b8 18000000 		.word	.LC2
 451 00bc 24000000 		.word	.LC3
 452 00c0 2C000000 		.word	.LC4
ARM GAS  C:\Users\pxc\AppData\Local\Temp\ccofNc3q.s 			page 23


 453 00c4 38000000 		.word	.LC5
 454 00c8 44000000 		.word	.LC6
 455              		.cfi_endproc
 456              	.LFE71:
 457              		.size	LCD_DISPLAY, .-LCD_DISPLAY
 458              		.section	.text.LCD_DISPLAY_MODE,"ax",%progbits
 459              		.align	2
 460              		.global	LCD_DISPLAY_MODE
 461              		.thumb
 462              		.thumb_func
 463              		.type	LCD_DISPLAY_MODE, %function
 464              	LCD_DISPLAY_MODE:
 465              	.LFB72:
 790:.\Valve_Control.c ****     } 
 791:.\Valve_Control.c **** 
 792:.\Valve_Control.c **** }
 793:.\Valve_Control.c **** void LCD_DISPLAY_MODE()
 794:.\Valve_Control.c **** {
 466              		.loc 1 794 0
 467              		.cfi_startproc
 468              		@ args = 0, pretend = 0, frame = 0
 469              		@ frame_needed = 0, uses_anonymous_args = 0
 470 0000 08B5     		push	{r3, lr}
 471              		.cfi_def_cfa_offset 8
 472              		.cfi_offset 3, -8
 473              		.cfi_offset 14, -4
 795:.\Valve_Control.c ****     if(lastMode  != CutMode())
 474              		.loc 1 795 0
 475 0002 FFF7FEFF 		bl	Status_Reg_1_Read
 476              	.LVL46:
 477 0006 00F06000 		and	r0, r0, #96
 478 000a 1E4B     		ldr	r3, .L38
 479 000c DB68     		ldr	r3, [r3, #12]
 480 000e 9842     		cmp	r0, r3
 481 0010 36D0     		beq	.L32
 796:.\Valve_Control.c ****     {
 797:.\Valve_Control.c ****     //LCD_Char_1_WriteControl(0x01);
 798:.\Valve_Control.c ****       lastMode = CutMode();
 482              		.loc 1 798 0
 483 0012 FFF7FEFF 		bl	Status_Reg_1_Read
 484              	.LVL47:
 485 0016 00F06000 		and	r0, r0, #96
 486 001a 1A4B     		ldr	r3, .L38
 487 001c D860     		str	r0, [r3, #12]
 799:.\Valve_Control.c ****     }
 800:.\Valve_Control.c ****     else 
 801:.\Valve_Control.c ****     {
 802:.\Valve_Control.c ****         return;
 803:.\Valve_Control.c ****     }
 804:.\Valve_Control.c ****     if(CutMode() == CUTCMODE)
 488              		.loc 1 804 0
 489 001e FFF7FEFF 		bl	Status_Reg_1_Read
 490              	.LVL48:
 491 0022 00F06000 		and	r0, r0, #96
 492 0026 4028     		cmp	r0, #64
 493 0028 07D1     		bne	.L34
 805:.\Valve_Control.c ****     {
ARM GAS  C:\Users\pxc\AppData\Local\Temp\ccofNc3q.s 			page 24


 806:.\Valve_Control.c ****         LCD_Char_1_Position(0,1) ;
 494              		.loc 1 806 0
 495 002a 0020     		movs	r0, #0
 496 002c 0121     		movs	r1, #1
 497 002e FFF7FEFF 		bl	LCD_Char_1_Position
 498              	.LVL49:
 807:.\Valve_Control.c ****         LCD_Char_1_PrintString("C-MODE");
 499              		.loc 1 807 0
 500 0032 1548     		ldr	r0, .L38+4
 501 0034 FFF7FEFF 		bl	LCD_Char_1_PrintString
 502              	.LVL50:
 503 0038 08BD     		pop	{r3, pc}
 504              	.L34:
 808:.\Valve_Control.c ****     }
 809:.\Valve_Control.c ****     else if(CutMode() == CUTJMODE)
 505              		.loc 1 809 0
 506 003a FFF7FEFF 		bl	Status_Reg_1_Read
 507              	.LVL51:
 508 003e 00F06000 		and	r0, r0, #96
 509 0042 6028     		cmp	r0, #96
 510 0044 07D1     		bne	.L35
 810:.\Valve_Control.c ****     {
 811:.\Valve_Control.c ****         LCD_Char_1_Position(0,1) ;
 511              		.loc 1 811 0
 512 0046 0020     		movs	r0, #0
 513 0048 0121     		movs	r1, #1
 514 004a FFF7FEFF 		bl	LCD_Char_1_Position
 515              	.LVL52:
 812:.\Valve_Control.c ****         LCD_Char_1_PrintString("J-MODE");
 516              		.loc 1 812 0
 517 004e 0F48     		ldr	r0, .L38+8
 518 0050 FFF7FEFF 		bl	LCD_Char_1_PrintString
 519              	.LVL53:
 520 0054 08BD     		pop	{r3, pc}
 521              	.L35:
 813:.\Valve_Control.c ****     }
 814:.\Valve_Control.c ****     else if(CutMode() == CUTSMODE)
 522              		.loc 1 814 0
 523 0056 FFF7FEFF 		bl	Status_Reg_1_Read
 524              	.LVL54:
 525 005a 00F06000 		and	r0, r0, #96
 526 005e 2028     		cmp	r0, #32
 527 0060 07D1     		bne	.L36
 815:.\Valve_Control.c ****     {
 816:.\Valve_Control.c ****         LCD_Char_1_Position(0,1) ;
 528              		.loc 1 816 0
 529 0062 0020     		movs	r0, #0
 530 0064 0121     		movs	r1, #1
 531 0066 FFF7FEFF 		bl	LCD_Char_1_Position
 532              	.LVL55:
 817:.\Valve_Control.c ****         LCD_Char_1_PrintString("S-MODE");
 533              		.loc 1 817 0
 534 006a 0948     		ldr	r0, .L38+12
 535 006c FFF7FEFF 		bl	LCD_Char_1_PrintString
 536              	.LVL56:
 537 0070 08BD     		pop	{r3, pc}
 538              	.L36:
ARM GAS  C:\Users\pxc\AppData\Local\Temp\ccofNc3q.s 			page 25


 818:.\Valve_Control.c ****     }
 819:.\Valve_Control.c ****     else 
 820:.\Valve_Control.c ****     {
 821:.\Valve_Control.c ****         LCD_Char_1_Position(0,1);
 539              		.loc 1 821 0
 540 0072 0020     		movs	r0, #0
 541 0074 0121     		movs	r1, #1
 542 0076 FFF7FEFF 		bl	LCD_Char_1_Position
 543              	.LVL57:
 822:.\Valve_Control.c ****         LCD_Char_1_PrintString("UNKNOWN");
 544              		.loc 1 822 0
 545 007a 0648     		ldr	r0, .L38+16
 546 007c FFF7FEFF 		bl	LCD_Char_1_PrintString
 547              	.LVL58:
 548              	.L32:
 549 0080 08BD     		pop	{r3, pc}
 550              	.L39:
 551 0082 00BF     		.align	2
 552              	.L38:
 553 0084 00000000 		.word	.LANCHOR1
 554 0088 50000000 		.word	.LC7
 555 008c 58000000 		.word	.LC8
 556 0090 60000000 		.word	.LC9
 557 0094 68000000 		.word	.LC10
 558              		.cfi_endproc
 559              	.LFE72:
 560              		.size	LCD_DISPLAY_MODE, .-LCD_DISPLAY_MODE
 561              		.section	.text.timer_10ms,"ax",%progbits
 562              		.align	2
 563              		.global	timer_10ms
 564              		.thumb
 565              		.thumb_func
 566              		.type	timer_10ms, %function
 567              	timer_10ms:
 568              	.LFB63:
  68:.\Valve_Control.c **** 	//Stroke_Timer_STATUS;
 569              		.loc 1 68 0
 570              		.cfi_startproc
 571              		@ args = 0, pretend = 0, frame = 0
 572              		@ frame_needed = 0, uses_anonymous_args = 0
  73:.\Valve_Control.c ****  
 573              		.loc 1 73 0
 574 0000 0022     		movs	r2, #0
 575 0002 AE4B     		ldr	r3, .L59
 576 0004 1A60     		str	r2, [r3]
  75:.\Valve_Control.c ****     {
 577              		.loc 1 75 0
 578 0006 AE4B     		ldr	r3, .L59+4
 579 0008 1B78     		ldrb	r3, [r3]	@ zero_extendqisi2
 580 000a 402B     		cmp	r3, #64
 581 000c 08D1     		bne	.L41
  75:.\Valve_Control.c ****     {
 582              		.loc 1 75 0 is_stmt 0 discriminator 2
 583 000e AD4A     		ldr	r2, .L59+8
 584 0010 D27D     		ldrb	r2, [r2, #23]	@ zero_extendqisi2
 585 0012 D2B2     		uxtb	r2, r2
 586 0014 112A     		cmp	r2, #17
ARM GAS  C:\Users\pxc\AppData\Local\Temp\ccofNc3q.s 			page 26


 587 0016 40F05D81 		bne	.L58
  75:.\Valve_Control.c ****     {
 588              		.loc 1 75 0 discriminator 3
 589 001a 882B     		cmp	r3, #136
 590 001c 00F05A81 		beq	.L58
 591              	.L41:
  75:.\Valve_Control.c ****     {
 592              		.loc 1 75 0 discriminator 4
 593 0020 A02B     		cmp	r3, #160
 594 0022 00F05781 		beq	.L58
  68:.\Valve_Control.c **** 	//Stroke_Timer_STATUS;
 595              		.loc 1 68 0 is_stmt 1
 596 0026 10B5     		push	{r4, lr}
 597              		.cfi_def_cfa_offset 8
 598              		.cfi_offset 4, -8
 599              		.cfi_offset 14, -4
  78:.\Valve_Control.c **** 		{
 600              		.loc 1 78 0
 601 0028 FFF7FEFF 		bl	Status_Reg_1_Read
 602              	.LVL59:
 603 002c 00F06000 		and	r0, r0, #96
 604 0030 2028     		cmp	r0, #32
 605 0032 22D1     		bne	.L43
  78:.\Valve_Control.c **** 		{
 606              		.loc 1 78 0 is_stmt 0 discriminator 1
 607 0034 A34B     		ldr	r3, .L59+8
 608 0036 5B7C     		ldrb	r3, [r3, #17]	@ zero_extendqisi2
 609 0038 DBB2     		uxtb	r3, r3
 610 003a 022B     		cmp	r3, #2
 611 003c 1DD8     		bhi	.L43
  78:.\Valve_Control.c **** 		{
 612              		.loc 1 78 0 discriminator 2
 613 003e FFF7FEFF 		bl	Status_Reg_1_Read
 614              	.LVL60:
 615 0042 10F0080F 		tst	r0, #8
 616 0046 18D0     		beq	.L43
  80:.\Valve_Control.c **** 			if(!FootStart())
 617              		.loc 1 80 0 is_stmt 1
 618 0048 0520     		movs	r0, #5
 619 004a FFF7FEFF 		bl	CyDelay
 620              	.LVL61:
  81:.\Valve_Control.c **** 			{
 621              		.loc 1 81 0
 622 004e FFF7FEFF 		bl	Status_Reg_1_Read
 623              	.LVL62:
 624 0052 10F0080F 		tst	r0, #8
 625 0056 10D0     		beq	.L43
  83:.\Valve_Control.c ****                 LED_WRITE(LED_Status[VBack]);
 626              		.loc 1 83 0
 627 0058 9A4C     		ldr	r4, .L59+8
 628 005a 207B     		ldrb	r0, [r4, #12]	@ zero_extendqisi2
 629 005c FFF7FEFF 		bl	Control_Reg_1_Write
 630              	.LVL63:
 631 0060 227B     		ldrb	r2, [r4, #12]	@ zero_extendqisi2
 632 0062 994B     		ldr	r3, .L59+12
 633 0064 1A70     		strb	r2, [r3]
  84:.\Valve_Control.c **** 				CutReg.CutTimeStatus = VBack;
ARM GAS  C:\Users\pxc\AppData\Local\Temp\ccofNc3q.s 			page 27


 634              		.loc 1 84 0
 635 0066 994B     		ldr	r3, .L59+16
 636 0068 187A     		ldrb	r0, [r3, #8]	@ zero_extendqisi2
 637 006a 994B     		ldr	r3, .L59+20
 638 006c 1870     		strb	r0, [r3]
 639 006e FFF7FEFF 		bl	LCD_DISPLAY
 640              	.LVL64:
 641 0072 FFF7FEFF 		bl	LCD_DISPLAY_MODE
 642              	.LVL65:
  85:.\Valve_Control.c ****               //CutReg.OneWorkFinshState = One_Work_Runing;   /* Â¢ûÂä†Âä®‰ΩúÂÆåÊàêÊ†áÂøó20160820*/
 643              		.loc 1 85 0
 644 0076 0423     		movs	r3, #4
 645 0078 6374     		strb	r3, [r4, #17]
 646              	.L43:
  91:.\Valve_Control.c **** 		{
 647              		.loc 1 91 0
 648 007a 924B     		ldr	r3, .L59+8
 649 007c 5B7C     		ldrb	r3, [r3, #17]	@ zero_extendqisi2
 650 007e DBB2     		uxtb	r3, r3
 651 0080 052B     		cmp	r3, #5
 652 0082 00F21981 		bhi	.L40
 653 0086 DFE813F0 		tbh	[pc, r3, lsl #1]
 654              	.L45:
 655 008a 0600     		.2byte	(.L44-.L45)/2
 656 008c 3400     		.2byte	(.L46-.L45)/2
 657 008e 5F00     		.2byte	(.L47-.L45)/2
 658 0090 9000     		.2byte	(.L48-.L45)/2
 659 0092 C100     		.2byte	(.L49-.L45)/2
 660 0094 F300     		.2byte	(.L50-.L45)/2
 661              		.p2align 1
 662              	.L44:
  94:.\Valve_Control.c ****            CutReg.OneWorkFinshState = One_Work_Runing;   /* Â¢ûÂä†Âä®‰ΩúÂÆåÊàêÊ†áÂøó20160820*/
 663              		.loc 1 94 0
 664 0096 FFF7FEFF 		bl	Read_config
 665              	.LVL66:
  95:.\Valve_Control.c **** 			if(DownPoint())
 666              		.loc 1 95 0
 667 009a 1122     		movs	r2, #17
 668 009c 894B     		ldr	r3, .L59+8
 669 009e DA75     		strb	r2, [r3, #23]
  96:.\Valve_Control.c **** 			{
 670              		.loc 1 96 0
 671 00a0 FFF7FEFF 		bl	Status_Reg_1_Read
 672              	.LVL67:
 673 00a4 10F0010F 		tst	r0, #1
 674 00a8 11D1     		bne	.L51
  98:.\Valve_Control.c ****                 LED_WRITE(LED_Status[VSlow]);
 675              		.loc 1 98 0
 676 00aa 864C     		ldr	r4, .L59+8
 677 00ac 607A     		ldrb	r0, [r4, #9]	@ zero_extendqisi2
 678 00ae FFF7FEFF 		bl	Control_Reg_1_Write
 679              	.LVL68:
 680 00b2 627A     		ldrb	r2, [r4, #9]	@ zero_extendqisi2
 681 00b4 844B     		ldr	r3, .L59+12
 682 00b6 1A70     		strb	r2, [r3]
  99:.\Valve_Control.c **** 				CutReg.CutTimeStatus = VSlow;
 683              		.loc 1 99 0
ARM GAS  C:\Users\pxc\AppData\Local\Temp\ccofNc3q.s 			page 28


 684 00b8 844B     		ldr	r3, .L59+16
 685 00ba 5879     		ldrb	r0, [r3, #5]	@ zero_extendqisi2
 686 00bc 844B     		ldr	r3, .L59+20
 687 00be 1870     		strb	r0, [r3]
 688 00c0 FFF7FEFF 		bl	LCD_DISPLAY
 689              	.LVL69:
 690 00c4 FFF7FEFF 		bl	LCD_DISPLAY_MODE
 691              	.LVL70:
 100:.\Valve_Control.c **** 			}
 692              		.loc 1 100 0
 693 00c8 0123     		movs	r3, #1
 694 00ca 6374     		strb	r3, [r4, #17]
 695 00cc 10BD     		pop	{r4, pc}
 696              	.L51:
 104:.\Valve_Control.c ****                 LED_WRITE(LED_Status[VFast]);
 697              		.loc 1 104 0
 698 00ce 7D4C     		ldr	r4, .L59+8
 699 00d0 207A     		ldrb	r0, [r4, #8]	@ zero_extendqisi2
 700 00d2 FFF7FEFF 		bl	Control_Reg_1_Write
 701              	.LVL71:
 702 00d6 227A     		ldrb	r2, [r4, #8]	@ zero_extendqisi2
 703 00d8 7B4B     		ldr	r3, .L59+12
 704 00da 1A70     		strb	r2, [r3]
 105:.\Valve_Control.c **** 				CutReg.CutTimeStatus = VFast;
 705              		.loc 1 105 0
 706 00dc 7B4B     		ldr	r3, .L59+16
 707 00de 1879     		ldrb	r0, [r3, #4]	@ zero_extendqisi2
 708 00e0 7B4B     		ldr	r3, .L59+20
 709 00e2 1870     		strb	r0, [r3]
 710 00e4 FFF7FEFF 		bl	LCD_DISPLAY
 711              	.LVL72:
 712 00e8 FFF7FEFF 		bl	LCD_DISPLAY_MODE
 713              	.LVL73:
 106:.\Valve_Control.c **** 			}
 714              		.loc 1 106 0
 715 00ec 0023     		movs	r3, #0
 716 00ee 6374     		strb	r3, [r4, #17]
 717 00f0 10BD     		pop	{r4, pc}
 718              	.L46:
 111:.\Valve_Control.c **** 			{
 719              		.loc 1 111 0
 720 00f2 FFF7FEFF 		bl	Status_Reg_1_Read
 721              	.LVL74:
 722 00f6 10F0010F 		tst	r0, #1
 723 00fa 13D1     		bne	.L52
 113:.\Valve_Control.c ****                 LED_WRITE(LED_Status[VKeep]);
 724              		.loc 1 113 0
 725 00fc 714C     		ldr	r4, .L59+8
 726 00fe A07A     		ldrb	r0, [r4, #10]	@ zero_extendqisi2
 727 0100 FFF7FEFF 		bl	Control_Reg_1_Write
 728              	.LVL75:
 729 0104 A27A     		ldrb	r2, [r4, #10]	@ zero_extendqisi2
 730 0106 704B     		ldr	r3, .L59+12
 731 0108 1A70     		strb	r2, [r3]
 114:.\Valve_Control.c **** 				CutReg.CutTimeStatus = VKeep;
 732              		.loc 1 114 0
 733 010a 704B     		ldr	r3, .L59+16
ARM GAS  C:\Users\pxc\AppData\Local\Temp\ccofNc3q.s 			page 29


 734 010c 9879     		ldrb	r0, [r3, #6]	@ zero_extendqisi2
 735 010e 704B     		ldr	r3, .L59+20
 736 0110 1870     		strb	r0, [r3]
 737 0112 FFF7FEFF 		bl	LCD_DISPLAY
 738              	.LVL76:
 739 0116 FFF7FEFF 		bl	LCD_DISPLAY_MODE
 740              	.LVL77:
 115:.\Valve_Control.c **** 				CutReg.Cnt = 0;
 741              		.loc 1 115 0
 742 011a 0223     		movs	r3, #2
 743 011c 6374     		strb	r3, [r4, #17]
 116:.\Valve_Control.c **** 			}
 744              		.loc 1 116 0
 745 011e 0023     		movs	r3, #0
 746 0120 E381     		strh	r3, [r4, #14]	@ movhi
 747 0122 10BD     		pop	{r4, pc}
 748              	.L52:
 120:.\Valve_Control.c ****                 LED_WRITE(LED_Status[VFast]);
 749              		.loc 1 120 0
 750 0124 674C     		ldr	r4, .L59+8
 751 0126 207A     		ldrb	r0, [r4, #8]	@ zero_extendqisi2
 752 0128 FFF7FEFF 		bl	Control_Reg_1_Write
 753              	.LVL78:
 754 012c 227A     		ldrb	r2, [r4, #8]	@ zero_extendqisi2
 755 012e 664B     		ldr	r3, .L59+12
 756 0130 1A70     		strb	r2, [r3]
 121:.\Valve_Control.c **** 				CutReg.CutTimeStatus = VFast;
 757              		.loc 1 121 0
 758 0132 664B     		ldr	r3, .L59+16
 759 0134 1879     		ldrb	r0, [r3, #4]	@ zero_extendqisi2
 760 0136 664B     		ldr	r3, .L59+20
 761 0138 1870     		strb	r0, [r3]
 762 013a FFF7FEFF 		bl	LCD_DISPLAY
 763              	.LVL79:
 764 013e FFF7FEFF 		bl	LCD_DISPLAY_MODE
 765              	.LVL80:
 122:.\Valve_Control.c **** 			}
 766              		.loc 1 122 0
 767 0142 0023     		movs	r3, #0
 768 0144 6374     		strb	r3, [r4, #17]
 769 0146 10BD     		pop	{r4, pc}
 770              	.L47:
 127:.\Valve_Control.c **** 			if(CutReg.Cnt >= CutReg.KeepTime)
 771              		.loc 1 127 0
 772 0148 5E4A     		ldr	r2, .L59+8
 773 014a D389     		ldrh	r3, [r2, #14]
 774 014c 0133     		adds	r3, r3, #1
 775 014e 9BB2     		uxth	r3, r3
 776 0150 D381     		strh	r3, [r2, #14]	@ movhi
 128:.\Valve_Control.c **** 			{
 777              		.loc 1 128 0
 778 0152 D189     		ldrh	r1, [r2, #14]
 779 0154 89B2     		uxth	r1, r1
 780 0156 1388     		ldrh	r3, [r2]
 781 0158 9BB2     		uxth	r3, r3
 782 015a 9942     		cmp	r1, r3
 783 015c 13D3     		bcc	.L53
ARM GAS  C:\Users\pxc\AppData\Local\Temp\ccofNc3q.s 			page 30


 130:.\Valve_Control.c **** 				ValveOut(CutReg.Action[VUnload]);
 784              		.loc 1 130 0
 785 015e 1446     		mov	r4, r2
 786 0160 0023     		movs	r3, #0
 787 0162 D381     		strh	r3, [r2, #14]	@ movhi
 131:.\Valve_Control.c ****                 LED_WRITE(LED_Status[VUnload]);
 788              		.loc 1 131 0
 789 0164 D07A     		ldrb	r0, [r2, #11]	@ zero_extendqisi2
 790 0166 FFF7FEFF 		bl	Control_Reg_1_Write
 791              	.LVL81:
 792 016a E27A     		ldrb	r2, [r4, #11]	@ zero_extendqisi2
 793 016c 564B     		ldr	r3, .L59+12
 794 016e 1A70     		strb	r2, [r3]
 132:.\Valve_Control.c **** 				CutReg.CutTimeStatus = VUnload;
 795              		.loc 1 132 0
 796 0170 564B     		ldr	r3, .L59+16
 797 0172 D879     		ldrb	r0, [r3, #7]	@ zero_extendqisi2
 798 0174 564B     		ldr	r3, .L59+20
 799 0176 1870     		strb	r0, [r3]
 800 0178 FFF7FEFF 		bl	LCD_DISPLAY
 801              	.LVL82:
 802 017c FFF7FEFF 		bl	LCD_DISPLAY_MODE
 803              	.LVL83:
 133:.\Valve_Control.c **** 			}
 804              		.loc 1 133 0
 805 0180 0323     		movs	r3, #3
 806 0182 6374     		strb	r3, [r4, #17]
 807 0184 10BD     		pop	{r4, pc}
 808              	.L53:
 137:.\Valve_Control.c ****                 LED_WRITE(LED_Status[VKeep]);
 809              		.loc 1 137 0
 810 0186 4F4C     		ldr	r4, .L59+8
 811 0188 A07A     		ldrb	r0, [r4, #10]	@ zero_extendqisi2
 812 018a FFF7FEFF 		bl	Control_Reg_1_Write
 813              	.LVL84:
 814 018e A27A     		ldrb	r2, [r4, #10]	@ zero_extendqisi2
 815 0190 4D4B     		ldr	r3, .L59+12
 816 0192 1A70     		strb	r2, [r3]
 138:.\Valve_Control.c **** 				CutReg.CutTimeStatus = VKeep;
 817              		.loc 1 138 0
 818 0194 4D4B     		ldr	r3, .L59+16
 819 0196 9879     		ldrb	r0, [r3, #6]	@ zero_extendqisi2
 820 0198 4D4B     		ldr	r3, .L59+20
 821 019a 1870     		strb	r0, [r3]
 822 019c FFF7FEFF 		bl	LCD_DISPLAY
 823              	.LVL85:
 824 01a0 FFF7FEFF 		bl	LCD_DISPLAY_MODE
 825              	.LVL86:
 139:.\Valve_Control.c **** 			}
 826              		.loc 1 139 0
 827 01a4 0223     		movs	r3, #2
 828 01a6 6374     		strb	r3, [r4, #17]
 829 01a8 10BD     		pop	{r4, pc}
 830              	.L48:
 144:.\Valve_Control.c **** 			if(CutReg.Cnt >= CutReg.UnloadTime)
 831              		.loc 1 144 0
 832 01aa 464A     		ldr	r2, .L59+8
ARM GAS  C:\Users\pxc\AppData\Local\Temp\ccofNc3q.s 			page 31


 833 01ac D389     		ldrh	r3, [r2, #14]
 834 01ae 0133     		adds	r3, r3, #1
 835 01b0 9BB2     		uxth	r3, r3
 836 01b2 D381     		strh	r3, [r2, #14]	@ movhi
 145:.\Valve_Control.c **** 			{
 837              		.loc 1 145 0
 838 01b4 D189     		ldrh	r1, [r2, #14]
 839 01b6 89B2     		uxth	r1, r1
 840 01b8 5388     		ldrh	r3, [r2, #2]
 841 01ba 9BB2     		uxth	r3, r3
 842 01bc 9942     		cmp	r1, r3
 843 01be 13D3     		bcc	.L54
 147:.\Valve_Control.c **** 				ValveOut(CutReg.Action[VBack]);
 844              		.loc 1 147 0
 845 01c0 1446     		mov	r4, r2
 846 01c2 0023     		movs	r3, #0
 847 01c4 D381     		strh	r3, [r2, #14]	@ movhi
 148:.\Valve_Control.c ****                 LED_WRITE(LED_Status[VBack]);
 848              		.loc 1 148 0
 849 01c6 107B     		ldrb	r0, [r2, #12]	@ zero_extendqisi2
 850 01c8 FFF7FEFF 		bl	Control_Reg_1_Write
 851              	.LVL87:
 852 01cc 227B     		ldrb	r2, [r4, #12]	@ zero_extendqisi2
 853 01ce 3E4B     		ldr	r3, .L59+12
 854 01d0 1A70     		strb	r2, [r3]
 149:.\Valve_Control.c **** 				CutReg.CutTimeStatus = VBack;
 855              		.loc 1 149 0
 856 01d2 3E4B     		ldr	r3, .L59+16
 857 01d4 187A     		ldrb	r0, [r3, #8]	@ zero_extendqisi2
 858 01d6 3E4B     		ldr	r3, .L59+20
 859 01d8 1870     		strb	r0, [r3]
 860 01da FFF7FEFF 		bl	LCD_DISPLAY
 861              	.LVL88:
 862 01de FFF7FEFF 		bl	LCD_DISPLAY_MODE
 863              	.LVL89:
 150:.\Valve_Control.c **** 			}
 864              		.loc 1 150 0
 865 01e2 0423     		movs	r3, #4
 866 01e4 6374     		strb	r3, [r4, #17]
 867 01e6 10BD     		pop	{r4, pc}
 868              	.L54:
 154:.\Valve_Control.c ****                 LED_WRITE(LED_Status[VUnload]);
 869              		.loc 1 154 0
 870 01e8 364C     		ldr	r4, .L59+8
 871 01ea E07A     		ldrb	r0, [r4, #11]	@ zero_extendqisi2
 872 01ec FFF7FEFF 		bl	Control_Reg_1_Write
 873              	.LVL90:
 874 01f0 E27A     		ldrb	r2, [r4, #11]	@ zero_extendqisi2
 875 01f2 354B     		ldr	r3, .L59+12
 876 01f4 1A70     		strb	r2, [r3]
 155:.\Valve_Control.c **** 				CutReg.CutTimeStatus = VUnload;
 877              		.loc 1 155 0
 878 01f6 354B     		ldr	r3, .L59+16
 879 01f8 D879     		ldrb	r0, [r3, #7]	@ zero_extendqisi2
 880 01fa 354B     		ldr	r3, .L59+20
 881 01fc 1870     		strb	r0, [r3]
 882 01fe FFF7FEFF 		bl	LCD_DISPLAY
ARM GAS  C:\Users\pxc\AppData\Local\Temp\ccofNc3q.s 			page 32


 883              	.LVL91:
 884 0202 FFF7FEFF 		bl	LCD_DISPLAY_MODE
 885              	.LVL92:
 156:.\Valve_Control.c **** 			}
 886              		.loc 1 156 0
 887 0206 0323     		movs	r3, #3
 888 0208 6374     		strb	r3, [r4, #17]
 889 020a 10BD     		pop	{r4, pc}
 890              	.L49:
 161:.\Valve_Control.c **** 			{
 891              		.loc 1 161 0
 892 020c FFF7FEFF 		bl	Status_Reg_1_Read
 893              	.LVL93:
 894 0210 10F0020F 		tst	r0, #2
 895 0214 1AD1     		bne	.L55
 163:.\Valve_Control.c **** 				{
 896              		.loc 1 163 0
 897 0216 FFF7FEFF 		bl	Status_Reg_1_Read
 898              	.LVL94:
 899 021a 10F0020F 		tst	r0, #2
 900 021e 4BD1     		bne	.L40
 165:.\Valve_Control.c ****                     LED_WRITE(LED_Status[VStop]);
 901              		.loc 1 165 0
 902 0220 284C     		ldr	r4, .L59+8
 903 0222 607B     		ldrb	r0, [r4, #13]	@ zero_extendqisi2
 904 0224 FFF7FEFF 		bl	Control_Reg_1_Write
 905              	.LVL95:
 906 0228 627B     		ldrb	r2, [r4, #13]	@ zero_extendqisi2
 907 022a 274B     		ldr	r3, .L59+12
 908 022c 1A70     		strb	r2, [r3]
 166:.\Valve_Control.c **** 					CutReg.CutTimeStatus = VStop;
 909              		.loc 1 166 0
 910 022e 274B     		ldr	r3, .L59+16
 911 0230 587A     		ldrb	r0, [r3, #9]	@ zero_extendqisi2
 912 0232 274B     		ldr	r3, .L59+20
 913 0234 1870     		strb	r0, [r3]
 914 0236 FFF7FEFF 		bl	LCD_DISPLAY
 915              	.LVL96:
 916 023a FFF7FEFF 		bl	LCD_DISPLAY_MODE
 917              	.LVL97:
 167:.\Valve_Control.c **** 					CutReg.Cnt = 0;
 918              		.loc 1 167 0
 919 023e 0523     		movs	r3, #5
 920 0240 6374     		strb	r3, [r4, #17]
 168:.\Valve_Control.c ****                     CutReg.OneWorkFinshState = One_Work_Finish;//ÂÆåÊàê‰∏ÄÊ¨°Âä®‰ΩúÊ†áÂøó 20160829Á
 921              		.loc 1 168 0
 922 0242 0023     		movs	r3, #0
 923 0244 E381     		strh	r3, [r4, #14]	@ movhi
 169:.\Valve_Control.c **** 				}
 924              		.loc 1 169 0
 925 0246 FF23     		movs	r3, #255
 926 0248 E375     		strb	r3, [r4, #23]
 927 024a 10BD     		pop	{r4, pc}
 928              	.L55:
 174:.\Valve_Control.c ****                 LED_WRITE(LED_Status[VBack]);
 929              		.loc 1 174 0
 930 024c 1D4C     		ldr	r4, .L59+8
ARM GAS  C:\Users\pxc\AppData\Local\Temp\ccofNc3q.s 			page 33


 931 024e 207B     		ldrb	r0, [r4, #12]	@ zero_extendqisi2
 932 0250 FFF7FEFF 		bl	Control_Reg_1_Write
 933              	.LVL98:
 934 0254 227B     		ldrb	r2, [r4, #12]	@ zero_extendqisi2
 935 0256 1C4B     		ldr	r3, .L59+12
 936 0258 1A70     		strb	r2, [r3]
 175:.\Valve_Control.c **** 				CutReg.CutTimeStatus = VBack;
 937              		.loc 1 175 0
 938 025a 1C4B     		ldr	r3, .L59+16
 939 025c 187A     		ldrb	r0, [r3, #8]	@ zero_extendqisi2
 940 025e 1C4B     		ldr	r3, .L59+20
 941 0260 1870     		strb	r0, [r3]
 942 0262 FFF7FEFF 		bl	LCD_DISPLAY
 943              	.LVL99:
 944 0266 FFF7FEFF 		bl	LCD_DISPLAY_MODE
 945              	.LVL100:
 176:.\Valve_Control.c **** 			}
 946              		.loc 1 176 0
 947 026a 0423     		movs	r3, #4
 948 026c 6374     		strb	r3, [r4, #17]
 949 026e 10BD     		pop	{r4, pc}
 950              	.L50:
 180:.\Valve_Control.c **** 			if(CutReg.Cnt >= 100  )//
 951              		.loc 1 180 0
 952 0270 144A     		ldr	r2, .L59+8
 953 0272 D389     		ldrh	r3, [r2, #14]
 954 0274 0133     		adds	r3, r3, #1
 955 0276 9BB2     		uxth	r3, r3
 956 0278 D381     		strh	r3, [r2, #14]	@ movhi
 181:.\Valve_Control.c **** 			{
 957              		.loc 1 181 0
 958 027a D389     		ldrh	r3, [r2, #14]
 959 027c 9BB2     		uxth	r3, r3
 960 027e 632B     		cmp	r3, #99
 961 0280 09D9     		bls	.L56
 183:.\Valve_Control.c **** 				ISR_Stroke_Timer_states =0x01;
 962              		.loc 1 183 0
 963 0282 1346     		mov	r3, r2
 964 0284 0022     		movs	r2, #0
 965 0286 DA81     		strh	r2, [r3, #14]	@ movhi
 184:.\Valve_Control.c **** 				CutReg.CutTimeStatus = VFast;  //ÁªìÊùü
 966              		.loc 1 184 0
 967 0288 0120     		movs	r0, #1
 968 028a 0C49     		ldr	r1, .L59
 969 028c 0860     		str	r0, [r1]
 185:.\Valve_Control.c ****       
 970              		.loc 1 185 0
 971 028e 5A74     		strb	r2, [r3, #17]
 187:.\Valve_Control.c ****              
 972              		.loc 1 187 0
 973 0290 0622     		movs	r2, #6
 974 0292 1A74     		strb	r2, [r3, #16]
 975 0294 10BD     		pop	{r4, pc}
 976              	.L56:
 192:.\Valve_Control.c ****                 LED_WRITE(LED_Status[VStop]);
 977              		.loc 1 192 0
 978 0296 0B4C     		ldr	r4, .L59+8
ARM GAS  C:\Users\pxc\AppData\Local\Temp\ccofNc3q.s 			page 34


 979 0298 607B     		ldrb	r0, [r4, #13]	@ zero_extendqisi2
 980 029a FFF7FEFF 		bl	Control_Reg_1_Write
 981              	.LVL101:
 982 029e 627B     		ldrb	r2, [r4, #13]	@ zero_extendqisi2
 983 02a0 094B     		ldr	r3, .L59+12
 984 02a2 1A70     		strb	r2, [r3]
 193:.\Valve_Control.c **** 				CutReg.CutTimeStatus = VStop;
 985              		.loc 1 193 0
 986 02a4 094B     		ldr	r3, .L59+16
 987 02a6 587A     		ldrb	r0, [r3, #9]	@ zero_extendqisi2
 988 02a8 094B     		ldr	r3, .L59+20
 989 02aa 1870     		strb	r0, [r3]
 990 02ac FFF7FEFF 		bl	LCD_DISPLAY
 991              	.LVL102:
 992 02b0 FFF7FEFF 		bl	LCD_DISPLAY_MODE
 993              	.LVL103:
 194:.\Valve_Control.c ****             
 994              		.loc 1 194 0
 995 02b4 0523     		movs	r3, #5
 996 02b6 6374     		strb	r3, [r4, #17]
 997              	.L40:
 998 02b8 10BD     		pop	{r4, pc}
 999              	.L60:
 1000 02ba 00BF     		.align	2
 1001              	.L59:
 1002 02bc 00000000 		.word	ISR_Stroke_Timer_states
 1003 02c0 00000000 		.word	System_enable
 1004 02c4 00000000 		.word	CutReg
 1005 02c8 00000000 		.word	TPDO_OUT_Status
 1006 02cc 00000000 		.word	.LANCHOR1
 1007 02d0 00000000 		.word	TPDO_PROCESS_Status
 1008              	.L58:
 1009              		.cfi_def_cfa_offset 0
 1010              		.cfi_restore 4
 1011              		.cfi_restore 14
 1012 02d4 7047     		bx	lr
 1013              		.cfi_endproc
 1014              	.LFE63:
 1015              		.size	timer_10ms, .-timer_10ms
 1016 02d6 00BF     		.section	.text.Stroke_Process,"ax",%progbits
 1017              		.align	2
 1018              		.global	Stroke_Process
 1019              		.thumb
 1020              		.thumb_func
 1021              		.type	Stroke_Process, %function
 1022              	Stroke_Process:
 1023              	.LFB64:
 222:.\Valve_Control.c **** 	uint8 ModeFlag = 0;
 1024              		.loc 1 222 0
 1025              		.cfi_startproc
 1026              		@ args = 0, pretend = 0, frame = 0
 1027              		@ frame_needed = 0, uses_anonymous_args = 0
 1028 0000 10B5     		push	{r4, lr}
 1029              		.cfi_def_cfa_offset 8
 1030              		.cfi_offset 4, -8
 1031              		.cfi_offset 14, -4
 1032              	.LVL104:
ARM GAS  C:\Users\pxc\AppData\Local\Temp\ccofNc3q.s 			page 35


 227:.\Valve_Control.c **** 	{
 1033              		.loc 1 227 0
 1034 0002 AA4B     		ldr	r3, .L104
 1035 0004 1B7C     		ldrb	r3, [r3, #16]	@ zero_extendqisi2
 1036 0006 DBB2     		uxtb	r3, r3
 1037 0008 062B     		cmp	r3, #6
 1038 000a 00F2E881 		bhi	.L93
 1039 000e DFE813F0 		tbh	[pc, r3, lsl #1]
 1040              	.L64:
 1041 0012 0700     		.2byte	(.L63-.L64)/2
 1042 0014 4200     		.2byte	(.L65-.L64)/2
 1043 0016 6401     		.2byte	(.L66-.L64)/2
 1044 0018 7B01     		.2byte	(.L67-.L64)/2
 1045 001a A001     		.2byte	(.L68-.L64)/2
 1046 001c E601     		.2byte	(.L93-.L64)/2
 1047 001e A901     		.2byte	(.L69-.L64)/2
 1048              		.p2align 1
 1049              	.L63:
 230:.\Valve_Control.c **** 		{
 1050              		.loc 1 230 0
 1051 0020 FFF7FEFF 		bl	Status_Reg_1_Read
 1052              	.LVL105:
 1053 0024 00F06000 		and	r0, r0, #96
 1054 0028 4028     		cmp	r0, #64
 1055 002a 05D0     		beq	.L70
 230:.\Valve_Control.c **** 		{
 1056              		.loc 1 230 0 is_stmt 0 discriminator 2
 1057 002c FFF7FEFF 		bl	Status_Reg_1_Read
 1058              	.LVL106:
 1059 0030 00F06000 		and	r0, r0, #96
 1060 0034 2028     		cmp	r0, #32
 1061 0036 07D1     		bne	.L71
 1062              	.L70:
 230:.\Valve_Control.c **** 		{
 1063              		.loc 1 230 0 discriminator 3
 1064 0038 9D4B     		ldr	r3, .L104+4
 1065 003a 1B78     		ldrb	r3, [r3]	@ zero_extendqisi2
 1066 003c 402B     		cmp	r3, #64
 1067 003e 03D1     		bne	.L71
 232:.\Valve_Control.c **** 		}
 1068              		.loc 1 232 0 is_stmt 1
 1069 0040 0022     		movs	r2, #0
 1070 0042 9A4B     		ldr	r3, .L104
 1071 0044 1A74     		strb	r2, [r3, #16]
 1072 0046 1CE0     		b	.L72
 1073              	.L71:
 234:.\Valve_Control.c **** 		{
 1074              		.loc 1 234 0
 1075 0048 FFF7FEFF 		bl	Status_Reg_1_Read
 1076              	.LVL107:
 1077 004c 00F06000 		and	r0, r0, #96
 1078 0050 4028     		cmp	r0, #64
 1079 0052 05D0     		beq	.L73
 234:.\Valve_Control.c **** 		{
 1080              		.loc 1 234 0 is_stmt 0 discriminator 2
 1081 0054 FFF7FEFF 		bl	Status_Reg_1_Read
 1082              	.LVL108:
ARM GAS  C:\Users\pxc\AppData\Local\Temp\ccofNc3q.s 			page 36


 1083 0058 00F06000 		and	r0, r0, #96
 1084 005c 2028     		cmp	r0, #32
 1085 005e 07D1     		bne	.L74
 1086              	.L73:
 234:.\Valve_Control.c **** 		{
 1087              		.loc 1 234 0 discriminator 3
 1088 0060 934B     		ldr	r3, .L104+4
 1089 0062 1B78     		ldrb	r3, [r3]	@ zero_extendqisi2
 1090 0064 402B     		cmp	r3, #64
 1091 0066 03D0     		beq	.L74
 236:.\Valve_Control.c **** 		}
 1092              		.loc 1 236 0 is_stmt 1
 1093 0068 0222     		movs	r2, #2
 1094 006a 904B     		ldr	r3, .L104
 1095 006c 1A74     		strb	r2, [r3, #16]
 1096 006e 08E0     		b	.L72
 1097              	.L74:
 238:.\Valve_Control.c **** 		{
 1098              		.loc 1 238 0
 1099 0070 FFF7FEFF 		bl	Status_Reg_1_Read
 1100              	.LVL109:
 1101 0074 00F06000 		and	r0, r0, #96
 1102 0078 6028     		cmp	r0, #96
 1103 007a 02D1     		bne	.L72
 240:.\Valve_Control.c **** 		}
 1104              		.loc 1 240 0
 1105 007c 0122     		movs	r2, #1
 1106 007e 8B4B     		ldr	r3, .L104
 1107 0080 1A74     		strb	r2, [r3, #16]
 1108              	.L72:
 242:.\Valve_Control.c ****         {
 1109              		.loc 1 242 0
 1110 0082 8B4B     		ldr	r3, .L104+4
 1111 0084 1B78     		ldrb	r3, [r3]	@ zero_extendqisi2
 1112 0086 882B     		cmp	r3, #136
 1113 0088 40F0AB81 		bne	.L94
 244:.\Valve_Control.c ****         }
 1114              		.loc 1 244 0
 1115 008c 0122     		movs	r2, #1
 1116 008e 874B     		ldr	r3, .L104
 1117 0090 1A74     		strb	r2, [r3, #16]
 225:.\Valve_Control.c **** 
 1118              		.loc 1 225 0
 1119 0092 0020     		movs	r0, #0
 1120 0094 10BD     		pop	{r4, pc}
 1121              	.L65:
 249:.\Valve_Control.c **** 		{
 1122              		.loc 1 249 0
 1123 0096 FFF7FEFF 		bl	Status_Reg_1_Read
 1124              	.LVL110:
 1125 009a 00F06000 		and	r0, r0, #96
 1126 009e 6028     		cmp	r0, #96
 1127 00a0 15D0     		beq	.L75
 249:.\Valve_Control.c **** 		{
 1128              		.loc 1 249 0 is_stmt 0 discriminator 1
 1129 00a2 834B     		ldr	r3, .L104+4
 1130 00a4 1B78     		ldrb	r3, [r3]	@ zero_extendqisi2
ARM GAS  C:\Users\pxc\AppData\Local\Temp\ccofNc3q.s 			page 37


 1131 00a6 882B     		cmp	r3, #136
 1132 00a8 11D0     		beq	.L75
 251:.\Valve_Control.c ****             LED_WRITE(LED_Status[VStop]);
 1133              		.loc 1 251 0 is_stmt 1
 1134 00aa 804C     		ldr	r4, .L104
 1135 00ac 607B     		ldrb	r0, [r4, #13]	@ zero_extendqisi2
 1136 00ae FFF7FEFF 		bl	Control_Reg_1_Write
 1137              	.LVL111:
 1138 00b2 627B     		ldrb	r2, [r4, #13]	@ zero_extendqisi2
 1139 00b4 7F4B     		ldr	r3, .L104+8
 1140 00b6 1A70     		strb	r2, [r3]
 252:.\Valve_Control.c **** 			CutReg.CutStatus = StrokeStart;
 1141              		.loc 1 252 0
 1142 00b8 7F4B     		ldr	r3, .L104+12
 1143 00ba 587A     		ldrb	r0, [r3, #9]	@ zero_extendqisi2
 1144 00bc 7F4B     		ldr	r3, .L104+16
 1145 00be 1870     		strb	r0, [r3]
 1146 00c0 FFF7FEFF 		bl	LCD_DISPLAY
 1147              	.LVL112:
 1148 00c4 FFF7FEFF 		bl	LCD_DISPLAY_MODE
 1149              	.LVL113:
 253:.\Valve_Control.c **** 		}
 1150              		.loc 1 253 0
 1151 00c8 0023     		movs	r3, #0
 1152 00ca 2374     		strb	r3, [r4, #16]
 1153 00cc C1E0     		b	.L76
 1154              	.L75:
 255:.\Valve_Control.c **** 		{
 1155              		.loc 1 255 0
 1156 00ce FFF7FEFF 		bl	Status_Reg_1_Read
 1157              	.LVL114:
 1158 00d2 10F0080F 		tst	r0, #8
 1159 00d6 5BD1     		bne	.L77
 255:.\Valve_Control.c **** 		{
 1160              		.loc 1 255 0 is_stmt 0 discriminator 1
 1161 00d8 774B     		ldr	r3, .L104+12
 1162 00da 1B7C     		ldrb	r3, [r3, #16]	@ zero_extendqisi2
 1163 00dc 002B     		cmp	r3, #0
 1164 00de 57D0     		beq	.L77
 258:.\Valve_Control.c **** 			while(FootStart())
 1165              		.loc 1 258 0 is_stmt 1
 1166 00e0 1122     		movs	r2, #17
 1167 00e2 724B     		ldr	r3, .L104
 1168 00e4 DA75     		strb	r2, [r3, #23]
 259:.\Valve_Control.c **** 			{
 1169              		.loc 1 259 0
 1170 00e6 3EE0     		b	.L78
 1171              	.L82:
 262:.\Valve_Control.c **** 				{
 1172              		.loc 1 262 0
 1173 00e8 FFF7FEFF 		bl	Status_Reg_1_Read
 1174              	.LVL115:
 1175 00ec 10F0010F 		tst	r0, #1
 1176 00f0 12D1     		bne	.L79
 264:.\Valve_Control.c ****                     LED_WRITE(LED_Status[VSlow]);
 1177              		.loc 1 264 0
 1178 00f2 6E4C     		ldr	r4, .L104
ARM GAS  C:\Users\pxc\AppData\Local\Temp\ccofNc3q.s 			page 38


 1179 00f4 607A     		ldrb	r0, [r4, #9]	@ zero_extendqisi2
 1180 00f6 FFF7FEFF 		bl	Control_Reg_1_Write
 1181              	.LVL116:
 1182 00fa 627A     		ldrb	r2, [r4, #9]	@ zero_extendqisi2
 1183 00fc 6D4B     		ldr	r3, .L104+8
 1184 00fe 1A70     		strb	r2, [r3]
 265:.\Valve_Control.c **** 					UnloadTime = CutReg.UnloadTime;
 1185              		.loc 1 265 0
 1186 0100 6D4B     		ldr	r3, .L104+12
 1187 0102 5879     		ldrb	r0, [r3, #5]	@ zero_extendqisi2
 1188 0104 6D4B     		ldr	r3, .L104+16
 1189 0106 1870     		strb	r0, [r3]
 1190 0108 FFF7FEFF 		bl	LCD_DISPLAY
 1191              	.LVL117:
 1192 010c FFF7FEFF 		bl	LCD_DISPLAY_MODE
 1193              	.LVL118:
 266:.\Valve_Control.c **** 				}
 1194              		.loc 1 266 0
 1195 0110 6288     		ldrh	r2, [r4, #2]
 1196 0112 6B4B     		ldr	r3, .L104+20
 1197 0114 1A80     		strh	r2, [r3]	@ movhi
 1198 0116 0EE0     		b	.L80
 1199              	.L79:
 270:.\Valve_Control.c ****                     LED_WRITE(LED_Status[VFast]);
 1200              		.loc 1 270 0
 1201 0118 644C     		ldr	r4, .L104
 1202 011a 207A     		ldrb	r0, [r4, #8]	@ zero_extendqisi2
 1203 011c FFF7FEFF 		bl	Control_Reg_1_Write
 1204              	.LVL119:
 1205 0120 227A     		ldrb	r2, [r4, #8]	@ zero_extendqisi2
 1206 0122 644B     		ldr	r3, .L104+8
 1207 0124 1A70     		strb	r2, [r3]
 271:.\Valve_Control.c **** 				}
 1208              		.loc 1 271 0
 1209 0126 644B     		ldr	r3, .L104+12
 1210 0128 1879     		ldrb	r0, [r3, #4]	@ zero_extendqisi2
 1211 012a 644B     		ldr	r3, .L104+16
 1212 012c 1870     		strb	r0, [r3]
 1213 012e FFF7FEFF 		bl	LCD_DISPLAY
 1214              	.LVL120:
 1215 0132 FFF7FEFF 		bl	LCD_DISPLAY_MODE
 1216              	.LVL121:
 1217              	.L80:
 273:.\Valve_Control.c **** 				{
 1218              		.loc 1 273 0
 1219 0136 FFF7FEFF 		bl	Status_Reg_1_Read
 1220              	.LVL122:
 1221 013a 00F06000 		and	r0, r0, #96
 1222 013e 6028     		cmp	r0, #96
 1223 0140 11D0     		beq	.L78
 275:.\Valve_Control.c ****                     LED_WRITE(LED_Status[VStop]);
 1224              		.loc 1 275 0
 1225 0142 5A4C     		ldr	r4, .L104
 1226 0144 607B     		ldrb	r0, [r4, #13]	@ zero_extendqisi2
 1227 0146 FFF7FEFF 		bl	Control_Reg_1_Write
 1228              	.LVL123:
 1229 014a 627B     		ldrb	r2, [r4, #13]	@ zero_extendqisi2
ARM GAS  C:\Users\pxc\AppData\Local\Temp\ccofNc3q.s 			page 39


 1230 014c 594B     		ldr	r3, .L104+8
 1231 014e 1A70     		strb	r2, [r3]
 276:.\Valve_Control.c **** 					CutReg.CutStatus = StrokeStart;
 1232              		.loc 1 276 0
 1233 0150 594B     		ldr	r3, .L104+12
 1234 0152 587A     		ldrb	r0, [r3, #9]	@ zero_extendqisi2
 1235 0154 594B     		ldr	r3, .L104+16
 1236 0156 1870     		strb	r0, [r3]
 1237 0158 FFF7FEFF 		bl	LCD_DISPLAY
 1238              	.LVL124:
 1239 015c FFF7FEFF 		bl	LCD_DISPLAY_MODE
 1240              	.LVL125:
 277:.\Valve_Control.c **** 					break;
 1241              		.loc 1 277 0
 1242 0160 0023     		movs	r3, #0
 1243 0162 2374     		strb	r3, [r4, #16]
 278:.\Valve_Control.c **** 				}
 1244              		.loc 1 278 0
 1245 0164 04E0     		b	.L81
 1246              	.L78:
 259:.\Valve_Control.c **** 			{
 1247              		.loc 1 259 0
 1248 0166 FFF7FEFF 		bl	Status_Reg_1_Read
 1249              	.LVL126:
 1250 016a 10F0080F 		tst	r0, #8
 1251 016e BBD0     		beq	.L82
 1252              	.L81:
 281:.\Valve_Control.c ****             LED_WRITE(LED_Status[VStop]);
 1253              		.loc 1 281 0
 1254 0170 4E4C     		ldr	r4, .L104
 1255 0172 607B     		ldrb	r0, [r4, #13]	@ zero_extendqisi2
 1256 0174 FFF7FEFF 		bl	Control_Reg_1_Write
 1257              	.LVL127:
 1258 0178 627B     		ldrb	r2, [r4, #13]	@ zero_extendqisi2
 1259 017a 4E4B     		ldr	r3, .L104+8
 1260 017c 1A70     		strb	r2, [r3]
 282:.\Valve_Control.c **** //			MoveLED(0);
 1261              		.loc 1 282 0
 1262 017e 4E4B     		ldr	r3, .L104+12
 1263 0180 587A     		ldrb	r0, [r3, #9]	@ zero_extendqisi2
 1264 0182 4E4B     		ldr	r3, .L104+16
 1265 0184 1870     		strb	r0, [r3]
 1266 0186 FFF7FEFF 		bl	LCD_DISPLAY
 1267              	.LVL128:
 1268 018a FFF7FEFF 		bl	LCD_DISPLAY_MODE
 1269              	.LVL129:
 1270 018e 60E0     		b	.L76
 1271              	.L77:
 285:.\Valve_Control.c **** 		{
 1272              		.loc 1 285 0
 1273 0190 FFF7FEFF 		bl	Status_Reg_1_Read
 1274              	.LVL130:
 1275 0194 10F0040F 		tst	r0, #4
 1276 0198 5BD1     		bne	.L76
 285:.\Valve_Control.c **** 		{
 1277              		.loc 1 285 0 is_stmt 0 discriminator 1
 1278 019a 474B     		ldr	r3, .L104+12
ARM GAS  C:\Users\pxc\AppData\Local\Temp\ccofNc3q.s 			page 40


 1279 019c 5B7C     		ldrb	r3, [r3, #17]	@ zero_extendqisi2
 1280 019e 002B     		cmp	r3, #0
 1281 01a0 57D0     		beq	.L76
 287:.\Valve_Control.c **** 			while(FootUp())
 1282              		.loc 1 287 0 is_stmt 1
 1283 01a2 0022     		movs	r2, #0
 1284 01a4 464B     		ldr	r3, .L104+20
 1285 01a6 1A80     		strh	r2, [r3]	@ movhi
 288:.\Valve_Control.c **** 			{
 1286              		.loc 1 288 0
 1287 01a8 3FE0     		b	.L83
 1288              	.L87:
 291:.\Valve_Control.c **** 				{
 1289              		.loc 1 291 0
 1290 01aa FFF7FEFF 		bl	Status_Reg_1_Read
 1291              	.LVL131:
 1292 01ae 10F0020F 		tst	r0, #2
 1293 01b2 0FD1     		bne	.L84
 293:.\Valve_Control.c ****                     LED_WRITE(LED_Status[VStop]);
 1294              		.loc 1 293 0
 1295 01b4 3D4C     		ldr	r4, .L104
 1296 01b6 607B     		ldrb	r0, [r4, #13]	@ zero_extendqisi2
 1297 01b8 FFF7FEFF 		bl	Control_Reg_1_Write
 1298              	.LVL132:
 1299 01bc 627B     		ldrb	r2, [r4, #13]	@ zero_extendqisi2
 1300 01be 3D4B     		ldr	r3, .L104+8
 1301 01c0 1A70     		strb	r2, [r3]
 294:.\Valve_Control.c **** 				}
 1302              		.loc 1 294 0
 1303 01c2 3D4B     		ldr	r3, .L104+12
 1304 01c4 587A     		ldrb	r0, [r3, #9]	@ zero_extendqisi2
 1305 01c6 3D4B     		ldr	r3, .L104+16
 1306 01c8 1870     		strb	r0, [r3]
 1307 01ca FFF7FEFF 		bl	LCD_DISPLAY
 1308              	.LVL133:
 1309 01ce FFF7FEFF 		bl	LCD_DISPLAY_MODE
 1310              	.LVL134:
 1311 01d2 0EE0     		b	.L85
 1312              	.L84:
 298:.\Valve_Control.c ****                     LED_WRITE(LED_Status[VBack]);
 1313              		.loc 1 298 0
 1314 01d4 354C     		ldr	r4, .L104
 1315 01d6 207B     		ldrb	r0, [r4, #12]	@ zero_extendqisi2
 1316 01d8 FFF7FEFF 		bl	Control_Reg_1_Write
 1317              	.LVL135:
 1318 01dc 227B     		ldrb	r2, [r4, #12]	@ zero_extendqisi2
 1319 01de 354B     		ldr	r3, .L104+8
 1320 01e0 1A70     		strb	r2, [r3]
 299:.\Valve_Control.c **** 				}
 1321              		.loc 1 299 0
 1322 01e2 354B     		ldr	r3, .L104+12
 1323 01e4 187A     		ldrb	r0, [r3, #8]	@ zero_extendqisi2
 1324 01e6 354B     		ldr	r3, .L104+16
 1325 01e8 1870     		strb	r0, [r3]
 1326 01ea FFF7FEFF 		bl	LCD_DISPLAY
 1327              	.LVL136:
 1328 01ee FFF7FEFF 		bl	LCD_DISPLAY_MODE
ARM GAS  C:\Users\pxc\AppData\Local\Temp\ccofNc3q.s 			page 41


 1329              	.LVL137:
 1330              	.L85:
 301:.\Valve_Control.c **** 				{
 1331              		.loc 1 301 0
 1332 01f2 FFF7FEFF 		bl	Status_Reg_1_Read
 1333              	.LVL138:
 1334 01f6 00F06000 		and	r0, r0, #96
 1335 01fa 6028     		cmp	r0, #96
 1336 01fc 15D0     		beq	.L83
 301:.\Valve_Control.c **** 				{
 1337              		.loc 1 301 0 is_stmt 0 discriminator 1
 1338 01fe 2C4B     		ldr	r3, .L104+4
 1339 0200 1B78     		ldrb	r3, [r3]	@ zero_extendqisi2
 1340 0202 882B     		cmp	r3, #136
 1341 0204 11D0     		beq	.L83
 303:.\Valve_Control.c ****                     LED_WRITE(LED_Status[VStop]);
 1342              		.loc 1 303 0 is_stmt 1
 1343 0206 294C     		ldr	r4, .L104
 1344 0208 607B     		ldrb	r0, [r4, #13]	@ zero_extendqisi2
 1345 020a FFF7FEFF 		bl	Control_Reg_1_Write
 1346              	.LVL139:
 1347 020e 627B     		ldrb	r2, [r4, #13]	@ zero_extendqisi2
 1348 0210 284B     		ldr	r3, .L104+8
 1349 0212 1A70     		strb	r2, [r3]
 304:.\Valve_Control.c **** 					CutReg.CutStatus = StrokeStart;
 1350              		.loc 1 304 0
 1351 0214 284B     		ldr	r3, .L104+12
 1352 0216 587A     		ldrb	r0, [r3, #9]	@ zero_extendqisi2
 1353 0218 284B     		ldr	r3, .L104+16
 1354 021a 1870     		strb	r0, [r3]
 1355 021c FFF7FEFF 		bl	LCD_DISPLAY
 1356              	.LVL140:
 1357 0220 FFF7FEFF 		bl	LCD_DISPLAY_MODE
 1358              	.LVL141:
 305:.\Valve_Control.c **** 					break;
 1359              		.loc 1 305 0
 1360 0224 0023     		movs	r3, #0
 1361 0226 2374     		strb	r3, [r4, #16]
 306:.\Valve_Control.c **** 				}
 1362              		.loc 1 306 0
 1363 0228 04E0     		b	.L86
 1364              	.L83:
 288:.\Valve_Control.c **** 			{
 1365              		.loc 1 288 0
 1366 022a FFF7FEFF 		bl	Status_Reg_1_Read
 1367              	.LVL142:
 1368 022e 10F0040F 		tst	r0, #4
 1369 0232 BAD0     		beq	.L87
 1370              	.L86:
 309:.\Valve_Control.c ****             LED_WRITE(LED_Status[VStop]);
 1371              		.loc 1 309 0
 1372 0234 1D4C     		ldr	r4, .L104
 1373 0236 607B     		ldrb	r0, [r4, #13]	@ zero_extendqisi2
 1374 0238 FFF7FEFF 		bl	Control_Reg_1_Write
 1375              	.LVL143:
 1376 023c 627B     		ldrb	r2, [r4, #13]	@ zero_extendqisi2
 1377 023e 1D4B     		ldr	r3, .L104+8
ARM GAS  C:\Users\pxc\AppData\Local\Temp\ccofNc3q.s 			page 42


 1378 0240 1A70     		strb	r2, [r3]
 310:.\Valve_Control.c **** //			MoveLED(0);
 1379              		.loc 1 310 0
 1380 0242 1D4B     		ldr	r3, .L104+12
 1381 0244 587A     		ldrb	r0, [r3, #9]	@ zero_extendqisi2
 1382 0246 1D4B     		ldr	r3, .L104+16
 1383 0248 1870     		strb	r0, [r3]
 1384 024a FFF7FEFF 		bl	LCD_DISPLAY
 1385              	.LVL144:
 1386 024e FFF7FEFF 		bl	LCD_DISPLAY_MODE
 1387              	.LVL145:
 1388              	.L76:
 314:.\Valve_Control.c **** 		{
 1389              		.loc 1 314 0
 1390 0252 FFF7FEFF 		bl	Status_Reg_1_Read
 1391              	.LVL146:
 1392 0256 00F06000 		and	r0, r0, #96
 1393 025a 6028     		cmp	r0, #96
 1394 025c 32D1     		bne	.L88
 314:.\Valve_Control.c **** 		{
 1395              		.loc 1 314 0 is_stmt 0 discriminator 1
 1396 025e FFF7FEFF 		bl	Status_Reg_1_Read
 1397              	.LVL147:
 1398 0262 10F0080F 		tst	r0, #8
 1399 0266 2DD0     		beq	.L88
 314:.\Valve_Control.c **** 		{
 1400              		.loc 1 314 0 discriminator 2
 1401 0268 104B     		ldr	r3, .L104
 1402 026a DB7A     		ldrb	r3, [r3, #11]	@ zero_extendqisi2
 1403 026c 13F0FF0F 		tst	r3, #255
 1404 0270 28D0     		beq	.L88
 314:.\Valve_Control.c **** 		{
 1405              		.loc 1 314 0 discriminator 3
 1406 0272 134B     		ldr	r3, .L104+20
 1407 0274 B3F90030 		ldrsh	r3, [r3]
 1408 0278 002B     		cmp	r3, #0
 1409 027a 23DD     		ble	.L88
 316:.\Valve_Control.c ****              LED_WRITE(LED_Status[VUnload]);
 1410              		.loc 1 316 0 is_stmt 1
 1411 027c 0B4C     		ldr	r4, .L104
 1412 027e E07A     		ldrb	r0, [r4, #11]	@ zero_extendqisi2
 1413 0280 FFF7FEFF 		bl	Control_Reg_1_Write
 1414              	.LVL148:
 1415 0284 E27A     		ldrb	r2, [r4, #11]	@ zero_extendqisi2
 1416 0286 0B4B     		ldr	r3, .L104+8
 1417 0288 1A70     		strb	r2, [r3]
 317:.\Valve_Control.c ****            // LED_WRITE(LED_Status(VUnload));
 1418              		.loc 1 317 0
 1419 028a 0B4B     		ldr	r3, .L104+12
 1420 028c D879     		ldrb	r0, [r3, #7]	@ zero_extendqisi2
 1421 028e 0B4B     		ldr	r3, .L104+16
 1422 0290 1870     		strb	r0, [r3]
 1423 0292 FFF7FEFF 		bl	LCD_DISPLAY
 1424              	.LVL149:
 1425 0296 FFF7FEFF 		bl	LCD_DISPLAY_MODE
 1426              	.LVL150:
 319:.\Valve_Control.c **** 			CyDelay(10);
ARM GAS  C:\Users\pxc\AppData\Local\Temp\ccofNc3q.s 			page 43


 1427              		.loc 1 319 0
 1428 029a 094A     		ldr	r2, .L104+20
 1429 029c 1388     		ldrh	r3, [r2]
 1430 029e 013B     		subs	r3, r3, #1
 1431 02a0 1380     		strh	r3, [r2]	@ movhi
 320:.\Valve_Control.c **** 		}
 1432              		.loc 1 320 0
 1433 02a2 0A20     		movs	r0, #10
 1434 02a4 FFF7FEFF 		bl	CyDelay
 1435              	.LVL151:
 225:.\Valve_Control.c **** 
 1436              		.loc 1 225 0
 1437 02a8 0020     		movs	r0, #0
 320:.\Valve_Control.c **** 		}
 1438              		.loc 1 320 0
 1439 02aa 10BD     		pop	{r4, pc}
 1440              	.L105:
 1441              		.align	2
 1442              	.L104:
 1443 02ac 00000000 		.word	CutReg
 1444 02b0 00000000 		.word	System_enable
 1445 02b4 00000000 		.word	TPDO_OUT_Status
 1446 02b8 00000000 		.word	.LANCHOR1
 1447 02bc 00000000 		.word	TPDO_PROCESS_Status
 1448 02c0 00000000 		.word	.LANCHOR2
 1449              	.L88:
 324:.\Valve_Control.c ****             /* Â¢ûÂä†Âä®‰ΩúÂÆåÊàêÊ†áÂøó20160820*/
 1450              		.loc 1 324 0
 1451 02c4 504C     		ldr	r4, .L106
 1452 02c6 607B     		ldrb	r0, [r4, #13]	@ zero_extendqisi2
 1453 02c8 FFF7FEFF 		bl	Control_Reg_1_Write
 1454              	.LVL152:
 1455 02cc 627B     		ldrb	r2, [r4, #13]	@ zero_extendqisi2
 1456 02ce 4F4B     		ldr	r3, .L106+4
 1457 02d0 1A70     		strb	r2, [r3]
 326:.\Valve_Control.c ****         }
 1458              		.loc 1 326 0
 1459 02d2 FF23     		movs	r3, #255
 1460 02d4 E375     		strb	r3, [r4, #23]
 225:.\Valve_Control.c **** 
 1461              		.loc 1 225 0
 1462 02d6 0020     		movs	r0, #0
 1463 02d8 10BD     		pop	{r4, pc}
 1464              	.L66:
 331:.\Valve_Control.c ****         {
 1465              		.loc 1 331 0
 1466 02da FFF7FEFF 		bl	Status_Reg_1_Read
 1467              	.LVL153:
 1468 02de 10F0080F 		tst	r0, #8
 1469 02e2 0CD0     		beq	.L89
 333:.\Valve_Control.c **** 			if(!FootStart())
 1470              		.loc 1 333 0
 1471 02e4 0520     		movs	r0, #5
 1472 02e6 FFF7FEFF 		bl	CyDelay
 1473              	.LVL154:
 334:.\Valve_Control.c **** 			{
 1474              		.loc 1 334 0
ARM GAS  C:\Users\pxc\AppData\Local\Temp\ccofNc3q.s 			page 44


 1475 02ea FFF7FEFF 		bl	Status_Reg_1_Read
 1476              	.LVL155:
 1477 02ee 10F0080F 		tst	r0, #8
 1478 02f2 78D0     		beq	.L95
 336:.\Valve_Control.c **** 			}
 1479              		.loc 1 336 0
 1480 02f4 0322     		movs	r2, #3
 1481 02f6 444B     		ldr	r3, .L106
 1482 02f8 1A74     		strb	r2, [r3, #16]
 225:.\Valve_Control.c **** 
 1483              		.loc 1 225 0
 1484 02fa 0020     		movs	r0, #0
 1485 02fc 10BD     		pop	{r4, pc}
 1486              	.L89:
 341:.\Valve_Control.c ****         }
 1487              		.loc 1 341 0
 1488 02fe 0222     		movs	r2, #2
 1489 0300 414B     		ldr	r3, .L106
 1490 0302 1A74     		strb	r2, [r3, #16]
 225:.\Valve_Control.c **** 
 1491              		.loc 1 225 0
 1492 0304 0020     		movs	r0, #0
 1493 0306 10BD     		pop	{r4, pc}
 1494              	.L67:
 345:.\Valve_Control.c **** 		{
 1495              		.loc 1 345 0
 1496 0308 FFF7FEFF 		bl	Status_Reg_1_Read
 1497              	.LVL156:
 1498 030c 10F0080F 		tst	r0, #8
 1499 0310 0DD1     		bne	.L90
 347:.\Valve_Control.c **** 			if(FootStart())
 1500              		.loc 1 347 0
 1501 0312 0520     		movs	r0, #5
 1502 0314 FFF7FEFF 		bl	CyDelay
 1503              	.LVL157:
 348:.\Valve_Control.c **** 			{                
 1504              		.loc 1 348 0
 1505 0318 FFF7FEFF 		bl	Status_Reg_1_Read
 1506              	.LVL158:
 1507 031c 10F0080F 		tst	r0, #8
 1508 0320 63D1     		bne	.L96
 350:.\Valve_Control.c ****                 CutReg.SToDotFlag = 0;
 1509              		.loc 1 350 0
 1510 0322 394B     		ldr	r3, .L106
 1511 0324 0422     		movs	r2, #4
 1512 0326 1A74     		strb	r2, [r3, #16]
 351:.\Valve_Control.c **** 			}
 1513              		.loc 1 351 0
 1514 0328 0020     		movs	r0, #0
 1515 032a 9875     		strb	r0, [r3, #22]
 1516 032c 10BD     		pop	{r4, pc}
 1517              	.L90:
 356:.\Valve_Control.c ****             if( CutReg.SToDotFlag && CutMode() == CUTJMODE)
 1518              		.loc 1 356 0
 1519 032e 364B     		ldr	r3, .L106
 1520 0330 0322     		movs	r2, #3
 1521 0332 1A74     		strb	r2, [r3, #16]
ARM GAS  C:\Users\pxc\AppData\Local\Temp\ccofNc3q.s 			page 45


 357:.\Valve_Control.c ****             {
 1522              		.loc 1 357 0
 1523 0334 9B7D     		ldrb	r3, [r3, #22]	@ zero_extendqisi2
 1524 0336 13F0FF0F 		tst	r3, #255
 1525 033a 58D0     		beq	.L97
 357:.\Valve_Control.c ****             {
 1526              		.loc 1 357 0 is_stmt 0 discriminator 1
 1527 033c FFF7FEFF 		bl	Status_Reg_1_Read
 1528              	.LVL159:
 1529 0340 00F06000 		and	r0, r0, #96
 1530 0344 6028     		cmp	r0, #96
 1531 0346 54D1     		bne	.L98
 359:.\Valve_Control.c ****             }
 1532              		.loc 1 359 0 is_stmt 1
 1533 0348 0122     		movs	r2, #1
 1534 034a 2F4B     		ldr	r3, .L106
 1535 034c 1A74     		strb	r2, [r3, #16]
 225:.\Valve_Control.c **** 
 1536              		.loc 1 225 0
 1537 034e 0020     		movs	r0, #0
 1538 0350 10BD     		pop	{r4, pc}
 1539              	.L68:
 365:.\Valve_Control.c **** 		CutReg.Cnt = 0;
 1540              		.loc 1 365 0
 1541 0352 2D4B     		ldr	r3, .L106
 1542 0354 0522     		movs	r2, #5
 1543 0356 1A74     		strb	r2, [r3, #16]
 366:.\Valve_Control.c **** 		CutReg.CutTimeStatus = VFast;
 1544              		.loc 1 366 0
 1545 0358 0020     		movs	r0, #0
 1546 035a D881     		strh	r0, [r3, #14]	@ movhi
 367:.\Valve_Control.c **** 		ISR_Stroke_Timer_states = 0x00;
 1547              		.loc 1 367 0
 1548 035c 5874     		strb	r0, [r3, #17]
 368:.\Valve_Control.c **** //		MoveLED(1);
 1549              		.loc 1 368 0
 1550 035e 2C4B     		ldr	r3, .L106+8
 1551 0360 1860     		str	r0, [r3]
 370:.\Valve_Control.c **** 	case Cutting: break;
 1552              		.loc 1 370 0
 1553 0362 10BD     		pop	{r4, pc}
 1554              	.L69:
 374:.\Valve_Control.c **** 		{
 1555              		.loc 1 374 0
 1556 0364 FFF7FEFF 		bl	Status_Reg_1_Read
 1557              	.LVL160:
 1558 0368 00F06000 		and	r0, r0, #96
 1559 036c 4028     		cmp	r0, #64
 1560 036e 0DD1     		bne	.L91
 376:.\Valve_Control.c ****             if(CutMode() == CUTCMODE)//ËøûÁª≠
 1561              		.loc 1 376 0
 1562 0370 0520     		movs	r0, #5
 1563 0372 FFF7FEFF 		bl	CyDelay
 1564              	.LVL161:
 377:.\Valve_Control.c **** 		    {
 1565              		.loc 1 377 0
 1566 0376 FFF7FEFF 		bl	Status_Reg_1_Read
ARM GAS  C:\Users\pxc\AppData\Local\Temp\ccofNc3q.s 			page 46


 1567              	.LVL162:
 1568 037a 00F06000 		and	r0, r0, #96
 1569 037e 4028     		cmp	r0, #64
 1570 0380 39D1     		bne	.L99
 379:.\Valve_Control.c ****             }
 1571              		.loc 1 379 0
 1572 0382 0422     		movs	r2, #4
 1573 0384 204B     		ldr	r3, .L106
 1574 0386 1A74     		strb	r2, [r3, #16]
 225:.\Valve_Control.c **** 
 1575              		.loc 1 225 0
 1576 0388 0020     		movs	r0, #0
 1577 038a 10BD     		pop	{r4, pc}
 1578              	.L91:
 383:.\Valve_Control.c **** 		{
 1579              		.loc 1 383 0
 1580 038c FFF7FEFF 		bl	Status_Reg_1_Read
 1581              	.LVL163:
 1582 0390 00F06000 		and	r0, r0, #96
 1583 0394 2028     		cmp	r0, #32
 1584 0396 0FD1     		bne	.L92
 385:.\Valve_Control.c ****              if(CutMode() == CUTSMODE)//ÂçïÊ¨°
 1585              		.loc 1 385 0
 1586 0398 0520     		movs	r0, #5
 1587 039a FFF7FEFF 		bl	CyDelay
 1588              	.LVL164:
 386:.\Valve_Control.c ****             {
 1589              		.loc 1 386 0
 1590 039e FFF7FEFF 		bl	Status_Reg_1_Read
 1591              	.LVL165:
 1592 03a2 00F06000 		and	r0, r0, #96
 1593 03a6 2028     		cmp	r0, #32
 1594 03a8 27D1     		bne	.L100
 388:.\Valve_Control.c ****             CutReg.SToDotFlag = 1;
 1595              		.loc 1 388 0
 1596 03aa 174B     		ldr	r3, .L106
 1597 03ac 0222     		movs	r2, #2
 1598 03ae 1A74     		strb	r2, [r3, #16]
 389:.\Valve_Control.c ****             }
 1599              		.loc 1 389 0
 1600 03b0 0122     		movs	r2, #1
 1601 03b2 9A75     		strb	r2, [r3, #22]
 225:.\Valve_Control.c **** 
 1602              		.loc 1 225 0
 1603 03b4 0020     		movs	r0, #0
 1604 03b6 10BD     		pop	{r4, pc}
 1605              	.L92:
 393:.\Valve_Control.c **** 		{
 1606              		.loc 1 393 0
 1607 03b8 FFF7FEFF 		bl	Status_Reg_1_Read
 1608              	.LVL166:
 1609 03bc 00F06000 		and	r0, r0, #96
 1610 03c0 6028     		cmp	r0, #96
 1611 03c2 1CD1     		bne	.L101
 395:.\Valve_Control.c ****             if(CutMode() == CUTSMODE)//ÂçïÊ¨°
 1612              		.loc 1 395 0
 1613 03c4 0520     		movs	r0, #5
ARM GAS  C:\Users\pxc\AppData\Local\Temp\ccofNc3q.s 			page 47


 1614 03c6 FFF7FEFF 		bl	CyDelay
 1615              	.LVL167:
 396:.\Valve_Control.c ****             {
 1616              		.loc 1 396 0
 1617 03ca FFF7FEFF 		bl	Status_Reg_1_Read
 1618              	.LVL168:
 1619 03ce 00F06000 		and	r0, r0, #96
 1620 03d2 2028     		cmp	r0, #32
 1621 03d4 15D1     		bne	.L102
 398:.\Valve_Control.c ****             ModeFlag = 1;
 1622              		.loc 1 398 0
 1623 03d6 0120     		movs	r0, #1
 1624 03d8 0B4B     		ldr	r3, .L106
 1625 03da 1874     		strb	r0, [r3, #16]
 1626              	.LVL169:
 1627 03dc 10BD     		pop	{r4, pc}
 1628              	.LVL170:
 1629              	.L93:
 225:.\Valve_Control.c **** 
 1630              		.loc 1 225 0
 1631 03de 0020     		movs	r0, #0
 1632 03e0 10BD     		pop	{r4, pc}
 1633              	.L94:
 1634 03e2 0020     		movs	r0, #0
 1635 03e4 10BD     		pop	{r4, pc}
 1636              	.L95:
 1637 03e6 0020     		movs	r0, #0
 1638 03e8 10BD     		pop	{r4, pc}
 1639              	.L96:
 1640 03ea 0020     		movs	r0, #0
 1641 03ec 10BD     		pop	{r4, pc}
 1642              	.L97:
 1643 03ee 0020     		movs	r0, #0
 1644 03f0 10BD     		pop	{r4, pc}
 1645              	.L98:
 1646 03f2 0020     		movs	r0, #0
 1647 03f4 10BD     		pop	{r4, pc}
 1648              	.L99:
 1649 03f6 0020     		movs	r0, #0
 1650 03f8 10BD     		pop	{r4, pc}
 1651              	.L100:
 1652 03fa 0020     		movs	r0, #0
 1653 03fc 10BD     		pop	{r4, pc}
 1654              	.L101:
 1655 03fe 0020     		movs	r0, #0
 1656 0400 10BD     		pop	{r4, pc}
 1657              	.L102:
 1658 0402 0020     		movs	r0, #0
 1659              	.LVL171:
 406:.\Valve_Control.c **** 
 1660              		.loc 1 406 0
 1661 0404 10BD     		pop	{r4, pc}
 1662              	.L107:
 1663 0406 00BF     		.align	2
 1664              	.L106:
 1665 0408 00000000 		.word	CutReg
 1666 040c 00000000 		.word	TPDO_OUT_Status
ARM GAS  C:\Users\pxc\AppData\Local\Temp\ccofNc3q.s 			page 48


 1667 0410 00000000 		.word	ISR_Stroke_Timer_states
 1668              		.cfi_endproc
 1669              	.LFE64:
 1670              		.size	Stroke_Process, .-Stroke_Process
 1671              		.section	.text.Valve_config,"ax",%progbits
 1672              		.align	2
 1673              		.global	Valve_config
 1674              		.thumb
 1675              		.thumb_func
 1676              		.type	Valve_config, %function
 1677              	Valve_config:
 1678              	.LFB68:
 497:.\Valve_Control.c ****     uint8   key_com = 0x03; 
 1679              		.loc 1 497 0
 1680              		.cfi_startproc
 1681              		@ args = 0, pretend = 0, frame = 0
 1682              		@ frame_needed = 0, uses_anonymous_args = 0
 1683              	.LVL172:
 510:.\Valve_Control.c ****     {
 1684              		.loc 1 510 0
 1685 0000 98B1     		cbz	r0, .L111
 497:.\Valve_Control.c ****     uint8   key_com = 0x03; 
 1686              		.loc 1 497 0
 1687 0002 10B5     		push	{r4, lr}
 1688              		.cfi_def_cfa_offset 8
 1689              		.cfi_offset 4, -8
 1690              		.cfi_offset 14, -4
 1691              	.LVL173:
 523:.\Valve_Control.c ****                     }
 1692              		.loc 1 523 0
 1693 0004 0120     		movs	r0, #1
 1694              	.LVL174:
 1695 0006 FFF7FEFF 		bl	CyDelay
 1696              	.LVL175:
 552:.\Valve_Control.c ****                         switch(step_flag)
 1697              		.loc 1 552 0
 1698 000a 084C     		ldr	r4, .L112
 1699 000c 607A     		ldrb	r0, [r4, #9]	@ zero_extendqisi2
 1700 000e FFF7FEFF 		bl	Control_Reg_1_Write
 1701              	.LVL176:
 1702 0012 627A     		ldrb	r2, [r4, #9]	@ zero_extendqisi2
 1703 0014 064B     		ldr	r3, .L112+4
 1704 0016 1A70     		strb	r2, [r3]
 562:.\Valve_Control.c ****                             }
 1705              		.loc 1 562 0
 1706 0018 064B     		ldr	r3, .L112+8
 1707 001a 5879     		ldrb	r0, [r3, #5]	@ zero_extendqisi2
 1708 001c 064B     		ldr	r3, .L112+12
 1709 001e 1870     		strb	r0, [r3]
 1710 0020 FFF7FEFF 		bl	LCD_DISPLAY
 1711              	.LVL177:
 1712 0024 FFF7FEFF 		bl	LCD_DISPLAY_MODE
 1713              	.LVL178:
 1714 0028 10BD     		pop	{r4, pc}
 1715              	.LVL179:
 1716              	.L111:
 1717              		.cfi_def_cfa_offset 0
ARM GAS  C:\Users\pxc\AppData\Local\Temp\ccofNc3q.s 			page 49


 1718              		.cfi_restore 4
 1719              		.cfi_restore 14
 1720 002a 7047     		bx	lr
 1721              	.L113:
 1722              		.align	2
 1723              	.L112:
 1724 002c 00000000 		.word	CutReg
 1725 0030 00000000 		.word	TPDO_OUT_Status
 1726 0034 00000000 		.word	.LANCHOR1
 1727 0038 00000000 		.word	TPDO_PROCESS_Status
 1728              		.cfi_endproc
 1729              	.LFE68:
 1730              		.size	Valve_config, .-Valve_config
 1731              		.global	FootUP_State
 1732              		.global	FootStart_state
 1733              		.global	LED_Status
 1734              		.comm	CutReg,24,4
 1735              		.section	.rodata
 1736              		.align	2
 1737              		.set	.LANCHOR0,. + 0
 1738              		.type	eepromArray, %object
 1739              		.size	eepromArray, 8
 1740              	eepromArray:
 1741 0000 00000000 		.space	8
 1741      00000000 
 1742              		.data
 1743              		.align	2
 1744              		.set	.LANCHOR1,. + 0
 1745              		.type	lastValue, %object
 1746              		.size	lastValue, 4
 1747              	lastValue:
 1748 0000 FF000000 		.word	255
 1749              		.type	LED_Status, %object
 1750              		.size	LED_Status, 6
 1751              	LED_Status:
 1752 0004 01       		.byte	1
 1753 0005 02       		.byte	2
 1754 0006 04       		.byte	4
 1755 0007 08       		.byte	8
 1756 0008 10       		.byte	16
 1757 0009 20       		.byte	32
 1758 000a 0000     		.space	2
 1759              		.type	lastMode, %object
 1760              		.size	lastMode, 4
 1761              	lastMode:
 1762 000c FF000000 		.word	255
 1763              		.type	FootStart_state, %object
 1764              		.size	FootStart_state, 1
 1765              	FootStart_state:
 1766 0010 01       		.byte	1
 1767              		.type	FootUP_State, %object
 1768              		.size	FootUP_State, 1
 1769              	FootUP_State:
 1770 0011 01       		.byte	1
 1771 0012 0000     		.section	.rodata.str1.4,"aMS",%progbits,1
 1772              		.align	2
 1773              	.LC0:
ARM GAS  C:\Users\pxc\AppData\Local\Temp\ccofNc3q.s 			page 50


 1774 0000 20204661 		.ascii	"  Fast  \000"
 1774      73742020 
 1774      00
 1775 0009 000000   		.space	3
 1776              	.LC1:
 1777 000c 2020536C 		.ascii	"  Slow  \000"
 1777      6F772020 
 1777      00
 1778 0015 000000   		.space	3
 1779              	.LC2:
 1780 0018 20204B65 		.ascii	"  Keep  \000"
 1780      65702020 
 1780      00
 1781 0021 000000   		.space	3
 1782              	.LC3:
 1783 0024 20556E6C 		.ascii	" Unload\000"
 1783      6F616400 
 1784              	.LC4:
 1785 002c 20205374 		.ascii	"  Stop  \000"
 1785      6F702020 
 1785      00
 1786 0035 000000   		.space	3
 1787              	.LC5:
 1788 0038 20204261 		.ascii	"  Back  \000"
 1788      636B2020 
 1788      00
 1789 0041 000000   		.space	3
 1790              	.LC6:
 1791 0044 20204572 		.ascii	"  Error \000"
 1791      726F7220 
 1791      00
 1792 004d 000000   		.space	3
 1793              	.LC7:
 1794 0050 432D4D4F 		.ascii	"C-MODE\000"
 1794      444500
 1795 0057 00       		.space	1
 1796              	.LC8:
 1797 0058 4A2D4D4F 		.ascii	"J-MODE\000"
 1797      444500
 1798 005f 00       		.space	1
 1799              	.LC9:
 1800 0060 532D4D4F 		.ascii	"S-MODE\000"
 1800      444500
 1801 0067 00       		.space	1
 1802              	.LC10:
 1803 0068 554E4B4E 		.ascii	"UNKNOWN\000"
 1803      4F574E00 
 1804              		.bss
 1805              		.align	1
 1806              		.set	.LANCHOR2,. + 0
 1807              		.type	UnloadTime.7517, %object
 1808              		.size	UnloadTime.7517, 2
 1809              	UnloadTime.7517:
 1810 0000 0000     		.space	2
 1811              		.text
 1812              	.Letext0:
 1813              		.file 2 "c:\\program files (x86)\\cypress\\psoc creator\\3.3\\psoc creator\\import\\gnu\\arm\\4.9.
ARM GAS  C:\Users\pxc\AppData\Local\Temp\ccofNc3q.s 			page 51


 1814              		.file 3 "c:\\program files (x86)\\cypress\\psoc creator\\3.3\\psoc creator\\import\\gnu\\arm\\4.9.
 1815              		.file 4 "Generated_Source\\PSoC5/cytypes.h"
 1816              		.file 5 ".\\Valve_Control.h"
 1817              		.file 6 ".\\TestSlave.h"
 1818              		.file 7 "Generated_Source\\PSoC5/core_cm3.h"
 1819              		.file 8 "Generated_Source\\PSoC5/EEPROM_1.h"
 1820              		.file 9 "Generated_Source\\PSoC5/Clock_1.h"
 1821              		.file 10 "Generated_Source\\PSoC5/Timer_1.h"
 1822              		.file 11 "Generated_Source\\PSoC5/ISR_Stroke_Timer.h"
 1823              		.file 12 "Generated_Source\\PSoC5/LCD_Char_1.h"
 1824              		.file 13 "Generated_Source\\PSoC5/CyLib.h"
 1825              		.file 14 "Generated_Source\\PSoC5/Status_Reg_1.h"
 1826              		.file 15 "Generated_Source\\PSoC5/Control_Reg_1.h"