ARM GAS  C:\Users\pxc\AppData\Local\Temp\ccofNc3q.s 			page 1


   1              		.syntax unified
   2              		.cpu cortex-m3
   3              		.fpu softvfp
   4              		.eabi_attribute 20, 1
   5              		.eabi_attribute 21, 1
   6              		.eabi_attribute 23, 3
   7              		.eabi_attribute 24, 1
   8              		.eabi_attribute 25, 1
   9              		.eabi_attribute 26, 1
  10              		.eabi_attribute 30, 1
  11              		.eabi_attribute 34, 1
  12              		.eabi_attribute 18, 4
  13              		.thumb
  14              		.file	"Valve_Control.c"
  15              		.text
  16              	.Ltext0:
  17              		.cfi_sections	.debug_frame
  18              		.section	.text.EEPROM_Array_Read,"ax",%progbits
  19              		.align	2
  20              		.global	EEPROM_Array_Read
  21              		.thumb
  22              		.thumb_func
  23              		.type	EEPROM_Array_Read, %function
  24              	EEPROM_Array_Read:
  25              	.LFB65:
  26              		.file 1 ".\\Valve_Control.c"
   1:.\Valve_Control.c **** /* ========================================
   2:.\Valve_Control.c ****  *
   3:.\Valve_Control.c ****  * Copyright YOUR COMPANY, THE YEAR
   4:.\Valve_Control.c ****  * All Rights Reserved
   5:.\Valve_Control.c ****  * UNPUBLISHED, LICENSED SOFTWARE.
   6:.\Valve_Control.c ****  *
   7:.\Valve_Control.c ****  * CONFIDENTIAL AND PROPRIETARY INFORMATION
   8:.\Valve_Control.c ****  * WHICH IS THE PROPERTY OF your company.
   9:.\Valve_Control.c ****  *
  10:.\Valve_Control.c ****  * ========================================
  11:.\Valve_Control.c **** */
  12:.\Valve_Control.c **** /* ========================================
  13:.\Valve_Control.c ****  *
  14:.\Valve_Control.c ****  * Copyright YOUR COMPANY, THE YEAR
  15:.\Valve_Control.c ****  * All Rights Reserved
  16:.\Valve_Control.c ****  * UNPUBLISHED, LICENSED SOFTWARE.
  17:.\Valve_Control.c ****  *
  18:.\Valve_Control.c ****  * CONFIDENTIAL AND PROPRIETARY INFORMATION
  19:.\Valve_Control.c ****  * WHICH IS THE PROPERTY OF your company.
  20:.\Valve_Control.c ****  *
  21:.\Valve_Control.c ****  * ========================================
  22:.\Valve_Control.c **** */
  23:.\Valve_Control.c **** #include "product.h"
  24:.\Valve_Control.c **** #include "TestSlave.h"
  25:.\Valve_Control.c **** 
  26:.\Valve_Control.c **** #define BIT1 0X01       //KA1
  27:.\Valve_Control.c **** #define BIT2 0X02       //KA2
  28:.\Valve_Control.c **** #define BIT3 0X04       //KA3
  29:.\Valve_Control.c **** #define BIT4 0X08       //KA4
  30:.\Valve_Control.c **** #define BIT5 0X10       //KA5
  31:.\Valve_Control.c **** #define BIT6 0X20       //KA6
ARM GAS  C:\Users\pxc\AppData\Local\Temp\ccofNc3q.s 			page 2


  32:.\Valve_Control.c **** #define BIT7 0X40
  33:.\Valve_Control.c **** #define BIT8 0X80
  34:.\Valve_Control.c **** 
  35:.\Valve_Control.c **** #define KA1_bit     0
  36:.\Valve_Control.c **** #define KA2_bit     1
  37:.\Valve_Control.c **** #define KA3_bit     2
  38:.\Valve_Control.c **** #define KA4_bit     3
  39:.\Valve_Control.c **** #define KA5_bit     4
  40:.\Valve_Control.c **** #define KA6_bit     5
  41:.\Valve_Control.c **** 
  42:.\Valve_Control.c **** #define INITIAL        0x01
  43:.\Valve_Control.c **** static const uint8 CYCODE Test_Array[1]={0XFF};
  44:.\Valve_Control.c **** static const uint8 CYCODE eepromArray[]={0x00, 0x00, 0x00, 0x00, 0x00, 0x00,0x00,0x00};  //ÈòÄÁªÑÈÖ
  45:.\Valve_Control.c **** //static const uint8 CYCODE eepromUnlodeTime = 0;  //ÈòÄÁªÑÈÖçÁΩÆÂàùÂßãÂåñÂÄº
  46:.\Valve_Control.c **** //static const uint8 CYCODE eepromKeepTime   = 0;  //ÈòÄÁªÑÈÖçÁΩÆÂàùÂßãÂåñÂÄº
  47:.\Valve_Control.c **** 
  48:.\Valve_Control.c **** struct CUTPARA	CutReg;
  49:.\Valve_Control.c **** 
  50:.\Valve_Control.c **** uint8 LED_Status[]={0x01,0x02,0x04,0x08,0x10,0x20};
  51:.\Valve_Control.c **** uint8 FootStart_state = 0x01;
  52:.\Valve_Control.c **** uint8 FootUP_State    = 0x01;
  53:.\Valve_Control.c **** static lastValue = 0xFF;
  54:.\Valve_Control.c **** static lastMode  = 0xFF;
  55:.\Valve_Control.c **** CY_ISR_PROTO(Stroke_ISRHandle);
  56:.\Valve_Control.c **** uint16 Get_ADvalue(uint8 timetype);
  57:.\Valve_Control.c **** void Read_config(void);
  58:.\Valve_Control.c **** void LCD_DISPLAY(uint8 value);
  59:.\Valve_Control.c **** extern int ISR_Stroke_Timer_states;
  60:.\Valve_Control.c **** /**********************************************************
  61:.\Valve_Control.c **** ÂáΩÊï∞ÂêçÔºö
  62:.\Valve_Control.c **** Âäü  ËÉΩÔºö
  63:.\Valve_Control.c **** ÂèÇ  Êï∞ÔºöÊó†
  64:.\Valve_Control.c **** ËøîÂõûÂÄºÔºöÊó†
  65:.\Valve_Control.c **** ËØ¥Êòé  ÔºöËß¶Âèë‰∏≠Êñ≠Êó∂Èó¥10ms
  66:.\Valve_Control.c **** ************************************************************/
  67:.\Valve_Control.c **** void timer_10ms(void)
  68:.\Valve_Control.c **** {
  69:.\Valve_Control.c **** 	//Stroke_Timer_STATUS;
  70:.\Valve_Control.c **** //	ISR_Stroke_Timer_ClearPending();
  71:.\Valve_Control.c **** //	if(CutReg.ModeRunFlag == 0x01)
  72:.\Valve_Control.c **** //	{
  73:.\Valve_Control.c ****    ISR_Stroke_Timer_states = 0x00; 
  74:.\Valve_Control.c ****  
  75:.\Valve_Control.c ****    if(((Enter_Start == System_enable) ||(Enter_CUTJMODE != System_enable) || ( One_Work_Runing == C
  76:.\Valve_Control.c ****     {
  77:.\Valve_Control.c ****         
  78:.\Valve_Control.c **** 		if(CutMode() == CUTSMODE && CutReg.CutTimeStatus < VUnload && (!FootStart()))
  79:.\Valve_Control.c **** 		{
  80:.\Valve_Control.c **** 			CyDelay(5);
  81:.\Valve_Control.c **** 			if(!FootStart())
  82:.\Valve_Control.c **** 			{
  83:.\Valve_Control.c **** 				ValveOut(CutReg.Action[VBack]);
  84:.\Valve_Control.c ****                 LED_WRITE(LED_Status[VBack]);
  85:.\Valve_Control.c **** 				CutReg.CutTimeStatus = VBack;
  86:.\Valve_Control.c ****               //CutReg.OneWorkFinshState = One_Work_Runing;   /* Â¢ûÂä†Âä®‰ΩúÂÆåÊàêÊ†áÂøó20160820*/
  87:.\Valve_Control.c **** 			}
  88:.\Valve_Control.c **** 		} 
ARM GAS  C:\Users\pxc\AppData\Local\Temp\ccofNc3q.s 			page 3


  89:.\Valve_Control.c ****        // 
  90:.\Valve_Control.c ****         
  91:.\Valve_Control.c **** 		switch(CutReg.CutTimeStatus)
  92:.\Valve_Control.c **** 		{
  93:.\Valve_Control.c **** 		case VFast:
  94:.\Valve_Control.c ****            Read_config();
  95:.\Valve_Control.c ****            CutReg.OneWorkFinshState = One_Work_Runing;   /* Â¢ûÂä†Âä®‰ΩúÂÆåÊàêÊ†áÂøó20160820*/
  96:.\Valve_Control.c **** 			if(DownPoint())
  97:.\Valve_Control.c **** 			{
  98:.\Valve_Control.c **** 				ValveOut(CutReg.Action[VSlow]);
  99:.\Valve_Control.c ****                 LED_WRITE(LED_Status[VSlow]);
 100:.\Valve_Control.c **** 				CutReg.CutTimeStatus = VSlow;
 101:.\Valve_Control.c **** 			}
 102:.\Valve_Control.c **** 			else
 103:.\Valve_Control.c **** 			{
 104:.\Valve_Control.c **** 				ValveOut(CutReg.Action[VFast]);
 105:.\Valve_Control.c ****                 LED_WRITE(LED_Status[VFast]);
 106:.\Valve_Control.c **** 				CutReg.CutTimeStatus = VFast;
 107:.\Valve_Control.c **** 			}
 108:.\Valve_Control.c **** 			break;
 109:.\Valve_Control.c **** 		case VSlow:
 110:.\Valve_Control.c ****             //  CutReg.OneWorkFinshState = One_Work_Runing;   /* Â¢ûÂä†Âä®‰ΩúÂÆåÊàêÊ†áÂøó20160820*/
 111:.\Valve_Control.c **** 			if(DownPoint())
 112:.\Valve_Control.c **** 			{
 113:.\Valve_Control.c **** 				ValveOut(CutReg.Action[VKeep]);
 114:.\Valve_Control.c ****                 LED_WRITE(LED_Status[VKeep]);
 115:.\Valve_Control.c **** 				CutReg.CutTimeStatus = VKeep;
 116:.\Valve_Control.c **** 				CutReg.Cnt = 0;
 117:.\Valve_Control.c **** 			}
 118:.\Valve_Control.c **** 			else
 119:.\Valve_Control.c **** 			{
 120:.\Valve_Control.c **** 				ValveOut(CutReg.Action[VFast]);
 121:.\Valve_Control.c ****                 LED_WRITE(LED_Status[VFast]);
 122:.\Valve_Control.c **** 				CutReg.CutTimeStatus = VFast;
 123:.\Valve_Control.c **** 			}
 124:.\Valve_Control.c **** 			break;
 125:.\Valve_Control.c **** 		case VKeep:
 126:.\Valve_Control.c ****            //  CutReg.OneWorkFinshState = One_Work_Runing;   /* Â¢ûÂä†Âä®‰ΩúÂÆåÊàêÊ†áÂøó20160820*/
 127:.\Valve_Control.c **** 			CutReg.Cnt++;
 128:.\Valve_Control.c **** 			if(CutReg.Cnt >= CutReg.KeepTime)
 129:.\Valve_Control.c **** 			{
 130:.\Valve_Control.c **** 				CutReg.Cnt = 0;
 131:.\Valve_Control.c **** 				ValveOut(CutReg.Action[VUnload]);
 132:.\Valve_Control.c ****                 LED_WRITE(LED_Status[VUnload]);
 133:.\Valve_Control.c **** 				CutReg.CutTimeStatus = VUnload;
 134:.\Valve_Control.c **** 			}
 135:.\Valve_Control.c **** 			else
 136:.\Valve_Control.c **** 			{
 137:.\Valve_Control.c **** 				ValveOut(CutReg.Action[VKeep]);
 138:.\Valve_Control.c ****                 LED_WRITE(LED_Status[VKeep]);
 139:.\Valve_Control.c **** 				CutReg.CutTimeStatus = VKeep;
 140:.\Valve_Control.c **** 			}
 141:.\Valve_Control.c **** 			break;
 142:.\Valve_Control.c **** 		case VUnload:
 143:.\Valve_Control.c ****           //    CutReg.OneWorkFinshState = One_Work_Runing;   /* Â¢ûÂä†Âä®‰ΩúÂÆåÊàêÊ†áÂøó20160820*/
 144:.\Valve_Control.c **** 			CutReg.Cnt++;
 145:.\Valve_Control.c **** 			if(CutReg.Cnt >= CutReg.UnloadTime)
ARM GAS  C:\Users\pxc\AppData\Local\Temp\ccofNc3q.s 			page 4


 146:.\Valve_Control.c **** 			{
 147:.\Valve_Control.c **** 				CutReg.Cnt = 0;
 148:.\Valve_Control.c **** 				ValveOut(CutReg.Action[VBack]);
 149:.\Valve_Control.c ****                 LED_WRITE(LED_Status[VBack]);
 150:.\Valve_Control.c **** 				CutReg.CutTimeStatus = VBack;
 151:.\Valve_Control.c **** 			}
 152:.\Valve_Control.c **** 			else
 153:.\Valve_Control.c **** 			{
 154:.\Valve_Control.c **** 				ValveOut(CutReg.Action[VUnload]);
 155:.\Valve_Control.c ****                 LED_WRITE(LED_Status[VUnload]);
 156:.\Valve_Control.c **** 				CutReg.CutTimeStatus = VUnload;
 157:.\Valve_Control.c **** 			}
 158:.\Valve_Control.c **** 			break;
 159:.\Valve_Control.c **** 		case VBack:
 160:.\Valve_Control.c ****          //   CutReg.OneWorkFinshState = One_Work_Runing;   /* Â¢ûÂä†Âä®‰ΩúÂÆåÊàêÊ†áÂøó20160820*/
 161:.\Valve_Control.c **** 			if(UpperPoint())
 162:.\Valve_Control.c **** 			{
 163:.\Valve_Control.c **** 				if(UpperPoint())
 164:.\Valve_Control.c **** 				{
 165:.\Valve_Control.c **** 					ValveOut(CutReg.Action[VStop]);
 166:.\Valve_Control.c ****                     LED_WRITE(LED_Status[VStop]);
 167:.\Valve_Control.c **** 					CutReg.CutTimeStatus = VStop;
 168:.\Valve_Control.c **** 					CutReg.Cnt = 0;
 169:.\Valve_Control.c ****                     CutReg.OneWorkFinshState = One_Work_Finish;//ÂÆåÊàê‰∏ÄÊ¨°Âä®‰ΩúÊ†áÂøó 20160829Á
 170:.\Valve_Control.c **** 				}
 171:.\Valve_Control.c **** 			}
 172:.\Valve_Control.c **** 			else
 173:.\Valve_Control.c **** 			{
 174:.\Valve_Control.c **** 				ValveOut(CutReg.Action[VBack]);
 175:.\Valve_Control.c ****                 LED_WRITE(LED_Status[VBack]);
 176:.\Valve_Control.c **** 				CutReg.CutTimeStatus = VBack;
 177:.\Valve_Control.c **** 			}
 178:.\Valve_Control.c **** 			break;
 179:.\Valve_Control.c **** 		case VStop:
 180:.\Valve_Control.c **** 			CutReg.Cnt++;
 181:.\Valve_Control.c **** 			if(CutReg.Cnt >= 100  )//
 182:.\Valve_Control.c **** 			{
 183:.\Valve_Control.c **** 				CutReg.Cnt = 0;
 184:.\Valve_Control.c **** 				ISR_Stroke_Timer_states =0x01;
 185:.\Valve_Control.c **** 				CutReg.CutTimeStatus = VFast;  //ÁªìÊùü
 186:.\Valve_Control.c ****       
 187:.\Valve_Control.c **** 				CutReg.CutStatus = JudgMode;
 188:.\Valve_Control.c ****              
 189:.\Valve_Control.c **** 			}
 190:.\Valve_Control.c **** 			else
 191:.\Valve_Control.c **** 			{
 192:.\Valve_Control.c **** 				ValveOut(CutReg.Action[VStop]);
 193:.\Valve_Control.c ****                 LED_WRITE(LED_Status[VStop]);
 194:.\Valve_Control.c **** 				CutReg.CutTimeStatus = VStop;
 195:.\Valve_Control.c ****             
 196:.\Valve_Control.c **** 			}
 197:.\Valve_Control.c ****            
 198:.\Valve_Control.c **** 			break;
 199:.\Valve_Control.c **** 		default : break;
 200:.\Valve_Control.c **** 		}
 201:.\Valve_Control.c ****     }
 202:.\Valve_Control.c **** //	}
ARM GAS  C:\Users\pxc\AppData\Local\Temp\ccofNc3q.s 			page 5


 203:.\Valve_Control.c **** //	else if(CutReg.ModeRunFlag == 0x02)//ÁÇπÂä®
 204:.\Valve_Control.c **** //	{
 205:.\Valve_Control.c **** //		CutReg.Cnt++;
 206:.\Valve_Control.c **** //	}
 207:.\Valve_Control.c **** //	else
 208:.\Valve_Control.c **** //	{
 209:.\Valve_Control.c **** //		CutReg.Cnt++;
 210:.\Valve_Control.c **** //	}
 211:.\Valve_Control.c **** 
 212:.\Valve_Control.c **** }
 213:.\Valve_Control.c **** 
 214:.\Valve_Control.c **** 
 215:.\Valve_Control.c **** /*****************************************************
 216:.\Valve_Control.c **** ÂáΩÊï∞ÂêçÔºöuint8 Stroke_Process(void)
 217:.\Valve_Control.c **** Âäü  ËÉΩÔºöÂâ™ÂàáË°åÁ®ãÊéßÂà∂ÊµÅÁ®ã
 218:.\Valve_Control.c **** ÂèÇ  Êï∞ÔºöÊó†
 219:.\Valve_Control.c **** ËøîÂõûÂÄºÔºöÊó†
 220:.\Valve_Control.c **** *****************************************************/
 221:.\Valve_Control.c **** uint8 Stroke_Process(void)
 222:.\Valve_Control.c **** {
 223:.\Valve_Control.c **** 	uint8 ModeFlag = 0;
 224:.\Valve_Control.c **** 	static int16 UnloadTime = 0;
 225:.\Valve_Control.c **** 	ModeFlag = 0;
 226:.\Valve_Control.c **** 
 227:.\Valve_Control.c **** 	switch(CutReg.CutStatus)
 228:.\Valve_Control.c **** 	{
 229:.\Valve_Control.c **** 	case StrokeStart:
 230:.\Valve_Control.c **** 		if((CutMode() == CUTCMODE || CutMode() == CUTSMODE) && Enter_CUTJMODE == System_enable)
 231:.\Valve_Control.c **** 		{
 232:.\Valve_Control.c ****             CutReg.CutStatus = StrokeStart;
 233:.\Valve_Control.c **** 		}
 234:.\Valve_Control.c ****         else if((CutMode() == CUTCMODE || CutMode() == CUTSMODE) && Enter_CUTJMODE != System_enable
 235:.\Valve_Control.c **** 		{
 236:.\Valve_Control.c ****             CutReg.CutStatus = WaitNoFoot;
 237:.\Valve_Control.c **** 		}
 238:.\Valve_Control.c **** 		else if(CutMode() == CUTJMODE)//ÁÇπÂä®
 239:.\Valve_Control.c **** 		{
 240:.\Valve_Control.c **** 			CutReg.CutStatus = JOGMODE;
 241:.\Valve_Control.c **** 		}
 242:.\Valve_Control.c ****         if(System_enable == Enter_return)
 243:.\Valve_Control.c ****         {
 244:.\Valve_Control.c ****             CutReg.CutStatus = JOGMODE;
 245:.\Valve_Control.c ****         }
 246:.\Valve_Control.c **** 		break;
 247:.\Valve_Control.c **** 	case JOGMODE:
 248:.\Valve_Control.c ****         
 249:.\Valve_Control.c **** 		if((CutMode() != CUTJMODE)&& System_enable != Enter_return)
 250:.\Valve_Control.c **** 		{
 251:.\Valve_Control.c **** 			ValveOut(CutReg.Action[VStop]);
 252:.\Valve_Control.c ****             LED_WRITE(LED_Status[VStop]);
 253:.\Valve_Control.c **** 			CutReg.CutStatus = StrokeStart;
 254:.\Valve_Control.c **** 		}
 255:.\Valve_Control.c **** 		else if(FootStart() && FootStart_state)//‰∏ã
 256:.\Valve_Control.c **** 		{
 257:.\Valve_Control.c ****             /* Â¢ûÂä†Âä®‰ΩúÂÆåÊàêÊ†áÂøó20160820*/
 258:.\Valve_Control.c ****             CutReg.OneWorkFinshState = One_Work_Runing;
 259:.\Valve_Control.c **** 			while(FootStart())
ARM GAS  C:\Users\pxc\AppData\Local\Temp\ccofNc3q.s 			page 6


 260:.\Valve_Control.c **** 			{
 261:.\Valve_Control.c **** //				MoveLED(1);
 262:.\Valve_Control.c **** 				if(DownPoint())
 263:.\Valve_Control.c **** 				{
 264:.\Valve_Control.c **** 					ValveOut(CutReg.Action[VSlow]);
 265:.\Valve_Control.c ****                     LED_WRITE(LED_Status[VSlow]);
 266:.\Valve_Control.c **** 					UnloadTime = CutReg.UnloadTime;
 267:.\Valve_Control.c **** 				}
 268:.\Valve_Control.c **** 				else
 269:.\Valve_Control.c **** 				{
 270:.\Valve_Control.c **** 					ValveOut(CutReg.Action[VFast]);
 271:.\Valve_Control.c ****                     LED_WRITE(LED_Status[VFast]);
 272:.\Valve_Control.c **** 				}
 273:.\Valve_Control.c **** 				if(CutMode() != CUTJMODE)
 274:.\Valve_Control.c **** 				{
 275:.\Valve_Control.c **** 					ValveOut(CutReg.Action[VStop]);
 276:.\Valve_Control.c ****                     LED_WRITE(LED_Status[VStop]);
 277:.\Valve_Control.c **** 					CutReg.CutStatus = StrokeStart;
 278:.\Valve_Control.c **** 					break;
 279:.\Valve_Control.c **** 				}
 280:.\Valve_Control.c **** 			}
 281:.\Valve_Control.c **** 			ValveOut(CutReg.Action[VStop]);
 282:.\Valve_Control.c ****             LED_WRITE(LED_Status[VStop]);
 283:.\Valve_Control.c **** //			MoveLED(0);
 284:.\Valve_Control.c **** 		}
 285:.\Valve_Control.c **** 		else if(FootUp() && FootUP_State)//‰∏ä
 286:.\Valve_Control.c **** 		{
 287:.\Valve_Control.c **** 			UnloadTime = 0;
 288:.\Valve_Control.c **** 			while(FootUp())
 289:.\Valve_Control.c **** 			{
 290:.\Valve_Control.c **** //				MoveLED(1);
 291:.\Valve_Control.c **** 				if(UpperPoint())
 292:.\Valve_Control.c **** 				{
 293:.\Valve_Control.c **** 					ValveOut(CutReg.Action[VStop]);
 294:.\Valve_Control.c ****                     LED_WRITE(LED_Status[VStop]);
 295:.\Valve_Control.c **** 				}
 296:.\Valve_Control.c **** 				else
 297:.\Valve_Control.c **** 				{
 298:.\Valve_Control.c **** 					ValveOut(CutReg.Action[VBack]);
 299:.\Valve_Control.c ****                     LED_WRITE(LED_Status[VBack]);
 300:.\Valve_Control.c **** 				}
 301:.\Valve_Control.c **** 				if(CutMode() != CUTJMODE && System_enable != Enter_return)
 302:.\Valve_Control.c **** 				{
 303:.\Valve_Control.c **** 					ValveOut(CutReg.Action[VStop]);
 304:.\Valve_Control.c ****                     LED_WRITE(LED_Status[VStop]);
 305:.\Valve_Control.c **** 					CutReg.CutStatus = StrokeStart;
 306:.\Valve_Control.c **** 					break;
 307:.\Valve_Control.c **** 				}
 308:.\Valve_Control.c **** 			}
 309:.\Valve_Control.c **** 			ValveOut(CutReg.Action[VStop]);
 310:.\Valve_Control.c ****             LED_WRITE(LED_Status[VStop]);
 311:.\Valve_Control.c **** //			MoveLED(0);
 312:.\Valve_Control.c **** 		}
 313:.\Valve_Control.c **** 			
 314:.\Valve_Control.c **** 		if(CutMode() == CUTJMODE && !FootStart() && CutReg.Action[VUnload] != 0 && UnloadTime > 0)
 315:.\Valve_Control.c **** 		{
 316:.\Valve_Control.c **** 			ValveOut(CutReg.Action[VUnload]);//Âç∏Ëç∑	
ARM GAS  C:\Users\pxc\AppData\Local\Temp\ccofNc3q.s 			page 7


 317:.\Valve_Control.c ****              LED_WRITE(LED_Status[VUnload]);
 318:.\Valve_Control.c ****            // LED_WRITE(LED_Status(VUnload));
 319:.\Valve_Control.c **** 			UnloadTime -= 1;
 320:.\Valve_Control.c **** 			CyDelay(10);
 321:.\Valve_Control.c **** 		}
 322:.\Valve_Control.c **** 		else
 323:.\Valve_Control.c ****         {
 324:.\Valve_Control.c **** 			 ValveOut(CutReg.Action[VStop]);//ÂÅúÊ≠¢
 325:.\Valve_Control.c ****             /* Â¢ûÂä†Âä®‰ΩúÂÆåÊàêÊ†áÂøó20160820*/
 326:.\Valve_Control.c ****              CutReg.OneWorkFinshState = One_Work_Finish;
 327:.\Valve_Control.c ****         }
 328:.\Valve_Control.c **** 		
 329:.\Valve_Control.c **** 		break;
 330:.\Valve_Control.c **** 	case WaitNoFoot://ËØªÂâ™ÂàáÊï∞ÊçÆ
 331:.\Valve_Control.c **** 		if(!FootStart())
 332:.\Valve_Control.c ****         {
 333:.\Valve_Control.c **** 			CyDelay(5);
 334:.\Valve_Control.c **** 			if(!FootStart())
 335:.\Valve_Control.c **** 			{
 336:.\Valve_Control.c ****             	CutReg.CutStatus = WaitFoot;
 337:.\Valve_Control.c **** 			}
 338:.\Valve_Control.c ****         }
 339:.\Valve_Control.c ****         else
 340:.\Valve_Control.c ****         {
 341:.\Valve_Control.c ****             CutReg.CutStatus = WaitNoFoot;	
 342:.\Valve_Control.c ****         }
 343:.\Valve_Control.c **** 		break;
 344:.\Valve_Control.c **** 	case WaitFoot: //Á≠âÂæÖËÑöË∏èÂºÄÂÖ≥ÊúâÊïà‰ø°Âè∑
 345:.\Valve_Control.c **** 		if(FootStart())
 346:.\Valve_Control.c **** 		{
 347:.\Valve_Control.c **** 			CyDelay(5);
 348:.\Valve_Control.c **** 			if(FootStart())
 349:.\Valve_Control.c **** 			{                
 350:.\Valve_Control.c **** 				CutReg.CutStatus  = CutStart;
 351:.\Valve_Control.c ****                 CutReg.SToDotFlag = 0;
 352:.\Valve_Control.c **** 			}
 353:.\Valve_Control.c **** 		}
 354:.\Valve_Control.c **** 		else
 355:.\Valve_Control.c **** 		{
 356:.\Valve_Control.c **** 			CutReg.CutStatus = WaitFoot;   
 357:.\Valve_Control.c ****             if( CutReg.SToDotFlag && CutMode() == CUTJMODE)
 358:.\Valve_Control.c ****             {
 359:.\Valve_Control.c ****                 CutReg.CutStatus = JOGMODE;
 360:.\Valve_Control.c ****             }
 361:.\Valve_Control.c **** 		}
 362:.\Valve_Control.c **** 		break;
 363:.\Valve_Control.c **** 	case CutStart:
 364:.\Valve_Control.c **** 
 365:.\Valve_Control.c **** 		CutReg.CutStatus = Cutting;
 366:.\Valve_Control.c **** 		CutReg.Cnt = 0;
 367:.\Valve_Control.c **** 		CutReg.CutTimeStatus = VFast;
 368:.\Valve_Control.c **** 		ISR_Stroke_Timer_states = 0x00;
 369:.\Valve_Control.c **** //		MoveLED(1);
 370:.\Valve_Control.c **** 		break;
 371:.\Valve_Control.c **** 	case Cutting: break;
 372:.\Valve_Control.c **** 	case JudgMode://Âà§Êñ≠ ÂçïÊ¨°/ËøûÁª≠
 373:.\Valve_Control.c **** //		MoveLED(0);
ARM GAS  C:\Users\pxc\AppData\Local\Temp\ccofNc3q.s 			page 8


 374:.\Valve_Control.c **** 		if(CutMode() == CUTCMODE)//ËøûÁª≠
 375:.\Valve_Control.c **** 		{
 376:.\Valve_Control.c ****             CyDelay(5);
 377:.\Valve_Control.c ****             if(CutMode() == CUTCMODE)//ËøûÁª≠
 378:.\Valve_Control.c **** 		    {
 379:.\Valve_Control.c **** 		    	CutReg.CutStatus = CutStart;//Âõû
 380:.\Valve_Control.c ****             }
 381:.\Valve_Control.c **** 		
 382:.\Valve_Control.c **** 		}
 383:.\Valve_Control.c **** 		else if(CutMode() == CUTSMODE)//ÂçïÊ¨°
 384:.\Valve_Control.c **** 		{
 385:.\Valve_Control.c ****                CyDelay(5);
 386:.\Valve_Control.c ****              if(CutMode() == CUTSMODE)//ÂçïÊ¨°
 387:.\Valve_Control.c ****             {
 388:.\Valve_Control.c **** 			CutReg.CutStatus = WaitNoFoot;
 389:.\Valve_Control.c ****             CutReg.SToDotFlag = 1;
 390:.\Valve_Control.c ****             }
 391:.\Valve_Control.c ****            
 392:.\Valve_Control.c **** 		}
 393:.\Valve_Control.c **** 		else if(CutMode() == CUTJMODE)//ÁÇπÂä®
 394:.\Valve_Control.c **** 		{
 395:.\Valve_Control.c ****             CyDelay(5);
 396:.\Valve_Control.c ****             if(CutMode() == CUTSMODE)//ÂçïÊ¨°
 397:.\Valve_Control.c ****             {
 398:.\Valve_Control.c **** 			CutReg.CutStatus = JOGMODE;
 399:.\Valve_Control.c ****             ModeFlag = 1;
 400:.\Valve_Control.c ****             }
 401:.\Valve_Control.c **** 		}
 402:.\Valve_Control.c **** 		break;
 403:.\Valve_Control.c **** 	default : break;
 404:.\Valve_Control.c **** 	}
 405:.\Valve_Control.c **** 	return ModeFlag;
 406:.\Valve_Control.c **** }
 407:.\Valve_Control.c **** 
 408:.\Valve_Control.c **** /**********************************************************
 409:.\Valve_Control.c **** ÂáΩÊï∞ÂêçÔºö
 410:.\Valve_Control.c **** Âäü  ËÉΩÔºö
 411:.\Valve_Control.c **** ÂèÇ  Êï∞ÔºöÊó†
 412:.\Valve_Control.c **** ËøîÂõûÂÄºÔºöÊó†
 413:.\Valve_Control.c **** ************************************************************/
 414:.\Valve_Control.c **** void EEPROM_Array_Read(uint8 *eepromPtr,uint8 *buf,uint16 len)
 415:.\Valve_Control.c **** {
  27              		.loc 1 415 0
  28              		.cfi_startproc
  29              		@ args = 0, pretend = 0, frame = 0
  30              		@ frame_needed = 0, uses_anonymous_args = 0
  31              	.LVL0:
  32 0000 70B5     		push	{r4, r5, r6, lr}
  33              		.cfi_def_cfa_offset 16
  34              		.cfi_offset 4, -16
  35              		.cfi_offset 5, -12
  36              		.cfi_offset 6, -8
  37              		.cfi_offset 14, -4
  38 0002 0E46     		mov	r6, r1
  39 0004 1546     		mov	r5, r2
  40              	.LVL1:
 416:.\Valve_Control.c **** 	reg8 * RegPointer;
ARM GAS  C:\Users\pxc\AppData\Local\Temp\ccofNc3q.s 			page 9


 417:.\Valve_Control.c **** 	uint16 i;
 418:.\Valve_Control.c **** 	
 419:.\Valve_Control.c **** //	RegPointer = (reg8 *)CYDEV_EE_BASE;
 420:.\Valve_Control.c ****     
 421:.\Valve_Control.c **** // RegPointer = eepromPtr;
 422:.\Valve_Control.c **** 	for(i = 0; i < len; i++)
  41              		.loc 1 422 0
  42 0006 0024     		movs	r4, #0
  43 0008 05E0     		b	.L2
  44              	.LVL2:
  45              	.L3:
 423:.\Valve_Control.c **** 	{
 424:.\Valve_Control.c **** 		buf[i] = EEPROM_1_ReadByte(i);
  46              		.loc 1 424 0 discriminator 3
  47 000a 2046     		mov	r0, r4
  48 000c FFF7FEFF 		bl	EEPROM_1_ReadByte
  49              	.LVL3:
  50 0010 3055     		strb	r0, [r6, r4]
 422:.\Valve_Control.c **** 	{
  51              		.loc 1 422 0 discriminator 3
  52 0012 0134     		adds	r4, r4, #1
  53              	.LVL4:
  54 0014 A4B2     		uxth	r4, r4
  55              	.LVL5:
  56              	.L2:
 422:.\Valve_Control.c **** 	{
  57              		.loc 1 422 0 is_stmt 0 discriminator 1
  58 0016 AC42     		cmp	r4, r5
  59 0018 F7D3     		bcc	.L3
 425:.\Valve_Control.c **** 	}
 426:.\Valve_Control.c **** }
  60              		.loc 1 426 0 is_stmt 1
  61 001a 70BD     		pop	{r4, r5, r6, pc}
  62              		.cfi_endproc
  63              	.LFE65:
  64              		.size	EEPROM_Array_Read, .-EEPROM_Array_Read
  65              		.section	.text.EEPROM_Array_Write,"ax",%progbits
  66              		.align	2
  67              		.global	EEPROM_Array_Write
  68              		.thumb
  69              		.thumb_func
  70              		.type	EEPROM_Array_Write, %function
  71              	EEPROM_Array_Write:
  72              	.LFB66:
 427:.\Valve_Control.c **** void EEPROM_Array_Write(uint8 *eepromPtr,uint8 *buf,uint16 len) //Ê≤°ÊúâÂÅöË∂äÁïåÂ§ÑÁêÜÔºåË∂ÖËøá16‰
 428:.\Valve_Control.c **** {
  73              		.loc 1 428 0
  74              		.cfi_startproc
  75              		@ args = 0, pretend = 0, frame = 0
  76              		@ frame_needed = 0, uses_anonymous_args = 0
  77              	.LVL6:
 429:.\Valve_Control.c ****     if(--len)
  78              		.loc 1 429 0
  79 0000 012A     		cmp	r2, #1
  80 0002 06D0     		beq	.L8
 428:.\Valve_Control.c ****     if(--len)
  81              		.loc 1 428 0
ARM GAS  C:\Users\pxc\AppData\Local\Temp\ccofNc3q.s 			page 10


  82 0004 08B5     		push	{r3, lr}
  83              		.cfi_def_cfa_offset 8
  84              		.cfi_offset 3, -8
  85              		.cfi_offset 14, -4
  86 0006 0346     		mov	r3, r0
 430:.\Valve_Control.c ****     EEPROM_1_Write(buf,eepromPtr[0]);
  87              		.loc 1 430 0
  88 0008 0846     		mov	r0, r1
  89              	.LVL7:
  90 000a 1978     		ldrb	r1, [r3]	@ zero_extendqisi2
  91              	.LVL8:
  92 000c FFF7FEFF 		bl	EEPROM_1_Write
  93              	.LVL9:
  94 0010 08BD     		pop	{r3, pc}
  95              	.LVL10:
  96              	.L8:
  97              		.cfi_def_cfa_offset 0
  98              		.cfi_restore 3
  99              		.cfi_restore 14
 100 0012 7047     		bx	lr
 101              		.cfi_endproc
 102              	.LFE66:
 103              		.size	EEPROM_Array_Write, .-EEPROM_Array_Write
 104              		.section	.text.Read_config,"ax",%progbits
 105              		.align	2
 106              		.global	Read_config
 107              		.thumb
 108              		.thumb_func
 109              		.type	Read_config, %function
 110              	Read_config:
 111              	.LFB69:
 431:.\Valve_Control.c ****     
 432:.\Valve_Control.c **** }
 433:.\Valve_Control.c **** ///**********************************************************
 434:.\Valve_Control.c **** //ÂáΩÊï∞ÂêçÔºö
 435:.\Valve_Control.c **** //Âäü  ËÉΩÔºö
 436:.\Valve_Control.c **** //ÂèÇ  Êï∞ÔºöÊó†
 437:.\Valve_Control.c **** //ËøîÂõûÂÄºÔºöÊó†
 438:.\Valve_Control.c **** //************************************************************/
 439:.\Valve_Control.c **** //void EEPROM_Byte_Write(uint16 StartAddr,uint8 byte)
 440:.\Valve_Control.c **** //{
 441:.\Valve_Control.c **** //	EEPROM_1_ByteWrite(byte, StartAddr/16,StartAddr%16);
 442:.\Valve_Control.c **** //}
 443:.\Valve_Control.c **** /**********************************************************
 444:.\Valve_Control.c **** ÂáΩÊï∞ÂêçÔºö
 445:.\Valve_Control.c **** Âäü  ËÉΩÔºö
 446:.\Valve_Control.c **** ÂèÇ  Êï∞ÔºöÊó†
 447:.\Valve_Control.c **** ËøîÂõûÂÄºÔºöÊó†
 448:.\Valve_Control.c **** ************************************************************/
 449:.\Valve_Control.c **** /**********************************************************
 450:.\Valve_Control.c **** ÂáΩÊï∞ÂêçÔºö
 451:.\Valve_Control.c **** Âäü  ËÉΩÔºö
 452:.\Valve_Control.c **** ÂèÇ  Êï∞ÔºöÊó†
 453:.\Valve_Control.c **** ËøîÂõûÂÄºÔºöÊó†
 454:.\Valve_Control.c **** ************************************************************/
 455:.\Valve_Control.c **** //void MoveLED(uint8 step)
 456:.\Valve_Control.c **** //{
ARM GAS  C:\Users\pxc\AppData\Local\Temp\ccofNc3q.s 			page 11


 457:.\Valve_Control.c **** //	switch(step)
 458:.\Valve_Control.c **** //	{
 459:.\Valve_Control.c **** //	case 0: //Âø´‰∏ã
 460:.\Valve_Control.c **** //        LED_WRITE(0x01);
 461:.\Valve_Control.c **** //		break;
 462:.\Valve_Control.c **** //	case 1:
 463:.\Valve_Control.c **** //		StopLED_OFF(); 
 464:.\Valve_Control.c **** //		RunLED_FLASH(); 
 465:.\Valve_Control.c **** //		break;
 466:.\Valve_Control.c **** //	default : break;
 467:.\Valve_Control.c **** //	}
 468:.\Valve_Control.c **** //}
 469:.\Valve_Control.c **** /*****************************************************
 470:.\Valve_Control.c **** ÂáΩÊï∞ÂêçÔºövoid Init_Stroke_Timer(void)
 471:.\Valve_Control.c **** Âäü  ËÉΩÔºöÂàùÂßãÂåñÂâ™Á®ãË°åÁ®ãÊéßÂà∂Êó∂ÈíüÂÆöÊó∂Âô®
 472:.\Valve_Control.c **** ÂèÇ  Êï∞ÔºöÊó†
 473:.\Valve_Control.c **** ËøîÂõûÂÄºÔºöÊó†
 474:.\Valve_Control.c **** *****************************************************/
 475:.\Valve_Control.c **** void Init_Stroke_Timer(void)
 476:.\Valve_Control.c **** {	
 477:.\Valve_Control.c **** 	Clock_1_Start();   
 478:.\Valve_Control.c ****     
 479:.\Valve_Control.c ****     Timer_1_Start();
 480:.\Valve_Control.c ****     
 481:.\Valve_Control.c **** 	EEPROM_1_Start();
 482:.\Valve_Control.c ****     
 483:.\Valve_Control.c **** 	ISR_Stroke_Timer_Start();
 484:.\Valve_Control.c ****     
 485:.\Valve_Control.c ****     Read_config();
 486:.\Valve_Control.c **** 
 487:.\Valve_Control.c **** 	CutReg.CutStatus = StrokeStart;
 488:.\Valve_Control.c **** 	CutReg.ModeRunFlag = 0;
 489:.\Valve_Control.c ****     
 490:.\Valve_Control.c ****     CutReg.ValveNum = 6;
 491:.\Valve_Control.c **** 	CutReg.Version = 2000;//V1.001
 492:.\Valve_Control.c **** 
 493:.\Valve_Control.c **** }
 494:.\Valve_Control.c **** 
 495:.\Valve_Control.c **** 
 496:.\Valve_Control.c **** void Valve_config(uint8 valve_config_flag)             //ÈòÄÁªÑÈÖçÁΩÆ
 497:.\Valve_Control.c **** {
 498:.\Valve_Control.c ****     uint8   key_com = 0x03; 
 499:.\Valve_Control.c ****     uint16  key_time = 0;
 500:.\Valve_Control.c ****     enum VALVE_ACTION_ENUM   step_flag  = VFast;            //ÈªòËÆ§ÈÄâÊã©‚ÄúÂø´‰∏ã‚ÄùÂäüËÉΩ
 501:.\Valve_Control.c ****     uint8   valve_flag = 0;                                 //ÈªòËÆ§Êú™ÈÄâÊã©ÈòÄÁªÑ
 502:.\Valve_Control.c ****     uint16  delay_num = 0;                                  //ÈòÄÁªÑÊåáÁ§∫ÁÅØÈó™ÁÉÅÂª∂Êó∂ÂèòÈáè
 503:.\Valve_Control.c ****     uint16  delay_num_count = 500;                          //
 504:.\Valve_Control.c ****     uint8     KA_valve = 0;                                   //ÈòÄÁªÑ‰ΩçÁä∂ÊÄÅÂèòÈáè
 505:.\Valve_Control.c ****     uint8     KA_valve_temp = 0;                              //ÈòÄÁªÑ‰ΩçÁä∂ÊÄÅ‰∏¥Êó∂ÂèòÈáè
 506:.\Valve_Control.c ****     uint8   KA_state_temp = 0;                              //ÈòÄÁªÑÁä∂ÊÄÅ‰∏¥Êó∂ÂèòÈáè
 507:.\Valve_Control.c ****     uint8   KA_num = 0;                                     //ÈòÄÁªÑ ‰Ωç ‰ΩçÁΩÆ
 508:.\Valve_Control.c ****     uint8   valvech_flag = 0;                               //ÈòÄÁªÑ ‰Ωç Áä∂ÊÄÅ‰øÆÊîπÊ†áÂøó
 509:.\Valve_Control.c ****     
 510:.\Valve_Control.c ****     while(valve_config_flag)
 511:.\Valve_Control.c ****     {
 512:.\Valve_Control.c ****       //  key_com = Read_KeyValue();   //ËØªÂèñÊåâÈîÆÂÄº
 513:.\Valve_Control.c ****        if(1)                            // if((key_com != Key_Null) && (valvech_flag == 0))
ARM GAS  C:\Users\pxc\AppData\Local\Temp\ccofNc3q.s 			page 12


 514:.\Valve_Control.c ****         {
 515:.\Valve_Control.c ****            // switch(key_com)
 516:.\Valve_Control.c ****             {
 517:.\Valve_Control.c ****                // case Key_step:
 518:.\Valve_Control.c ****                 {
 519:.\Valve_Control.c ****                     key_time = 0;
 520:.\Valve_Control.c ****                   //  while((Read_KeyValue() == Key_step) && (key_time < 40) )
 521:.\Valve_Control.c ****                     {
 522:.\Valve_Control.c ****                         key_time ++;
 523:.\Valve_Control.c ****                         CyDelay(1);
 524:.\Valve_Control.c ****                     }
 525:.\Valve_Control.c ****                     if(key_time >= 39)                          //ÈïøÊåâ
 526:.\Valve_Control.c ****                     {
 527:.\Valve_Control.c ****                        
 528:.\Valve_Control.c ****                         EEPROM_Array_Write(eepromArray,CutReg.Action,6);  //‰øùÂ≠òÈÖçÁΩÆ
 529:.\Valve_Control.c ****                         LED_WRITE(0X00);
 530:.\Valve_Control.c ****                         CyDelay(500);                                     //ÈÄÄÂá∫ÊåáÁ§∫
 531:.\Valve_Control.c ****                         ValveOut(0X3F);
 532:.\Valve_Control.c ****                         CyDelay(500);
 533:.\Valve_Control.c ****                         ValveOut(0X00);
 534:.\Valve_Control.c ****                         CyDelay(500);
 535:.\Valve_Control.c ****                         ValveOut(0X3F);
 536:.\Valve_Control.c ****                         CyDelay(500);
 537:.\Valve_Control.c ****                         ValveOut(0X00);
 538:.\Valve_Control.c ****                         valve_config_flag = 0;                  //ÈÖçÁΩÆÊ†áÂøóÊ∏ÖÈõ∂(‰øùÂ≠òÈÄÄÂá∫)
 539:.\Valve_Control.c **** //                        CySoftwareReset();                      //Á≥ªÁªüËΩØÂ§ç‰Ωç            
 540:.\Valve_Control.c ****                     }
 541:.\Valve_Control.c ****                     else                                        //Áü≠Êåâ
 542:.\Valve_Control.c ****                     {
 543:.\Valve_Control.c ****                         if(valve_flag == 0)                     //Êú™ÈÖçÁΩÆÊâçËøõË°åÂäüËÉΩÊ≠•È™§Âàá
 544:.\Valve_Control.c ****                         {
 545:.\Valve_Control.c ****                             if(++step_flag == (VStop+1))
 546:.\Valve_Control.c ****                                 step_flag = VFast;
 547:.\Valve_Control.c ****                         }
 548:.\Valve_Control.c ****                         else
 549:.\Valve_Control.c ****                         {
 550:.\Valve_Control.c ****                             valve_flag = 0;                     //Ê∏ÖÈô§ÊòæÁ§∫Áä∂ÊÄÅÊ†áÂøó
 551:.\Valve_Control.c ****                         }
 552:.\Valve_Control.c ****                         ValveOut(CutReg.Action[step_flag]);     //ÊòæÁ§∫ÂΩìÂâçÈòÄÁªÑÈÖçÁΩÆÁä∂ÊÄÅ   
 553:.\Valve_Control.c ****                         switch(step_flag)
 554:.\Valve_Control.c ****                         {
 555:.\Valve_Control.c ****                             case    VFast:                      //Âø´‰∏ã
 556:.\Valve_Control.c ****                             {
 557:.\Valve_Control.c ****                                 LED_WRITE(LED_Status[VFast]);
 558:.\Valve_Control.c ****                             }
 559:.\Valve_Control.c ****                             break;
 560:.\Valve_Control.c ****                             case    VSlow:                      //Â∑•Ëøõ
 561:.\Valve_Control.c ****                             {
 562:.\Valve_Control.c ****                                 LED_WRITE(LED_Status[VSlow]);
 563:.\Valve_Control.c ****                             }
 564:.\Valve_Control.c ****                             break;
 565:.\Valve_Control.c ****                             case    VKeep:                      //‰øùÂéã
 566:.\Valve_Control.c ****                             {
 567:.\Valve_Control.c ****                                 LED_WRITE(LED_Status[VKeep]);
 568:.\Valve_Control.c ****                             }
 569:.\Valve_Control.c ****                             break;
 570:.\Valve_Control.c ****                             case    VUnload:                    //Âç∏Ëç∑
ARM GAS  C:\Users\pxc\AppData\Local\Temp\ccofNc3q.s 			page 13


 571:.\Valve_Control.c ****                             {
 572:.\Valve_Control.c ****                                 LED_WRITE(LED_Status[VUnload]);
 573:.\Valve_Control.c ****                             }
 574:.\Valve_Control.c ****                             break;
 575:.\Valve_Control.c ****                             case    VBack:                      //ÂõûÁ®ã
 576:.\Valve_Control.c ****                             {
 577:.\Valve_Control.c ****                                 LED_WRITE(LED_Status[VBack]);
 578:.\Valve_Control.c ****                             }
 579:.\Valve_Control.c ****                             break;
 580:.\Valve_Control.c ****                             case    VStop:                      //ÂÅúÊ≠¢
 581:.\Valve_Control.c ****                             {
 582:.\Valve_Control.c ****                                 LED_WRITE(LED_Status[VStop]);
 583:.\Valve_Control.c ****                             }
 584:.\Valve_Control.c ****                             break;
 585:.\Valve_Control.c ****                             default:
 586:.\Valve_Control.c ****                             break;
 587:.\Valve_Control.c ****                         }
 588:.\Valve_Control.c ****                     }
 589:.\Valve_Control.c ****                 }
 590:.\Valve_Control.c ****                 break;
 591:.\Valve_Control.c ****              //   case Key_valve:
 592:.\Valve_Control.c ****                 {
 593:.\Valve_Control.c ****                     key_time = 0;
 594:.\Valve_Control.c ****                //     while((Read_KeyValue() == Key_valve) && (key_time < 40) )
 595:.\Valve_Control.c ****                     {
 596:.\Valve_Control.c ****                         key_time ++; 
 597:.\Valve_Control.c ****                         CyDelay(1);
 598:.\Valve_Control.c ****                     }              
 599:.\Valve_Control.c ****                     if((key_time >= 39) && (valvech_flag == 0))                             //ÈïøÊå
 600:.\Valve_Control.c ****                     {
 601:.\Valve_Control.c ****                         if( (valve_flag >= 1) && (valve_flag <= 6) )
 602:.\Valve_Control.c ****                         {
 603:.\Valve_Control.c ****                             KA_valve = (~ KA_valve) & 0x01;
 604:.\Valve_Control.c ****                             CutReg.Action[step_flag] = ((CutReg.Action[step_flag] & (~(1 << KA_num)
 605:.\Valve_Control.c ****                             ValveOut(CutReg.Action[step_flag]);
 606:.\Valve_Control.c ****                             valvech_flag = 1;
 607:.\Valve_Control.c ****                         } 
 608:.\Valve_Control.c ****                         if(valve_flag == 0)                                                 //Êú™ÈÄ
 609:.\Valve_Control.c ****                         {
 610:.\Valve_Control.c ****                             valvech_flag = 1;
 611:.\Valve_Control.c ****                         }
 612:.\Valve_Control.c ****                     }
 613:.\Valve_Control.c ****                     
 614:.\Valve_Control.c ****                     if((key_time < 49) || (valvech_flag == 1))                              //Áü≠Êå
 615:.\Valve_Control.c ****                     {
 616:.\Valve_Control.c ****                         if((++valve_flag) == 7)
 617:.\Valve_Control.c ****                             valve_flag = 1;
 618:.\Valve_Control.c ****                         
 619:.\Valve_Control.c ****                         switch(valve_flag)
 620:.\Valve_Control.c ****                         {
 621:.\Valve_Control.c ****                             case    1:                  //KA1
 622:.\Valve_Control.c ****                             {
 623:.\Valve_Control.c ****                                 KA_num = KA1_bit;
 624:.\Valve_Control.c ****                                 KA_valve = ((CutReg.Action[step_flag] >> KA_num) & 0X01);    //ÂæóÂ
 625:.\Valve_Control.c ****                                 KA_valve_temp = KA_valve;
 626:.\Valve_Control.c ****                                 
 627:.\Valve_Control.c ****                                 ValveOut(CutReg.Action[step_flag] | BIT1);                   //ÁÇπ‰
ARM GAS  C:\Users\pxc\AppData\Local\Temp\ccofNc3q.s 			page 14


 628:.\Valve_Control.c ****                             }
 629:.\Valve_Control.c ****                             break;
 630:.\Valve_Control.c ****                             case    2:                  //KA2
 631:.\Valve_Control.c ****                             {
 632:.\Valve_Control.c ****                                 KA_num = KA2_bit;
 633:.\Valve_Control.c ****                                 KA_valve = ((CutReg.Action[step_flag] >> KA_num) & 0X01);    //ÂæóÂ
 634:.\Valve_Control.c ****                                 KA_valve_temp = KA_valve;
 635:.\Valve_Control.c ****                                 
 636:.\Valve_Control.c ****                                 ValveOut(CutReg.Action[step_flag] | BIT2);
 637:.\Valve_Control.c ****                             }
 638:.\Valve_Control.c ****                             break;
 639:.\Valve_Control.c ****                             case    3:                  //KA3
 640:.\Valve_Control.c ****                             {
 641:.\Valve_Control.c ****                                 KA_num = KA3_bit;
 642:.\Valve_Control.c ****                                 KA_valve = ((CutReg.Action[step_flag] >> KA_num) & 0X01);    //ÂæóÂ
 643:.\Valve_Control.c ****                                 KA_valve_temp = KA_valve;
 644:.\Valve_Control.c ****                                 
 645:.\Valve_Control.c ****                                 ValveOut(CutReg.Action[step_flag] | BIT3);
 646:.\Valve_Control.c ****                             }
 647:.\Valve_Control.c ****                             break;
 648:.\Valve_Control.c ****                             case    4:                  //KA4
 649:.\Valve_Control.c ****                             {
 650:.\Valve_Control.c ****                                 KA_num = KA4_bit;
 651:.\Valve_Control.c ****                                 KA_valve = ((CutReg.Action[step_flag] >> KA_num) & 0X01);    //ÂæóÂ
 652:.\Valve_Control.c ****                                 KA_valve_temp = KA_valve;
 653:.\Valve_Control.c ****                                 
 654:.\Valve_Control.c ****                                 ValveOut(CutReg.Action[step_flag] | BIT4);
 655:.\Valve_Control.c ****                             }
 656:.\Valve_Control.c ****                             break;
 657:.\Valve_Control.c ****                             case    5:                  //KA5
 658:.\Valve_Control.c ****                             {
 659:.\Valve_Control.c ****                                 KA_num = KA5_bit;
 660:.\Valve_Control.c ****                                 KA_valve = ((CutReg.Action[step_flag] >> KA_num) & 0X01);    //ÂæóÂ
 661:.\Valve_Control.c ****                                 KA_valve_temp = KA_valve;
 662:.\Valve_Control.c ****                                 
 663:.\Valve_Control.c ****                                 ValveOut(CutReg.Action[step_flag] | BIT5);
 664:.\Valve_Control.c ****                             }
 665:.\Valve_Control.c ****                             break;
 666:.\Valve_Control.c ****                             case    6:                  //KA6
 667:.\Valve_Control.c ****                             {
 668:.\Valve_Control.c ****                                 KA_num = KA6_bit;
 669:.\Valve_Control.c ****                                 KA_valve = ((CutReg.Action[step_flag] >> KA_num) & 0X01);    //ÂæóÂ
 670:.\Valve_Control.c ****                                 KA_valve_temp = KA_valve;
 671:.\Valve_Control.c ****                                 
 672:.\Valve_Control.c ****                                 ValveOut(CutReg.Action[step_flag] | BIT6);
 673:.\Valve_Control.c ****                             }
 674:.\Valve_Control.c ****                             break;
 675:.\Valve_Control.c ****                         }
 676:.\Valve_Control.c ****                     }    
 677:.\Valve_Control.c ****                 }
 678:.\Valve_Control.c ****                 break;
 679:.\Valve_Control.c ****             }
 680:.\Valve_Control.c ****         }
 681:.\Valve_Control.c ****         else
 682:.\Valve_Control.c ****         {
 683:.\Valve_Control.c ****             if(1)//if(key_com == Key_Null)             //Êó†ÊåâÈîÆÊåâ‰∏ãÊó∂Â∞ÜÈòÄÁªÑ‰øÆÊîπÊ†áÂøóÊ∏Ö
 684:.\Valve_Control.c ****             {
ARM GAS  C:\Users\pxc\AppData\Local\Temp\ccofNc3q.s 			page 15


 685:.\Valve_Control.c ****                 valvech_flag = 0;
 686:.\Valve_Control.c ****                 delay_num_count = 400;
 687:.\Valve_Control.c ****             }    
 688:.\Valve_Control.c ****             else
 689:.\Valve_Control.c ****                 delay_num_count = 8;
 690:.\Valve_Control.c **** 
 691:.\Valve_Control.c ****             if( (valve_flag >= 1) && (valve_flag <= 6) )//ÈÄâ‰∏≠ÈòÄÁªÑÊó∂Áõ∏Â∫î‰ΩçÊåáÁ§∫ÁÅØÈó™ÁÉÅÊé
 692:.\Valve_Control.c ****             {
 693:.\Valve_Control.c ****                 delay_num  ++;
 694:.\Valve_Control.c ****                 if(delay_num >= delay_num_count)
 695:.\Valve_Control.c ****                 {                            
 696:.\Valve_Control.c ****                     delay_num = 0;
 697:.\Valve_Control.c ****                     KA_valve_temp = (~ KA_valve_temp)&0x01;                                        
 698:.\Valve_Control.c ****                     KA_state_temp = ((CutReg.Action[step_flag] & (~(1 << KA_num))) | (((uint8)KA_va
 699:.\Valve_Control.c ****                     ValveOut(KA_state_temp);
 700:.\Valve_Control.c ****                 }  
 701:.\Valve_Control.c ****                 CyDelay(1);
 702:.\Valve_Control.c ****             }
 703:.\Valve_Control.c ****             else
 704:.\Valve_Control.c ****             {
 705:.\Valve_Control.c ****                 delay_num = 0;
 706:.\Valve_Control.c ****             }
 707:.\Valve_Control.c ****             
 708:.\Valve_Control.c ****         }      
 709:.\Valve_Control.c ****     }
 710:.\Valve_Control.c **** }
 711:.\Valve_Control.c **** void Read_config(void)
 712:.\Valve_Control.c **** {
 112              		.loc 1 712 0
 113              		.cfi_startproc
 114              		@ args = 0, pretend = 0, frame = 16
 115              		@ frame_needed = 0, uses_anonymous_args = 0
 116 0000 00B5     		push	{lr}
 117              		.cfi_def_cfa_offset 4
 118              		.cfi_offset 14, -4
 119 0002 85B0     		sub	sp, sp, #20
 120              		.cfi_def_cfa_offset 24
 713:.\Valve_Control.c ****         uint8 tempBuf[sizeof(config_para)-1] ;
 714:.\Valve_Control.c ****         EEPROM_Array_Read(eepromArray,tempBuf,sizeof(tempBuf));//ËØªÈòÄÁªÑÈÖçÁΩÆ
 121              		.loc 1 714 0
 122 0004 1048     		ldr	r0, .L11
 123 0006 01A9     		add	r1, sp, #4
 124 0008 0B22     		movs	r2, #11
 125 000a FFF7FEFF 		bl	EEPROM_Array_Read
 126              	.LVL11:
 715:.\Valve_Control.c ****         memcpy(&config_para,tempBuf,sizeof(tempBuf));//----Ê≥®ÊÑèÂ§ßÂ∞è
 127              		.loc 1 715 0
 128 000e 0F4B     		ldr	r3, .L11+4
 129 0010 01AA     		add	r2, sp, #4
 130 0012 03CA     		ldmia	r2!, {r0, r1}
 131 0014 1860     		str	r0, [r3]	@ unaligned
 132 0016 5960     		str	r1, [r3, #4]	@ unaligned
 133 0018 1188     		ldrh	r1, [r2]	@ unaligned
 134 001a 9278     		ldrb	r2, [r2, #2]	@ zero_extendqisi2
 135 001c 1981     		strh	r1, [r3, #8]	@ unaligned
 136 001e 9A72     		strb	r2, [r3, #10]
 716:.\Valve_Control.c ****         CutReg.Action[VFast]   =   config_para.Config_VFast;
ARM GAS  C:\Users\pxc\AppData\Local\Temp\ccofNc3q.s 			page 16


 137              		.loc 1 716 0
 138 0020 1978     		ldrb	r1, [r3]	@ zero_extendqisi2
 139 0022 0B4A     		ldr	r2, .L11+8
 140 0024 1172     		strb	r1, [r2, #8]
 717:.\Valve_Control.c ****         CutReg.Action[VSlow]   =   config_para.Config_VSlow;
 141              		.loc 1 717 0
 142 0026 5978     		ldrb	r1, [r3, #1]	@ zero_extendqisi2
 143 0028 5172     		strb	r1, [r2, #9]
 718:.\Valve_Control.c ****         CutReg.Action[VKeep]   =   config_para.Config_VKeep;
 144              		.loc 1 718 0
 145 002a 9978     		ldrb	r1, [r3, #2]	@ zero_extendqisi2
 146 002c 9172     		strb	r1, [r2, #10]
 719:.\Valve_Control.c ****         CutReg.Action[VUnload] =   config_para.Config_VUnload;
 147              		.loc 1 719 0
 148 002e D978     		ldrb	r1, [r3, #3]	@ zero_extendqisi2
 149 0030 D172     		strb	r1, [r2, #11]
 720:.\Valve_Control.c ****         CutReg.Action[VBack]   =   config_para.Config_VBack;
 150              		.loc 1 720 0
 151 0032 1979     		ldrb	r1, [r3, #4]	@ zero_extendqisi2
 152 0034 1173     		strb	r1, [r2, #12]
 721:.\Valve_Control.c ****         CutReg.Action[VStop]   =   config_para.Config_VStop;
 153              		.loc 1 721 0
 154 0036 5979     		ldrb	r1, [r3, #5]	@ zero_extendqisi2
 155 0038 5173     		strb	r1, [r2, #13]
 722:.\Valve_Control.c ****         CutReg.KeepTime        =   config_para.Config_KeepTime;
 156              		.loc 1 722 0
 157 003a D988     		ldrh	r1, [r3, #6]
 158 003c 1180     		strh	r1, [r2]	@ movhi
 723:.\Valve_Control.c ****         CutReg.UnloadTime      =   config_para.Config_UnloadTime;
 159              		.loc 1 723 0
 160 003e 1B89     		ldrh	r3, [r3, #8]
 161 0040 5380     		strh	r3, [r2, #2]	@ movhi
 724:.\Valve_Control.c **** 
 725:.\Valve_Control.c **** 
 726:.\Valve_Control.c **** }
 162              		.loc 1 726 0
 163 0042 05B0     		add	sp, sp, #20
 164              		.cfi_def_cfa_offset 4
 165              		@ sp needed
 166 0044 5DF804FB 		ldr	pc, [sp], #4
 167              	.L12:
 168              		.align	2
 169              	.L11:
 170 0048 00000000 		.word	.LANCHOR0
 171 004c 00000000 		.word	config_para
 172 0050 00000000 		.word	CutReg
 173              		.cfi_endproc
 174              	.LFE69:
 175              		.size	Read_config, .-Read_config
 176              		.section	.text.Init_Stroke_Timer,"ax",%progbits
 177              		.align	2
 178              		.global	Init_Stroke_Timer
 179              		.thumb
 180              		.thumb_func
 181              		.type	Init_Stroke_Timer, %function
 182              	Init_Stroke_Timer:
 183              	.LFB67:
ARM GAS  C:\Users\pxc\AppData\Local\Temp\ccofNc3q.s 			page 17


 476:.\Valve_Control.c **** 	Clock_1_Start();   
 184              		.loc 1 476 0
 185              		.cfi_startproc
 186              		@ args = 0, pretend = 0, frame = 0
 187              		@ frame_needed = 0, uses_anonymous_args = 0
 188 0000 08B5     		push	{r3, lr}
 189              		.cfi_def_cfa_offset 8
 190              		.cfi_offset 3, -8
 191              		.cfi_offset 14, -4
 477:.\Valve_Control.c ****     
 192              		.loc 1 477 0
 193 0002 FFF7FEFF 		bl	Clock_1_Start
 194              	.LVL12:
 479:.\Valve_Control.c ****     
 195              		.loc 1 479 0
 196 0006 FFF7FEFF 		bl	Timer_1_Start
 197              	.LVL13:
 481:.\Valve_Control.c ****     
 198              		.loc 1 481 0
 199 000a FFF7FEFF 		bl	EEPROM_1_Start
 200              	.LVL14:
 483:.\Valve_Control.c ****     
 201              		.loc 1 483 0
 202 000e FFF7FEFF 		bl	ISR_Stroke_Timer_Start
 203              	.LVL15:
 485:.\Valve_Control.c **** 
 204              		.loc 1 485 0
 205 0012 FFF7FEFF 		bl	Read_config
 206              	.LVL16:
 487:.\Valve_Control.c **** 	CutReg.ModeRunFlag = 0;
 207              		.loc 1 487 0
 208 0016 054B     		ldr	r3, .L15
 209 0018 0022     		movs	r2, #0
 210 001a 1A74     		strb	r2, [r3, #16]
 488:.\Valve_Control.c ****     
 211              		.loc 1 488 0
 212 001c 1A75     		strb	r2, [r3, #20]
 490:.\Valve_Control.c **** 	CutReg.Version = 2000;//V1.001
 213              		.loc 1 490 0
 214 001e 0622     		movs	r2, #6
 215 0020 5A75     		strb	r2, [r3, #21]
 491:.\Valve_Control.c **** 
 216              		.loc 1 491 0
 217 0022 4FF4FA62 		mov	r2, #2000
 218 0026 5A82     		strh	r2, [r3, #18]	@ movhi
 219 0028 08BD     		pop	{r3, pc}
 220              	.L16:
 221 002a 00BF     		.align	2
 222              	.L15:
 223 002c 00000000 		.word	CutReg
 224              		.cfi_endproc
 225              	.LFE67:
 226              		.size	Init_Stroke_Timer, .-Init_Stroke_Timer
 227              		.section	.text.Write_config,"ax",%progbits
 228              		.align	2
 229              		.global	Write_config
 230              		.thumb
ARM GAS  C:\Users\pxc\AppData\Local\Temp\ccofNc3q.s 			page 18


 231              		.thumb_func
 232              		.type	Write_config, %function
 233              	Write_config:
 234              	.LFB70:
 727:.\Valve_Control.c **** void Write_config(void)
 728:.\Valve_Control.c **** {
 235              		.loc 1 728 0
 236              		.cfi_startproc
 237              		@ args = 0, pretend = 0, frame = 16
 238              		@ frame_needed = 0, uses_anonymous_args = 0
 239 0000 10B5     		push	{r4, lr}
 240              		.cfi_def_cfa_offset 8
 241              		.cfi_offset 4, -8
 242              		.cfi_offset 14, -4
 243 0002 84B0     		sub	sp, sp, #16
 244              		.cfi_def_cfa_offset 24
 729:.\Valve_Control.c ****         uint8 tempBuf[sizeof(config_para)-1];
 730:.\Valve_Control.c ****         memcpy(tempBuf,(&config_para),sizeof(config_para)-1);        
 245              		.loc 1 730 0
 246 0004 104C     		ldr	r4, .L19
 247 0006 01AB     		add	r3, sp, #4
 248 0008 2068     		ldr	r0, [r4]	@ unaligned
 249 000a 6168     		ldr	r1, [r4, #4]	@ unaligned
 250 000c 03C3     		stmia	r3!, {r0, r1}
 251 000e 2189     		ldrh	r1, [r4, #8]	@ unaligned
 252 0010 A27A     		ldrb	r2, [r4, #10]	@ zero_extendqisi2
 253 0012 1980     		strh	r1, [r3]	@ unaligned
 254 0014 9A70     		strb	r2, [r3, #2]
 731:.\Valve_Control.c ****         EEPROM_Array_Write(eepromArray,tempBuf,sizeof(tempBuf));
 255              		.loc 1 731 0
 256 0016 0D48     		ldr	r0, .L19+4
 257 0018 01A9     		add	r1, sp, #4
 258 001a 0B22     		movs	r2, #11
 259 001c FFF7FEFF 		bl	EEPROM_Array_Write
 260              	.LVL17:
 732:.\Valve_Control.c ****         CutReg.Action[VFast]   =   config_para.Config_VFast;
 261              		.loc 1 732 0
 262 0020 2278     		ldrb	r2, [r4]	@ zero_extendqisi2
 263 0022 0B4B     		ldr	r3, .L19+8
 264 0024 1A72     		strb	r2, [r3, #8]
 733:.\Valve_Control.c ****         CutReg.Action[VSlow]   =   config_para.Config_VSlow;
 265              		.loc 1 733 0
 266 0026 6278     		ldrb	r2, [r4, #1]	@ zero_extendqisi2
 267 0028 5A72     		strb	r2, [r3, #9]
 734:.\Valve_Control.c ****         CutReg.Action[VKeep]   =   config_para.Config_VKeep;
 268              		.loc 1 734 0
 269 002a A278     		ldrb	r2, [r4, #2]	@ zero_extendqisi2
 270 002c 9A72     		strb	r2, [r3, #10]
 735:.\Valve_Control.c ****         CutReg.Action[VUnload] =   config_para.Config_VUnload;
 271              		.loc 1 735 0
 272 002e E278     		ldrb	r2, [r4, #3]	@ zero_extendqisi2
 273 0030 DA72     		strb	r2, [r3, #11]
 736:.\Valve_Control.c ****         CutReg.Action[VBack]   =   config_para.Config_VBack;
 274              		.loc 1 736 0
 275 0032 2279     		ldrb	r2, [r4, #4]	@ zero_extendqisi2
 276 0034 1A73     		strb	r2, [r3, #12]
 737:.\Valve_Control.c ****         CutReg.Action[VStop]   =   config_para.Config_VStop;
ARM GAS  C:\Users\pxc\AppData\Local\Temp\ccofNc3q.s 			page 19


 277              		.loc 1 737 0
 278 0036 6279     		ldrb	r2, [r4, #5]	@ zero_extendqisi2
 279 0038 5A73     		strb	r2, [r3, #13]
 738:.\Valve_Control.c ****         CutReg.KeepTime        =   config_para.Config_KeepTime;
 280              		.loc 1 738 0
 281 003a E288     		ldrh	r2, [r4, #6]
 282 003c 1A80     		strh	r2, [r3]	@ movhi
 739:.\Valve_Control.c ****         CutReg.UnloadTime      =   config_para.Config_UnloadTime;
 283              		.loc 1 739 0
 284 003e 2289     		ldrh	r2, [r4, #8]
 285 0040 5A80     		strh	r2, [r3, #2]	@ movhi
 740:.\Valve_Control.c ****            
 741:.\Valve_Control.c **** }
 286              		.loc 1 741 0
 287 0042 04B0     		add	sp, sp, #16
 288              		.cfi_def_cfa_offset 8
 289              		@ sp needed
 290 0044 10BD     		pop	{r4, pc}
 291              	.L20:
 292 0046 00BF     		.align	2
 293              	.L19:
 294 0048 00000000 		.word	config_para
 295 004c 00000000 		.word	.LANCHOR0
 296 0050 00000000 		.word	CutReg
 297              		.cfi_endproc
 298              	.LFE70:
 299              		.size	Write_config, .-Write_config
 300              		.section	.text.LCD_DISPLAY,"ax",%progbits
 301              		.align	2
 302              		.global	LCD_DISPLAY
 303              		.thumb
 304              		.thumb_func
 305              		.type	LCD_DISPLAY, %function
 306              	LCD_DISPLAY:
 307              	.LFB71:
 742:.\Valve_Control.c **** 
 743:.\Valve_Control.c **** void LCD_DISPLAY(uint8 value)
 744:.\Valve_Control.c **** {
 308              		.loc 1 744 0
 309              		.cfi_startproc
 310              		@ args = 0, pretend = 0, frame = 0
 311              		@ frame_needed = 0, uses_anonymous_args = 0
 312              	.LVL18:
 313 0000 08B5     		push	{r3, lr}
 314              		.cfi_def_cfa_offset 8
 315              		.cfi_offset 3, -8
 316              		.cfi_offset 14, -4
 745:.\Valve_Control.c ****     
 746:.\Valve_Control.c ****     if(lastValue != value)
 317              		.loc 1 746 0
 318 0002 2A4B     		ldr	r3, .L30
 319 0004 1B68     		ldr	r3, [r3]
 320 0006 9842     		cmp	r0, r3
 321 0008 4FD0     		beq	.L21
 747:.\Valve_Control.c ****     {
 748:.\Valve_Control.c ****         //LCD_Char_1_WriteControl(0x01);
 749:.\Valve_Control.c ****         lastValue = value;
ARM GAS  C:\Users\pxc\AppData\Local\Temp\ccofNc3q.s 			page 20


 322              		.loc 1 749 0
 323 000a 284B     		ldr	r3, .L30
 324 000c 1860     		str	r0, [r3]
 750:.\Valve_Control.c ****     }
 751:.\Valve_Control.c **** 
 752:.\Valve_Control.c ****     else 
 753:.\Valve_Control.c ****     {
 754:.\Valve_Control.c ****         return;
 755:.\Valve_Control.c ****     }
 756:.\Valve_Control.c ****     if(value == LED_Status[VFast] )
 325              		.loc 1 756 0
 326 000e 1B79     		ldrb	r3, [r3, #4]	@ zero_extendqisi2
 327 0010 8342     		cmp	r3, r0
 328 0012 07D1     		bne	.L23
 757:.\Valve_Control.c ****     {
 758:.\Valve_Control.c ****        LCD_Char_1_Position(1,0) ;
 329              		.loc 1 758 0
 330 0014 0120     		movs	r0, #1
 331              	.LVL19:
 332 0016 0021     		movs	r1, #0
 333 0018 FFF7FEFF 		bl	LCD_Char_1_Position
 334              	.LVL20:
 759:.\Valve_Control.c ****        LCD_Char_1_PrintString("  Fast  ");
 335              		.loc 1 759 0
 336 001c 2448     		ldr	r0, .L30+4
 337 001e FFF7FEFF 		bl	LCD_Char_1_PrintString
 338              	.LVL21:
 339 0022 08BD     		pop	{r3, pc}
 340              	.LVL22:
 341              	.L23:
 760:.\Valve_Control.c ****     }
 761:.\Valve_Control.c ****     else if(value == LED_Status[VSlow] )
 342              		.loc 1 761 0
 343 0024 214B     		ldr	r3, .L30
 344 0026 5B79     		ldrb	r3, [r3, #5]	@ zero_extendqisi2
 345 0028 8342     		cmp	r3, r0
 346 002a 07D1     		bne	.L24
 762:.\Valve_Control.c ****     {
 763:.\Valve_Control.c ****         LCD_Char_1_Position(1,0) ;
 347              		.loc 1 763 0
 348 002c 0120     		movs	r0, #1
 349              	.LVL23:
 350 002e 0021     		movs	r1, #0
 351 0030 FFF7FEFF 		bl	LCD_Char_1_Position
 352              	.LVL24:
 764:.\Valve_Control.c ****         LCD_Char_1_PrintString("  Slow  ");
 353              		.loc 1 764 0
 354 0034 1F48     		ldr	r0, .L30+8
 355 0036 FFF7FEFF 		bl	LCD_Char_1_PrintString
 356              	.LVL25:
 357 003a 08BD     		pop	{r3, pc}
 358              	.LVL26:
 359              	.L24:
 765:.\Valve_Control.c ****     }
 766:.\Valve_Control.c ****        else if(value == LED_Status[VKeep] )
 360              		.loc 1 766 0
 361 003c 1B4B     		ldr	r3, .L30
ARM GAS  C:\Users\pxc\AppData\Local\Temp\ccofNc3q.s 			page 21


 362 003e 9B79     		ldrb	r3, [r3, #6]	@ zero_extendqisi2
 363 0040 8342     		cmp	r3, r0
 364 0042 07D1     		bne	.L25
 767:.\Valve_Control.c ****     {
 768:.\Valve_Control.c ****         LCD_Char_1_Position(1,0) ;
 365              		.loc 1 768 0
 366 0044 0120     		movs	r0, #1
 367              	.LVL27:
 368 0046 0021     		movs	r1, #0
 369 0048 FFF7FEFF 		bl	LCD_Char_1_Position
 370              	.LVL28:
 769:.\Valve_Control.c ****         LCD_Char_1_PrintString("  Keep  ");
 371              		.loc 1 769 0
 372 004c 1A48     		ldr	r0, .L30+12
 373 004e FFF7FEFF 		bl	LCD_Char_1_PrintString
 374              	.LVL29:
 375 0052 08BD     		pop	{r3, pc}
 376              	.LVL30:
 377              	.L25:
 770:.\Valve_Control.c ****     }
 771:.\Valve_Control.c ****        else if(value == LED_Status[VUnload] )
 378              		.loc 1 771 0
 379 0054 154B     		ldr	r3, .L30
 380 0056 DB79     		ldrb	r3, [r3, #7]	@ zero_extendqisi2
 381 0058 8342     		cmp	r3, r0
 382 005a 07D1     		bne	.L26
 772:.\Valve_Control.c ****     {
 773:.\Valve_Control.c ****         LCD_Char_1_Position(1,0) ;
 383              		.loc 1 773 0
 384 005c 0120     		movs	r0, #1
 385              	.LVL31:
 386 005e 0021     		movs	r1, #0
 387 0060 FFF7FEFF 		bl	LCD_Char_1_Position
 388              	.LVL32:
 774:.\Valve_Control.c ****         LCD_Char_1_PrintString(" Unload");
 389              		.loc 1 774 0
 390 0064 1548     		ldr	r0, .L30+16
 391 0066 FFF7FEFF 		bl	LCD_Char_1_PrintString
 392              	.LVL33:
 393 006a 08BD     		pop	{r3, pc}
 394              	.LVL34:
 395              	.L26:
 775:.\Valve_Control.c ****     }
 776:.\Valve_Control.c ****        else if(value == LED_Status[VStop] )
 396              		.loc 1 776 0
 397 006c 0F4B     		ldr	r3, .L30
 398 006e 5B7A     		ldrb	r3, [r3, #9]	@ zero_extendqisi2
 399 0070 8342     		cmp	r3, r0
 400 0072 07D1     		bne	.L27
 777:.\Valve_Control.c ****     {
 778:.\Valve_Control.c ****         LCD_Char_1_Position(1,0) ;
 401              		.loc 1 778 0
 402 0074 0120     		movs	r0, #1
 403              	.LVL35:
 404 0076 0021     		movs	r1, #0
 405 0078 FFF7FEFF 		bl	LCD_Char_1_Position
 406              	.LVL36:
ARM GAS  C:\Users\pxc\AppData\Local\Temp\ccofNc3q.s 			page 22


 779:.\Valve_Control.c ****         LCD_Char_1_PrintString("  Stop  ");
 407              		.loc 1 779 0
 408 007c 1048     		ldr	r0, .L30+20
 409 007e FFF7FEFF 		bl	LCD_Char_1_PrintString
 410              	.LVL37:
 411 0082 08BD     		pop	{r3, pc}
 412              	.LVL38:
 413              	.L27:
 780:.\Valve_Control.c ****     }
 781:.\Valve_Control.c ****          else if(value == LED_Status[VBack] )
 414              		.loc 1 781 0
 415 0084 094B     		ldr	r3, .L30
 416 0086 1B7A     		ldrb	r3, [r3, #8]	@ zero_extendqisi2
 417 0088 8342     		cmp	r3, r0
 418 008a 07D1     		bne	.L28
 782:.\Valve_Control.c ****     {
 783:.\Valve_Control.c ****         LCD_Char_1_Position(1,0) ;
 419              		.loc 1 783 0
 420 008c 0120     		movs	r0, #1
 421              	.LVL39:
 422 008e 0021     		movs	r1, #0
 423 0090 FFF7FEFF 		bl	LCD_Char_1_Position
 424              	.LVL40:
 784:.\Valve_Control.c ****         LCD_Char_1_PrintString("  Back  ");
 425              		.loc 1 784 0
 426 0094 0B48     		ldr	r0, .L30+24
 427 0096 FFF7FEFF 		bl	LCD_Char_1_PrintString
 428              	.LVL41:
 429 009a 08BD     		pop	{r3, pc}
 430              	.LVL42:
 431              	.L28:
 785:.\Valve_Control.c ****     }
 786:.\Valve_Control.c ****     else
 787:.\Valve_Control.c ****     {
 788:.\Valve_Control.c ****         LCD_Char_1_Position(1,0) ;
 432              		.loc 1 788 0
 433 009c 0120     		movs	r0, #1
 434              	.LVL43:
 435 009e 0021     		movs	r1, #0
 436 00a0 FFF7FEFF 		bl	LCD_Char_1_Position
 437              	.LVL44:
 789:.\Valve_Control.c ****         LCD_Char_1_PrintString("  Error ");
 438              		.loc 1 789 0
 439 00a4 0848     		ldr	r0, .L30+28
 440 00a6 FFF7FEFF 		bl	LCD_Char_1_PrintString
 441              	.LVL45:
 442              	.L21:
 443 00aa 08BD     		pop	{r3, pc}
 444              	.L31:
 445              		.align	2
 446              	.L30:
 447 00ac 00000000 		.word	.LANCHOR1
 448 00b0 00000000 		.word	.LC0
 449 00b4 0C000000 		.word	.LC1
 450 00b8 18000000 		.word	.LC2
 451 00bc 24000000 		.word	.LC3
 452 00c0 2C000000 		.word	.LC4
ARM GAS  C:\Users\pxc\AppData\Local\Temp\ccofNc3q.s 			page 23


 453 00c4 38000000 		.word	.LC5
 454 00c8 44000000 		.word	.LC6
 455              		.cfi_endproc
 456              	.LFE71:
 457              		.size	LCD_DISPLAY, .-LCD_DISPLAY
 458              		.section	.text.LCD_DISPLAY_MODE,"ax",%progbits
 459              		.align	2
 460              		.global	LCD_DISPLAY_MODE
 461              		.thumb
 462              		.thumb_func
 463              		.type	LCD_DISPLAY_MODE, %function
 464              	LCD_DISPLAY_MODE:
 465              	.LFB72:
 790:.\Valve_Control.c ****     } 
 791:.\Valve_Control.c **** 
 792:.\Valve_Control.c **** }
 793:.\Valve_Control.c **** void LCD_DISPLAY_MODE()
 794:.\Valve_Control.c **** {
 466              		.loc 1 794 0
 467              		.cfi_startproc
 468              		@ args = 0, pretend = 0, frame = 0
 469              		@ frame_needed = 0, uses_anonymous_args = 0
 470 0000 08B5     		push	{r3, lr}
 471              		.cfi_def_cfa_offset 8
 472              		.cfi_offset 3, -8
 473              		.cfi_offset 14, -4
 795:.\Valve_Control.c ****     if(lastMode  != CutMode())
 474              		.loc 1 795 0
 475 0002 FFF7FEFF 		bl	Status_Reg_1_Read
 476              	.LVL46:
 477 0006 00F06000 		and	r0, r0, #96
 478 000a 1E4B     		ldr	r3, .L38
 479 000c DB68     		ldr	r3, [r3, #12]
 480 000e 9842     		cmp	r0, r3
 481 0010 36D0     		beq	.L32
 796:.\Valve_Control.c ****     {
 797:.\Valve_Control.c ****     //LCD_Char_1_WriteControl(0x01);
 798:.\Valve_Control.c ****       lastMode = CutMode();
 482              		.loc 1 798 0
 483 0012 FFF7FEFF 		bl	Status_Reg_1_Read
 484              	.LVL47:
 485 0016 00F06000 		and	r0, r0, #96
 486 001a 1A4B     		ldr	r3, .L38
 487 001c D860     		str	r0, [r3, #12]
 799:.\Valve_Control.c ****     }
 800:.\Valve_Control.c ****     else 
 801:.\Valve_Control.c ****     {
 802:.\Valve_Control.c ****         return;
 803:.\Valve_Control.c ****     }
 804:.\Valve_Control.c ****     if(CutMode() == CUTCMODE)
 488              		.loc 1 804 0
 489 001e FFF7FEFF 		bl	Status_Reg_1_Read
 490              	.LVL48:
 491 0022 00F06000 		and	r0, r0, #96
 492 0026 4028     		cmp	r0, #64
 493 0028 07D1     		bne	.L34
 805:.\Valve_Control.c ****     {
ARM GAS  C:\Users\pxc\AppData\Local\Temp\ccofNc3q.s 			page 24


 806:.\Valve_Control.c ****         LCD_Char_1_Position(0,1) ;
 494              		.loc 1 806 0
 495 002a 0020     		movs	r0, #0
 496 002c 0121     		movs	r1, #1
 497 002e FFF7FEFF 		bl	LCD_Char_1_Position
 498              	.LVL49:
 807:.\Valve_Control.c ****         LCD_Char_1_PrintString("C-MODE");
 499              		.loc 1 807 0
 500 0032 1548     		ldr	r0, .L38+4
 501 0034 FFF7FEFF 		bl	LCD_Char_1_PrintString
 502              	.LVL50:
 503 0038 08BD     		pop	{r3, pc}
 504              	.L34:
 808:.\Valve_Control.c ****     }
 809:.\Valve_Control.c ****     else if(CutMode() == CUTJMODE)
 505              		.loc 1 809 0
 506 003a FFF7FEFF 		bl	Status_Reg_1_Read
 507              	.LVL51:
 508 003e 00F06000 		and	r0, r0, #96
 509 0042 6028     		cmp	r0, #96
 510 0044 07D1     		bne	.L35
 810:.\Valve_Control.c ****     {
 811:.\Valve_Control.c ****         LCD_Char_1_Position(0,1) ;
 511              		.loc 1 811 0
 512 0046 0020     		movs	r0, #0
 513 0048 0121     		movs	r1, #1
 514 004a FFF7FEFF 		bl	LCD_Char_1_Position
 515              	.LVL52:
 812:.\Valve_Control.c ****         LCD_Char_1_PrintString("J-MODE");
 516              		.loc 1 812 0
 517 004e 0F48     		ldr	r0, .L38+8
 518 0050 FFF7FEFF 		bl	LCD_Char_1_PrintString
 519              	.LVL53:
 520 0054 08BD     		pop	{r3, pc}
 521              	.L35:
 813:.\Valve_Control.c ****     }
 814:.\Valve_Control.c ****     else if(CutMode() == CUTSMODE)
 522              		.loc 1 814 0
 523 0056 FFF7FEFF 		bl	Status_Reg_1_Read
 524              	.LVL54:
 525 005a 00F06000 		and	r0, r0, #96
 526 005e 2028     		cmp	r0, #32
 527 0060 07D1     		bne	.L36
 815:.\Valve_Control.c ****     {
 816:.\Valve_Control.c ****         LCD_Char_1_Position(0,1) ;
 528              		.loc 1 816 0
 529 0062 0020     		movs	r0, #0
 530 0064 0121     		movs	r1, #1
 531 0066 FFF7FEFF 		bl	LCD_Char_1_Position
 532              	.LVL55:
 817:.\Valve_Control.c ****         LCD_Char_1_PrintString("S-MODE");
 533              		.loc 1 817 0
 534 006a 0948     		ldr	r0, .L38+12
 535 006c FFF7FEFF 		bl	LCD_Char_1_PrintString
 536              	.LVL56:
 537 0070 08BD     		pop	{r3, pc}
 538              	.L36:
ARM GAS  C:\Users\pxc\AppData\Local\Temp\ccofNc3q.s 			page 25


 818:.\Valve_Control.c ****     }
 819:.\Valve_Control.c ****     else 
 820:.\Valve_Control.c ****     {
 821:.\Valve_Control.c ****         LCD_Char_1_Position(0,1);
 539              		.loc 1 821 0
 540 0072 0020     		movs	r0, #0
 541 0074 0121     		movs	r1, #1
 542 0076 FFF7FEFF 		bl	LCD_Char_1_Position
 543              	.LVL57:
 822:.\Valve_Control.c ****         LCD_Char_1_PrintString("UNKNOWN");
 544              		.loc 1 822 0
 545 007a 0648     		ldr	r0, .L38+16
 546 007c FFF7FEFF 		bl	LCD_Char_1_PrintString
 547              	.LVL58:
 548              	.L32:
 549 0080 08BD     		pop	{r3, pc}
 550              	.L39:
 551 0082 00BF     		.align	2
 552              	.L38:
 553 0084 00000000 		.word	.LANCHOR1
 554 0088 50000000 		.word	.LC7
 555 008c 58000000 		.word	.LC8
 556 0090 60000000 		.word	.LC9
 557 0094 68000000 		.word	.LC10
 558              		.cfi_endproc
 559              	.LFE72:
 560              		.size	LCD_DISPLAY_MODE, .-LCD_DISPLAY_MODE
 561              		.section	.text.timer_10ms,"ax",%progbits
 562              		.align	2
 563              		.global	timer_10ms
 564              		.thumb
 565              		.thumb_func
 566              		.type	timer_10ms, %function
 567              	timer_10ms:
 568              	.LFB63:
  68:.\Valve_Control.c **** 	//Stroke_Timer_STATUS;
 569              		.loc 1 68 0
 570              		.cfi_startproc
 571              		@ args = 0, pretend = 0, frame = 0
 572              		@ frame_needed = 0, uses_anonymous_args = 0
  73:.\Valve_Control.c ****  
 573              		.loc 1 73 0
 574 0000 0022     		movs	r2, #0
 575 0002 AE4B     		ldr	r3, .L59
 576 0004 1A60     		str	r2, [r3]
  75:.\Valve_Control.c ****     {
 577              		.loc 1 75 0
 578 0006 AE4B     		ldr	r3, .L59+4
 579 0008 1B78     		ldrb	r3, [r3]	@ zero_extendqisi2
 580 000a 402B     		cmp	r3, #64
 581 000c 08D1     		bne	.L41
  75:.\Valve_Control.c ****     {
 582              		.loc 1 75 0 is_stmt 0 discriminator 2
 583 000e AD4A     		ldr	r2, .L59+8
 584 0010 D27D     		ldrb	r2, [r2, #23]	@ zero_extendqisi2
 585 0012 D2B2     		uxtb	r2, r2
 586 0014 112A     		cmp	r2, #17
ARM GAS  C:\Users\pxc\AppData\Local\Temp\ccofNc3q.s 			page 26


 587 0016 40F05D81 		bne	.L58
  75:.\Valve_Control.c ****     {
 588              		.loc 1 75 0 discriminator 3
 589 001a 882B     		cmp	r3, #136
 590 001c 00F05A81 		beq	.L58
 591              	.L41:
  75:.\Valve_Control.c ****     {
 592              		.loc 1 75 0 discriminator 4
 593 0020 A02B     		cmp	r3, #160
 594 0022 00F05781 		beq	.L58
  68:.\Valve_Control.c **** 	//Stroke_Timer_STATUS;
 595              		.loc 1 68 0 is_stmt 1
 596 0026 10B5     		push	{r4, lr}
 597              		.cfi_def_cfa_offset 8
 598              		.cfi_offset 4, -8
 599              		.cfi_offset 14, -4
  78:.\Valve_Control.c **** 		{
 600              		.loc 1 78 0
 601 0028 FFF7FEFF 		bl	Status_Reg_1_Read
 602              	.LVL59:
 603 002c 00F06000 		and	r0, r0, #96
 604 0030 2028     		cmp	r0, #32
 605 0032 22D1     		bne	.L43
  78:.\Valve_Control.c **** 		{
 606              		.loc 1 78 0 is_stmt 0 discriminator 1
 607 0034 A34B     		ldr	r3, .L59+8
 608 0036 5B7C     		ldrb	r3, [r3, #17]	@ zero_extendqisi2
 609 0038 DBB2     		uxtb	r3, r3
 610 003a 022B     		cmp	r3, #2
 611 003c 1DD8     		bhi	.L43
  78:.\Valve_Control.c **** 		{
 612              		.loc 1 78 0 discriminator 2
 613 003e FFF7FEFF 		bl	Status_Reg_1_Read
 614              	.LVL60:
 615 0042 10F0080F 		tst	r0, #8
 616 0046 18D0     		beq	.L43
  80:.\Valve_Control.c **** 			if(!FootStart())
 617              		.loc 1 80 0 is_stmt 1
 618 0048 0520     		movs	r0, #5
 619 004a FFF7FEFF 		bl	CyDelay
 620              	.LVL61:
  81:.\Valve_Control.c **** 			{
 621              		.loc 1 81 0
 622 004e FFF7FEFF 		bl	Status_Reg_1_Read
 623              	.LVL62:
 624 0052 10F0080F 		tst	r0, #8
 625 0056 10D0     		beq	.L43
  83:.\Valve_Control.c ****                 LED_WRITE(LED_Status[VBack]);
 626              		.loc 1 83 0
 627 0058 9A4C     		ldr	r4, .L59+8
 628 005a 207B     		ldrb	r0, [r4, #12]	@ zero_extendqisi2
 629 005c FFF7FEFF 		bl	Control_Reg_1_Write
 630              	.LVL63:
 631 0060 227B     		ldrb	r2, [r4, #12]	@ zero_extendqisi2
 632 0062 994B     		ldr	r3, .L59+12
 633 0064 1A70     		strb	r2, [r3]
  84:.\Valve_Control.c **** 				CutReg.CutTimeStatus = VBack;
ARM GAS  C:\Users\pxc\AppData\Local\Temp\ccofNc3q.s 			page 27


 634              		.loc 1 84 0
 635 0066 994B     		ldr	r3, .L59+16
 636 0068 187A     		ldrb	r0, [r3, #8]	@ zero_extendqisi2
 637 006a 994B     		ldr	r3, .L59+20
 638 006c 1870     		strb	r0, [r3]
 639 006e FFF7FEFF 		bl	LCD_DISPLAY
 640              	.LVL64:
 641 0072 FFF7FEFF 		bl	LCD_DISPLAY_MODE
 642              	.LVL65:
  85:.\Valve_Control.c ****               //CutReg.OneWorkFinshState = One_Work_Runing;   /* Â¢ûÂä†Âä®‰ΩúÂÆåÊàêÊ†áÂøó20160820*/
 643              		.loc 1 85 0
 644 0076 0423     		movs	r3, #4
 645 0078 6374     		strb	r3, [r4, #17]
 646              	.L43:
  91:.\Valve_Control.c **** 		{
 647              		.loc 1 91 0
 648 007a 924B     		ldr	r3, .L59+8
 649 007c 5B7C     		ldrb	r3, [r3, #17]	@ zero_extendqisi2
 650 007e DBB2     		uxtb	r3, r3
 651 0080 052B     		cmp	r3, #5
 652 0082 00F21981 		bhi	.L40
 653 0086 DFE813F0 		tbh	[pc, r3, lsl #1]
 654              	.L45:
 655 008a 0600     		.2byte	(.L44-.L45)/2
 656 008c 3400     		.2byte	(.L46-.L45)/2
 657 008e 5F00     		.2byte	(.L47-.L45)/2
 658 0090 9000     		.2byte	(.L48-.L45)/2
 659 0092 C100     		.2byte	(.L49-.L45)/2
 660 0094 F300     		.2byte	(.L50-.L45)/2
 661              		.p2align 1
 662              	.L44:
  94:.\Valve_Control.c ****            CutReg.OneWorkFinshState = One_Work_Runing;   /* Â¢ûÂä†Âä®‰ΩúÂÆåÊàêÊ†áÂøó20160820*/
 663              		.loc 1 94 0
 664 0096 FFF7FEFF 		bl	Read_config
 665              	.LVL66:
  95:.\Valve_Control.c **** 			if(DownPoint())
 666              		.loc 1 95 0
 667 009a 1122     		movs	r2, #17
 668 009c 894B     		ldr	r3, .L59+8
 669 009e DA75     		strb	r2, [r3, #23]
  96:.\Valve_Control.c **** 			{
 670              		.loc 1 96 0
 671 00a0 FFF7FEFF 		bl	Status_Reg_1_Read
 672              	.LVL67:
 673 00a4 10F0010F 		tst	r0, #1
 674 00a8 11D1     		bne	.L51
  98:.\Valve_Control.c ****                 LED_WRITE(LED_Status[VSlow]);
 675              		.loc 1 98 0
 676 00aa 864C     		ldr	r4, .L59+8
 677 00ac 607A     		ldrb	r0, [r4, #9]	@ zero_extendqisi2
 678 00ae FFF7FEFF 		bl	Control_Reg_1_Write
 679              	.LVL68:
 680 00b2 627A     		ldrb	r2, [r4, #9]	@ zero_extendqisi2
 681 00b4 844B     		ldr	r3, .L59+12
 682 00b6 1A70     		strb	r2, [r3]
  99:.\Valve_Control.c **** 				CutReg.CutTimeStatus = VSlow;
 683              		.loc 1 99 0
ARM GAS  C:\Users\pxc\AppData\Local\Temp\ccofNc3q.s 			page 28


 684 00b8 844B     		ldr	r3, .L59+16
 685 00ba 5879     		ldrb	r0, [r3, #5]	@ zero_extendqisi2
 686 00bc 844B     		ldr	r3, .L59+20
 687 00be 1870     		strb	r0, [r3]
 688 00c0 FFF7FEFF 		bl	LCD_DISPLAY
 689              	.LVL69:
 690 00c4 FFF7FEFF 		bl	LCD_DISPLAY_MODE
 691              	.LVL70:
 100:.\Valve_Control.c **** 			}
 692              		.loc 1 100 0
 693 00c8 0123     		movs	r3, #1
 694 00ca 6374     		strb	r3, [r4, #17]
 695 00cc 10BD     		pop	{r4, pc}
 696              	.L51:
 104:.\Valve_Control.c ****                 LED_WRITE(LED_Status[VFast]);
 697              		.loc 1 104 0
 698 00ce 7D4C     		ldr	r4, .L59+8
 699 00d0 207A     		ldrb	r0, [r4, #8]	@ zero_extendqisi2
 700 00d2 FFF7FEFF 		bl	Control_Reg_1_Write
 701              	.LVL71:
 702 00d6 227A     		ldrb	r2, [r4, #8]	@ zero_extendqisi2
 703 00d8 7B4B     		ldr	r3, .L59+12
 704 00da 1A70     		strb	r2, [r3]
 105:.\Valve_Control.c **** 				CutReg.CutTimeStatus = VFast;
 705              		.loc 1 105 0
 706 00dc 7B4B     		ldr	r3, .L59+16
 707 00de 1879     		ldrb	r0, [r3, #4]	@ zero_extendqisi2
 708 00e0 7B4B     		ldr	r3, .L59+20
 709 00e2 1870     		strb	r0, [r3]
 710 00e4 FFF7FEFF 		bl	LCD_DISPLAY
 711              	.LVL72:
 712 00e8 FFF7FEFF 		bl	LCD_DISPLAY_MODE
 713              	.LVL73:
 106:.\Valve_Control.c **** 			}
 714              		.loc 1 106 0
 715 00ec 0023     		movs	r3, #0
 716 00ee 6374     		strb	r3, [r4, #17]
 717 00f0 10BD     		pop	{r4, pc}
 718              	.L46:
 111:.\Valve_Control.c **** 			{
 719              		.loc 1 111 0
 720 00f2 FFF7FEFF 		bl	Status_Reg_1_Read
 721              	.LVL74:
 722 00f6 10F0010F 		tst	r0, #1
 723 00fa 13D1     		bne	.L52
 113:.\Valve_Control.c ****                 LED_WRITE(LED_Status[VKeep]);
 724              		.loc 1 113 0
 725 00fc 714C     		ldr	r4, .L59+8
 726 00fe A07A     		ldrb	r0, [r4, #10]	@ zero_extendqisi2
 727 0100 FFF7FEFF 		bl	Control_Reg_1_Write
 728              	.LVL75:
 729 0104 A27A     		ldrb	r2, [r4, #10]	@ zero_extendqisi2
 730 0106 704B     		ldr	r3, .L59+12
 731 0108 1A70     		strb	r2, [r3]
 114:.\Valve_Control.c **** 				CutReg.CutTimeStatus = VKeep;
 732              		.loc 1 114 0
 733 010a 704B     		ldr	r3, .L59+16
ARM GAS  C:\Users\pxc\AppData\Local\Temp\ccofNc3q.s 			page 29


 734 010c 9879     		ldrb	r0, [r3, #6]	@ zero_extendqisi2
 735 010e 704B     		ldr	r3, .L59+20
 736 0110 1870     		strb	r0, [r3]
 737 0112 FFF7FEFF 		bl	LCD_DISPLAY
 738              	.LVL76:
 739 0116 FFF7FEFF 		bl	LCD_DISPLAY_MODE
 740              	.LVL77:
 115:.\Valve_Control.c **** 				CutReg.Cnt = 0;
 741              		.loc 1 115 0
 742 011a 0223     		movs	r3, #2
 743 011c 6374     		strb	r3, [r4, #17]
 116:.\Valve_Control.c **** 			}
 744              		.loc 1 116 0
 745 011e 0023     		movs	r3, #0
 746 0120 E381     		strh	r3, [r4, #14]	@ movhi
 747 0122 10BD     		pop	{r4, pc}
 748              	.L52:
 120:.\Valve_Control.c ****                 LED_WRITE(LED_Status[VFast]);
 749              		.loc 1 120 0
 750 0124 674C     		ldr	r4, .L59+8
 751 0126 207A     		ldrb	r0, [r4, #8]	@ zero_extendqisi2
 752 0128 FFF7FEFF 		bl	Control_Reg_1_Write
 753              	.LVL78:
 754 012c 227A     		ldrb	r2, [r4, #8]	@ zero_extendqisi2
 755 012e 664B     		ldr	r3, .L59+12
 756 0130 1A70     		strb	r2, [r3]
 121:.\Valve_Control.c **** 				CutReg.CutTimeStatus = VFast;
 757              		.loc 1 121 0
 758 0132 664B     		ldr	r3, .L59+16
 759 0134 1879     		ldrb	r0, [r3, #4]	@ zero_extendqisi2
 760 0136 664B     		ldr	r3, .L59+20
 761 0138 1870     		strb	r0, [r3]
 762 013a FFF7FEFF 		bl	LCD_DISPLAY
 763              	.LVL79:
 764 013e FFF7FEFF 		bl	LCD_DISPLAY_MODE
 765              	.LVL80:
 122:.\Valve_Control.c **** 			}
 766              		.loc 1 122 0
 767 0142 0023     		movs	r3, #0
 768 0144 6374     		strb	r3, [r4, #17]
 769 0146 10BD     		pop	{r4, pc}
 770              	.L47:
 127:.\Valve_Control.c **** 			if(CutReg.Cnt >= CutReg.KeepTime)
 771              		.loc 1 127 0
 772 0148 5E4A     		ldr	r2, .L59+8
 773 014a D389     		ldrh	r3, [r2, #14]
 774 014c 0133     		adds	r3, r3, #1
 775 014e 9BB2     		uxth	r3, r3
 776 0150 D381     		strh	r3, [r2, #14]	@ movhi
 128:.\Valve_Control.c **** 			{
 777              		.loc 1 128 0
 778 0152 D189     		ldrh	r1, [r2, #14]
 779 0154 89B2     		uxth	r1, r1
 780 0156 1388     		ldrh	r3, [r2]
 781 0158 9BB2     		uxth	r3, r3
 782 015a 9942     		cmp	r1, r3
 783 015c 13D3     		bcc	.L53
ARM GAS  C:\Users\pxc\AppData\Local\Temp\ccofNc3q.s 			page 30


 130:.\Valve_Control.c **** 				ValveOut(CutReg.Action[VUnload]);
 784              		.loc 1 130 0
 785 015e 1446     		mov	r4, r2
 786 0160 0023     		movs	r3, #0
 787 0162 D381     		strh	r3, [r2, #14]	@ movhi
 131:.\Valve_Control.c ****                 LED_WRITE(LED_Status[VUnload]);
 788              		.loc 1 131 0
 789 0164 D07A     		ldrb	r0, [r2, #11]	@ zero_extendqisi2
 790 0166 FFF7FEFF 		bl	Control_Reg_1_Write
 791              	.LVL81:
 792 016a E27A     		ldrb	r2, [r4, #11]	@ zero_extendqisi2
 793 016c 564B     		ldr	r3, .L59+12
 794 016e 1A70     		strb	r2, [r3]
 132:.\Valve_Control.c **** 				CutReg.CutTimeStatus = VUnload;
 795              		.loc 1 132 0
 796 0170 564B     		ldr	r3, .L59+16
 797 0172 D879     		ldrb	r0, [r3, #7]	@ zero_extendqisi2
 798 0174 564B     		ldr	r3, .L59+20
 799 0176 1870     		strb	r0, [r3]
 800 0178 FFF7FEFF 		bl	LCD_DISPLAY
 801              	.LVL82:
 802 017c FFF7FEFF 		bl	LCD_DISPLAY_MODE
 803              	.LVL83:
 133:.\Valve_Control.c **** 			}
 804              		.loc 1 133 0
 805 0180 0323     		movs	r3, #3
 806 0182 6374     		strb	r3, [r4, #17]
 807 0184 10BD     		pop	{r4, pc}
 808              	.L53:
 137:.\Valve_Control.c ****                 LED_WRITE(LED_Status[VKeep]);
 809              		.loc 1 137 0
 810 0186 4F4C     		ldr	r4, .L59+8
 811 0188 A07A     		ldrb	r0, [r4, #10]	@ zero_extendqisi2
 812 018a FFF7FEFF 		bl	Control_Reg_1_Write
 813              	.LVL84:
 814 018e A27A     		ldrb	r2, [r4, #10]	@ zero_extendqisi2
 815 0190 4D4B     		ldr	r3, .L59+12
 816 0192 1A70     		strb	r2, [r3]
 138:.\Valve_Control.c **** 				CutReg.CutTimeStatus = VKeep;
 817              		.loc 1 138 0
 818 0194 4D4B     		ldr	r3, .L59+16
 819 0196 9879     		ldrb	r0, [r3, #6]	@ zero_extendqisi2
 820 0198 4D4B     		ldr	r3, .L59+20
 821 019a 1870     		strb	r0, [r3]
 822 019c FFF7FEFF 		bl	LCD_DISPLAY
 823              	.LVL85:
 824 01a0 FFF7FEFF 		bl	LCD_DISPLAY_MODE
 825              	.LVL86:
 139:.\Valve_Control.c **** 			}
 826              		.loc 1 139 0
 827 01a4 0223     		movs	r3, #2
 828 01a6 6374     		strb	r3, [r4, #17]
 829 01a8 10BD     		pop	{r4, pc}
 830              	.L48:
 144:.\Valve_Control.c **** 			if(CutReg.Cnt >= CutReg.UnloadTime)
 831              		.loc 1 144 0
 832 01aa 464A     		ldr	r2, .L59+8
ARM GAS  C:\Users\pxc\AppData\Local\Temp\ccofNc3q.s 			page 31


 833 01ac D389     		ldrh	r3, [r2, #14]
 834 01ae 0133     		adds	r3, r3, #1
 835 01b0 9BB2     		uxth	r3, r3
 836 01b2 D381     		strh	r3, [r2, #14]	@ movhi
 145:.\Valve_Control.c **** 			{
 837              		.loc 1 145 0
 838 01b4 D189     		ldrh	r1, [r2, #14]
 839 01b6 89B2     		uxth	r1, r1
 840 01b8 5388     		ldrh	r3, [r2, #2]
 841 01ba 9BB2     		uxth	r3, r3
 842 01bc 9942     		cmp	r1, r3
 843 01be 13D3     		bcc	.L54
 147:.\Valve_Control.c **** 				ValveOut(CutReg.Action[VBack]);
 844              		.loc 1 147 0
 845 01c0 1446     		mov	r4, r2
 846 01c2 0023     		movs	r3, #0
 847 01c4 D381     		strh	r3, [r2, #14]	@ movhi
 148:.\Valve_Control.c ****                 LED_WRITE(LED_Status[VBack]);
 848              		.loc 1 148 0
 849 01c6 107B     		ldrb	r0, [r2, #12]	@ zero_extendqisi2
 850 01c8 FFF7FEFF 		bl	Control_Reg_1_Write
 851              	.LVL87:
 852 01cc 227B     		ldrb	r2, [r4, #12]	@ zero_extendqisi2
 853 01ce 3E4B     		ldr	r3, .L59+12
 854 01d0 1A70     		strb	r2, [r3]
 149:.\Valve_Control.c **** 				CutReg.CutTimeStatus = VBack;
 855              		.loc 1 149 0
 856 01d2 3E4B     		ldr	r3, .L59+16
 857 01d4 187A     		ldrb	r0, [r3, #8]	@ zero_extendqisi2
 858 01d6 3E4B     		ldr	r3, .L59+20
 859 01d8 1870     		strb	r0, [r3]
 860 01da FFF7FEFF 		bl	LCD_DISPLAY
 861              	.LVL88:
 862 01de FFF7FEFF 		bl	LCD_DISPLAY_MODE
 863              	.LVL89:
 150:.\Valve_Control.c **** 			}
 864              		.loc 1 150 0
 865 01e2 0423     		movs	r3, #4
 866 01e4 6374     		strb	r3, [r4, #17]
 867 01e6 10BD     		pop	{r4, pc}
 868              	.L54:
 154:.\Valve_Control.c ****                 LED_WRITE(LED_Status[VUnload]);
 869              		.loc 1 154 0
 870 01e8 364C     		ldr	r4, .L59+8
 871 01ea E07A     		ldrb	r0, [r4, #11]	@ zero_extendqisi2
 872 01ec FFF7FEFF 		bl	Control_Reg_1_Write
 873              	.LVL90:
 874 01f0 E27A     		ldrb	r2, [r4, #11]	@ zero_extendqisi2
 875 01f2 354B     		ldr	r3, .L59+12
 876 01f4 1A70     		strb	r2, [r3]
 155:.\Valve_Control.c **** 				CutReg.CutTimeStatus = VUnload;
 877              		.loc 1 155 0
 878 01f6 354B     		ldr	r3, .L59+16
 879 01f8 D879     		ldrb	r0, [r3, #7]	@ zero_extendqisi2
 880 01fa 354B     		ldr	r3, .L59+20
 881 01fc 1870     		strb	r0, [r3]
 882 01fe FFF7FEFF 		bl	LCD_DISPLAY
ARM GAS  C:\Users\pxc\AppData\Local\Temp\ccofNc3q.s 			page 32


 883              	.LVL91:
 884 0202 FFF7FEFF 		bl	LCD_DISPLAY_MODE
 885              	.LVL92:
 156:.\Valve_Control.c **** 			}
 886              		.loc 1 156 0
 887 0206 0323     		movs	r3, #3
 888 0208 6374     		strb	r3, [r4, #17]
 889 020a 10BD     		pop	{r4, pc}
 890              	.L49:
 161:.\Valve_Control.c **** 			{
 891              		.loc 1 161 0
 892 020c FFF7FEFF 		bl	Status_Reg_1_Read
 893              	.LVL93:
 894 0210 10F0020F 		tst	r0, #2
 895 0214 1AD1     		bne	.L55
 163:.\Valve_Control.c **** 				{
 896              		.loc 1 163 0
 897 0216 FFF7FEFF 		bl	Status_Reg_1_Read
 898              	.LVL94:
 899 021a 10F0020F 		tst	r0, #2
 900 021e 4BD1     		bne	.L40
 165:.\Valve_Control.c ****                     LED_WRITE(LED_Status[VStop]);
 901              		.loc 1 165 0
 902 0220 284C     		ldr	r4, .L59+8
 903 0222 607B     		ldrb	r0, [r4, #13]	@ zero_extendqisi2
 904 0224 FFF7FEFF 		bl	Control_Reg_1_Write
 905              	.LVL95:
 906 0228 627B     		ldrb	r2, [r4, #13]	@ zero_extendqisi2
 907 022a 274B     		ldr	r3, .L59+12
 908 022c 1A70     		strb	r2, [r3]
 166:.\Valve_Control.c **** 					CutReg.CutTimeStatus = VStop;
 909              		.loc 1 166 0
 910 022e 274B     		ldr	r3, .L59+16
 911 0230 587A     		ldrb	r0, [r3, #9]	@ zero_extendqisi2
 912 0232 274B     		ldr	r3, .L59+20
 913 0234 1870     		strb	r0, [r3]
 914 0236 FFF7FEFF 		bl	LCD_DISPLAY
 915              	.LVL96:
 916 023a FFF7FEFF 		bl	LCD_DISPLAY_MODE
 917              	.LVL97:
 167:.\Valve_Control.c **** 					CutReg.Cnt = 0;
 918              		.loc 1 167 0
 919 023e 0523     		movs	r3, #5
 920 0240 6374     		strb	r3, [r4, #17]
 168:.\Valve_Control.c ****                     CutReg.OneWorkFinshState = One_Work_Finish;//ÂÆåÊàê‰∏ÄÊ¨°Âä®‰ΩúÊ†áÂøó 20160829Á
 921              		.loc 1 168 0
 922 0242 0023     		movs	r3, #0
 923 0244 E381     		strh	r3, [r4, #14]	@ movhi
 169:.\Valve_Control.c **** 				}
 924              		.loc 1 169 0
 925 0246 FF23     		movs	r3, #255
 926 0248 E375     		strb	r3, [r4, #23]
 927 024a 10BD     		pop	{r4, pc}
 928              	.L55:
 174:.\Valve_Control.c ****                 LED_WRITE(LED_Status[VBack]);
 929              		.loc 1 174 0
 930 024c 1D4C     		ldr	r4, .L59+8
ARM GAS  C:\Users\pxc\AppData\Local\Temp\ccofNc3q.s 			page 33


 931 024e 207B     		ldrb	r0, [r4, #12]	@ zero_extendqisi2
 932 0250 FFF7FEFF 		bl	Control_Reg_1_Write
 933              	.LVL98:
 934 0254 227B     		ldrb	r2, [r4, #12]	@ zero_extendqisi2
 935 0256 1C4B     		ldr	r3, .L59+12
 936 0258 1A70     		strb	r2, [r3]
 175:.\Valve_Control.c **** 				CutReg.CutTimeStatus = VBack;
 937              		.loc 1 175 0
 938 025a 1C4B     		ldr	r3, .L59+16
 939 025c 187A     		ldrb	r0, [r3, #8]	@ zero_extendqisi2
 940 025e 1C4B     		ldr	r3, .L59+20
 941 0260 1870     		strb	r0, [r3]
 942 0262 FFF7FEFF 		bl	LCD_DISPLAY
 943              	.LVL99:
 944 0266 FFF7FEFF 		bl	LCD_DISPLAY_MODE
 945              	.LVL100:
 176:.\Valve_Control.c **** 			}
 946              		.loc 1 176 0
 947 026a 0423     		movs	r3, #4
 948 026c 6374     		strb	r3, [r4, #17]
 949 026e 10BD     		pop	{r4, pc}
 950              	.L50:
 180:.\Valve_Control.c **** 			if(CutReg.Cnt >= 100  )//
 951              		.loc 1 180 0
 952 0270 144A     		ldr	r2, .L59+8
 953 0272 D389     		ldrh	r3, [r2, #14]
 954 0274 0133     		adds	r3, r3, #1
 955 0276 9BB2     		uxth	r3, r3
 956 0278 D381     		strh	r3, [r2, #14]	@ movhi
 181:.\Valve_Control.c **** 			{
 957              		.loc 1 181 0
 958 027a D389     		ldrh	r3, [r2, #14]
 959 027c 9BB2     		uxth	r3, r3
 960 027e 632B     		cmp	r3, #99
 961 0280 09D9     		bls	.L56
 183:.\Valve_Control.c **** 				ISR_Stroke_Timer_states =0x01;
 962              		.loc 1 183 0
 963 0282 1346     		mov	r3, r2
 964 0284 0022     		movs	r2, #0
 965 0286 DA81     		strh	r2, [r3, #14]	@ movhi
 184:.\Valve_Control.c **** 				CutReg.CutTimeStatus = VFast;  //ÁªìÊùü
 966              		.loc 1 184 0
 967 0288 0120     		movs	r0, #1
 968 028a 0C49     		ldr	r1, .L59
 969 028c 0860     		str	r0, [r1]
 185:.\Valve_Control.c ****       
 970              		.loc 1 185 0
 971 028e 5A74     		strb	r2, [r3, #17]
 187:.\Valve_Control.c ****              
 972              		.loc 1 187 0
 973 0290 0622     		movs	r2, #6
 974 0292 1A74     		strb	r2, [r3, #16]
 975 0294 10BD     		pop	{r4, pc}
 976              	.L56:
 192:.\Valve_Control.c ****                 LED_WRITE(LED_Status[VStop]);
 977              		.loc 1 192 0
 978 0296 0B4C     		ldr	r4, .L59+8
ARM GAS  C:\Users\pxc\AppData\Local\Temp\ccofNc3q.s 			page 34


 979 0298 607B     		ldrb	r0, [r4, #13]	@ zero_extendqisi2
 980 029a FFF7FEFF 		bl	Control_Reg_1_Write
 981              	.LVL101:
 982 029e 627B     		ldrb	r2, [r4, #13]	@ zero_extendqisi2
 983 02a0 094B     		ldr	r3, .L59+12
 984 02a2 1A70     		strb	r2, [r3]
 193:.\Valve_Control.c **** 				CutReg.CutTimeStatus = VStop;
 985              		.loc 1 193 0
 986 02a4 094B     		ldr	r3, .L59+16
 987 02a6 587A     		ldrb	r0, [r3, #9]	@ zero_extendqisi2
 988 02a8 094B     		ldr	r3, .L59+20
 989 02aa 1870     		strb	r0, [r3]
 990 02ac FFF7FEFF 		bl	LCD_DISPLAY
 991              	.LVL102:
 992 02b0 FFF7FEFF 		bl	LCD_DISPLAY_MODE
 993              	.LVL103:
 194:.\Valve_Control.c ****             
 994              		.loc 1 194 0
 995 02b4 0523     		movs	r3, #5
 996 02b6 6374     		strb	r3, [r4, #17]
 997              	.L40:
 998 02b8 10BD     		pop	{r4, pc}
 999              	.L60:
 1000 02ba 00BF     		.align	2
 1001              	.L59:
 1002 02bc 00000000 		.word	ISR_Stroke_Timer_states
 1003 02c0 00000000 		.word	System_enable
 1004 02c4 00000000 		.word	CutReg
 1005 02c8 00000000 		.word	TPDO_OUT_Status
 1006 02cc 00000000 		.word	.LANCHOR1
 1007 02d0 00000000 		.word	TPDO_PROCESS_Status
 1008              	.L58:
 1009              		.cfi_def_cfa_offset 0
 1010              		.cfi_restore 4
 1011              		.cfi_restore 14
 1012 02d4 7047     		bx	lr
 1013              		.cfi_endproc
 1014              	.LFE63:
 1015              		.size	timer_10ms, .-timer_10ms
 1016 02d6 00BF     		.section	.text.Stroke_Process,"ax",%progbits
 1017              		.align	2
 1018              		.global	Stroke_Process
 1019              		.thumb
 1020              		.thumb_func
 1021              		.type	Stroke_Process, %function
 1022              	Stroke_Process:
 1023              	.LFB64:
 222:.\Valve_Control.c **** 	uint8 ModeFlag = 0;
 1024              		.loc 1 222 0
 1025              		.cfi_startproc
 1026              		@ args = 0, pretend = 0, frame = 0
 1027              		@ frame_needed = 0, uses_anonymous_args = 0
 1028 0000 10B5     		push	{r4, lr}
 1029              		.cfi_def_cfa_offset 8
 1030              		.cfi_offset 4, -8
 1031              		.cfi_offset 14, -4
 1032              	.LVL104:
ARM GAS  C:\Users\pxc\AppData\Local\Temp\ccofNc3q.s 			page 35


 227:.\Valve_Control.c **** 	{
 1033              		.loc 1 227 0
 1034 0002 AA4B     		ldr	r3, .L104
 1035 0004 1B7C     		ldrb	r3, [r3, #16]	@ zero_extendqisi2
 1036 0006 DBB2     		uxtb	r3, r3
 1037 0008 062B     		cmp	r3, #6
 1038 000a 00F2E881 		bhi	.L93
 1039 000e DFE813F0 		tbh	[pc, r3, lsl #1]
 1040              	.L64:
 1041 0012 0700     		.2byte	(.L63-.L64)/2
 1042 0014 4200     		.2byte	(.L65-.L64)/2
 1043 0016 6401     		.2byte	(.L66-.L64)/2
 1044 0018 7B01     		.2byte	(.L67-.L64)/2
 1045 001a A001     		.2byte	(.L68-.L64)/2
 1046 001c E601     		.2byte	(.L93-.L64)/2
 1047 001e A901     		.2byte	(.L69-.L64)/2
 1048              		.p2align 1
 1049              	.L63:
 230:.\Valve_Control.c **** 		{
 1050              		.loc 1 230 0
 1051 0020 FFF7FEFF 		bl	Status_Reg_1_Read
 1052              	.LVL105:
 1053 0024 00F06000 		and	r0, r0, #96
 1054 0028 4028     		cmp	r0, #64
 1055 002a 05D0     		beq	.L70
 230:.\Valve_Control.c **** 		{
 1056              		.loc 1 230 0 is_stmt 0 discriminator 2
 1057 002c FFF7FEFF 		bl	Status_Reg_1_Read
 1058              	.LVL106:
 1059 0030 00F06000 		and	r0, r0, #96
 1060 0034 2028     		cmp	r0, #32
 1061 0036 07D1     		bne	.L71
 1062              	.L70:
 230:.\Valve_Control.c **** 		{
 1063              		.loc 1 230 0 discriminator 3
 1064 0038 9D4B     		ldr	r3, .L104+4
 1065 003a 1B78     		ldrb	r3, [r3]	@ zero_extendqisi2
 1066 003c 402B     		cmp	r3, #64
 1067 003e 03D1     		bne	.L71
 232:.\Valve_Control.c **** 		}
 1068              		.loc 1 232 0 is_stmt 1
 1069 0040 0022     		movs	r2, #0
 1070 0042 9A4B     		ldr	r3, .L104
 1071 0044 1A74     		strb	r2, [r3, #16]
 1072 0046 1CE0     		b	.L72
 1073              	.L71:
 234:.\Valve_Control.c **** 		{
 1074              		.loc 1 234 0
 1075 0048 FFF7FEFF 		bl	Status_Reg_1_Read
 1076              	.LVL107:
 1077 004c 00F06000 		and	r0, r0, #96
 1078 0050 4028     		cmp	r0, #64
 1079 0052 05D0     		beq	.L73
 234:.\Valve_Control.c **** 		{
 1080              		.loc 1 234 0 is_stmt 0 discriminator 2
 1081 0054 FFF7FEFF 		bl	Status_Reg_1_Read
 1082              	.LVL108:
ARM GAS  C:\Users\pxc\AppData\Local\Temp\ccofNc3q.s 			page 36


 1083 0058 00F06000 		and	r0, r0, #96
 1084 005c 2028     		cmp	r0, #32
 1085 005e 07D1     		bne	.L74
 1086              	.L73:
 234:.\Valve_Control.c **** 		{
 1087              		.loc 1 234 0 discriminator 3
 1088 0060 934B     		ldr	r3, .L104+4
 1089 0062 1B78     		ldrb	r3, [r3]	@ zero_extendqisi2
 1090 0064 402B     		cmp	r3, #64
 1091 0066 03D0     		beq	.L74
 236:.\Valve_Control.c **** 		}
 1092              		.loc 1 236 0 is_stmt 1
 1093 0068 0222     		movs	r2, #2
 1094 006a 904B     		ldr	r3, .L104
 1095 006c 1A74     		strb	r2, [r3, #16]
 1096 006e 08E0     		b	.L72
 1097              	.L74:
 238:.\Valve_Control.c **** 		{
 1098              		.loc 1 238 0
 1099 0070 FFF7FEFF 		bl	Status_Reg_1_Read
 1100              	.LVL109:
 1101 0074 00F06000 		and	r0, r0, #96
 1102 0078 6028     		cmp	r0, #96
 1103 007a 02D1     		bne	.L72
 240:.\Valve_Control.c **** 		}
 1104              		.loc 1 240 0
 1105 007c 0122     		movs	r2, #1
 1106 007e 8B4B     		ldr	r3, .L104
 1107 0080 1A74     		strb	r2, [r3, #16]
 1108              	.L72:
 242:.\Valve_Control.c ****         {
 1109              		.loc 1 242 0
 1110 0082 8B4B     		ldr	r3, .L104+4
 1111 0084 1B78     		ldrb	r3, [r3]	@ zero_extendqisi2
 1112 0086 882B     		cmp	r3, #136
 1113 0088 40F0AB81 		bne	.L94
 244:.\Valve_Control.c ****         }
 1114              		.loc 1 244 0
 1115 008c 0122     		movs	r2, #1
 1116 008e 874B     		ldr	r3, .L104
 1117 0090 1A74     		strb	r2, [r3, #16]
 225:.\Valve_Control.c **** 
 1118              		.loc 1 225 0
 1119 0092 0020     		movs	r0, #0
 1120 0094 10BD     		pop	{r4, pc}
 1121              	.L65:
 249:.\Valve_Control.c **** 		{
 1122              		.loc 1 249 0
 1123 0096 FFF7FEFF 		bl	Status_Reg_1_Read
 1124              	.LVL110:
 1125 009a 00F06000 		and	r0, r0, #96
 1126 009e 6028     		cmp	r0, #96
 1127 00a0 15D0     		beq	.L75
 249:.\Valve_Control.c **** 		{
 1128              		.loc 1 249 0 is_stmt 0 discriminator 1
 1129 00a2 834B     		ldr	r3, .L104+4
 1130 00a4 1B78     		ldrb	r3, [r3]	@ zero_extendqisi2
ARM GAS  C:\Users\pxc\AppData\Local\Temp\ccofNc3q.s 			page 37


 1131 00a6 882B     		cmp	r3, #136
 1132 00a8 11D0     		beq	.L75
 251:.\Valve_Control.c ****             LED_WRITE(LED_Status[VStop]);
 1133              		.loc 1 251 0 is_stmt 1
 1134 00aa 804C     		ldr	r4, .L104
 1135 00ac 607B     		ldrb	r0, [r4, #13]	@ zero_extendqisi2
 1136 00ae FFF7FEFF 		bl	Control_Reg_1_Write
 1137              	.LVL111:
 1138 00b2 627B     		ldrb	r2, [r4, #13]	@ zero_extendqisi2
 1139 00b4 7F4B     		ldr	r3, .L104+8
 1140 00b6 1A70     		strb	r2, [r3]
 252:.\Valve_Control.c **** 			CutReg.CutStatus = StrokeStart;
 1141              		.loc 1 252 0
 1142 00b8 7F4B     		ldr	r3, .L104+12
 1143 00ba 587A     		ldrb	r0, [r3, #9]	@ zero_extendqisi2
 1144 00bc 7F4B     		ldr	r3, .L104+16
 1145 00be 1870     		strb	r0, [r3]
 1146 00c0 FFF7FEFF 		bl	LCD_DISPLAY
 1147              	.LVL112:
 1148 00c4 FFF7FEFF 		bl	LCD_DISPLAY_MODE
 1149              	.LVL113:
 253:.\Valve_Control.c **** 		}
 1150              		.loc 1 253 0
 1151 00c8 0023     		movs	r3, #0
 1152 00ca 2374     		strb	r3, [r4, #16]
 1153 00cc C1E0     		b	.L76
 1154              	.L75:
 255:.\Valve_Control.c **** 		{
 1155              		.loc 1 255 0
 1156 00ce FFF7FEFF 		bl	Status_Reg_1_Read
 1157              	.LVL114:
 1158 00d2 10F0080F 		tst	r0, #8
 1159 00d6 5BD1     		bne	.L77
 255:.\Valve_Control.c **** 		{
 1160              		.loc 1 255 0 is_stmt 0 discriminator 1
 1161 00d8 774B     		ldr	r3, .L104+12
 1162 00da 1B7C     		ldrb	r3, [r3, #16]	@ zero_extendqisi2
 1163 00dc 002B     		cmp	r3, #0
 1164 00de 57D0     		beq	.L77
 258:.\Valve_Control.c **** 			while(FootStart())
 1165              		.loc 1 258 0 is_stmt 1
 1166 00e0 1122     		movs	r2, #17
 1167 00e2 724B     		ldr	r3, .L104
 1168 00e4 DA75     		strb	r2, [r3, #23]
 259:.\Valve_Control.c **** 			{
 1169              		.loc 1 259 0
 1170 00e6 3EE0     		b	.L78
 1171              	.L82:
 262:.\Valve_Control.c **** 				{
 1172              		.loc 1 262 0
 1173 00e8 FFF7FEFF 		bl	Status_Reg_1_Read
 1174              	.LVL115:
 1175 00ec 10F0010F 		tst	r0, #1
 1176 00f0 12D1     		bne	.L79
 264:.\Valve_Control.c ****                     LED_WRITE(LED_Status[VSlow]);
 1177              		.loc 1 264 0
 1178 00f2 6E4C     		ldr	r4, .L104
ARM GAS  C:\Users\pxc\AppData\Local\Temp\ccofNc3q.s 			page 38


 1179 00f4 607A     		ldrb	r0, [r4, #9]	@ zero_extendqisi2
 1180 00f6 FFF7FEFF 		bl	Control_Reg_1_Write
 1181              	.LVL116:
 1182 00fa 627A     		ldrb	r2, [r4, #9]	@ zero_extendqisi2
 1183 00fc 6D4B     		ldr	r3, .L104+8
 1184 00fe 1A70     		strb	r2, [r3]
 265:.\Valve_Control.c **** 					UnloadTime = CutReg.UnloadTime;
 1185              		.loc 1 265 0
 1186 0100 6D4B     		ldr	r3, .L104+12
 1187 0102 5879     		ldrb	r0, [r3, #5]	@ zero_extendqisi2
 1188 0104 6D4B     		ldr	r3, .L104+16
 1189 0106 1870     		strb	r0, [r3]
 1190 0108 FFF7FEFF 		bl	LCD_DISPLAY
 1191              	.LVL117:
 1192 010c FFF7FEFF 		bl	LCD_DISPLAY_MODE
 1193              	.LVL118:
 266:.\Valve_Control.c **** 				}
 1194              		.loc 1 266 0
 1195 0110 6288     		ldrh	r2, [r4, #2]
 1196 0112 6B4B     		ldr	r3, .L104+20
 1197 0114 1A80     		strh	r2, [r3]	@ movhi
 1198 0116 0EE0     		b	.L80
 1199              	.L79:
 270:.\Valve_Control.c ****                     LED_WRITE(LED_Status[VFast]);
 1200              		.loc 1 270 0
 1201 0118 644C     		ldr	r4, .L104
 1202 011a 207A     		ldrb	r0, [r4, #8]	@ zero_extendqisi2
 1203 011c FFF7FEFF 		bl	Control_Reg_1_Write
 1204              	.LVL119:
 1205 0120 227A     		ldrb	r2, [r4, #8]	@ zero_extendqisi2
 1206 0122 644B     		ldr	r3, .L104+8
 1207 0124 1A70     		strb	r2, [r3]
 271:.\Valve_Control.c **** 				}
 1208              		.loc 1 271 0
 1209 0126 644B     		ldr	r3, .L104+12
 1210 0128 1879     		ldrb	r0, [r3, #4]	@ zero_extendqisi2
 1211 012a 644B     		ldr	r3, .L104+16
 1212 012c 1870     		strb	r0, [r3]
 1213 012e FFF7FEFF 		bl	LCD_DISPLAY
 1214              	.LVL120:
 1215 0132 FFF7FEFF 		bl	LCD_DISPLAY_MODE
 1216              	.LVL121:
 1217              	.L80:
 273:.\Valve_Control.c **** 				{
 1218              		.loc 1 273 0
 1219 0136 FFF7FEFF 		bl	Status_Reg_1_Read
 1220              	.LVL122:
 1221 013a 00F06000 		and	r0, r0, #96
 1222 013e 6028     		cmp	r0, #96
 1223 0140 11D0     		beq	.L78
 275:.\Valve_Control.c ****                     LED_WRITE(LED_Status[VStop]);
 1224              		.loc 1 275 0
 1225 0142 5A4C     		ldr	r4, .L104
 1226 0144 607B     		ldrb	r0, [r4, #13]	@ zero_extendqisi2
 1227 0146 FFF7FEFF 		bl	Control_Reg_1_Write
 1228              	.LVL123:
 1229 014a 627B     		ldrb	r2, [r4, #13]	@ zero_extendqisi2
ARM GAS  C:\Users\pxc\AppData\Local\Temp\ccofNc3q.s 			page 39


 1230 014c 594B     		ldr	r3, .L104+8
 1231 014e 1A70     		strb	r2, [r3]
 276:.\Valve_Control.c **** 					CutReg.CutStatus = StrokeStart;
 1232              		.loc 1 276 0
 1233 0150 594B     		ldr	r3, .L104+12
 1234 0152 587A     		ldrb	r0, [r3, #9]	@ zero_extendqisi2
 1235 0154 594B     		ldr	r3, .L104+16
 1236 0156 1870     		strb	r0, [r3]
 1237 0158 FFF7FEFF 		bl	LCD_DISPLAY
 1238              	.LVL124:
 1239 015c FFF7FEFF 		bl	LCD_DISPLAY_MODE
 1240              	.LVL125:
 277:.\Valve_Control.c **** 					break;
 1241              		.loc 1 277 0
 1242 0160 0023     		movs	r3, #0
 1243 0162 2374     		strb	r3, [r4, #16]
 278:.\Valve_Control.c **** 				}
 1244              		.loc 1 278 0
 1245 0164 04E0     		b	.L81
 1246              	.L78:
 259:.\Valve_Control.c **** 			{
 1247              		.loc 1 259 0
 1248 0166 FFF7FEFF 		bl	Status_Reg_1_Read
 1249              	.LVL126:
 1250 016a 10F0080F 		tst	r0, #8
 1251 016e BBD0     		beq	.L82
 1252              	.L81:
 281:.\Valve_Control.c ****             LED_WRITE(LED_Status[VStop]);
 1253              		.loc 1 281 0
 1254 0170 4E4C     		ldr	r4, .L104
 1255 0172 607B     		ldrb	r0, [r4, #13]	@ zero_extendqisi2
 1256 0174 FFF7FEFF 		bl	Control_Reg_1_Write
 1257              	.LVL127:
 1258 0178 627B     		ldrb	r2, [r4, #13]	@ zero_extendqisi2
 1259 017a 4E4B     		ldr	r3, .L104+8
 1260 017c 1A70     		strb	r2, [r3]
 282:.\Valve_Control.c **** //			MoveLED(0);
 1261              		.loc 1 282 0
 1262 017e 4E4B     		ldr	r3, .L104+12
 1263 0180 587A     		ldrb	r0, [r3, #9]	@ zero_extendqisi2
 1264 0182 4E4B     		ldr	r3, .L104+16
 1265 0184 1870     		strb	r0, [r3]
 1266 0186 FFF7FEFF 		bl	LCD_DISPLAY
 1267              	.LVL128:
 1268 018a FFF7FEFF 		bl	LCD_DISPLAY_MODE
 1269              	.LVL129:
 1270 018e 60E0     		b	.L76
 1271              	.L77:
 285:.\Valve_Control.c **** 		{
 1272              		.loc 1 285 0
 1273 0190 FFF7FEFF 		bl	Status_Reg_1_Read
 1274              	.LVL130:
 1275 0194 10F0040F 		tst	r0, #4
 1276 0198 5BD1     		bne	.L76
 285:.\Valve_Control.c **** 		{
 1277              		.loc 1 285 0 is_stmt 0 discriminator 1
 1278 019a 474B     		ldr	r3, .L104+12
ARM GAS  C:\Users\pxc\AppData\Local\Temp\ccofNc3q.s 			page 40


 1279 019c 5B7C     		ldrb	r3, [r3, #17]	@ zero_extendqisi2
 1280 019e 002B     		cmp	r3, #0
 1281 01a0 57D0     		beq	.L76
 287:.\Valve_Control.c **** 			while(FootUp())
 1282              		.loc 1 287 0 is_stmt 1
 1283 01a2 0022     		movs	r2, #0
 1284 01a4 464B     		ldr	r3, .L104+20
 1285 01a6 1A80     		strh	r2, [r3]	@ movhi
 288:.\Valve_Control.c **** 			{
 1286              		.loc 1 288 0
 1287 01a8 3FE0     		b	.L83
 1288              	.L87:
 291:.\Valve_Control.c **** 				{
 1289              		.loc 1 291 0
 1290 01aa FFF7FEFF 		bl	Status_Reg_1_Read
 1291              	.LVL131:
 1292 01ae 10F0020F 		tst	r0, #2
 1293 01b2 0FD1     		bne	.L84
 293:.\Valve_Control.c ****                     LED_WRITE(LED_Status[VStop]);
 1294              		.loc 1 293 0
 1295 01b4 3D4C     		ldr	r4, .L104
 1296 01b6 607B     		ldrb	r0, [r4, #13]	@ zero_extendqisi2
 1297 01b8 FFF7FEFF 		bl	Control_Reg_1_Write
 1298              	.LVL132:
 1299 01bc 627B     		ldrb	r2, [r4, #13]	@ zero_extendqisi2
 1300 01be 3D4B     		ldr	r3, .L104+8
 1301 01c0 1A70     		strb	r2, [r3]
 294:.\Valve_Control.c **** 				}
 1302              		.loc 1 294 0
 1303 01c2 3D4B     		ldr	r3, .L104+12
 1304 01c4 587A     		ldrb	r0, [r3, #9]	@ zero_extendqisi2
 1305 01c6 3D4B     		ldr	r3, .L104+16
 1306 01c8 1870     		strb	r0, [r3]
 1307 01ca FFF7FEFF 		bl	LCD_DISPLAY
 1308              	.LVL133:
 1309 01ce FFF7FEFF 		bl	LCD_DISPLAY_MODE
 1310              	.LVL134:
 1311 01d2 0EE0     		b	.L85
 1312              	.L84:
 298:.\Valve_Control.c ****                     LED_WRITE(LED_Status[VBack]);
 1313              		.loc 1 298 0
 1314 01d4 354C     		ldr	r4, .L104
 1315 01d6 207B     		ldrb	r0, [r4, #12]	@ zero_extendqisi2
 1316 01d8 FFF7FEFF 		bl	Control_Reg_1_Write
 1317              	.LVL135:
 1318 01dc 227B     		ldrb	r2, [r4, #12]	@ zero_extendqisi2
 1319 01de 354B     		ldr	r3, .L104+8
 1320 01e0 1A70     		strb	r2, [r3]
 299:.\Valve_Control.c **** 				}
 1321              		.loc 1 299 0
 1322 01e2 354B     		ldr	r3, .L104+12
 1323 01e4 187A     		ldrb	r0, [r3, #8]	@ zero_extendqisi2
 1324 01e6 354B     		ldr	r3, .L104+16
 1325 01e8 1870     		strb	r0, [r3]
 1326 01ea FFF7FEFF 		bl	LCD_DISPLAY
 1327              	.LVL136:
 1328 01ee FFF7FEFF 		bl	LCD_DISPLAY_MODE
ARM GAS  C:\Users\pxc\AppData\Local\Temp\ccofNc3q.s 			page 41


 1329              	.LVL137:
 1330              	.L85:
 301:.\Valve_Control.c **** 				{
 1331              		.loc 1 301 0
 1332 01f2 FFF7FEFF 		bl	Status_Reg_1_Read
 1333              	.LVL138:
 1334 01f6 00F06000 		and	r0, r0, #96
 1335 01fa 6028     		cmp	r0, #96
 1336 01fc 15D0     		beq	.L83
 301:.\Valve_Control.c **** 				{
 1337              		.loc 1 301 0 is_stmt 0 discriminator 1
 1338 01fe 2C4B     		ldr	r3, .L104+4
 1339 0200 1B78     		ldrb	r3, [r3]	@ zero_extendqisi2
 1340 0202 882B     		cmp	r3, #136
 1341 0204 11D0     		beq	.L83
 303:.\Valve_Control.c ****                     LED_WRITE(LED_Status[VStop]);
 1342              		.loc 1 303 0 is_stmt 1
 1343 0206 294C     		ldr	r4, .L104
 1344 0208 607B     		ldrb	r0, [r4, #13]	@ zero_extendqisi2
 1345 020a FFF7FEFF 		bl	Control_Reg_1_Write
 1346              	.LVL139:
 1347 020e 627B     		ldrb	r2, [r4, #13]	@ zero_extendqisi2
 1348 0210 284B     		ldr	r3, .L104+8
 1349 0212 1A70     		strb	r2, [r3]
 304:.\Valve_Control.c **** 					CutReg.CutStatus = StrokeStart;
 1350              		.loc 1 304 0
 1351 0214 284B     		ldr	r3, .L104+12
 1352 0216 587A     		ldrb	r0, [r3, #9]	@ zero_extendqisi2
 1353 0218 284B     		ldr	r3, .L104+16
 1354 021a 1870     		strb	r0, [r3]
 1355 021c FFF7FEFF 		bl	LCD_DISPLAY
 1356              	.LVL140:
 1357 0220 FFF7FEFF 		bl	LCD_DISPLAY_MODE
 1358              	.LVL141:
 305:.\Valve_Control.c **** 					break;
 1359              		.loc 1 305 0
 1360 0224 0023     		movs	r3, #0
 1361 0226 2374     		strb	r3, [r4, #16]
 306:.\Valve_Control.c **** 				}
 1362              		.loc 1 306 0
 1363 0228 04E0     		b	.L86
 1364              	.L83:
 288:.\Valve_Control.c **** 			{
 1365              		.loc 1 288 0
 1366 022a FFF7FEFF 		bl	Status_Reg_1_Read
 1367              	.LVL142:
 1368 022e 10F0040F 		tst	r0, #4
 1369 0232 BAD0     		beq	.L87
 1370              	.L86:
 309:.\Valve_Control.c ****             LED_WRITE(LED_Status[VStop]);
 1371              		.loc 1 309 0
 1372 0234 1D4C     		ldr	r4, .L104
 1373 0236 607B     		ldrb	r0, [r4, #13]	@ zero_extendqisi2
 1374 0238 FFF7FEFF 		bl	Control_Reg_1_Write
 1375              	.LVL143:
 1376 023c 627B     		ldrb	r2, [r4, #13]	@ zero_extendqisi2
 1377 023e 1D4B     		ldr	r3, .L104+8
ARM GAS  C:\Users\pxc\AppData\Local\Temp\ccofNc3q.s 			page 42


 1378 0240 1A70     		strb	r2, [r3]
 310:.\Valve_Control.c **** //			MoveLED(0);
 1379              		.loc 1 310 0
 1380 0242 1D4B     		ldr	r3, .L104+12
 1381 0244 587A     		ldrb	r0, [r3, #9]	@ zero_extendqisi2
 1382 0246 1D4B     		ldr	r3, .L104+16
 1383 0248 1870     		strb	r0, [r3]
 1384 024a FFF7FEFF 		bl	LCD_DISPLAY
 1385              	.LVL144:
 1386 024e FFF7FEFF 		bl	LCD_DISPLAY_MODE
 1387              	.LVL145:
 1388              	.L76:
 314:.\Valve_Control.c **** 		{
 1389              		.loc 1 314 0
 1390 0252 FFF7FEFF 		bl	Status_Reg_1_Read
 1391              	.LVL146:
 1392 0256 00F06000 		and	r0, r0, #96
 1393 025a 6028     		cmp	r0, #96
 1394 025c 32D1     		bne	.L88
 314:.\Valve_Control.c **** 		{
 1395              		.loc 1 314 0 is_stmt 0 discriminator 1
 1396 025e FFF7FEFF 		bl	Status_Reg_1_Read
 1397              	.LVL147:
 1398 0262 10F0080F 		tst	r0, #8
 1399 0266 2DD0     		beq	.L88
 314:.\Valve_Control.c **** 		{
 1400              		.loc 1 314 0 discriminator 2
 1401 0268 104B     		ldr	r3, .L104
 1402 026a DB7A     		ldrb	r3, [r3, #11]	@ zero_extendqisi2
 1403 026c 13F0FF0F 		tst	r3, #255
 1404 0270 28D0     		beq	.L88
 314:.\Valve_Control.c **** 		{
 1405              		.loc 1 314 0 discriminator 3
 1406 0272 134B     		ldr	r3, .L104+20
 1407 0274 B3F90030 		ldrsh	r3, [r3]
 1408 0278 002B     		cmp	r3, #0
 1409 027a 23DD     		ble	.L88
 316:.\Valve_Control.c ****              LED_WRITE(LED_Status[VUnload]);
 1410              		.loc 1 316 0 is_stmt 1
 1411 027c 0B4C     		ldr	r4, .L104
 1412 027e E07A     		ldrb	r0, [r4, #11]	@ zero_extendqisi2
 1413 0280 FFF7FEFF 		bl	Control_Reg_1_Write
 1414              	.LVL148:
 1415 0284 E27A     		ldrb	r2, [r4, #11]	@ zero_extendqisi2
 1416 0286 0B4B     		ldr	r3, .L104+8
 1417 0288 1A70     		strb	r2, [r3]
 317:.\Valve_Control.c ****            // LED_WRITE(LED_Status(VUnload));
 1418              		.loc 1 317 0
 1419 028a 0B4B     		ldr	r3, .L104+12
 1420 028c D879     		ldrb	r0, [r3, #7]	@ zero_extendqisi2
 1421 028e 0B4B     		ldr	r3, .L104+16
 1422 0290 1870     		strb	r0, [r3]
 1423 0292 FFF7FEFF 		bl	LCD_DISPLAY
 1424              	.LVL149:
 1425 0296 FFF7FEFF 		bl	LCD_DISPLAY_MODE
 1426              	.LVL150:
 319:.\Valve_Control.c **** 			CyDelay(10);
ARM GAS  C:\Users\pxc\AppData\Local\Temp\ccofNc3q.s 			page 43


 1427              		.loc 1 319 0
 1428 029a 094A     		ldr	r2, .L104+20
 1429 029c 1388     		ldrh	r3, [r2]
 1430 029e 013B     		subs	r3, r3, #1
 1431 02a0 1380     		strh	r3, [r2]	@ movhi
 320:.\Valve_Control.c **** 		}
 1432              		.loc 1 320 0
 1433 02a2 0A20     		movs	r0, #10
 1434 02a4 FFF7FEFF 		bl	CyDelay
 1435              	.LVL151:
 225:.\Valve_Control.c **** 
 1436              		.loc 1 225 0
 1437 02a8 0020     		movs	r0, #0
 320:.\Valve_Control.c **** 		}
 1438              		.loc 1 320 0
 1439 02aa 10BD     		pop	{r4, pc}
 1440              	.L105:
 1441              		.align	2
 1442              	.L104:
 1443 02ac 00000000 		.word	CutReg
 1444 02b0 00000000 		.word	System_enable
 1445 02b4 00000000 		.word	TPDO_OUT_Status
 1446 02b8 00000000 		.word	.LANCHOR1
 1447 02bc 00000000 		.word	TPDO_PROCESS_Status
 1448 02c0 00000000 		.word	.LANCHOR2
 1449              	.L88:
 324:.\Valve_Control.c ****             /* Â¢ûÂä†Âä®‰ΩúÂÆåÊàêÊ†áÂøó20160820*/
 1450              		.loc 1 324 0
 1451 02c4 504C     		ldr	r4, .L106
 1452 02c6 607B     		ldrb	r0, [r4, #13]	@ zero_extendqisi2
 1453 02c8 FFF7FEFF 		bl	Control_Reg_1_Write
 1454              	.LVL152:
 1455 02cc 627B     		ldrb	r2, [r4, #13]	@ zero_extendqisi2
 1456 02ce 4F4B     		ldr	r3, .L106+4
 1457 02d0 1A70     		strb	r2, [r3]
 326:.\Valve_Control.c ****         }
 1458              		.loc 1 326 0
 1459 02d2 FF23     		movs	r3, #255
 1460 02d4 E375     		strb	r3, [r4, #23]
 225:.\Valve_Control.c **** 
 1461              		.loc 1 225 0
 1462 02d6 0020     		movs	r0, #0
 1463 02d8 10BD     		pop	{r4, pc}
 1464              	.L66:
 331:.\Valve_Control.c ****         {
 1465              		.loc 1 331 0
 1466 02da FFF7FEFF 		bl	Status_Reg_1_Read
 1467              	.LVL153:
 1468 02de 10F0080F 		tst	r0, #8
 1469 02e2 0CD0     		beq	.L89
 333:.\Valve_Control.c **** 			if(!FootStart())
 1470              		.loc 1 333 0
 1471 02e4 0520     		movs	r0, #5
 1472 02e6 FFF7FEFF 		bl	CyDelay
 1473              	.LVL154:
 334:.\Valve_Control.c **** 			{
 1474              		.loc 1 334 0
ARM GAS  C:\Users\pxc\AppData\Local\Temp\ccofNc3q.s 			page 44


 1475 02ea FFF7FEFF 		bl	Status_Reg_1_Read
 1476              	.LVL155:
 1477 02ee 10F0080F 		tst	r0, #8
 1478 02f2 78D0     		beq	.L95
 336:.\Valve_Control.c **** 			}
 1479              		.loc 1 336 0
 1480 02f4 0322     		movs	r2, #3
 1481 02f6 444B     		ldr	r3, .L106
 1482 02f8 1A74     		strb	r2, [r3, #16]
 225:.\Valve_Control.c **** 
 1483              		.loc 1 225 0
 1484 02fa 0020     		movs	r0, #0
 1485 02fc 10BD     		pop	{r4, pc}
 1486              	.L89:
 341:.\Valve_Control.c ****         }
 1487              		.loc 1 341 0
 1488 02fe 0222     		movs	r2, #2
 1489 0300 414B     		ldr	r3, .L106
 1490 0302 1A74     		strb	r2, [r3, #16]
 225:.\Valve_Control.c **** 
 1491              		.loc 1 225 0
 1492 0304 0020     		movs	r0, #0
 1493 0306 10BD     		pop	{r4, pc}
 1494              	.L67:
 345:.\Valve_Control.c **** 		{
 1495              		.loc 1 345 0
 1496 0308 FFF7FEFF 		bl	Status_Reg_1_Read
 1497              	.LVL156:
 1498 030c 10F0080F 		tst	r0, #8
 1499 0310 0DD1     		bne	.L90
 347:.\Valve_Control.c **** 			if(FootStart())
 1500              		.loc 1 347 0
 1501 0312 0520     		movs	r0, #5
 1502 0314 FFF7FEFF 		bl	CyDelay
 1503              	.LVL157:
 348:.\Valve_Control.c **** 			{                
 1504              		.loc 1 348 0
 1505 0318 FFF7FEFF 		bl	Status_Reg_1_Read
 1506              	.LVL158:
 1507 031c 10F0080F 		tst	r0, #8
 1508 0320 63D1     		bne	.L96
 350:.\Valve_Control.c ****                 CutReg.SToDotFlag = 0;
 1509              		.loc 1 350 0
 1510 0322 394B     		ldr	r3, .L106
 1511 0324 0422     		movs	r2, #4
 1512 0326 1A74     		strb	r2, [r3, #16]
 351:.\Valve_Control.c **** 			}
 1513              		.loc 1 351 0
 1514 0328 0020     		movs	r0, #0
 1515 032a 9875     		strb	r0, [r3, #22]
 1516 032c 10BD     		pop	{r4, pc}
 1517              	.L90:
 356:.\Valve_Control.c ****             if( CutReg.SToDotFlag && CutMode() == CUTJMODE)
 1518              		.loc 1 356 0
 1519 032e 364B     		ldr	r3, .L106
 1520 0330 0322     		movs	r2, #3
 1521 0332 1A74     		strb	r2, [r3, #16]
ARM GAS  C:\Users\pxc\AppData\Local\Temp\ccofNc3q.s 			page 45


 357:.\Valve_Control.c ****             {
 1522              		.loc 1 357 0
 1523 0334 9B7D     		ldrb	r3, [r3, #22]	@ zero_extendqisi2
 1524 0336 13F0FF0F 		tst	r3, #255
 1525 033a 58D0     		beq	.L97
 357:.\Valve_Control.c ****             {
 1526              		.loc 1 357 0 is_stmt 0 discriminator 1
 1527 033c FFF7FEFF 		bl	Status_Reg_1_Read
 1528              	.LVL159:
 1529 0340 00F06000 		and	r0, r0, #96
 1530 0344 6028     		cmp	r0, #96
 1531 0346 54D1     		bne	.L98
 359:.\Valve_Control.c ****             }
 1532              		.loc 1 359 0 is_stmt 1
 1533 0348 0122     		movs	r2, #1
 1534 034a 2F4B     		ldr	r3, .L106
 1535 034c 1A74     		strb	r2, [r3, #16]
 225:.\Valve_Control.c **** 
 1536              		.loc 1 225 0
 1537 034e 0020     		movs	r0, #0
 1538 0350 10BD     		pop	{r4, pc}
 1539              	.L68:
 365:.\Valve_Control.c **** 		CutReg.Cnt = 0;
 1540              		.loc 1 365 0
 1541 0352 2D4B     		ldr	r3, .L106
 1542 0354 0522     		movs	r2, #5
 1543 0356 1A74     		strb	r2, [r3, #16]
 366:.\Valve_Control.c **** 		CutReg.CutTimeStatus = VFast;
 1544              		.loc 1 366 0
 1545 0358 0020     		movs	r0, #0
 1546 035a D881     		strh	r0, [r3, #14]	@ movhi
 367:.\Valve_Control.c **** 		ISR_Stroke_Timer_states = 0x00;
 1547              		.loc 1 367 0
 1548 035c 5874     		strb	r0, [r3, #17]
 368:.\Valve_Control.c **** //		MoveLED(1);
 1549              		.loc 1 368 0
 1550 035e 2C4B     		ldr	r3, .L106+8
 1551 0360 1860     		str	r0, [r3]
 370:.\Valve_Control.c **** 	case Cutting: break;
 1552              		.loc 1 370 0
 1553 0362 10BD     		pop	{r4, pc}
 1554              	.L69:
 374:.\Valve_Control.c **** 		{
 1555              		.loc 1 374 0
 1556 0364 FFF7FEFF 		bl	Status_Reg_1_Read
 1557              	.LVL160:
 1558 0368 00F06000 		and	r0, r0, #96
 1559 036c 4028     		cmp	r0, #64
 1560 036e 0DD1     		bne	.L91
 376:.\Valve_Control.c ****             if(CutMode() == CUTCMODE)//ËøûÁª≠
 1561              		.loc 1 376 0
 1562 0370 0520     		movs	r0, #5
 1563 0372 FFF7FEFF 		bl	CyDelay
 1564              	.LVL161:
 377:.\Valve_Control.c **** 		    {
 1565              		.loc 1 377 0
 1566 0376 FFF7FEFF 		bl	Status_Reg_1_Read
ARM GAS  C:\Users\pxc\AppData\Local\Temp\ccofNc3q.s 			page 46


 1567              	.LVL162:
 1568 037a 00F06000 		and	r0, r0, #96
 1569 037e 4028     		cmp	r0, #64
 1570 0380 39D1     		bne	.L99
 379:.\Valve_Control.c ****             }
 1571              		.loc 1 379 0
 1572 0382 0422     		movs	r2, #4
 1573 0384 204B     		ldr	r3, .L106
 1574 0386 1A74     		strb	r2, [r3, #16]
 225:.\Valve_Control.c **** 
 1575              		.loc 1 225 0
 1576 0388 0020     		movs	r0, #0
 1577 038a 10BD     		pop	{r4, pc}
 1578              	.L91:
 383:.\Valve_Control.c **** 		{
 1579              		.loc 1 383 0
 1580 038c FFF7FEFF 		bl	Status_Reg_1_Read
 1581              	.LVL163:
 1582 0390 00F06000 		and	r0, r0, #96
 1583 0394 2028     		cmp	r0, #32
 1584 0396 0FD1     		bne	.L92
 385:.\Valve_Control.c ****              if(CutMode() == CUTSMODE)//ÂçïÊ¨°
 1585              		.loc 1 385 0
 1586 0398 0520     		movs	r0, #5
 1587 039a FFF7FEFF 		bl	CyDelay
 1588              	.LVL164:
 386:.\Valve_Control.c ****             {
 1589              		.loc 1 386 0
 1590 039e FFF7FEFF 		bl	Status_Reg_1_Read
 1591              	.LVL165:
 1592 03a2 00F06000 		and	r0, r0, #96
 1593 03a6 2028     		cmp	r0, #32
 1594 03a8 27D1     		bne	.L100
 388:.\Valve_Control.c ****             CutReg.SToDotFlag = 1;
 1595              		.loc 1 388 0
 1596 03aa 174B     		ldr	r3, .L106
 1597 03ac 0222     		movs	r2, #2
 1598 03ae 1A74     		strb	r2, [r3, #16]
 389:.\Valve_Control.c ****             }
 1599              		.loc 1 389 0
 1600 03b0 0122     		movs	r2, #1
 1601 03b2 9A75     		strb	r2, [r3, #22]
 225:.\Valve_Control.c **** 
 1602              		.loc 1 225 0
 1603 03b4 0020     		movs	r0, #0
 1604 03b6 10BD     		pop	{r4, pc}
 1605              	.L92:
 393:.\Valve_Control.c **** 		{
 1606              		.loc 1 393 0
 1607 03b8 FFF7FEFF 		bl	Status_Reg_1_Read
 1608              	.LVL166:
 1609 03bc 00F06000 		and	r0, r0, #96
 1610 03c0 6028     		cmp	r0, #96
 1611 03c2 1CD1     		bne	.L101
 395:.\Valve_Control.c ****             if(CutMode() == CUTSMODE)//ÂçïÊ¨°
 1612              		.loc 1 395 0
 1613 03c4 0520     		movs	r0, #5
ARM GAS  C:\Users\pxc\AppData\Local\Temp\ccofNc3q.s 			page 47


 1614 03c6 FFF7FEFF 		bl	CyDelay
 1615              	.LVL167:
 396:.\Valve_Control.c ****             {
 1616              		.loc 1 396 0
 1617 03ca FFF7FEFF 		bl	Status_Reg_1_Read
 1618              	.LVL168:
 1619 03ce 00F06000 		and	r0, r0, #96
 1620 03d2 2028     		cmp	r0, #32
 1621 03d4 15D1     		bne	.L102
 398:.\Valve_Control.c ****             ModeFlag = 1;
 1622              		.loc 1 398 0
 1623 03d6 0120     		movs	r0, #1
 1624 03d8 0B4B     		ldr	r3, .L106
 1625 03da 1874     		strb	r0, [r3, #16]
 1626              	.LVL169:
 1627 03dc 10BD     		pop	{r4, pc}
 1628              	.LVL170:
 1629              	.L93:
 225:.\Valve_Control.c **** 
 1630              		.loc 1 225 0
 1631 03de 0020     		movs	r0, #0
 1632 03e0 10BD     		pop	{r4, pc}
 1633              	.L94:
 1634 03e2 0020     		movs	r0, #0
 1635 03e4 10BD     		pop	{r4, pc}
 1636              	.L95:
 1637 03e6 0020     		movs	r0, #0
 1638 03e8 10BD     		pop	{r4, pc}
 1639              	.L96:
 1640 03ea 0020     		movs	r0, #0
 1641 03ec 10BD     		pop	{r4, pc}
 1642              	.L97:
 1643 03ee 0020     		movs	r0, #0
 1644 03f0 10BD     		pop	{r4, pc}
 1645              	.L98:
 1646 03f2 0020     		movs	r0, #0
 1647 03f4 10BD     		pop	{r4, pc}
 1648              	.L99:
 1649 03f6 0020     		movs	r0, #0
 1650 03f8 10BD     		pop	{r4, pc}
 1651              	.L100:
 1652 03fa 0020     		movs	r0, #0
 1653 03fc 10BD     		pop	{r4, pc}
 1654              	.L101:
 1655 03fe 0020     		movs	r0, #0
 1656 0400 10BD     		pop	{r4, pc}
 1657              	.L102:
 1658 0402 0020     		movs	r0, #0
 1659              	.LVL171:
 406:.\Valve_Control.c **** 
 1660              		.loc 1 406 0
 1661 0404 10BD     		pop	{r4, pc}
 1662              	.L107:
 1663 0406 00BF     		.align	2
 1664              	.L106:
 1665 0408 00000000 		.word	CutReg
 1666 040c 00000000 		.word	TPDO_OUT_Status
ARM GAS  C:\Users\pxc\AppData\Local\Temp\ccofNc3q.s 			page 48


 1667 0410 00000000 		.word	ISR_Stroke_Timer_states
 1668              		.cfi_endproc
 1669              	.LFE64:
 1670              		.size	Stroke_Process, .-Stroke_Process
 1671              		.section	.text.Valve_config,"ax",%progbits
 1672              		.align	2
 1673              		.global	Valve_config
 1674              		.thumb
 1675              		.thumb_func
 1676              		.type	Valve_config, %function
 1677              	Valve_config:
 1678              	.LFB68:
 497:.\Valve_Control.c ****     uint8   key_com = 0x03; 
 1679              		.loc 1 497 0
 1680              		.cfi_startproc
 1681              		@ args = 0, pretend = 0, frame = 0
 1682              		@ frame_needed = 0, uses_anonymous_args = 0
 1683              	.LVL172:
 510:.\Valve_Control.c ****     {
 1684              		.loc 1 510 0
 1685 0000 98B1     		cbz	r0, .L111
 497:.\Valve_Control.c ****     uint8   key_com = 0x03; 
 1686              		.loc 1 497 0
 1687 0002 10B5     		push	{r4, lr}
 1688              		.cfi_def_cfa_offset 8
 1689              		.cfi_offset 4, -8
 1690              		.cfi_offset 14, -4
 1691              	.LVL173:
 523:.\Valve_Control.c ****                     }
 1692              		.loc 1 523 0
 1693 0004 0120     		movs	r0, #1
 1694              	.LVL174:
 1695 0006 FFF7FEFF 		bl	CyDelay
 1696              	.LVL175:
 552:.\Valve_Control.c ****                         switch(step_flag)
 1697              		.loc 1 552 0
 1698 000a 084C     		ldr	r4, .L112
 1699 000c 607A     		ldrb	r0, [r4, #9]	@ zero_extendqisi2
 1700 000e FFF7FEFF 		bl	Control_Reg_1_Write
 1701              	.LVL176:
 1702 0012 627A     		ldrb	r2, [r4, #9]	@ zero_extendqisi2
 1703 0014 064B     		ldr	r3, .L112+4
 1704 0016 1A70     		strb	r2, [r3]
 562:.\Valve_Control.c ****                             }
 1705              		.loc 1 562 0
 1706 0018 064B     		ldr	r3, .L112+8
 1707 001a 5879     		ldrb	r0, [r3, #5]	@ zero_extendqisi2
 1708 001c 064B     		ldr	r3, .L112+12
 1709 001e 1870     		strb	r0, [r3]
 1710 0020 FFF7FEFF 		bl	LCD_DISPLAY
 1711              	.LVL177:
 1712 0024 FFF7FEFF 		bl	LCD_DISPLAY_MODE
 1713              	.LVL178:
 1714 0028 10BD     		pop	{r4, pc}
 1715              	.LVL179:
 1716              	.L111:
 1717              		.cfi_def_cfa_offset 0
ARM GAS  C:\Users\pxc\AppData\Local\Temp\ccofNc3q.s 			page 49


 1718              		.cfi_restore 4
 1719              		.cfi_restore 14
 1720 002a 7047     		bx	lr
 1721              	.L113:
 1722              		.align	2
 1723              	.L112:
 1724 002c 00000000 		.word	CutReg
 1725 0030 00000000 		.word	TPDO_OUT_Status
 1726 0034 00000000 		.word	.LANCHOR1
 1727 0038 00000000 		.word	TPDO_PROCESS_Status
 1728              		.cfi_endproc
 1729              	.LFE68:
 1730              		.size	Valve_config, .-Valve_config
 1731              		.global	FootUP_State
 1732              		.global	FootStart_state
 1733              		.global	LED_Status
 1734              		.comm	CutReg,24,4
 1735              		.section	.rodata
 1736              		.align	2
 1737              		.set	.LANCHOR0,. + 0
 1738              		.type	eepromArray, %object
 1739              		.size	eepromArray, 8
 1740              	eepromArray:
 1741 0000 00000000 		.space	8
 1741      00000000 
 1742              		.data
 1743              		.align	2
 1744              		.set	.LANCHOR1,. + 0
 1745              		.type	lastValue, %object
 1746              		.size	lastValue, 4
 1747              	lastValue:
 1748 0000 FF000000 		.word	255
 1749              		.type	LED_Status, %object
 1750              		.size	LED_Status, 6
 1751              	LED_Status:
 1752 0004 01       		.byte	1
 1753 0005 02       		.byte	2
 1754 0006 04       		.byte	4
 1755 0007 08       		.byte	8
 1756 0008 10       		.byte	16
 1757 0009 20       		.byte	32
 1758 000a 0000     		.space	2
 1759              		.type	lastMode, %object
 1760              		.size	lastMode, 4
 1761              	lastMode:
 1762 000c FF000000 		.word	255
 1763              		.type	FootStart_state, %object
 1764              		.size	FootStart_state, 1
 1765              	FootStart_state:
 1766 0010 01       		.byte	1
 1767              		.type	FootUP_State, %object
 1768              		.size	FootUP_State, 1
 1769              	FootUP_State:
 1770 0011 01       		.byte	1
 1771 0012 0000     		.section	.rodata.str1.4,"aMS",%progbits,1
 1772              		.align	2
 1773              	.LC0:
ARM GAS  C:\Users\pxc\AppData\Local\Temp\ccofNc3q.s 			page 50


 1774 0000 20204661 		.ascii	"  Fast  \000"
 1774      73742020 
 1774      00
 1775 0009 000000   		.space	3
 1776              	.LC1:
 1777 000c 2020536C 		.ascii	"  Slow  \000"
 1777      6F772020 
 1777      00
 1778 0015 000000   		.space	3
 1779              	.LC2:
 1780 0018 20204B65 		.ascii	"  Keep  \000"
 1780      65702020 
 1780      00
 1781 0021 000000   		.space	3
 1782              	.LC3:
 1783 0024 20556E6C 		.ascii	" Unload\000"
 1783      6F616400 
 1784              	.LC4:
 1785 002c 20205374 		.ascii	"  Stop  \000"
 1785      6F702020 
 1785      00
 1786 0035 000000   		.space	3
 1787              	.LC5:
 1788 0038 20204261 		.ascii	"  Back  \000"
 1788      636B2020 
 1788      00
 1789 0041 000000   		.space	3
 1790              	.LC6:
 1791 0044 20204572 		.ascii	"  Error \000"
 1791      726F7220 
 1791      00
 1792 004d 000000   		.space	3
 1793              	.LC7:
 1794 0050 432D4D4F 		.ascii	"C-MODE\000"
 1794      444500
 1795 0057 00       		.space	1
 1796              	.LC8:
 1797 0058 4A2D4D4F 		.ascii	"J-MODE\000"
 1797      444500
 1798 005f 00       		.space	1
 1799              	.LC9:
 1800 0060 532D4D4F 		.ascii	"S-MODE\000"
 1800      444500
 1801 0067 00       		.space	1
 1802              	.LC10:
 1803 0068 554E4B4E 		.ascii	"UNKNOWN\000"
 1803      4F574E00 
 1804              		.bss
 1805              		.align	1
 1806              		.set	.LANCHOR2,. + 0
 1807              		.type	UnloadTime.7517, %object
 1808              		.size	UnloadTime.7517, 2
 1809              	UnloadTime.7517:
 1810 0000 0000     		.space	2
 1811              		.text
 1812              	.Letext0:
 1813              		.file 2 "c:\\program files (x86)\\cypress\\psoc creator\\3.3\\psoc creator\\import\\gnu\\arm\\4.9.
ARM GAS  C:\Users\pxc\AppData\Local\Temp\ccofNc3q.s 			page 51


 1814              		.file 3 "c:\\program files (x86)\\cypress\\psoc creator\\3.3\\psoc creator\\import\\gnu\\arm\\4.9.
 1815              		.file 4 "Generated_Source\\PSoC5/cytypes.h"
 1816              		.file 5 ".\\Valve_Control.h"
 1817              		.file 6 ".\\TestSlave.h"
 1818              		.file 7 "Generated_Source\\PSoC5/core_cm3.h"
 1819              		.file 8 "Generated_Source\\PSoC5/EEPROM_1.h"
 1820              		.file 9 "Generated_Source\\PSoC5/Clock_1.h"
 1821              		.file 10 "Generated_Source\\PSoC5/Timer_1.h"
 1822              		.file 11 "Generated_Source\\PSoC5/ISR_Stroke_Timer.h"
 1823              		.file 12 "Generated_Source\\PSoC5/LCD_Char_1.h"
 1824              		.file 13 "Generated_Source\\PSoC5/CyLib.h"
 1825              		.file 14 "Generated_Source\\PSoC5/Status_Reg_1.h"
 1826              		.file 15 "Generated_Source\\PSoC5/Control_Reg_1.h"
 1827              		.section	.debug_info,"",%progbits
 1828              	.Ldebug_info0:
 1829 0000 E10D0000 		.4byte	0xde1
 1830 0004 0400     		.2byte	0x4
 1831 0006 00000000 		.4byte	.Ldebug_abbrev0
 1832 000a 04       		.byte	0x4
 1833 000b 01       		.uleb128 0x1
 1834 000c 2D050000 		.4byte	.LASF113
 1835 0010 01       		.byte	0x1
 1836 0011 D5030000 		.4byte	.LASF114
 1837 0015 49010000 		.4byte	.LASF115
 1838 0019 00000000 		.4byte	.Ldebug_ranges0+0
 1839 001d 00000000 		.4byte	0
 1840 0021 00000000 		.4byte	.Ldebug_line0
 1841 0025 02       		.uleb128 0x2
 1842 0026 01       		.byte	0x1
 1843 0027 06       		.byte	0x6
 1844 0028 ED000000 		.4byte	.LASF0
 1845 002c 02       		.uleb128 0x2
 1846 002d 01       		.byte	0x1
 1847 002e 08       		.byte	0x8
 1848 002f 0F040000 		.4byte	.LASF1
 1849 0033 02       		.uleb128 0x2
 1850 0034 02       		.byte	0x2
 1851 0035 05       		.byte	0x5
 1852 0036 EC020000 		.4byte	.LASF2
 1853 003a 02       		.uleb128 0x2
 1854 003b 02       		.byte	0x2
 1855 003c 07       		.byte	0x7
 1856 003d 93020000 		.4byte	.LASF3
 1857 0041 03       		.uleb128 0x3
 1858 0042 BF040000 		.4byte	.LASF9
 1859 0046 02       		.byte	0x2
 1860 0047 3F       		.byte	0x3f
 1861 0048 4C000000 		.4byte	0x4c
 1862 004c 02       		.uleb128 0x2
 1863 004d 04       		.byte	0x4
 1864 004e 05       		.byte	0x5
 1865 004f 1C010000 		.4byte	.LASF4
 1866 0053 02       		.uleb128 0x2
 1867 0054 04       		.byte	0x4
 1868 0055 07       		.byte	0x7
 1869 0056 44020000 		.4byte	.LASF5
 1870 005a 02       		.uleb128 0x2
ARM GAS  C:\Users\pxc\AppData\Local\Temp\ccofNc3q.s 			page 52


 1871 005b 08       		.byte	0x8
 1872 005c 05       		.byte	0x5
 1873 005d DF000000 		.4byte	.LASF6
 1874 0061 02       		.uleb128 0x2
 1875 0062 08       		.byte	0x8
 1876 0063 07       		.byte	0x7
 1877 0064 8B000000 		.4byte	.LASF7
 1878 0068 04       		.uleb128 0x4
 1879 0069 04       		.byte	0x4
 1880 006a 05       		.byte	0x5
 1881 006b 696E7400 		.ascii	"int\000"
 1882 006f 02       		.uleb128 0x2
 1883 0070 04       		.byte	0x4
 1884 0071 07       		.byte	0x7
 1885 0072 2E020000 		.4byte	.LASF8
 1886 0076 03       		.uleb128 0x3
 1887 0077 07040000 		.4byte	.LASF10
 1888 007b 03       		.byte	0x3
 1889 007c 2C       		.byte	0x2c
 1890 007d 41000000 		.4byte	0x41
 1891 0081 03       		.uleb128 0x3
 1892 0082 43010000 		.4byte	.LASF11
 1893 0086 04       		.byte	0x4
 1894 0087 C2       		.byte	0xc2
 1895 0088 2C000000 		.4byte	0x2c
 1896 008c 03       		.uleb128 0x3
 1897 008d 1B000000 		.4byte	.LASF12
 1898 0091 04       		.byte	0x4
 1899 0092 C3       		.byte	0xc3
 1900 0093 3A000000 		.4byte	0x3a
 1901 0097 03       		.uleb128 0x3
 1902 0098 C6010000 		.4byte	.LASF13
 1903 009c 04       		.byte	0x4
 1904 009d C4       		.byte	0xc4
 1905 009e 53000000 		.4byte	0x53
 1906 00a2 03       		.uleb128 0x3
 1907 00a3 F2050000 		.4byte	.LASF14
 1908 00a7 04       		.byte	0x4
 1909 00a8 C6       		.byte	0xc6
 1910 00a9 33000000 		.4byte	0x33
 1911 00ad 02       		.uleb128 0x2
 1912 00ae 04       		.byte	0x4
 1913 00af 04       		.byte	0x4
 1914 00b0 C9030000 		.4byte	.LASF15
 1915 00b4 02       		.uleb128 0x2
 1916 00b5 08       		.byte	0x8
 1917 00b6 04       		.byte	0x4
 1918 00b7 90010000 		.4byte	.LASF16
 1919 00bb 03       		.uleb128 0x3
 1920 00bc C9040000 		.4byte	.LASF17
 1921 00c0 04       		.byte	0x4
 1922 00c1 D3       		.byte	0xd3
 1923 00c2 C6000000 		.4byte	0xc6
 1924 00c6 02       		.uleb128 0x2
 1925 00c7 01       		.byte	0x1
 1926 00c8 08       		.byte	0x8
 1927 00c9 9B040000 		.4byte	.LASF18
ARM GAS  C:\Users\pxc\AppData\Local\Temp\ccofNc3q.s 			page 53


 1928 00cd 05       		.uleb128 0x5
 1929 00ce 1A060000 		.4byte	.LASF19
 1930 00d2 04       		.byte	0x4
 1931 00d3 6401     		.2byte	0x164
 1932 00d5 53000000 		.4byte	0x53
 1933 00d9 05       		.uleb128 0x5
 1934 00da F0030000 		.4byte	.LASF20
 1935 00de 04       		.byte	0x4
 1936 00df 6C01     		.2byte	0x16c
 1937 00e1 E5000000 		.4byte	0xe5
 1938 00e5 06       		.uleb128 0x6
 1939 00e6 81000000 		.4byte	0x81
 1940 00ea 06       		.uleb128 0x6
 1941 00eb 8C000000 		.4byte	0x8c
 1942 00ef 02       		.uleb128 0x2
 1943 00f0 04       		.byte	0x4
 1944 00f1 07       		.byte	0x7
 1945 00f2 37030000 		.4byte	.LASF21
 1946 00f6 07       		.uleb128 0x7
 1947 00f7 81000000 		.4byte	0x81
 1948 00fb 06010000 		.4byte	0x106
 1949 00ff 08       		.uleb128 0x8
 1950 0100 EF000000 		.4byte	0xef
 1951 0104 07       		.byte	0x7
 1952 0105 00       		.byte	0
 1953 0106 09       		.uleb128 0x9
 1954 0107 CF040000 		.4byte	.LASF34
 1955 010b 01       		.byte	0x1
 1956 010c 05       		.byte	0x5
 1957 010d 6B       		.byte	0x6b
 1958 010e 5B010000 		.4byte	0x15b
 1959 0112 0A       		.uleb128 0xa
 1960 0113 CF030000 		.4byte	.LASF22
 1961 0117 00       		.sleb128 0
 1962 0118 0A       		.uleb128 0xa
 1963 0119 42040000 		.4byte	.LASF23
 1964 011d 01       		.sleb128 1
 1965 011e 0A       		.uleb128 0xa
 1966 011f 31030000 		.4byte	.LASF24
 1967 0123 02       		.sleb128 2
 1968 0124 0A       		.uleb128 0xa
 1969 0125 7C040000 		.4byte	.LASF25
 1970 0129 03       		.sleb128 3
 1971 012a 0A       		.uleb128 0xa
 1972 012b 23060000 		.4byte	.LASF26
 1973 012f 04       		.sleb128 4
 1974 0130 0A       		.uleb128 0xa
 1975 0131 3D010000 		.4byte	.LASF27
 1976 0135 05       		.sleb128 5
 1977 0136 0A       		.uleb128 0xa
 1978 0137 73040000 		.4byte	.LASF28
 1979 013b 00       		.sleb128 0
 1980 013c 0A       		.uleb128 0xa
 1981 013d EA040000 		.4byte	.LASF29
 1982 0141 01       		.sleb128 1
 1983 0142 0A       		.uleb128 0xa
 1984 0143 E7030000 		.4byte	.LASF30
ARM GAS  C:\Users\pxc\AppData\Local\Temp\ccofNc3q.s 			page 54


 1985 0147 02       		.sleb128 2
 1986 0148 0A       		.uleb128 0xa
 1987 0149 E1020000 		.4byte	.LASF31
 1988 014d 03       		.sleb128 3
 1989 014e 0A       		.uleb128 0xa
 1990 014f BB050000 		.4byte	.LASF32
 1991 0153 04       		.sleb128 4
 1992 0154 0A       		.uleb128 0xa
 1993 0155 3B020000 		.4byte	.LASF33
 1994 0159 05       		.sleb128 5
 1995 015a 00       		.byte	0
 1996 015b 09       		.uleb128 0x9
 1997 015c BB030000 		.4byte	.LASF35
 1998 0160 01       		.byte	0x1
 1999 0161 05       		.byte	0x5
 2000 0162 7B       		.byte	0x7b
 2001 0163 92010000 		.4byte	0x192
 2002 0167 0A       		.uleb128 0xa
 2003 0168 77000000 		.4byte	.LASF36
 2004 016c 00       		.sleb128 0
 2005 016d 0A       		.uleb128 0xa
 2006 016e 97010000 		.4byte	.LASF37
 2007 0172 01       		.sleb128 1
 2008 0173 0A       		.uleb128 0xa
 2009 0174 A0040000 		.4byte	.LASF38
 2010 0178 02       		.sleb128 2
 2011 0179 0A       		.uleb128 0xa
 2012 017a BD010000 		.4byte	.LASF39
 2013 017e 03       		.sleb128 3
 2014 017f 0A       		.uleb128 0xa
 2015 0180 29040000 		.4byte	.LASF40
 2016 0184 04       		.sleb128 4
 2017 0185 0A       		.uleb128 0xa
 2018 0186 B7040000 		.4byte	.LASF41
 2019 018a 05       		.sleb128 5
 2020 018b 0A       		.uleb128 0xa
 2021 018c 1B050000 		.4byte	.LASF42
 2022 0190 06       		.sleb128 6
 2023 0191 00       		.byte	0
 2024 0192 0B       		.uleb128 0xb
 2025 0193 14010000 		.4byte	.LASF54
 2026 0197 18       		.byte	0x18
 2027 0198 05       		.byte	0x5
 2028 0199 86       		.byte	0x86
 2029 019a 2F020000 		.4byte	0x22f
 2030 019e 0C       		.uleb128 0xc
 2031 019f EE010000 		.4byte	.LASF43
 2032 01a3 05       		.byte	0x5
 2033 01a4 89       		.byte	0x89
 2034 01a5 EA000000 		.4byte	0xea
 2035 01a9 00       		.byte	0
 2036 01aa 0C       		.uleb128 0xc
 2037 01ab 48040000 		.4byte	.LASF44
 2038 01af 05       		.byte	0x5
 2039 01b0 8A       		.byte	0x8a
 2040 01b1 EA000000 		.4byte	0xea
 2041 01b5 02       		.byte	0x2
ARM GAS  C:\Users\pxc\AppData\Local\Temp\ccofNc3q.s 			page 55


 2042 01b6 0C       		.uleb128 0xc
 2043 01b7 C4050000 		.4byte	.LASF45
 2044 01bb 05       		.byte	0x5
 2045 01bc 8B       		.byte	0x8b
 2046 01bd 3F020000 		.4byte	0x23f
 2047 01c1 04       		.byte	0x4
 2048 01c2 0C       		.uleb128 0xc
 2049 01c3 5F020000 		.4byte	.LASF46
 2050 01c7 05       		.byte	0x5
 2051 01c8 8C       		.byte	0x8c
 2052 01c9 54020000 		.4byte	0x254
 2053 01cd 08       		.byte	0x8
 2054 01ce 0D       		.uleb128 0xd
 2055 01cf 436E7400 		.ascii	"Cnt\000"
 2056 01d3 05       		.byte	0x5
 2057 01d4 8E       		.byte	0x8e
 2058 01d5 EA000000 		.4byte	0xea
 2059 01d9 0E       		.byte	0xe
 2060 01da 0C       		.uleb128 0xc
 2061 01db 69040000 		.4byte	.LASF47
 2062 01df 05       		.byte	0x5
 2063 01e0 8F       		.byte	0x8f
 2064 01e1 E5000000 		.4byte	0xe5
 2065 01e5 10       		.byte	0x10
 2066 01e6 0C       		.uleb128 0xc
 2067 01e7 96030000 		.4byte	.LASF48
 2068 01eb 05       		.byte	0x5
 2069 01ec 90       		.byte	0x90
 2070 01ed E5000000 		.4byte	0xe5
 2071 01f1 11       		.byte	0x11
 2072 01f2 0C       		.uleb128 0xc
 2073 01f3 A6020000 		.4byte	.LASF49
 2074 01f7 05       		.byte	0x5
 2075 01f8 91       		.byte	0x91
 2076 01f9 EA000000 		.4byte	0xea
 2077 01fd 12       		.byte	0x12
 2078 01fe 0C       		.uleb128 0xc
 2079 01ff 13030000 		.4byte	.LASF50
 2080 0203 05       		.byte	0x5
 2081 0204 92       		.byte	0x92
 2082 0205 E5000000 		.4byte	0xe5
 2083 0209 14       		.byte	0x14
 2084 020a 0C       		.uleb128 0xc
 2085 020b 56020000 		.4byte	.LASF51
 2086 020f 05       		.byte	0x5
 2087 0210 93       		.byte	0x93
 2088 0211 E5000000 		.4byte	0xe5
 2089 0215 15       		.byte	0x15
 2090 0216 0C       		.uleb128 0xc
 2091 0217 70030000 		.4byte	.LASF52
 2092 021b 05       		.byte	0x5
 2093 021c 94       		.byte	0x94
 2094 021d E5000000 		.4byte	0xe5
 2095 0221 16       		.byte	0x16
 2096 0222 0C       		.uleb128 0xc
 2097 0223 65000000 		.4byte	.LASF53
 2098 0227 05       		.byte	0x5
ARM GAS  C:\Users\pxc\AppData\Local\Temp\ccofNc3q.s 			page 56


 2099 0228 96       		.byte	0x96
 2100 0229 E5000000 		.4byte	0xe5
 2101 022d 17       		.byte	0x17
 2102 022e 00       		.byte	0
 2103 022f 07       		.uleb128 0x7
 2104 0230 8C000000 		.4byte	0x8c
 2105 0234 3F020000 		.4byte	0x23f
 2106 0238 08       		.uleb128 0x8
 2107 0239 EF000000 		.4byte	0xef
 2108 023d 01       		.byte	0x1
 2109 023e 00       		.byte	0
 2110 023f 06       		.uleb128 0x6
 2111 0240 2F020000 		.4byte	0x22f
 2112 0244 07       		.uleb128 0x7
 2113 0245 81000000 		.4byte	0x81
 2114 0249 54020000 		.4byte	0x254
 2115 024d 08       		.uleb128 0x8
 2116 024e EF000000 		.4byte	0xef
 2117 0252 05       		.byte	0x5
 2118 0253 00       		.byte	0
 2119 0254 06       		.uleb128 0x6
 2120 0255 44020000 		.4byte	0x244
 2121 0259 0B       		.uleb128 0xb
 2122 025a 1D040000 		.4byte	.LASF55
 2123 025e 0C       		.byte	0xc
 2124 025f 06       		.byte	0x6
 2125 0260 0C       		.byte	0xc
 2126 0261 DE020000 		.4byte	0x2de
 2127 0265 0C       		.uleb128 0xc
 2128 0266 29060000 		.4byte	.LASF56
 2129 026a 06       		.byte	0x6
 2130 026b 0F       		.byte	0xf
 2131 026c 2C000000 		.4byte	0x2c
 2132 0270 00       		.byte	0
 2133 0271 0C       		.uleb128 0xc
 2134 0272 00000000 		.4byte	.LASF57
 2135 0276 06       		.byte	0x6
 2136 0277 10       		.byte	0x10
 2137 0278 2C000000 		.4byte	0x2c
 2138 027c 01       		.byte	0x1
 2139 027d 0C       		.uleb128 0xc
 2140 027e 03050000 		.4byte	.LASF58
 2141 0282 06       		.byte	0x6
 2142 0283 11       		.byte	0x11
 2143 0284 2C000000 		.4byte	0x2c
 2144 0288 02       		.byte	0x2
 2145 0289 0C       		.uleb128 0xc
 2146 028a 05010000 		.4byte	.LASF59
 2147 028e 06       		.byte	0x6
 2148 028f 12       		.byte	0x12
 2149 0290 2C000000 		.4byte	0x2c
 2150 0294 03       		.byte	0x3
 2151 0295 0C       		.uleb128 0xc
 2152 0296 B0010000 		.4byte	.LASF60
 2153 029a 06       		.byte	0x6
 2154 029b 13       		.byte	0x13
 2155 029c 2C000000 		.4byte	0x2c
ARM GAS  C:\Users\pxc\AppData\Local\Temp\ccofNc3q.s 			page 57


 2156 02a0 04       		.byte	0x4
 2157 02a1 0C       		.uleb128 0xc
 2158 02a2 7B030000 		.4byte	.LASF61
 2159 02a6 06       		.byte	0x6
 2160 02a7 14       		.byte	0x14
 2161 02a8 2C000000 		.4byte	0x2c
 2162 02ac 05       		.byte	0x5
 2163 02ad 0C       		.uleb128 0xc
 2164 02ae 2D010000 		.4byte	.LASF62
 2165 02b2 06       		.byte	0x6
 2166 02b3 15       		.byte	0x15
 2167 02b4 3A000000 		.4byte	0x3a
 2168 02b8 06       		.byte	0x6
 2169 02b9 0C       		.uleb128 0xc
 2170 02ba CF020000 		.4byte	.LASF63
 2171 02be 06       		.byte	0x6
 2172 02bf 16       		.byte	0x16
 2173 02c0 3A000000 		.4byte	0x3a
 2174 02c4 08       		.byte	0x8
 2175 02c5 0C       		.uleb128 0xc
 2176 02c6 A2000000 		.4byte	.LASF64
 2177 02ca 06       		.byte	0x6
 2178 02cb 17       		.byte	0x17
 2179 02cc 2C000000 		.4byte	0x2c
 2180 02d0 0A       		.byte	0xa
 2181 02d1 0C       		.uleb128 0xc
 2182 02d2 B9020000 		.4byte	.LASF65
 2183 02d6 06       		.byte	0x6
 2184 02d7 18       		.byte	0x18
 2185 02d8 2C000000 		.4byte	0x2c
 2186 02dc 0B       		.byte	0xb
 2187 02dd 00       		.byte	0
 2188 02de 0E       		.uleb128 0xe
 2189 02df 36060000 		.4byte	.LASF67
 2190 02e3 01       		.byte	0x1
 2191 02e4 9E01     		.2byte	0x19e
 2192 02e6 00000000 		.4byte	.LFB65
 2193 02ea 1C000000 		.4byte	.LFE65-.LFB65
 2194 02ee 01       		.uleb128 0x1
 2195 02ef 9C       		.byte	0x9c
 2196 02f0 4F030000 		.4byte	0x34f
 2197 02f4 0F       		.uleb128 0xf
 2198 02f5 89020000 		.4byte	.LASF66
 2199 02f9 01       		.byte	0x1
 2200 02fa 9E01     		.2byte	0x19e
 2201 02fc 4F030000 		.4byte	0x34f
 2202 0300 00000000 		.4byte	.LLST0
 2203 0304 10       		.uleb128 0x10
 2204 0305 62756600 		.ascii	"buf\000"
 2205 0309 01       		.byte	0x1
 2206 030a 9E01     		.2byte	0x19e
 2207 030c 4F030000 		.4byte	0x34f
 2208 0310 21000000 		.4byte	.LLST1
 2209 0314 10       		.uleb128 0x10
 2210 0315 6C656E00 		.ascii	"len\000"
 2211 0319 01       		.byte	0x1
 2212 031a 9E01     		.2byte	0x19e
ARM GAS  C:\Users\pxc\AppData\Local\Temp\ccofNc3q.s 			page 58


 2213 031c 8C000000 		.4byte	0x8c
 2214 0320 3F000000 		.4byte	.LLST2
 2215 0324 11       		.uleb128 0x11
 2216 0325 F6020000 		.4byte	.LASF116
 2217 0329 01       		.byte	0x1
 2218 032a A001     		.2byte	0x1a0
 2219 032c 55030000 		.4byte	0x355
 2220 0330 12       		.uleb128 0x12
 2221 0331 6900     		.ascii	"i\000"
 2222 0333 01       		.byte	0x1
 2223 0334 A101     		.2byte	0x1a1
 2224 0336 8C000000 		.4byte	0x8c
 2225 033a 60000000 		.4byte	.LLST3
 2226 033e 13       		.uleb128 0x13
 2227 033f 10000000 		.4byte	.LVL3
 2228 0343 330D0000 		.4byte	0xd33
 2229 0347 14       		.uleb128 0x14
 2230 0348 01       		.uleb128 0x1
 2231 0349 50       		.byte	0x50
 2232 034a 02       		.uleb128 0x2
 2233 034b 74       		.byte	0x74
 2234 034c 00       		.sleb128 0
 2235 034d 00       		.byte	0
 2236 034e 00       		.byte	0
 2237 034f 15       		.uleb128 0x15
 2238 0350 04       		.byte	0x4
 2239 0351 81000000 		.4byte	0x81
 2240 0355 15       		.uleb128 0x15
 2241 0356 04       		.byte	0x4
 2242 0357 D9000000 		.4byte	0xd9
 2243 035b 0E       		.uleb128 0xe
 2244 035c 48060000 		.4byte	.LASF68
 2245 0360 01       		.byte	0x1
 2246 0361 AB01     		.2byte	0x1ab
 2247 0363 00000000 		.4byte	.LFB66
 2248 0367 14000000 		.4byte	.LFE66-.LFB66
 2249 036b 01       		.uleb128 0x1
 2250 036c 9C       		.byte	0x9c
 2251 036d B3030000 		.4byte	0x3b3
 2252 0371 0F       		.uleb128 0xf
 2253 0372 89020000 		.4byte	.LASF66
 2254 0376 01       		.byte	0x1
 2255 0377 AB01     		.2byte	0x1ab
 2256 0379 4F030000 		.4byte	0x34f
 2257 037d 8A000000 		.4byte	.LLST4
 2258 0381 10       		.uleb128 0x10
 2259 0382 62756600 		.ascii	"buf\000"
 2260 0386 01       		.byte	0x1
 2261 0387 AB01     		.2byte	0x1ab
 2262 0389 4F030000 		.4byte	0x34f
 2263 038d C1000000 		.4byte	.LLST5
 2264 0391 10       		.uleb128 0x10
 2265 0392 6C656E00 		.ascii	"len\000"
 2266 0396 01       		.byte	0x1
 2267 0397 AB01     		.2byte	0x1ab
 2268 0399 8C000000 		.4byte	0x8c
 2269 039d F8000000 		.4byte	.LLST6
ARM GAS  C:\Users\pxc\AppData\Local\Temp\ccofNc3q.s 			page 59


 2270 03a1 13       		.uleb128 0x13
 2271 03a2 10000000 		.4byte	.LVL9
 2272 03a6 480D0000 		.4byte	0xd48
 2273 03aa 14       		.uleb128 0x14
 2274 03ab 01       		.uleb128 0x1
 2275 03ac 50       		.byte	0x50
 2276 03ad 03       		.uleb128 0x3
 2277 03ae F3       		.byte	0xf3
 2278 03af 01       		.uleb128 0x1
 2279 03b0 51       		.byte	0x51
 2280 03b1 00       		.byte	0
 2281 03b2 00       		.byte	0
 2282 03b3 0E       		.uleb128 0xe
 2283 03b4 AB040000 		.4byte	.LASF69
 2284 03b8 01       		.byte	0x1
 2285 03b9 C702     		.2byte	0x2c7
 2286 03bb 00000000 		.4byte	.LFB69
 2287 03bf 54000000 		.4byte	.LFE69-.LFB69
 2288 03c3 01       		.uleb128 0x1
 2289 03c4 9C       		.byte	0x9c
 2290 03c5 F7030000 		.4byte	0x3f7
 2291 03c9 16       		.uleb128 0x16
 2292 03ca 0B030000 		.4byte	.LASF70
 2293 03ce 01       		.byte	0x1
 2294 03cf C902     		.2byte	0x2c9
 2295 03d1 F7030000 		.4byte	0x3f7
 2296 03d5 02       		.uleb128 0x2
 2297 03d6 91       		.byte	0x91
 2298 03d7 6C       		.sleb128 -20
 2299 03d8 13       		.uleb128 0x13
 2300 03d9 0E000000 		.4byte	.LVL11
 2301 03dd DE020000 		.4byte	0x2de
 2302 03e1 14       		.uleb128 0x14
 2303 03e2 01       		.uleb128 0x1
 2304 03e3 52       		.byte	0x52
 2305 03e4 01       		.uleb128 0x1
 2306 03e5 3B       		.byte	0x3b
 2307 03e6 14       		.uleb128 0x14
 2308 03e7 01       		.uleb128 0x1
 2309 03e8 51       		.byte	0x51
 2310 03e9 02       		.uleb128 0x2
 2311 03ea 91       		.byte	0x91
 2312 03eb 6C       		.sleb128 -20
 2313 03ec 14       		.uleb128 0x14
 2314 03ed 01       		.uleb128 0x1
 2315 03ee 50       		.byte	0x50
 2316 03ef 05       		.uleb128 0x5
 2317 03f0 03       		.byte	0x3
 2318 03f1 00000000 		.4byte	.LANCHOR0
 2319 03f5 00       		.byte	0
 2320 03f6 00       		.byte	0
 2321 03f7 07       		.uleb128 0x7
 2322 03f8 81000000 		.4byte	0x81
 2323 03fc 07040000 		.4byte	0x407
 2324 0400 08       		.uleb128 0x8
 2325 0401 EF000000 		.4byte	0xef
 2326 0405 0A       		.byte	0xa
ARM GAS  C:\Users\pxc\AppData\Local\Temp\ccofNc3q.s 			page 60


 2327 0406 00       		.byte	0
 2328 0407 0E       		.uleb128 0xe
 2329 0408 B6000000 		.4byte	.LASF71
 2330 040c 01       		.byte	0x1
 2331 040d DB01     		.2byte	0x1db
 2332 040f 00000000 		.4byte	.LFB67
 2333 0413 30000000 		.4byte	.LFE67-.LFB67
 2334 0417 01       		.uleb128 0x1
 2335 0418 9C       		.byte	0x9c
 2336 0419 4B040000 		.4byte	0x44b
 2337 041d 17       		.uleb128 0x17
 2338 041e 06000000 		.4byte	.LVL12
 2339 0422 6D0D0000 		.4byte	0xd6d
 2340 0426 17       		.uleb128 0x17
 2341 0427 0A000000 		.4byte	.LVL13
 2342 042b 740D0000 		.4byte	0xd74
 2343 042f 17       		.uleb128 0x17
 2344 0430 0E000000 		.4byte	.LVL14
 2345 0434 7B0D0000 		.4byte	0xd7b
 2346 0438 17       		.uleb128 0x17
 2347 0439 12000000 		.4byte	.LVL15
 2348 043d 820D0000 		.4byte	0xd82
 2349 0441 17       		.uleb128 0x17
 2350 0442 16000000 		.4byte	.LVL16
 2351 0446 B3030000 		.4byte	0x3b3
 2352 044a 00       		.byte	0
 2353 044b 0E       		.uleb128 0xe
 2354 044c 5C040000 		.4byte	.LASF72
 2355 0450 01       		.byte	0x1
 2356 0451 D702     		.2byte	0x2d7
 2357 0453 00000000 		.4byte	.LFB70
 2358 0457 54000000 		.4byte	.LFE70-.LFB70
 2359 045b 01       		.uleb128 0x1
 2360 045c 9C       		.byte	0x9c
 2361 045d 8F040000 		.4byte	0x48f
 2362 0461 16       		.uleb128 0x16
 2363 0462 0B030000 		.4byte	.LASF70
 2364 0466 01       		.byte	0x1
 2365 0467 D902     		.2byte	0x2d9
 2366 0469 F7030000 		.4byte	0x3f7
 2367 046d 02       		.uleb128 0x2
 2368 046e 91       		.byte	0x91
 2369 046f 6C       		.sleb128 -20
 2370 0470 13       		.uleb128 0x13
 2371 0471 20000000 		.4byte	.LVL17
 2372 0475 5B030000 		.4byte	0x35b
 2373 0479 14       		.uleb128 0x14
 2374 047a 01       		.uleb128 0x1
 2375 047b 52       		.byte	0x52
 2376 047c 01       		.uleb128 0x1
 2377 047d 3B       		.byte	0x3b
 2378 047e 14       		.uleb128 0x14
 2379 047f 01       		.uleb128 0x1
 2380 0480 51       		.byte	0x51
 2381 0481 02       		.uleb128 0x2
 2382 0482 91       		.byte	0x91
 2383 0483 6C       		.sleb128 -20
ARM GAS  C:\Users\pxc\AppData\Local\Temp\ccofNc3q.s 			page 61


 2384 0484 14       		.uleb128 0x14
 2385 0485 01       		.uleb128 0x1
 2386 0486 50       		.byte	0x50
 2387 0487 05       		.uleb128 0x5
 2388 0488 03       		.byte	0x3
 2389 0489 00000000 		.4byte	.LANCHOR0
 2390 048d 00       		.byte	0
 2391 048e 00       		.byte	0
 2392 048f 0E       		.uleb128 0xe
 2393 0490 F9000000 		.4byte	.LASF73
 2394 0494 01       		.byte	0x1
 2395 0495 E702     		.2byte	0x2e7
 2396 0497 00000000 		.4byte	.LFB71
 2397 049b CC000000 		.4byte	.LFE71-.LFB71
 2398 049f 01       		.uleb128 0x1
 2399 04a0 9C       		.byte	0x9c
 2400 04a1 FB050000 		.4byte	0x5fb
 2401 04a5 0F       		.uleb128 0xf
 2402 04a6 0E020000 		.4byte	.LASF74
 2403 04aa 01       		.byte	0x1
 2404 04ab E702     		.2byte	0x2e7
 2405 04ad 81000000 		.4byte	0x81
 2406 04b1 35010000 		.4byte	.LLST7
 2407 04b5 18       		.uleb128 0x18
 2408 04b6 1C000000 		.4byte	.LVL20
 2409 04ba 890D0000 		.4byte	0xd89
 2410 04be CD040000 		.4byte	0x4cd
 2411 04c2 14       		.uleb128 0x14
 2412 04c3 01       		.uleb128 0x1
 2413 04c4 51       		.byte	0x51
 2414 04c5 01       		.uleb128 0x1
 2415 04c6 30       		.byte	0x30
 2416 04c7 14       		.uleb128 0x14
 2417 04c8 01       		.uleb128 0x1
 2418 04c9 50       		.byte	0x50
 2419 04ca 01       		.uleb128 0x1
 2420 04cb 31       		.byte	0x31
 2421 04cc 00       		.byte	0
 2422 04cd 18       		.uleb128 0x18
 2423 04ce 22000000 		.4byte	.LVL21
 2424 04d2 9F0D0000 		.4byte	0xd9f
 2425 04d6 E4040000 		.4byte	0x4e4
 2426 04da 14       		.uleb128 0x14
 2427 04db 01       		.uleb128 0x1
 2428 04dc 50       		.byte	0x50
 2429 04dd 05       		.uleb128 0x5
 2430 04de 03       		.byte	0x3
 2431 04df 00000000 		.4byte	.LC0
 2432 04e3 00       		.byte	0
 2433 04e4 18       		.uleb128 0x18
 2434 04e5 34000000 		.4byte	.LVL24
 2435 04e9 890D0000 		.4byte	0xd89
 2436 04ed FC040000 		.4byte	0x4fc
 2437 04f1 14       		.uleb128 0x14
 2438 04f2 01       		.uleb128 0x1
 2439 04f3 51       		.byte	0x51
 2440 04f4 01       		.uleb128 0x1
ARM GAS  C:\Users\pxc\AppData\Local\Temp\ccofNc3q.s 			page 62


 2441 04f5 30       		.byte	0x30
 2442 04f6 14       		.uleb128 0x14
 2443 04f7 01       		.uleb128 0x1
 2444 04f8 50       		.byte	0x50
 2445 04f9 01       		.uleb128 0x1
 2446 04fa 31       		.byte	0x31
 2447 04fb 00       		.byte	0
 2448 04fc 18       		.uleb128 0x18
 2449 04fd 3A000000 		.4byte	.LVL25
 2450 0501 9F0D0000 		.4byte	0xd9f
 2451 0505 13050000 		.4byte	0x513
 2452 0509 14       		.uleb128 0x14
 2453 050a 01       		.uleb128 0x1
 2454 050b 50       		.byte	0x50
 2455 050c 05       		.uleb128 0x5
 2456 050d 03       		.byte	0x3
 2457 050e 0C000000 		.4byte	.LC1
 2458 0512 00       		.byte	0
 2459 0513 18       		.uleb128 0x18
 2460 0514 4C000000 		.4byte	.LVL28
 2461 0518 890D0000 		.4byte	0xd89
 2462 051c 2B050000 		.4byte	0x52b
 2463 0520 14       		.uleb128 0x14
 2464 0521 01       		.uleb128 0x1
 2465 0522 51       		.byte	0x51
 2466 0523 01       		.uleb128 0x1
 2467 0524 30       		.byte	0x30
 2468 0525 14       		.uleb128 0x14
 2469 0526 01       		.uleb128 0x1
 2470 0527 50       		.byte	0x50
 2471 0528 01       		.uleb128 0x1
 2472 0529 31       		.byte	0x31
 2473 052a 00       		.byte	0
 2474 052b 18       		.uleb128 0x18
 2475 052c 52000000 		.4byte	.LVL29
 2476 0530 9F0D0000 		.4byte	0xd9f
 2477 0534 42050000 		.4byte	0x542
 2478 0538 14       		.uleb128 0x14
 2479 0539 01       		.uleb128 0x1
 2480 053a 50       		.byte	0x50
 2481 053b 05       		.uleb128 0x5
 2482 053c 03       		.byte	0x3
 2483 053d 18000000 		.4byte	.LC2
 2484 0541 00       		.byte	0
 2485 0542 18       		.uleb128 0x18
 2486 0543 64000000 		.4byte	.LVL32
 2487 0547 890D0000 		.4byte	0xd89
 2488 054b 5A050000 		.4byte	0x55a
 2489 054f 14       		.uleb128 0x14
 2490 0550 01       		.uleb128 0x1
 2491 0551 51       		.byte	0x51
 2492 0552 01       		.uleb128 0x1
 2493 0553 30       		.byte	0x30
 2494 0554 14       		.uleb128 0x14
 2495 0555 01       		.uleb128 0x1
 2496 0556 50       		.byte	0x50
 2497 0557 01       		.uleb128 0x1
ARM GAS  C:\Users\pxc\AppData\Local\Temp\ccofNc3q.s 			page 63


 2498 0558 31       		.byte	0x31
 2499 0559 00       		.byte	0
 2500 055a 18       		.uleb128 0x18
 2501 055b 6A000000 		.4byte	.LVL33
 2502 055f 9F0D0000 		.4byte	0xd9f
 2503 0563 71050000 		.4byte	0x571
 2504 0567 14       		.uleb128 0x14
 2505 0568 01       		.uleb128 0x1
 2506 0569 50       		.byte	0x50
 2507 056a 05       		.uleb128 0x5
 2508 056b 03       		.byte	0x3
 2509 056c 24000000 		.4byte	.LC3
 2510 0570 00       		.byte	0
 2511 0571 18       		.uleb128 0x18
 2512 0572 7C000000 		.4byte	.LVL36
 2513 0576 890D0000 		.4byte	0xd89
 2514 057a 89050000 		.4byte	0x589
 2515 057e 14       		.uleb128 0x14
 2516 057f 01       		.uleb128 0x1
 2517 0580 51       		.byte	0x51
 2518 0581 01       		.uleb128 0x1
 2519 0582 30       		.byte	0x30
 2520 0583 14       		.uleb128 0x14
 2521 0584 01       		.uleb128 0x1
 2522 0585 50       		.byte	0x50
 2523 0586 01       		.uleb128 0x1
 2524 0587 31       		.byte	0x31
 2525 0588 00       		.byte	0
 2526 0589 18       		.uleb128 0x18
 2527 058a 82000000 		.4byte	.LVL37
 2528 058e 9F0D0000 		.4byte	0xd9f
 2529 0592 A0050000 		.4byte	0x5a0
 2530 0596 14       		.uleb128 0x14
 2531 0597 01       		.uleb128 0x1
 2532 0598 50       		.byte	0x50
 2533 0599 05       		.uleb128 0x5
 2534 059a 03       		.byte	0x3
 2535 059b 2C000000 		.4byte	.LC4
 2536 059f 00       		.byte	0
 2537 05a0 18       		.uleb128 0x18
 2538 05a1 94000000 		.4byte	.LVL40
 2539 05a5 890D0000 		.4byte	0xd89
 2540 05a9 B8050000 		.4byte	0x5b8
 2541 05ad 14       		.uleb128 0x14
 2542 05ae 01       		.uleb128 0x1
 2543 05af 51       		.byte	0x51
 2544 05b0 01       		.uleb128 0x1
 2545 05b1 30       		.byte	0x30
 2546 05b2 14       		.uleb128 0x14
 2547 05b3 01       		.uleb128 0x1
 2548 05b4 50       		.byte	0x50
 2549 05b5 01       		.uleb128 0x1
 2550 05b6 31       		.byte	0x31
 2551 05b7 00       		.byte	0
 2552 05b8 18       		.uleb128 0x18
 2553 05b9 9A000000 		.4byte	.LVL41
 2554 05bd 9F0D0000 		.4byte	0xd9f
ARM GAS  C:\Users\pxc\AppData\Local\Temp\ccofNc3q.s 			page 64


 2555 05c1 CF050000 		.4byte	0x5cf
 2556 05c5 14       		.uleb128 0x14
 2557 05c6 01       		.uleb128 0x1
 2558 05c7 50       		.byte	0x50
 2559 05c8 05       		.uleb128 0x5
 2560 05c9 03       		.byte	0x3
 2561 05ca 38000000 		.4byte	.LC5
 2562 05ce 00       		.byte	0
 2563 05cf 18       		.uleb128 0x18
 2564 05d0 A4000000 		.4byte	.LVL44
 2565 05d4 890D0000 		.4byte	0xd89
 2566 05d8 E7050000 		.4byte	0x5e7
 2567 05dc 14       		.uleb128 0x14
 2568 05dd 01       		.uleb128 0x1
 2569 05de 51       		.byte	0x51
 2570 05df 01       		.uleb128 0x1
 2571 05e0 30       		.byte	0x30
 2572 05e1 14       		.uleb128 0x14
 2573 05e2 01       		.uleb128 0x1
 2574 05e3 50       		.byte	0x50
 2575 05e4 01       		.uleb128 0x1
 2576 05e5 31       		.byte	0x31
 2577 05e6 00       		.byte	0
 2578 05e7 13       		.uleb128 0x13
 2579 05e8 AA000000 		.4byte	.LVL45
 2580 05ec 9F0D0000 		.4byte	0xd9f
 2581 05f0 14       		.uleb128 0x14
 2582 05f1 01       		.uleb128 0x1
 2583 05f2 50       		.byte	0x50
 2584 05f3 05       		.uleb128 0x5
 2585 05f4 03       		.byte	0x3
 2586 05f5 44000000 		.4byte	.LC6
 2587 05f9 00       		.byte	0
 2588 05fa 00       		.byte	0
 2589 05fb 19       		.uleb128 0x19
 2590 05fc 9F010000 		.4byte	.LASF117
 2591 0600 01       		.byte	0x1
 2592 0601 1903     		.2byte	0x319
 2593 0603 00000000 		.4byte	.LFB72
 2594 0607 98000000 		.4byte	.LFE72-.LFB72
 2595 060b 01       		.uleb128 0x1
 2596 060c 9C       		.byte	0x9c
 2597 060d F7060000 		.4byte	0x6f7
 2598 0611 17       		.uleb128 0x17
 2599 0612 06000000 		.4byte	.LVL46
 2600 0616 BB0D0000 		.4byte	0xdbb
 2601 061a 17       		.uleb128 0x17
 2602 061b 16000000 		.4byte	.LVL47
 2603 061f BB0D0000 		.4byte	0xdbb
 2604 0623 17       		.uleb128 0x17
 2605 0624 22000000 		.4byte	.LVL48
 2606 0628 BB0D0000 		.4byte	0xdbb
 2607 062c 18       		.uleb128 0x18
 2608 062d 32000000 		.4byte	.LVL49
 2609 0631 890D0000 		.4byte	0xd89
 2610 0635 44060000 		.4byte	0x644
 2611 0639 14       		.uleb128 0x14
ARM GAS  C:\Users\pxc\AppData\Local\Temp\ccofNc3q.s 			page 65


 2612 063a 01       		.uleb128 0x1
 2613 063b 51       		.byte	0x51
 2614 063c 01       		.uleb128 0x1
 2615 063d 31       		.byte	0x31
 2616 063e 14       		.uleb128 0x14
 2617 063f 01       		.uleb128 0x1
 2618 0640 50       		.byte	0x50
 2619 0641 01       		.uleb128 0x1
 2620 0642 30       		.byte	0x30
 2621 0643 00       		.byte	0
 2622 0644 18       		.uleb128 0x18
 2623 0645 38000000 		.4byte	.LVL50
 2624 0649 9F0D0000 		.4byte	0xd9f
 2625 064d 5B060000 		.4byte	0x65b
 2626 0651 14       		.uleb128 0x14
 2627 0652 01       		.uleb128 0x1
 2628 0653 50       		.byte	0x50
 2629 0654 05       		.uleb128 0x5
 2630 0655 03       		.byte	0x3
 2631 0656 50000000 		.4byte	.LC7
 2632 065a 00       		.byte	0
 2633 065b 17       		.uleb128 0x17
 2634 065c 3E000000 		.4byte	.LVL51
 2635 0660 BB0D0000 		.4byte	0xdbb
 2636 0664 18       		.uleb128 0x18
 2637 0665 4E000000 		.4byte	.LVL52
 2638 0669 890D0000 		.4byte	0xd89
 2639 066d 7C060000 		.4byte	0x67c
 2640 0671 14       		.uleb128 0x14
 2641 0672 01       		.uleb128 0x1
 2642 0673 51       		.byte	0x51
 2643 0674 01       		.uleb128 0x1
 2644 0675 31       		.byte	0x31
 2645 0676 14       		.uleb128 0x14
 2646 0677 01       		.uleb128 0x1
 2647 0678 50       		.byte	0x50
 2648 0679 01       		.uleb128 0x1
 2649 067a 30       		.byte	0x30
 2650 067b 00       		.byte	0
 2651 067c 18       		.uleb128 0x18
 2652 067d 54000000 		.4byte	.LVL53
 2653 0681 9F0D0000 		.4byte	0xd9f
 2654 0685 93060000 		.4byte	0x693
 2655 0689 14       		.uleb128 0x14
 2656 068a 01       		.uleb128 0x1
 2657 068b 50       		.byte	0x50
 2658 068c 05       		.uleb128 0x5
 2659 068d 03       		.byte	0x3
 2660 068e 58000000 		.4byte	.LC8
 2661 0692 00       		.byte	0
 2662 0693 17       		.uleb128 0x17
 2663 0694 5A000000 		.4byte	.LVL54
 2664 0698 BB0D0000 		.4byte	0xdbb
 2665 069c 18       		.uleb128 0x18
 2666 069d 6A000000 		.4byte	.LVL55
 2667 06a1 890D0000 		.4byte	0xd89
 2668 06a5 B4060000 		.4byte	0x6b4
ARM GAS  C:\Users\pxc\AppData\Local\Temp\ccofNc3q.s 			page 66


 2669 06a9 14       		.uleb128 0x14
 2670 06aa 01       		.uleb128 0x1
 2671 06ab 51       		.byte	0x51
 2672 06ac 01       		.uleb128 0x1
 2673 06ad 31       		.byte	0x31
 2674 06ae 14       		.uleb128 0x14
 2675 06af 01       		.uleb128 0x1
 2676 06b0 50       		.byte	0x50
 2677 06b1 01       		.uleb128 0x1
 2678 06b2 30       		.byte	0x30
 2679 06b3 00       		.byte	0
 2680 06b4 18       		.uleb128 0x18
 2681 06b5 70000000 		.4byte	.LVL56
 2682 06b9 9F0D0000 		.4byte	0xd9f
 2683 06bd CB060000 		.4byte	0x6cb
 2684 06c1 14       		.uleb128 0x14
 2685 06c2 01       		.uleb128 0x1
 2686 06c3 50       		.byte	0x50
 2687 06c4 05       		.uleb128 0x5
 2688 06c5 03       		.byte	0x3
 2689 06c6 60000000 		.4byte	.LC9
 2690 06ca 00       		.byte	0
 2691 06cb 18       		.uleb128 0x18
 2692 06cc 7A000000 		.4byte	.LVL57
 2693 06d0 890D0000 		.4byte	0xd89
 2694 06d4 E3060000 		.4byte	0x6e3
 2695 06d8 14       		.uleb128 0x14
 2696 06d9 01       		.uleb128 0x1
 2697 06da 51       		.byte	0x51
 2698 06db 01       		.uleb128 0x1
 2699 06dc 31       		.byte	0x31
 2700 06dd 14       		.uleb128 0x14
 2701 06de 01       		.uleb128 0x1
 2702 06df 50       		.byte	0x50
 2703 06e0 01       		.uleb128 0x1
 2704 06e1 30       		.byte	0x30
 2705 06e2 00       		.byte	0
 2706 06e3 13       		.uleb128 0x13
 2707 06e4 80000000 		.4byte	.LVL58
 2708 06e8 9F0D0000 		.4byte	0xd9f
 2709 06ec 14       		.uleb128 0x14
 2710 06ed 01       		.uleb128 0x1
 2711 06ee 50       		.byte	0x50
 2712 06ef 05       		.uleb128 0x5
 2713 06f0 03       		.byte	0x3
 2714 06f1 68000000 		.4byte	.LC10
 2715 06f5 00       		.byte	0
 2716 06f6 00       		.byte	0
 2717 06f7 1A       		.uleb128 0x1a
 2718 06f8 14020000 		.4byte	.LASF75
 2719 06fc 01       		.byte	0x1
 2720 06fd 43       		.byte	0x43
 2721 06fe 00000000 		.4byte	.LFB63
 2722 0702 D6020000 		.4byte	.LFE63-.LFB63
 2723 0706 01       		.uleb128 0x1
 2724 0707 9C       		.byte	0x9c
 2725 0708 AC080000 		.4byte	0x8ac
ARM GAS  C:\Users\pxc\AppData\Local\Temp\ccofNc3q.s 			page 67


 2726 070c 17       		.uleb128 0x17
 2727 070d 2C000000 		.4byte	.LVL59
 2728 0711 BB0D0000 		.4byte	0xdbb
 2729 0715 17       		.uleb128 0x17
 2730 0716 42000000 		.4byte	.LVL60
 2731 071a BB0D0000 		.4byte	0xdbb
 2732 071e 18       		.uleb128 0x18
 2733 071f 4E000000 		.4byte	.LVL61
 2734 0723 C60D0000 		.4byte	0xdc6
 2735 0727 31070000 		.4byte	0x731
 2736 072b 14       		.uleb128 0x14
 2737 072c 01       		.uleb128 0x1
 2738 072d 50       		.byte	0x50
 2739 072e 01       		.uleb128 0x1
 2740 072f 35       		.byte	0x35
 2741 0730 00       		.byte	0
 2742 0731 17       		.uleb128 0x17
 2743 0732 52000000 		.4byte	.LVL62
 2744 0736 BB0D0000 		.4byte	0xdbb
 2745 073a 17       		.uleb128 0x17
 2746 073b 60000000 		.4byte	.LVL63
 2747 073f D70D0000 		.4byte	0xdd7
 2748 0743 17       		.uleb128 0x17
 2749 0744 72000000 		.4byte	.LVL64
 2750 0748 8F040000 		.4byte	0x48f
 2751 074c 17       		.uleb128 0x17
 2752 074d 76000000 		.4byte	.LVL65
 2753 0751 FB050000 		.4byte	0x5fb
 2754 0755 17       		.uleb128 0x17
 2755 0756 9A000000 		.4byte	.LVL66
 2756 075a B3030000 		.4byte	0x3b3
 2757 075e 17       		.uleb128 0x17
 2758 075f A4000000 		.4byte	.LVL67
 2759 0763 BB0D0000 		.4byte	0xdbb
 2760 0767 17       		.uleb128 0x17
 2761 0768 B2000000 		.4byte	.LVL68
 2762 076c D70D0000 		.4byte	0xdd7
 2763 0770 17       		.uleb128 0x17
 2764 0771 C4000000 		.4byte	.LVL69
 2765 0775 8F040000 		.4byte	0x48f
 2766 0779 17       		.uleb128 0x17
 2767 077a C8000000 		.4byte	.LVL70
 2768 077e FB050000 		.4byte	0x5fb
 2769 0782 17       		.uleb128 0x17
 2770 0783 D6000000 		.4byte	.LVL71
 2771 0787 D70D0000 		.4byte	0xdd7
 2772 078b 17       		.uleb128 0x17
 2773 078c E8000000 		.4byte	.LVL72
 2774 0790 8F040000 		.4byte	0x48f
 2775 0794 17       		.uleb128 0x17
 2776 0795 EC000000 		.4byte	.LVL73
 2777 0799 FB050000 		.4byte	0x5fb
 2778 079d 17       		.uleb128 0x17
 2779 079e F6000000 		.4byte	.LVL74
 2780 07a2 BB0D0000 		.4byte	0xdbb
 2781 07a6 17       		.uleb128 0x17
 2782 07a7 04010000 		.4byte	.LVL75
ARM GAS  C:\Users\pxc\AppData\Local\Temp\ccofNc3q.s 			page 68


 2783 07ab D70D0000 		.4byte	0xdd7
 2784 07af 17       		.uleb128 0x17
 2785 07b0 16010000 		.4byte	.LVL76
 2786 07b4 8F040000 		.4byte	0x48f
 2787 07b8 17       		.uleb128 0x17
 2788 07b9 1A010000 		.4byte	.LVL77
 2789 07bd FB050000 		.4byte	0x5fb
 2790 07c1 17       		.uleb128 0x17
 2791 07c2 2C010000 		.4byte	.LVL78
 2792 07c6 D70D0000 		.4byte	0xdd7
 2793 07ca 17       		.uleb128 0x17
 2794 07cb 3E010000 		.4byte	.LVL79
 2795 07cf 8F040000 		.4byte	0x48f
 2796 07d3 17       		.uleb128 0x17
 2797 07d4 42010000 		.4byte	.LVL80
 2798 07d8 FB050000 		.4byte	0x5fb
 2799 07dc 17       		.uleb128 0x17
 2800 07dd 6A010000 		.4byte	.LVL81
 2801 07e1 D70D0000 		.4byte	0xdd7
 2802 07e5 17       		.uleb128 0x17
 2803 07e6 7C010000 		.4byte	.LVL82
 2804 07ea 8F040000 		.4byte	0x48f
 2805 07ee 17       		.uleb128 0x17
 2806 07ef 80010000 		.4byte	.LVL83
 2807 07f3 FB050000 		.4byte	0x5fb
 2808 07f7 17       		.uleb128 0x17
 2809 07f8 8E010000 		.4byte	.LVL84
 2810 07fc D70D0000 		.4byte	0xdd7
 2811 0800 17       		.uleb128 0x17
 2812 0801 A0010000 		.4byte	.LVL85
 2813 0805 8F040000 		.4byte	0x48f
 2814 0809 17       		.uleb128 0x17
 2815 080a A4010000 		.4byte	.LVL86
 2816 080e FB050000 		.4byte	0x5fb
 2817 0812 17       		.uleb128 0x17
 2818 0813 CC010000 		.4byte	.LVL87
 2819 0817 D70D0000 		.4byte	0xdd7
 2820 081b 17       		.uleb128 0x17
 2821 081c DE010000 		.4byte	.LVL88
 2822 0820 8F040000 		.4byte	0x48f
 2823 0824 17       		.uleb128 0x17
 2824 0825 E2010000 		.4byte	.LVL89
 2825 0829 FB050000 		.4byte	0x5fb
 2826 082d 17       		.uleb128 0x17
 2827 082e F0010000 		.4byte	.LVL90
 2828 0832 D70D0000 		.4byte	0xdd7
 2829 0836 17       		.uleb128 0x17
 2830 0837 02020000 		.4byte	.LVL91
 2831 083b 8F040000 		.4byte	0x48f
 2832 083f 17       		.uleb128 0x17
 2833 0840 06020000 		.4byte	.LVL92
 2834 0844 FB050000 		.4byte	0x5fb
 2835 0848 17       		.uleb128 0x17
 2836 0849 10020000 		.4byte	.LVL93
 2837 084d BB0D0000 		.4byte	0xdbb
 2838 0851 17       		.uleb128 0x17
 2839 0852 1A020000 		.4byte	.LVL94
ARM GAS  C:\Users\pxc\AppData\Local\Temp\ccofNc3q.s 			page 69


 2840 0856 BB0D0000 		.4byte	0xdbb
 2841 085a 17       		.uleb128 0x17
 2842 085b 28020000 		.4byte	.LVL95
 2843 085f D70D0000 		.4byte	0xdd7
 2844 0863 17       		.uleb128 0x17
 2845 0864 3A020000 		.4byte	.LVL96
 2846 0868 8F040000 		.4byte	0x48f
 2847 086c 17       		.uleb128 0x17
 2848 086d 3E020000 		.4byte	.LVL97
 2849 0871 FB050000 		.4byte	0x5fb
 2850 0875 17       		.uleb128 0x17
 2851 0876 54020000 		.4byte	.LVL98
 2852 087a D70D0000 		.4byte	0xdd7
 2853 087e 17       		.uleb128 0x17
 2854 087f 66020000 		.4byte	.LVL99
 2855 0883 8F040000 		.4byte	0x48f
 2856 0887 17       		.uleb128 0x17
 2857 0888 6A020000 		.4byte	.LVL100
 2858 088c FB050000 		.4byte	0x5fb
 2859 0890 17       		.uleb128 0x17
 2860 0891 9E020000 		.4byte	.LVL101
 2861 0895 D70D0000 		.4byte	0xdd7
 2862 0899 17       		.uleb128 0x17
 2863 089a B0020000 		.4byte	.LVL102
 2864 089e 8F040000 		.4byte	0x48f
 2865 08a2 17       		.uleb128 0x17
 2866 08a3 B4020000 		.4byte	.LVL103
 2867 08a7 FB050000 		.4byte	0x5fb
 2868 08ab 00       		.byte	0
 2869 08ac 1B       		.uleb128 0x1b
 2870 08ad CB050000 		.4byte	.LASF118
 2871 08b1 01       		.byte	0x1
 2872 08b2 DD       		.byte	0xdd
 2873 08b3 81000000 		.4byte	0x81
 2874 08b7 00000000 		.4byte	.LFB64
 2875 08bb 14040000 		.4byte	.LFE64-.LFB64
 2876 08bf 01       		.uleb128 0x1
 2877 08c0 9C       		.byte	0x9c
 2878 08c1 620B0000 		.4byte	0xb62
 2879 08c5 1C       		.uleb128 0x1c
 2880 08c6 40030000 		.4byte	.LASF76
 2881 08ca 01       		.byte	0x1
 2882 08cb DF       		.byte	0xdf
 2883 08cc 81000000 		.4byte	0x81
 2884 08d0 EC010000 		.4byte	.LLST8
 2885 08d4 1D       		.uleb128 0x1d
 2886 08d5 48040000 		.4byte	.LASF44
 2887 08d9 01       		.byte	0x1
 2888 08da E0       		.byte	0xe0
 2889 08db A2000000 		.4byte	0xa2
 2890 08df 05       		.uleb128 0x5
 2891 08e0 03       		.byte	0x3
 2892 08e1 00000000 		.4byte	UnloadTime.7517
 2893 08e5 17       		.uleb128 0x17
 2894 08e6 24000000 		.4byte	.LVL105
 2895 08ea BB0D0000 		.4byte	0xdbb
 2896 08ee 17       		.uleb128 0x17
ARM GAS  C:\Users\pxc\AppData\Local\Temp\ccofNc3q.s 			page 70


 2897 08ef 30000000 		.4byte	.LVL106
 2898 08f3 BB0D0000 		.4byte	0xdbb
 2899 08f7 17       		.uleb128 0x17
 2900 08f8 4C000000 		.4byte	.LVL107
 2901 08fc BB0D0000 		.4byte	0xdbb
 2902 0900 17       		.uleb128 0x17
 2903 0901 58000000 		.4byte	.LVL108
 2904 0905 BB0D0000 		.4byte	0xdbb
 2905 0909 17       		.uleb128 0x17
 2906 090a 74000000 		.4byte	.LVL109
 2907 090e BB0D0000 		.4byte	0xdbb
 2908 0912 17       		.uleb128 0x17
 2909 0913 9A000000 		.4byte	.LVL110
 2910 0917 BB0D0000 		.4byte	0xdbb
 2911 091b 17       		.uleb128 0x17
 2912 091c B2000000 		.4byte	.LVL111
 2913 0920 D70D0000 		.4byte	0xdd7
 2914 0924 17       		.uleb128 0x17
 2915 0925 C4000000 		.4byte	.LVL112
 2916 0929 8F040000 		.4byte	0x48f
 2917 092d 17       		.uleb128 0x17
 2918 092e C8000000 		.4byte	.LVL113
 2919 0932 FB050000 		.4byte	0x5fb
 2920 0936 17       		.uleb128 0x17
 2921 0937 D2000000 		.4byte	.LVL114
 2922 093b BB0D0000 		.4byte	0xdbb
 2923 093f 17       		.uleb128 0x17
 2924 0940 EC000000 		.4byte	.LVL115
 2925 0944 BB0D0000 		.4byte	0xdbb
 2926 0948 17       		.uleb128 0x17
 2927 0949 FA000000 		.4byte	.LVL116
 2928 094d D70D0000 		.4byte	0xdd7
 2929 0951 17       		.uleb128 0x17
 2930 0952 0C010000 		.4byte	.LVL117
 2931 0956 8F040000 		.4byte	0x48f
 2932 095a 17       		.uleb128 0x17
 2933 095b 10010000 		.4byte	.LVL118
 2934 095f FB050000 		.4byte	0x5fb
 2935 0963 17       		.uleb128 0x17
 2936 0964 20010000 		.4byte	.LVL119
 2937 0968 D70D0000 		.4byte	0xdd7
 2938 096c 17       		.uleb128 0x17
 2939 096d 32010000 		.4byte	.LVL120
 2940 0971 8F040000 		.4byte	0x48f
 2941 0975 17       		.uleb128 0x17
 2942 0976 36010000 		.4byte	.LVL121
 2943 097a FB050000 		.4byte	0x5fb
 2944 097e 17       		.uleb128 0x17
 2945 097f 3A010000 		.4byte	.LVL122
 2946 0983 BB0D0000 		.4byte	0xdbb
 2947 0987 17       		.uleb128 0x17
 2948 0988 4A010000 		.4byte	.LVL123
 2949 098c D70D0000 		.4byte	0xdd7
 2950 0990 17       		.uleb128 0x17
 2951 0991 5C010000 		.4byte	.LVL124
 2952 0995 8F040000 		.4byte	0x48f
 2953 0999 17       		.uleb128 0x17
ARM GAS  C:\Users\pxc\AppData\Local\Temp\ccofNc3q.s 			page 71


 2954 099a 60010000 		.4byte	.LVL125
 2955 099e FB050000 		.4byte	0x5fb
 2956 09a2 17       		.uleb128 0x17
 2957 09a3 6A010000 		.4byte	.LVL126
 2958 09a7 BB0D0000 		.4byte	0xdbb
 2959 09ab 17       		.uleb128 0x17
 2960 09ac 78010000 		.4byte	.LVL127
 2961 09b0 D70D0000 		.4byte	0xdd7
 2962 09b4 17       		.uleb128 0x17
 2963 09b5 8A010000 		.4byte	.LVL128
 2964 09b9 8F040000 		.4byte	0x48f
 2965 09bd 17       		.uleb128 0x17
 2966 09be 8E010000 		.4byte	.LVL129
 2967 09c2 FB050000 		.4byte	0x5fb
 2968 09c6 17       		.uleb128 0x17
 2969 09c7 94010000 		.4byte	.LVL130
 2970 09cb BB0D0000 		.4byte	0xdbb
 2971 09cf 17       		.uleb128 0x17
 2972 09d0 AE010000 		.4byte	.LVL131
 2973 09d4 BB0D0000 		.4byte	0xdbb
 2974 09d8 17       		.uleb128 0x17
 2975 09d9 BC010000 		.4byte	.LVL132
 2976 09dd D70D0000 		.4byte	0xdd7
 2977 09e1 17       		.uleb128 0x17
 2978 09e2 CE010000 		.4byte	.LVL133
 2979 09e6 8F040000 		.4byte	0x48f
 2980 09ea 17       		.uleb128 0x17
 2981 09eb D2010000 		.4byte	.LVL134
 2982 09ef FB050000 		.4byte	0x5fb
 2983 09f3 17       		.uleb128 0x17
 2984 09f4 DC010000 		.4byte	.LVL135
 2985 09f8 D70D0000 		.4byte	0xdd7
 2986 09fc 17       		.uleb128 0x17
 2987 09fd EE010000 		.4byte	.LVL136
 2988 0a01 8F040000 		.4byte	0x48f
 2989 0a05 17       		.uleb128 0x17
 2990 0a06 F2010000 		.4byte	.LVL137
 2991 0a0a FB050000 		.4byte	0x5fb
 2992 0a0e 17       		.uleb128 0x17
 2993 0a0f F6010000 		.4byte	.LVL138
 2994 0a13 BB0D0000 		.4byte	0xdbb
 2995 0a17 17       		.uleb128 0x17
 2996 0a18 0E020000 		.4byte	.LVL139
 2997 0a1c D70D0000 		.4byte	0xdd7
 2998 0a20 17       		.uleb128 0x17
 2999 0a21 20020000 		.4byte	.LVL140
 3000 0a25 8F040000 		.4byte	0x48f
 3001 0a29 17       		.uleb128 0x17
 3002 0a2a 24020000 		.4byte	.LVL141
 3003 0a2e FB050000 		.4byte	0x5fb
 3004 0a32 17       		.uleb128 0x17
 3005 0a33 2E020000 		.4byte	.LVL142
 3006 0a37 BB0D0000 		.4byte	0xdbb
 3007 0a3b 17       		.uleb128 0x17
 3008 0a3c 3C020000 		.4byte	.LVL143
 3009 0a40 D70D0000 		.4byte	0xdd7
 3010 0a44 17       		.uleb128 0x17
ARM GAS  C:\Users\pxc\AppData\Local\Temp\ccofNc3q.s 			page 72


 3011 0a45 4E020000 		.4byte	.LVL144
 3012 0a49 8F040000 		.4byte	0x48f
 3013 0a4d 17       		.uleb128 0x17
 3014 0a4e 52020000 		.4byte	.LVL145
 3015 0a52 FB050000 		.4byte	0x5fb
 3016 0a56 17       		.uleb128 0x17
 3017 0a57 56020000 		.4byte	.LVL146
 3018 0a5b BB0D0000 		.4byte	0xdbb
 3019 0a5f 17       		.uleb128 0x17
 3020 0a60 62020000 		.4byte	.LVL147
 3021 0a64 BB0D0000 		.4byte	0xdbb
 3022 0a68 17       		.uleb128 0x17
 3023 0a69 84020000 		.4byte	.LVL148
 3024 0a6d D70D0000 		.4byte	0xdd7
 3025 0a71 17       		.uleb128 0x17
 3026 0a72 96020000 		.4byte	.LVL149
 3027 0a76 8F040000 		.4byte	0x48f
 3028 0a7a 17       		.uleb128 0x17
 3029 0a7b 9A020000 		.4byte	.LVL150
 3030 0a7f FB050000 		.4byte	0x5fb
 3031 0a83 18       		.uleb128 0x18
 3032 0a84 A8020000 		.4byte	.LVL151
 3033 0a88 C60D0000 		.4byte	0xdc6
 3034 0a8c 960A0000 		.4byte	0xa96
 3035 0a90 14       		.uleb128 0x14
 3036 0a91 01       		.uleb128 0x1
 3037 0a92 50       		.byte	0x50
 3038 0a93 01       		.uleb128 0x1
 3039 0a94 3A       		.byte	0x3a
 3040 0a95 00       		.byte	0
 3041 0a96 17       		.uleb128 0x17
 3042 0a97 CC020000 		.4byte	.LVL152
 3043 0a9b D70D0000 		.4byte	0xdd7
 3044 0a9f 17       		.uleb128 0x17
 3045 0aa0 DE020000 		.4byte	.LVL153
 3046 0aa4 BB0D0000 		.4byte	0xdbb
 3047 0aa8 18       		.uleb128 0x18
 3048 0aa9 EA020000 		.4byte	.LVL154
 3049 0aad C60D0000 		.4byte	0xdc6
 3050 0ab1 BB0A0000 		.4byte	0xabb
 3051 0ab5 14       		.uleb128 0x14
 3052 0ab6 01       		.uleb128 0x1
 3053 0ab7 50       		.byte	0x50
 3054 0ab8 01       		.uleb128 0x1
 3055 0ab9 35       		.byte	0x35
 3056 0aba 00       		.byte	0
 3057 0abb 17       		.uleb128 0x17
 3058 0abc EE020000 		.4byte	.LVL155
 3059 0ac0 BB0D0000 		.4byte	0xdbb
 3060 0ac4 17       		.uleb128 0x17
 3061 0ac5 0C030000 		.4byte	.LVL156
 3062 0ac9 BB0D0000 		.4byte	0xdbb
 3063 0acd 18       		.uleb128 0x18
 3064 0ace 18030000 		.4byte	.LVL157
 3065 0ad2 C60D0000 		.4byte	0xdc6
 3066 0ad6 E00A0000 		.4byte	0xae0
 3067 0ada 14       		.uleb128 0x14
ARM GAS  C:\Users\pxc\AppData\Local\Temp\ccofNc3q.s 			page 73


 3068 0adb 01       		.uleb128 0x1
 3069 0adc 50       		.byte	0x50
 3070 0add 01       		.uleb128 0x1
 3071 0ade 35       		.byte	0x35
 3072 0adf 00       		.byte	0
 3073 0ae0 17       		.uleb128 0x17
 3074 0ae1 1C030000 		.4byte	.LVL158
 3075 0ae5 BB0D0000 		.4byte	0xdbb
 3076 0ae9 17       		.uleb128 0x17
 3077 0aea 40030000 		.4byte	.LVL159
 3078 0aee BB0D0000 		.4byte	0xdbb
 3079 0af2 17       		.uleb128 0x17
 3080 0af3 68030000 		.4byte	.LVL160
 3081 0af7 BB0D0000 		.4byte	0xdbb
 3082 0afb 18       		.uleb128 0x18
 3083 0afc 76030000 		.4byte	.LVL161
 3084 0b00 C60D0000 		.4byte	0xdc6
 3085 0b04 0E0B0000 		.4byte	0xb0e
 3086 0b08 14       		.uleb128 0x14
 3087 0b09 01       		.uleb128 0x1
 3088 0b0a 50       		.byte	0x50
 3089 0b0b 01       		.uleb128 0x1
 3090 0b0c 35       		.byte	0x35
 3091 0b0d 00       		.byte	0
 3092 0b0e 17       		.uleb128 0x17
 3093 0b0f 7A030000 		.4byte	.LVL162
 3094 0b13 BB0D0000 		.4byte	0xdbb
 3095 0b17 17       		.uleb128 0x17
 3096 0b18 90030000 		.4byte	.LVL163
 3097 0b1c BB0D0000 		.4byte	0xdbb
 3098 0b20 18       		.uleb128 0x18
 3099 0b21 9E030000 		.4byte	.LVL164
 3100 0b25 C60D0000 		.4byte	0xdc6
 3101 0b29 330B0000 		.4byte	0xb33
 3102 0b2d 14       		.uleb128 0x14
 3103 0b2e 01       		.uleb128 0x1
 3104 0b2f 50       		.byte	0x50
 3105 0b30 01       		.uleb128 0x1
 3106 0b31 35       		.byte	0x35
 3107 0b32 00       		.byte	0
 3108 0b33 17       		.uleb128 0x17
 3109 0b34 A2030000 		.4byte	.LVL165
 3110 0b38 BB0D0000 		.4byte	0xdbb
 3111 0b3c 17       		.uleb128 0x17
 3112 0b3d BC030000 		.4byte	.LVL166
 3113 0b41 BB0D0000 		.4byte	0xdbb
 3114 0b45 18       		.uleb128 0x18
 3115 0b46 CA030000 		.4byte	.LVL167
 3116 0b4a C60D0000 		.4byte	0xdc6
 3117 0b4e 580B0000 		.4byte	0xb58
 3118 0b52 14       		.uleb128 0x14
 3119 0b53 01       		.uleb128 0x1
 3120 0b54 50       		.byte	0x50
 3121 0b55 01       		.uleb128 0x1
 3122 0b56 35       		.byte	0x35
 3123 0b57 00       		.byte	0
 3124 0b58 17       		.uleb128 0x17
ARM GAS  C:\Users\pxc\AppData\Local\Temp\ccofNc3q.s 			page 74


 3125 0b59 CE030000 		.4byte	.LVL168
 3126 0b5d BB0D0000 		.4byte	0xdbb
 3127 0b61 00       		.byte	0
 3128 0b62 0E       		.uleb128 0xe
 3129 0b63 57030000 		.4byte	.LASF77
 3130 0b67 01       		.byte	0x1
 3131 0b68 F001     		.2byte	0x1f0
 3132 0b6a 00000000 		.4byte	.LFB68
 3133 0b6e 3C000000 		.4byte	.LFE68-.LFB68
 3134 0b72 01       		.uleb128 0x1
 3135 0b73 9C       		.byte	0x9c
 3136 0b74 4D0C0000 		.4byte	0xc4d
 3137 0b78 0F       		.uleb128 0xf
 3138 0b79 1F030000 		.4byte	.LASF78
 3139 0b7d 01       		.byte	0x1
 3140 0b7e F001     		.2byte	0x1f0
 3141 0b80 81000000 		.4byte	0x81
 3142 0b84 23020000 		.4byte	.LLST9
 3143 0b88 1E       		.uleb128 0x1e
 3144 0b89 25010000 		.4byte	.LASF79
 3145 0b8d 01       		.byte	0x1
 3146 0b8e F201     		.2byte	0x1f2
 3147 0b90 81000000 		.4byte	0x81
 3148 0b94 03       		.byte	0x3
 3149 0b95 1F       		.uleb128 0x1f
 3150 0b96 24050000 		.4byte	.LASF80
 3151 0b9a 01       		.byte	0x1
 3152 0b9b F301     		.2byte	0x1f3
 3153 0b9d 8C000000 		.4byte	0x8c
 3154 0ba1 4F020000 		.4byte	.LLST10
 3155 0ba5 1F       		.uleb128 0x1f
 3156 0ba6 01030000 		.4byte	.LASF81
 3157 0baa 01       		.byte	0x1
 3158 0bab F401     		.2byte	0x1f4
 3159 0bad 06010000 		.4byte	0x106
 3160 0bb1 7B020000 		.4byte	.LLST11
 3161 0bb5 1E       		.uleb128 0x1e
 3162 0bb6 AE020000 		.4byte	.LASF82
 3163 0bba 01       		.byte	0x1
 3164 0bbb F501     		.2byte	0x1f5
 3165 0bbd 81000000 		.4byte	0x81
 3166 0bc1 00       		.byte	0
 3167 0bc2 1E       		.uleb128 0x1e
 3168 0bc3 D5000000 		.4byte	.LASF83
 3169 0bc7 01       		.byte	0x1
 3170 0bc8 F601     		.2byte	0x1f6
 3171 0bca 8C000000 		.4byte	0x8c
 3172 0bce 00       		.byte	0
 3173 0bcf 20       		.uleb128 0x20
 3174 0bd0 F7010000 		.4byte	.LASF84
 3175 0bd4 01       		.byte	0x1
 3176 0bd5 F701     		.2byte	0x1f7
 3177 0bd7 8C000000 		.4byte	0x8c
 3178 0bdb F401     		.2byte	0x1f4
 3179 0bdd 1E       		.uleb128 0x1e
 3180 0bde E1040000 		.4byte	.LASF85
 3181 0be2 01       		.byte	0x1
ARM GAS  C:\Users\pxc\AppData\Local\Temp\ccofNc3q.s 			page 75


 3182 0be3 F801     		.2byte	0x1f8
 3183 0be5 81000000 		.4byte	0x81
 3184 0be9 00       		.byte	0
 3185 0bea 1E       		.uleb128 0x1e
 3186 0beb 0D000000 		.4byte	.LASF86
 3187 0bef 01       		.byte	0x1
 3188 0bf0 F901     		.2byte	0x1f9
 3189 0bf2 81000000 		.4byte	0x81
 3190 0bf6 00       		.byte	0
 3191 0bf7 1E       		.uleb128 0x1e
 3192 0bf8 49030000 		.4byte	.LASF87
 3193 0bfc 01       		.byte	0x1
 3194 0bfd FA01     		.2byte	0x1fa
 3195 0bff 81000000 		.4byte	0x81
 3196 0c03 00       		.byte	0
 3197 0c04 1E       		.uleb128 0x1e
 3198 0c05 07020000 		.4byte	.LASF88
 3199 0c09 01       		.byte	0x1
 3200 0c0a FB01     		.2byte	0x1fb
 3201 0c0c 81000000 		.4byte	0x81
 3202 0c10 00       		.byte	0
 3203 0c11 1E       		.uleb128 0x1e
 3204 0c12 49000000 		.4byte	.LASF89
 3205 0c16 01       		.byte	0x1
 3206 0c17 FC01     		.2byte	0x1fc
 3207 0c19 81000000 		.4byte	0x81
 3208 0c1d 00       		.byte	0
 3209 0c1e 18       		.uleb128 0x18
 3210 0c1f 0A000000 		.4byte	.LVL175
 3211 0c23 C60D0000 		.4byte	0xdc6
 3212 0c27 310C0000 		.4byte	0xc31
 3213 0c2b 14       		.uleb128 0x14
 3214 0c2c 01       		.uleb128 0x1
 3215 0c2d 50       		.byte	0x50
 3216 0c2e 01       		.uleb128 0x1
 3217 0c2f 31       		.byte	0x31
 3218 0c30 00       		.byte	0
 3219 0c31 17       		.uleb128 0x17
 3220 0c32 12000000 		.4byte	.LVL176
 3221 0c36 D70D0000 		.4byte	0xdd7
 3222 0c3a 17       		.uleb128 0x17
 3223 0c3b 24000000 		.4byte	.LVL177
 3224 0c3f 8F040000 		.4byte	0x48f
 3225 0c43 17       		.uleb128 0x17
 3226 0c44 28000000 		.4byte	.LVL178
 3227 0c48 FB050000 		.4byte	0x5fb
 3228 0c4c 00       		.byte	0
 3229 0c4d 07       		.uleb128 0x7
 3230 0c4e 81000000 		.4byte	0x81
 3231 0c52 5D0C0000 		.4byte	0xc5d
 3232 0c56 08       		.uleb128 0x8
 3233 0c57 EF000000 		.4byte	0xef
 3234 0c5b 00       		.byte	0
 3235 0c5c 00       		.byte	0
 3236 0c5d 21       		.uleb128 0x21
 3237 0c5e 74020000 		.4byte	.LASF90
 3238 0c62 01       		.byte	0x1
ARM GAS  C:\Users\pxc\AppData\Local\Temp\ccofNc3q.s 			page 76


 3239 0c63 2B       		.byte	0x2b
 3240 0c64 6A0C0000 		.4byte	0xc6a
 3241 0c68 01       		.byte	0x1
 3242 0c69 FF       		.byte	0xff
 3243 0c6a 22       		.uleb128 0x22
 3244 0c6b 4D0C0000 		.4byte	0xc4d
 3245 0c6f 1D       		.uleb128 0x1d
 3246 0c70 64030000 		.4byte	.LASF91
 3247 0c74 01       		.byte	0x1
 3248 0c75 2C       		.byte	0x2c
 3249 0c76 800C0000 		.4byte	0xc80
 3250 0c7a 05       		.uleb128 0x5
 3251 0c7b 03       		.byte	0x3
 3252 0c7c 00000000 		.4byte	eepromArray
 3253 0c80 22       		.uleb128 0x22
 3254 0c81 F6000000 		.4byte	0xf6
 3255 0c85 1D       		.uleb128 0x1d
 3256 0c86 7F020000 		.4byte	.LASF92
 3257 0c8a 01       		.byte	0x1
 3258 0c8b 35       		.byte	0x35
 3259 0c8c 68000000 		.4byte	0x68
 3260 0c90 05       		.uleb128 0x5
 3261 0c91 03       		.byte	0x3
 3262 0c92 00000000 		.4byte	lastValue
 3263 0c96 1D       		.uleb128 0x1d
 3264 0c97 53040000 		.4byte	.LASF93
 3265 0c9b 01       		.byte	0x1
 3266 0c9c 36       		.byte	0x36
 3267 0c9d 68000000 		.4byte	0x68
 3268 0ca1 05       		.uleb128 0x5
 3269 0ca2 03       		.byte	0x3
 3270 0ca3 0C000000 		.4byte	lastMode
 3271 0ca7 23       		.uleb128 0x23
 3272 0ca8 C8000000 		.4byte	.LASF94
 3273 0cac 07       		.byte	0x7
 3274 0cad 2A06     		.2byte	0x62a
 3275 0caf B30C0000 		.4byte	0xcb3
 3276 0cb3 06       		.uleb128 0x6
 3277 0cb4 76000000 		.4byte	0x76
 3278 0cb8 24       		.uleb128 0x24
 3279 0cb9 10050000 		.4byte	.LASF95
 3280 0cbd 01       		.byte	0x1
 3281 0cbe 32       		.byte	0x32
 3282 0cbf 44020000 		.4byte	0x244
 3283 0cc3 05       		.uleb128 0x5
 3284 0cc4 03       		.byte	0x3
 3285 0cc5 00000000 		.4byte	LED_Status
 3286 0cc9 25       		.uleb128 0x25
 3287 0cca CD010000 		.4byte	.LASF96
 3288 0cce 06       		.byte	0x6
 3289 0ccf 0A       		.byte	0xa
 3290 0cd0 2C000000 		.4byte	0x2c
 3291 0cd4 25       		.uleb128 0x25
 3292 0cd5 F3040000 		.4byte	.LASF97
 3293 0cd9 05       		.byte	0x5
 3294 0cda 27       		.byte	0x27
 3295 0cdb 2C000000 		.4byte	0x2c
ARM GAS  C:\Users\pxc\AppData\Local\Temp\ccofNc3q.s 			page 77


 3296 0cdf 24       		.uleb128 0x24
 3297 0ce0 42000000 		.4byte	.LASF98
 3298 0ce4 01       		.byte	0x1
 3299 0ce5 30       		.byte	0x30
 3300 0ce6 92010000 		.4byte	0x192
 3301 0cea 05       		.uleb128 0x5
 3302 0ceb 03       		.byte	0x3
 3303 0cec 00000000 		.4byte	CutReg
 3304 0cf0 24       		.uleb128 0x24
 3305 0cf1 32040000 		.4byte	.LASF99
 3306 0cf5 01       		.byte	0x1
 3307 0cf6 33       		.byte	0x33
 3308 0cf7 81000000 		.4byte	0x81
 3309 0cfb 05       		.uleb128 0x5
 3310 0cfc 03       		.byte	0x3
 3311 0cfd 00000000 		.4byte	FootStart_state
 3312 0d01 25       		.uleb128 0x25
 3313 0d02 88030000 		.4byte	.LASF100
 3314 0d06 06       		.byte	0x6
 3315 0d07 0B       		.byte	0xb
 3316 0d08 2C000000 		.4byte	0x2c
 3317 0d0c 25       		.uleb128 0x25
 3318 0d0d 22000000 		.4byte	.LASF101
 3319 0d11 06       		.byte	0x6
 3320 0d12 1A       		.byte	0x1a
 3321 0d13 59020000 		.4byte	0x259
 3322 0d17 24       		.uleb128 0x24
 3323 0d18 E1010000 		.4byte	.LASF102
 3324 0d1c 01       		.byte	0x1
 3325 0d1d 34       		.byte	0x34
 3326 0d1e 81000000 		.4byte	0x81
 3327 0d22 05       		.uleb128 0x5
 3328 0d23 03       		.byte	0x3
 3329 0d24 00000000 		.4byte	FootUP_State
 3330 0d28 25       		.uleb128 0x25
 3331 0d29 DA050000 		.4byte	.LASF103
 3332 0d2d 01       		.byte	0x1
 3333 0d2e 3B       		.byte	0x3b
 3334 0d2f 68000000 		.4byte	0x68
 3335 0d33 26       		.uleb128 0x26
 3336 0d34 F5030000 		.4byte	.LASF104
 3337 0d38 08       		.byte	0x8
 3338 0d39 23       		.byte	0x23
 3339 0d3a 81000000 		.4byte	0x81
 3340 0d3e 480D0000 		.4byte	0xd48
 3341 0d42 27       		.uleb128 0x27
 3342 0d43 8C000000 		.4byte	0x8c
 3343 0d47 00       		.byte	0
 3344 0d48 26       		.uleb128 0x26
 3345 0d49 1F020000 		.4byte	.LASF105
 3346 0d4d 08       		.byte	0x8
 3347 0d4e 26       		.byte	0x26
 3348 0d4f CD000000 		.4byte	0xcd
 3349 0d53 620D0000 		.4byte	0xd62
 3350 0d57 27       		.uleb128 0x27
 3351 0d58 620D0000 		.4byte	0xd62
 3352 0d5c 27       		.uleb128 0x27
ARM GAS  C:\Users\pxc\AppData\Local\Temp\ccofNc3q.s 			page 78


 3353 0d5d 81000000 		.4byte	0x81
 3354 0d61 00       		.byte	0
 3355 0d62 15       		.uleb128 0x15
 3356 0d63 04       		.byte	0x4
 3357 0d64 680D0000 		.4byte	0xd68
 3358 0d68 22       		.uleb128 0x22
 3359 0d69 81000000 		.4byte	0x81
 3360 0d6d 28       		.uleb128 0x28
 3361 0d6e 0C060000 		.4byte	.LASF106
 3362 0d72 09       		.byte	0x9
 3363 0d73 27       		.byte	0x27
 3364 0d74 28       		.uleb128 0x28
 3365 0d75 66020000 		.4byte	.LASF107
 3366 0d79 0A       		.byte	0xa
 3367 0d7a 5A       		.byte	0x5a
 3368 0d7b 28       		.uleb128 0x28
 3369 0d7c 56000000 		.4byte	.LASF108
 3370 0d80 08       		.byte	0x8
 3371 0d81 1F       		.byte	0x1f
 3372 0d82 28       		.uleb128 0x28
 3373 0d83 84040000 		.4byte	.LASF109
 3374 0d87 0B       		.byte	0xb
 3375 0d88 18       		.byte	0x18
 3376 0d89 29       		.uleb128 0x29
 3377 0d8a 2E000000 		.4byte	.LASF110
 3378 0d8e 0C       		.byte	0xc
 3379 0d8f 3D       		.byte	0x3d
 3380 0d90 9F0D0000 		.4byte	0xd9f
 3381 0d94 27       		.uleb128 0x27
 3382 0d95 81000000 		.4byte	0x81
 3383 0d99 27       		.uleb128 0x27
 3384 0d9a 81000000 		.4byte	0x81
 3385 0d9e 00       		.byte	0
 3386 0d9f 29       		.uleb128 0x29
 3387 0da0 A4030000 		.4byte	.LASF111
 3388 0da4 0C       		.byte	0xc
 3389 0da5 3C       		.byte	0x3c
 3390 0da6 B00D0000 		.4byte	0xdb0
 3391 0daa 27       		.uleb128 0x27
 3392 0dab B00D0000 		.4byte	0xdb0
 3393 0daf 00       		.byte	0
 3394 0db0 15       		.uleb128 0x15
 3395 0db1 04       		.byte	0x4
 3396 0db2 B60D0000 		.4byte	0xdb6
 3397 0db6 22       		.uleb128 0x22
 3398 0db7 BB000000 		.4byte	0xbb
 3399 0dbb 2A       		.uleb128 0x2a
 3400 0dbc 5B060000 		.4byte	.LASF119
 3401 0dc0 0E       		.byte	0xe
 3402 0dc1 28       		.byte	0x28
 3403 0dc2 81000000 		.4byte	0x81
 3404 0dc6 29       		.uleb128 0x29
 3405 0dc7 83000000 		.4byte	.LASF112
 3406 0dcb 0D       		.byte	0xd
 3407 0dcc 77       		.byte	0x77
 3408 0dcd D70D0000 		.4byte	0xdd7
 3409 0dd1 27       		.uleb128 0x27
ARM GAS  C:\Users\pxc\AppData\Local\Temp\ccofNc3q.s 			page 79


 3410 0dd2 97000000 		.4byte	0x97
 3411 0dd6 00       		.byte	0
 3412 0dd7 2B       		.uleb128 0x2b
 3413 0dd8 F8050000 		.4byte	.LASF120
 3414 0ddc 0F       		.byte	0xf
 3415 0ddd 27       		.byte	0x27
 3416 0dde 27       		.uleb128 0x27
 3417 0ddf 81000000 		.4byte	0x81
 3418 0de3 00       		.byte	0
 3419 0de4 00       		.byte	0
 3420              		.section	.debug_abbrev,"",%progbits
 3421              	.Ldebug_abbrev0:
 3422 0000 01       		.uleb128 0x1
 3423 0001 11       		.uleb128 0x11
 3424 0002 01       		.byte	0x1
 3425 0003 25       		.uleb128 0x25
 3426 0004 0E       		.uleb128 0xe
 3427 0005 13       		.uleb128 0x13
 3428 0006 0B       		.uleb128 0xb
 3429 0007 03       		.uleb128 0x3
 3430 0008 0E       		.uleb128 0xe
 3431 0009 1B       		.uleb128 0x1b
 3432 000a 0E       		.uleb128 0xe
 3433 000b 55       		.uleb128 0x55
 3434 000c 17       		.uleb128 0x17
 3435 000d 11       		.uleb128 0x11
 3436 000e 01       		.uleb128 0x1
 3437 000f 10       		.uleb128 0x10
 3438 0010 17       		.uleb128 0x17
 3439 0011 00       		.byte	0
 3440 0012 00       		.byte	0
 3441 0013 02       		.uleb128 0x2
 3442 0014 24       		.uleb128 0x24
 3443 0015 00       		.byte	0
 3444 0016 0B       		.uleb128 0xb
 3445 0017 0B       		.uleb128 0xb
 3446 0018 3E       		.uleb128 0x3e
 3447 0019 0B       		.uleb128 0xb
 3448 001a 03       		.uleb128 0x3
 3449 001b 0E       		.uleb128 0xe
 3450 001c 00       		.byte	0
 3451 001d 00       		.byte	0
 3452 001e 03       		.uleb128 0x3
 3453 001f 16       		.uleb128 0x16
 3454 0020 00       		.byte	0
 3455 0021 03       		.uleb128 0x3
 3456 0022 0E       		.uleb128 0xe
 3457 0023 3A       		.uleb128 0x3a
 3458 0024 0B       		.uleb128 0xb
 3459 0025 3B       		.uleb128 0x3b
 3460 0026 0B       		.uleb128 0xb
 3461 0027 49       		.uleb128 0x49
 3462 0028 13       		.uleb128 0x13
 3463 0029 00       		.byte	0
 3464 002a 00       		.byte	0
 3465 002b 04       		.uleb128 0x4
 3466 002c 24       		.uleb128 0x24
ARM GAS  C:\Users\pxc\AppData\Local\Temp\ccofNc3q.s 			page 80


 3467 002d 00       		.byte	0
 3468 002e 0B       		.uleb128 0xb
 3469 002f 0B       		.uleb128 0xb
 3470 0030 3E       		.uleb128 0x3e
 3471 0031 0B       		.uleb128 0xb
 3472 0032 03       		.uleb128 0x3
 3473 0033 08       		.uleb128 0x8
 3474 0034 00       		.byte	0
 3475 0035 00       		.byte	0
 3476 0036 05       		.uleb128 0x5
 3477 0037 16       		.uleb128 0x16
 3478 0038 00       		.byte	0
 3479 0039 03       		.uleb128 0x3
 3480 003a 0E       		.uleb128 0xe
 3481 003b 3A       		.uleb128 0x3a
 3482 003c 0B       		.uleb128 0xb
 3483 003d 3B       		.uleb128 0x3b
 3484 003e 05       		.uleb128 0x5
 3485 003f 49       		.uleb128 0x49
 3486 0040 13       		.uleb128 0x13
 3487 0041 00       		.byte	0
 3488 0042 00       		.byte	0
 3489 0043 06       		.uleb128 0x6
 3490 0044 35       		.uleb128 0x35
 3491 0045 00       		.byte	0
 3492 0046 49       		.uleb128 0x49
 3493 0047 13       		.uleb128 0x13
 3494 0048 00       		.byte	0
 3495 0049 00       		.byte	0
 3496 004a 07       		.uleb128 0x7
 3497 004b 01       		.uleb128 0x1
 3498 004c 01       		.byte	0x1
 3499 004d 49       		.uleb128 0x49
 3500 004e 13       		.uleb128 0x13
 3501 004f 01       		.uleb128 0x1
 3502 0050 13       		.uleb128 0x13
 3503 0051 00       		.byte	0
 3504 0052 00       		.byte	0
 3505 0053 08       		.uleb128 0x8
 3506 0054 21       		.uleb128 0x21
 3507 0055 00       		.byte	0
 3508 0056 49       		.uleb128 0x49
 3509 0057 13       		.uleb128 0x13
 3510 0058 2F       		.uleb128 0x2f
 3511 0059 0B       		.uleb128 0xb
 3512 005a 00       		.byte	0
 3513 005b 00       		.byte	0
 3514 005c 09       		.uleb128 0x9
 3515 005d 04       		.uleb128 0x4
 3516 005e 01       		.byte	0x1
 3517 005f 03       		.uleb128 0x3
 3518 0060 0E       		.uleb128 0xe
 3519 0061 0B       		.uleb128 0xb
 3520 0062 0B       		.uleb128 0xb
 3521 0063 3A       		.uleb128 0x3a
 3522 0064 0B       		.uleb128 0xb
 3523 0065 3B       		.uleb128 0x3b
ARM GAS  C:\Users\pxc\AppData\Local\Temp\ccofNc3q.s 			page 81


 3524 0066 0B       		.uleb128 0xb
 3525 0067 01       		.uleb128 0x1
 3526 0068 13       		.uleb128 0x13
 3527 0069 00       		.byte	0
 3528 006a 00       		.byte	0
 3529 006b 0A       		.uleb128 0xa
 3530 006c 28       		.uleb128 0x28
 3531 006d 00       		.byte	0
 3532 006e 03       		.uleb128 0x3
 3533 006f 0E       		.uleb128 0xe
 3534 0070 1C       		.uleb128 0x1c
 3535 0071 0D       		.uleb128 0xd
 3536 0072 00       		.byte	0
 3537 0073 00       		.byte	0
 3538 0074 0B       		.uleb128 0xb
 3539 0075 13       		.uleb128 0x13
 3540 0076 01       		.byte	0x1
 3541 0077 03       		.uleb128 0x3
 3542 0078 0E       		.uleb128 0xe
 3543 0079 0B       		.uleb128 0xb
 3544 007a 0B       		.uleb128 0xb
 3545 007b 3A       		.uleb128 0x3a
 3546 007c 0B       		.uleb128 0xb
 3547 007d 3B       		.uleb128 0x3b
 3548 007e 0B       		.uleb128 0xb
 3549 007f 01       		.uleb128 0x1
 3550 0080 13       		.uleb128 0x13
 3551 0081 00       		.byte	0
 3552 0082 00       		.byte	0
 3553 0083 0C       		.uleb128 0xc
 3554 0084 0D       		.uleb128 0xd
 3555 0085 00       		.byte	0
 3556 0086 03       		.uleb128 0x3
 3557 0087 0E       		.uleb128 0xe
 3558 0088 3A       		.uleb128 0x3a
 3559 0089 0B       		.uleb128 0xb
 3560 008a 3B       		.uleb128 0x3b
 3561 008b 0B       		.uleb128 0xb
 3562 008c 49       		.uleb128 0x49
 3563 008d 13       		.uleb128 0x13
 3564 008e 38       		.uleb128 0x38
 3565 008f 0B       		.uleb128 0xb
 3566 0090 00       		.byte	0
 3567 0091 00       		.byte	0
 3568 0092 0D       		.uleb128 0xd
 3569 0093 0D       		.uleb128 0xd
 3570 0094 00       		.byte	0
 3571 0095 03       		.uleb128 0x3
 3572 0096 08       		.uleb128 0x8
 3573 0097 3A       		.uleb128 0x3a
 3574 0098 0B       		.uleb128 0xb
 3575 0099 3B       		.uleb128 0x3b
 3576 009a 0B       		.uleb128 0xb
 3577 009b 49       		.uleb128 0x49
 3578 009c 13       		.uleb128 0x13
 3579 009d 38       		.uleb128 0x38
 3580 009e 0B       		.uleb128 0xb
ARM GAS  C:\Users\pxc\AppData\Local\Temp\ccofNc3q.s 			page 82


 3581 009f 00       		.byte	0
 3582 00a0 00       		.byte	0
 3583 00a1 0E       		.uleb128 0xe
 3584 00a2 2E       		.uleb128 0x2e
 3585 00a3 01       		.byte	0x1
 3586 00a4 3F       		.uleb128 0x3f
 3587 00a5 19       		.uleb128 0x19
 3588 00a6 03       		.uleb128 0x3
 3589 00a7 0E       		.uleb128 0xe
 3590 00a8 3A       		.uleb128 0x3a
 3591 00a9 0B       		.uleb128 0xb
 3592 00aa 3B       		.uleb128 0x3b
 3593 00ab 05       		.uleb128 0x5
 3594 00ac 27       		.uleb128 0x27
 3595 00ad 19       		.uleb128 0x19
 3596 00ae 11       		.uleb128 0x11
 3597 00af 01       		.uleb128 0x1
 3598 00b0 12       		.uleb128 0x12
 3599 00b1 06       		.uleb128 0x6
 3600 00b2 40       		.uleb128 0x40
 3601 00b3 18       		.uleb128 0x18
 3602 00b4 9742     		.uleb128 0x2117
 3603 00b6 19       		.uleb128 0x19
 3604 00b7 01       		.uleb128 0x1
 3605 00b8 13       		.uleb128 0x13
 3606 00b9 00       		.byte	0
 3607 00ba 00       		.byte	0
 3608 00bb 0F       		.uleb128 0xf
 3609 00bc 05       		.uleb128 0x5
 3610 00bd 00       		.byte	0
 3611 00be 03       		.uleb128 0x3
 3612 00bf 0E       		.uleb128 0xe
 3613 00c0 3A       		.uleb128 0x3a
 3614 00c1 0B       		.uleb128 0xb
 3615 00c2 3B       		.uleb128 0x3b
 3616 00c3 05       		.uleb128 0x5
 3617 00c4 49       		.uleb128 0x49
 3618 00c5 13       		.uleb128 0x13
 3619 00c6 02       		.uleb128 0x2
 3620 00c7 17       		.uleb128 0x17
 3621 00c8 00       		.byte	0
 3622 00c9 00       		.byte	0
 3623 00ca 10       		.uleb128 0x10
 3624 00cb 05       		.uleb128 0x5
 3625 00cc 00       		.byte	0
 3626 00cd 03       		.uleb128 0x3
 3627 00ce 08       		.uleb128 0x8
 3628 00cf 3A       		.uleb128 0x3a
 3629 00d0 0B       		.uleb128 0xb
 3630 00d1 3B       		.uleb128 0x3b
 3631 00d2 05       		.uleb128 0x5
 3632 00d3 49       		.uleb128 0x49
 3633 00d4 13       		.uleb128 0x13
 3634 00d5 02       		.uleb128 0x2
 3635 00d6 17       		.uleb128 0x17
 3636 00d7 00       		.byte	0
 3637 00d8 00       		.byte	0
ARM GAS  C:\Users\pxc\AppData\Local\Temp\ccofNc3q.s 			page 83


 3638 00d9 11       		.uleb128 0x11
 3639 00da 34       		.uleb128 0x34
 3640 00db 00       		.byte	0
 3641 00dc 03       		.uleb128 0x3
 3642 00dd 0E       		.uleb128 0xe
 3643 00de 3A       		.uleb128 0x3a
 3644 00df 0B       		.uleb128 0xb
 3645 00e0 3B       		.uleb128 0x3b
 3646 00e1 05       		.uleb128 0x5
 3647 00e2 49       		.uleb128 0x49
 3648 00e3 13       		.uleb128 0x13
 3649 00e4 00       		.byte	0
 3650 00e5 00       		.byte	0
 3651 00e6 12       		.uleb128 0x12
 3652 00e7 34       		.uleb128 0x34
 3653 00e8 00       		.byte	0
 3654 00e9 03       		.uleb128 0x3
 3655 00ea 08       		.uleb128 0x8
 3656 00eb 3A       		.uleb128 0x3a
 3657 00ec 0B       		.uleb128 0xb
 3658 00ed 3B       		.uleb128 0x3b
 3659 00ee 05       		.uleb128 0x5
 3660 00ef 49       		.uleb128 0x49
 3661 00f0 13       		.uleb128 0x13
 3662 00f1 02       		.uleb128 0x2
 3663 00f2 17       		.uleb128 0x17
 3664 00f3 00       		.byte	0
 3665 00f4 00       		.byte	0
 3666 00f5 13       		.uleb128 0x13
 3667 00f6 898201   		.uleb128 0x4109
 3668 00f9 01       		.byte	0x1
 3669 00fa 11       		.uleb128 0x11
 3670 00fb 01       		.uleb128 0x1
 3671 00fc 31       		.uleb128 0x31
 3672 00fd 13       		.uleb128 0x13
 3673 00fe 00       		.byte	0
 3674 00ff 00       		.byte	0
 3675 0100 14       		.uleb128 0x14
 3676 0101 8A8201   		.uleb128 0x410a
 3677 0104 00       		.byte	0
 3678 0105 02       		.uleb128 0x2
 3679 0106 18       		.uleb128 0x18
 3680 0107 9142     		.uleb128 0x2111
 3681 0109 18       		.uleb128 0x18
 3682 010a 00       		.byte	0
 3683 010b 00       		.byte	0
 3684 010c 15       		.uleb128 0x15
 3685 010d 0F       		.uleb128 0xf
 3686 010e 00       		.byte	0
 3687 010f 0B       		.uleb128 0xb
 3688 0110 0B       		.uleb128 0xb
 3689 0111 49       		.uleb128 0x49
 3690 0112 13       		.uleb128 0x13
 3691 0113 00       		.byte	0
 3692 0114 00       		.byte	0
 3693 0115 16       		.uleb128 0x16
 3694 0116 34       		.uleb128 0x34
ARM GAS  C:\Users\pxc\AppData\Local\Temp\ccofNc3q.s 			page 84


 3695 0117 00       		.byte	0
 3696 0118 03       		.uleb128 0x3
 3697 0119 0E       		.uleb128 0xe
 3698 011a 3A       		.uleb128 0x3a
 3699 011b 0B       		.uleb128 0xb
 3700 011c 3B       		.uleb128 0x3b
 3701 011d 05       		.uleb128 0x5
 3702 011e 49       		.uleb128 0x49
 3703 011f 13       		.uleb128 0x13
 3704 0120 02       		.uleb128 0x2
 3705 0121 18       		.uleb128 0x18
 3706 0122 00       		.byte	0
 3707 0123 00       		.byte	0
 3708 0124 17       		.uleb128 0x17
 3709 0125 898201   		.uleb128 0x4109
 3710 0128 00       		.byte	0
 3711 0129 11       		.uleb128 0x11
 3712 012a 01       		.uleb128 0x1
 3713 012b 31       		.uleb128 0x31
 3714 012c 13       		.uleb128 0x13
 3715 012d 00       		.byte	0
 3716 012e 00       		.byte	0
 3717 012f 18       		.uleb128 0x18
 3718 0130 898201   		.uleb128 0x4109
 3719 0133 01       		.byte	0x1
 3720 0134 11       		.uleb128 0x11
 3721 0135 01       		.uleb128 0x1
 3722 0136 31       		.uleb128 0x31
 3723 0137 13       		.uleb128 0x13
 3724 0138 01       		.uleb128 0x1
 3725 0139 13       		.uleb128 0x13
 3726 013a 00       		.byte	0
 3727 013b 00       		.byte	0
 3728 013c 19       		.uleb128 0x19
 3729 013d 2E       		.uleb128 0x2e
 3730 013e 01       		.byte	0x1
 3731 013f 3F       		.uleb128 0x3f
 3732 0140 19       		.uleb128 0x19
 3733 0141 03       		.uleb128 0x3
 3734 0142 0E       		.uleb128 0xe
 3735 0143 3A       		.uleb128 0x3a
 3736 0144 0B       		.uleb128 0xb
 3737 0145 3B       		.uleb128 0x3b
 3738 0146 05       		.uleb128 0x5
 3739 0147 11       		.uleb128 0x11
 3740 0148 01       		.uleb128 0x1
 3741 0149 12       		.uleb128 0x12
 3742 014a 06       		.uleb128 0x6
 3743 014b 40       		.uleb128 0x40
 3744 014c 18       		.uleb128 0x18
 3745 014d 9742     		.uleb128 0x2117
 3746 014f 19       		.uleb128 0x19
 3747 0150 01       		.uleb128 0x1
 3748 0151 13       		.uleb128 0x13
 3749 0152 00       		.byte	0
 3750 0153 00       		.byte	0
 3751 0154 1A       		.uleb128 0x1a
ARM GAS  C:\Users\pxc\AppData\Local\Temp\ccofNc3q.s 			page 85


 3752 0155 2E       		.uleb128 0x2e
 3753 0156 01       		.byte	0x1
 3754 0157 3F       		.uleb128 0x3f
 3755 0158 19       		.uleb128 0x19
 3756 0159 03       		.uleb128 0x3
 3757 015a 0E       		.uleb128 0xe
 3758 015b 3A       		.uleb128 0x3a
 3759 015c 0B       		.uleb128 0xb
 3760 015d 3B       		.uleb128 0x3b
 3761 015e 0B       		.uleb128 0xb
 3762 015f 27       		.uleb128 0x27
 3763 0160 19       		.uleb128 0x19
 3764 0161 11       		.uleb128 0x11
 3765 0162 01       		.uleb128 0x1
 3766 0163 12       		.uleb128 0x12
 3767 0164 06       		.uleb128 0x6
 3768 0165 40       		.uleb128 0x40
 3769 0166 18       		.uleb128 0x18
 3770 0167 9742     		.uleb128 0x2117
 3771 0169 19       		.uleb128 0x19
 3772 016a 01       		.uleb128 0x1
 3773 016b 13       		.uleb128 0x13
 3774 016c 00       		.byte	0
 3775 016d 00       		.byte	0
 3776 016e 1B       		.uleb128 0x1b
 3777 016f 2E       		.uleb128 0x2e
 3778 0170 01       		.byte	0x1
 3779 0171 3F       		.uleb128 0x3f
 3780 0172 19       		.uleb128 0x19
 3781 0173 03       		.uleb128 0x3
 3782 0174 0E       		.uleb128 0xe
 3783 0175 3A       		.uleb128 0x3a
 3784 0176 0B       		.uleb128 0xb
 3785 0177 3B       		.uleb128 0x3b
 3786 0178 0B       		.uleb128 0xb
 3787 0179 27       		.uleb128 0x27
 3788 017a 19       		.uleb128 0x19
 3789 017b 49       		.uleb128 0x49
 3790 017c 13       		.uleb128 0x13
 3791 017d 11       		.uleb128 0x11
 3792 017e 01       		.uleb128 0x1
 3793 017f 12       		.uleb128 0x12
 3794 0180 06       		.uleb128 0x6
 3795 0181 40       		.uleb128 0x40
 3796 0182 18       		.uleb128 0x18
 3797 0183 9742     		.uleb128 0x2117
 3798 0185 19       		.uleb128 0x19
 3799 0186 01       		.uleb128 0x1
 3800 0187 13       		.uleb128 0x13
 3801 0188 00       		.byte	0
 3802 0189 00       		.byte	0
 3803 018a 1C       		.uleb128 0x1c
 3804 018b 34       		.uleb128 0x34
 3805 018c 00       		.byte	0
 3806 018d 03       		.uleb128 0x3
 3807 018e 0E       		.uleb128 0xe
 3808 018f 3A       		.uleb128 0x3a
ARM GAS  C:\Users\pxc\AppData\Local\Temp\ccofNc3q.s 			page 86


 3809 0190 0B       		.uleb128 0xb
 3810 0191 3B       		.uleb128 0x3b
 3811 0192 0B       		.uleb128 0xb
 3812 0193 49       		.uleb128 0x49
 3813 0194 13       		.uleb128 0x13
 3814 0195 02       		.uleb128 0x2
 3815 0196 17       		.uleb128 0x17
 3816 0197 00       		.byte	0
 3817 0198 00       		.byte	0
 3818 0199 1D       		.uleb128 0x1d
 3819 019a 34       		.uleb128 0x34
 3820 019b 00       		.byte	0
 3821 019c 03       		.uleb128 0x3
 3822 019d 0E       		.uleb128 0xe
 3823 019e 3A       		.uleb128 0x3a
 3824 019f 0B       		.uleb128 0xb
 3825 01a0 3B       		.uleb128 0x3b
 3826 01a1 0B       		.uleb128 0xb
 3827 01a2 49       		.uleb128 0x49
 3828 01a3 13       		.uleb128 0x13
 3829 01a4 02       		.uleb128 0x2
 3830 01a5 18       		.uleb128 0x18
 3831 01a6 00       		.byte	0
 3832 01a7 00       		.byte	0
 3833 01a8 1E       		.uleb128 0x1e
 3834 01a9 34       		.uleb128 0x34
 3835 01aa 00       		.byte	0
 3836 01ab 03       		.uleb128 0x3
 3837 01ac 0E       		.uleb128 0xe
 3838 01ad 3A       		.uleb128 0x3a
 3839 01ae 0B       		.uleb128 0xb
 3840 01af 3B       		.uleb128 0x3b
 3841 01b0 05       		.uleb128 0x5
 3842 01b1 49       		.uleb128 0x49
 3843 01b2 13       		.uleb128 0x13
 3844 01b3 1C       		.uleb128 0x1c
 3845 01b4 0B       		.uleb128 0xb
 3846 01b5 00       		.byte	0
 3847 01b6 00       		.byte	0
 3848 01b7 1F       		.uleb128 0x1f
 3849 01b8 34       		.uleb128 0x34
 3850 01b9 00       		.byte	0
 3851 01ba 03       		.uleb128 0x3
 3852 01bb 0E       		.uleb128 0xe
 3853 01bc 3A       		.uleb128 0x3a
 3854 01bd 0B       		.uleb128 0xb
 3855 01be 3B       		.uleb128 0x3b
 3856 01bf 05       		.uleb128 0x5
 3857 01c0 49       		.uleb128 0x49
 3858 01c1 13       		.uleb128 0x13
 3859 01c2 02       		.uleb128 0x2
 3860 01c3 17       		.uleb128 0x17
 3861 01c4 00       		.byte	0
 3862 01c5 00       		.byte	0
 3863 01c6 20       		.uleb128 0x20
 3864 01c7 34       		.uleb128 0x34
 3865 01c8 00       		.byte	0
ARM GAS  C:\Users\pxc\AppData\Local\Temp\ccofNc3q.s 			page 87


 3866 01c9 03       		.uleb128 0x3
 3867 01ca 0E       		.uleb128 0xe
 3868 01cb 3A       		.uleb128 0x3a
 3869 01cc 0B       		.uleb128 0xb
 3870 01cd 3B       		.uleb128 0x3b
 3871 01ce 05       		.uleb128 0x5
 3872 01cf 49       		.uleb128 0x49
 3873 01d0 13       		.uleb128 0x13
 3874 01d1 1C       		.uleb128 0x1c
 3875 01d2 05       		.uleb128 0x5
 3876 01d3 00       		.byte	0
 3877 01d4 00       		.byte	0
 3878 01d5 21       		.uleb128 0x21
 3879 01d6 34       		.uleb128 0x34
 3880 01d7 00       		.byte	0
 3881 01d8 03       		.uleb128 0x3
 3882 01d9 0E       		.uleb128 0xe
 3883 01da 3A       		.uleb128 0x3a
 3884 01db 0B       		.uleb128 0xb
 3885 01dc 3B       		.uleb128 0x3b
 3886 01dd 0B       		.uleb128 0xb
 3887 01de 49       		.uleb128 0x49
 3888 01df 13       		.uleb128 0x13
 3889 01e0 1C       		.uleb128 0x1c
 3890 01e1 0A       		.uleb128 0xa
 3891 01e2 00       		.byte	0
 3892 01e3 00       		.byte	0
 3893 01e4 22       		.uleb128 0x22
 3894 01e5 26       		.uleb128 0x26
 3895 01e6 00       		.byte	0
 3896 01e7 49       		.uleb128 0x49
 3897 01e8 13       		.uleb128 0x13
 3898 01e9 00       		.byte	0
 3899 01ea 00       		.byte	0
 3900 01eb 23       		.uleb128 0x23
 3901 01ec 34       		.uleb128 0x34
 3902 01ed 00       		.byte	0
 3903 01ee 03       		.uleb128 0x3
 3904 01ef 0E       		.uleb128 0xe
 3905 01f0 3A       		.uleb128 0x3a
 3906 01f1 0B       		.uleb128 0xb
 3907 01f2 3B       		.uleb128 0x3b
 3908 01f3 05       		.uleb128 0x5
 3909 01f4 49       		.uleb128 0x49
 3910 01f5 13       		.uleb128 0x13
 3911 01f6 3F       		.uleb128 0x3f
 3912 01f7 19       		.uleb128 0x19
 3913 01f8 3C       		.uleb128 0x3c
 3914 01f9 19       		.uleb128 0x19
 3915 01fa 00       		.byte	0
 3916 01fb 00       		.byte	0
 3917 01fc 24       		.uleb128 0x24
 3918 01fd 34       		.uleb128 0x34
 3919 01fe 00       		.byte	0
 3920 01ff 03       		.uleb128 0x3
 3921 0200 0E       		.uleb128 0xe
 3922 0201 3A       		.uleb128 0x3a
ARM GAS  C:\Users\pxc\AppData\Local\Temp\ccofNc3q.s 			page 88


 3923 0202 0B       		.uleb128 0xb
 3924 0203 3B       		.uleb128 0x3b
 3925 0204 0B       		.uleb128 0xb
 3926 0205 49       		.uleb128 0x49
 3927 0206 13       		.uleb128 0x13
 3928 0207 3F       		.uleb128 0x3f
 3929 0208 19       		.uleb128 0x19
 3930 0209 02       		.uleb128 0x2
 3931 020a 18       		.uleb128 0x18
 3932 020b 00       		.byte	0
 3933 020c 00       		.byte	0
 3934 020d 25       		.uleb128 0x25
 3935 020e 34       		.uleb128 0x34
 3936 020f 00       		.byte	0
 3937 0210 03       		.uleb128 0x3
 3938 0211 0E       		.uleb128 0xe
 3939 0212 3A       		.uleb128 0x3a
 3940 0213 0B       		.uleb128 0xb
 3941 0214 3B       		.uleb128 0x3b
 3942 0215 0B       		.uleb128 0xb
 3943 0216 49       		.uleb128 0x49
 3944 0217 13       		.uleb128 0x13
 3945 0218 3F       		.uleb128 0x3f
 3946 0219 19       		.uleb128 0x19
 3947 021a 3C       		.uleb128 0x3c
 3948 021b 19       		.uleb128 0x19
 3949 021c 00       		.byte	0
 3950 021d 00       		.byte	0
 3951 021e 26       		.uleb128 0x26
 3952 021f 2E       		.uleb128 0x2e
 3953 0220 01       		.byte	0x1
 3954 0221 3F       		.uleb128 0x3f
 3955 0222 19       		.uleb128 0x19
 3956 0223 03       		.uleb128 0x3
 3957 0224 0E       		.uleb128 0xe
 3958 0225 3A       		.uleb128 0x3a
 3959 0226 0B       		.uleb128 0xb
 3960 0227 3B       		.uleb128 0x3b
 3961 0228 0B       		.uleb128 0xb
 3962 0229 27       		.uleb128 0x27
 3963 022a 19       		.uleb128 0x19
 3964 022b 49       		.uleb128 0x49
 3965 022c 13       		.uleb128 0x13
 3966 022d 3C       		.uleb128 0x3c
 3967 022e 19       		.uleb128 0x19
 3968 022f 01       		.uleb128 0x1
 3969 0230 13       		.uleb128 0x13
 3970 0231 00       		.byte	0
 3971 0232 00       		.byte	0
 3972 0233 27       		.uleb128 0x27
 3973 0234 05       		.uleb128 0x5
 3974 0235 00       		.byte	0
 3975 0236 49       		.uleb128 0x49
 3976 0237 13       		.uleb128 0x13
 3977 0238 00       		.byte	0
 3978 0239 00       		.byte	0
 3979 023a 28       		.uleb128 0x28
ARM GAS  C:\Users\pxc\AppData\Local\Temp\ccofNc3q.s 			page 89


 3980 023b 2E       		.uleb128 0x2e
 3981 023c 00       		.byte	0
 3982 023d 3F       		.uleb128 0x3f
 3983 023e 19       		.uleb128 0x19
 3984 023f 03       		.uleb128 0x3
 3985 0240 0E       		.uleb128 0xe
 3986 0241 3A       		.uleb128 0x3a
 3987 0242 0B       		.uleb128 0xb
 3988 0243 3B       		.uleb128 0x3b
 3989 0244 0B       		.uleb128 0xb
 3990 0245 27       		.uleb128 0x27
 3991 0246 19       		.uleb128 0x19
 3992 0247 3C       		.uleb128 0x3c
 3993 0248 19       		.uleb128 0x19
 3994 0249 00       		.byte	0
 3995 024a 00       		.byte	0
 3996 024b 29       		.uleb128 0x29
 3997 024c 2E       		.uleb128 0x2e
 3998 024d 01       		.byte	0x1
 3999 024e 3F       		.uleb128 0x3f
 4000 024f 19       		.uleb128 0x19
 4001 0250 03       		.uleb128 0x3
 4002 0251 0E       		.uleb128 0xe
 4003 0252 3A       		.uleb128 0x3a
 4004 0253 0B       		.uleb128 0xb
 4005 0254 3B       		.uleb128 0x3b
 4006 0255 0B       		.uleb128 0xb
 4007 0256 27       		.uleb128 0x27
 4008 0257 19       		.uleb128 0x19
 4009 0258 3C       		.uleb128 0x3c
 4010 0259 19       		.uleb128 0x19
 4011 025a 01       		.uleb128 0x1
 4012 025b 13       		.uleb128 0x13
 4013 025c 00       		.byte	0
 4014 025d 00       		.byte	0
 4015 025e 2A       		.uleb128 0x2a
 4016 025f 2E       		.uleb128 0x2e
 4017 0260 00       		.byte	0
 4018 0261 3F       		.uleb128 0x3f
 4019 0262 19       		.uleb128 0x19
 4020 0263 03       		.uleb128 0x3
 4021 0264 0E       		.uleb128 0xe
 4022 0265 3A       		.uleb128 0x3a
 4023 0266 0B       		.uleb128 0xb
 4024 0267 3B       		.uleb128 0x3b
 4025 0268 0B       		.uleb128 0xb
 4026 0269 27       		.uleb128 0x27
 4027 026a 19       		.uleb128 0x19
 4028 026b 49       		.uleb128 0x49
 4029 026c 13       		.uleb128 0x13
 4030 026d 3C       		.uleb128 0x3c
 4031 026e 19       		.uleb128 0x19
 4032 026f 00       		.byte	0
 4033 0270 00       		.byte	0
 4034 0271 2B       		.uleb128 0x2b
 4035 0272 2E       		.uleb128 0x2e
 4036 0273 01       		.byte	0x1
ARM GAS  C:\Users\pxc\AppData\Local\Temp\ccofNc3q.s 			page 90


 4037 0274 3F       		.uleb128 0x3f
 4038 0275 19       		.uleb128 0x19
 4039 0276 03       		.uleb128 0x3
 4040 0277 0E       		.uleb128 0xe
 4041 0278 3A       		.uleb128 0x3a
 4042 0279 0B       		.uleb128 0xb
 4043 027a 3B       		.uleb128 0x3b
 4044 027b 0B       		.uleb128 0xb
 4045 027c 27       		.uleb128 0x27
 4046 027d 19       		.uleb128 0x19
 4047 027e 3C       		.uleb128 0x3c
 4048 027f 19       		.uleb128 0x19
 4049 0280 00       		.byte	0
 4050 0281 00       		.byte	0
 4051 0282 00       		.byte	0
 4052              		.section	.debug_loc,"",%progbits
 4053              	.Ldebug_loc0:
 4054              	.LLST0:
 4055 0000 00000000 		.4byte	.LVL0
 4056 0004 0A000000 		.4byte	.LVL2
 4057 0008 0100     		.2byte	0x1
 4058 000a 50       		.byte	0x50
 4059 000b 0A000000 		.4byte	.LVL2
 4060 000f 1C000000 		.4byte	.LFE65
 4061 0013 0400     		.2byte	0x4
 4062 0015 F3       		.byte	0xf3
 4063 0016 01       		.uleb128 0x1
 4064 0017 50       		.byte	0x50
 4065 0018 9F       		.byte	0x9f
 4066 0019 00000000 		.4byte	0
 4067 001d 00000000 		.4byte	0
 4068              	.LLST1:
 4069 0021 00000000 		.4byte	.LVL0
 4070 0025 0A000000 		.4byte	.LVL2
 4071 0029 0100     		.2byte	0x1
 4072 002b 51       		.byte	0x51
 4073 002c 0A000000 		.4byte	.LVL2
 4074 0030 1C000000 		.4byte	.LFE65
 4075 0034 0100     		.2byte	0x1
 4076 0036 56       		.byte	0x56
 4077 0037 00000000 		.4byte	0
 4078 003b 00000000 		.4byte	0
 4079              	.LLST2:
 4080 003f 00000000 		.4byte	.LVL0
 4081 0043 0A000000 		.4byte	.LVL2
 4082 0047 0100     		.2byte	0x1
 4083 0049 52       		.byte	0x52
 4084 004a 0A000000 		.4byte	.LVL2
 4085 004e 1C000000 		.4byte	.LFE65
 4086 0052 0400     		.2byte	0x4
 4087 0054 F3       		.byte	0xf3
 4088 0055 01       		.uleb128 0x1
 4089 0056 52       		.byte	0x52
 4090 0057 9F       		.byte	0x9f
 4091 0058 00000000 		.4byte	0
 4092 005c 00000000 		.4byte	0
 4093              	.LLST3:
ARM GAS  C:\Users\pxc\AppData\Local\Temp\ccofNc3q.s 			page 91


 4094 0060 06000000 		.4byte	.LVL1
 4095 0064 0A000000 		.4byte	.LVL2
 4096 0068 0200     		.2byte	0x2
 4097 006a 30       		.byte	0x30
 4098 006b 9F       		.byte	0x9f
 4099 006c 0A000000 		.4byte	.LVL2
 4100 0070 14000000 		.4byte	.LVL4
 4101 0074 0100     		.2byte	0x1
 4102 0076 54       		.byte	0x54
 4103 0077 16000000 		.4byte	.LVL5
 4104 007b 1C000000 		.4byte	.LFE65
 4105 007f 0100     		.2byte	0x1
 4106 0081 54       		.byte	0x54
 4107 0082 00000000 		.4byte	0
 4108 0086 00000000 		.4byte	0
 4109              	.LLST4:
 4110 008a 00000000 		.4byte	.LVL6
 4111 008e 0A000000 		.4byte	.LVL7
 4112 0092 0100     		.2byte	0x1
 4113 0094 50       		.byte	0x50
 4114 0095 0A000000 		.4byte	.LVL7
 4115 0099 0F000000 		.4byte	.LVL9-1
 4116 009d 0100     		.2byte	0x1
 4117 009f 53       		.byte	0x53
 4118 00a0 0F000000 		.4byte	.LVL9-1
 4119 00a4 12000000 		.4byte	.LVL10
 4120 00a8 0400     		.2byte	0x4
 4121 00aa F3       		.byte	0xf3
 4122 00ab 01       		.uleb128 0x1
 4123 00ac 50       		.byte	0x50
 4124 00ad 9F       		.byte	0x9f
 4125 00ae 12000000 		.4byte	.LVL10
 4126 00b2 14000000 		.4byte	.LFE66
 4127 00b6 0100     		.2byte	0x1
 4128 00b8 50       		.byte	0x50
 4129 00b9 00000000 		.4byte	0
 4130 00bd 00000000 		.4byte	0
 4131              	.LLST5:
 4132 00c1 00000000 		.4byte	.LVL6
 4133 00c5 0C000000 		.4byte	.LVL8
 4134 00c9 0100     		.2byte	0x1
 4135 00cb 51       		.byte	0x51
 4136 00cc 0C000000 		.4byte	.LVL8
 4137 00d0 0F000000 		.4byte	.LVL9-1
 4138 00d4 0100     		.2byte	0x1
 4139 00d6 50       		.byte	0x50
 4140 00d7 0F000000 		.4byte	.LVL9-1
 4141 00db 12000000 		.4byte	.LVL10
 4142 00df 0400     		.2byte	0x4
 4143 00e1 F3       		.byte	0xf3
 4144 00e2 01       		.uleb128 0x1
 4145 00e3 51       		.byte	0x51
 4146 00e4 9F       		.byte	0x9f
 4147 00e5 12000000 		.4byte	.LVL10
 4148 00e9 14000000 		.4byte	.LFE66
 4149 00ed 0100     		.2byte	0x1
 4150 00ef 51       		.byte	0x51
ARM GAS  C:\Users\pxc\AppData\Local\Temp\ccofNc3q.s 			page 92


 4151 00f0 00000000 		.4byte	0
 4152 00f4 00000000 		.4byte	0
 4153              	.LLST6:
 4154 00f8 00000000 		.4byte	.LVL6
 4155 00fc 00000000 		.4byte	.LVL6
 4156 0100 0100     		.2byte	0x1
 4157 0102 52       		.byte	0x52
 4158 0103 00000000 		.4byte	.LVL6
 4159 0107 0F000000 		.4byte	.LVL9-1
 4160 010b 0300     		.2byte	0x3
 4161 010d 72       		.byte	0x72
 4162 010e 7F       		.sleb128 -1
 4163 010f 9F       		.byte	0x9f
 4164 0110 0F000000 		.4byte	.LVL9-1
 4165 0114 12000000 		.4byte	.LVL10
 4166 0118 0600     		.2byte	0x6
 4167 011a F3       		.byte	0xf3
 4168 011b 01       		.uleb128 0x1
 4169 011c 52       		.byte	0x52
 4170 011d 31       		.byte	0x31
 4171 011e 1C       		.byte	0x1c
 4172 011f 9F       		.byte	0x9f
 4173 0120 12000000 		.4byte	.LVL10
 4174 0124 14000000 		.4byte	.LFE66
 4175 0128 0300     		.2byte	0x3
 4176 012a 72       		.byte	0x72
 4177 012b 7F       		.sleb128 -1
 4178 012c 9F       		.byte	0x9f
 4179 012d 00000000 		.4byte	0
 4180 0131 00000000 		.4byte	0
 4181              	.LLST7:
 4182 0135 00000000 		.4byte	.LVL18
 4183 0139 16000000 		.4byte	.LVL19
 4184 013d 0100     		.2byte	0x1
 4185 013f 50       		.byte	0x50
 4186 0140 16000000 		.4byte	.LVL19
 4187 0144 24000000 		.4byte	.LVL22
 4188 0148 0400     		.2byte	0x4
 4189 014a F3       		.byte	0xf3
 4190 014b 01       		.uleb128 0x1
 4191 014c 50       		.byte	0x50
 4192 014d 9F       		.byte	0x9f
 4193 014e 24000000 		.4byte	.LVL22
 4194 0152 2E000000 		.4byte	.LVL23
 4195 0156 0100     		.2byte	0x1
 4196 0158 50       		.byte	0x50
 4197 0159 2E000000 		.4byte	.LVL23
 4198 015d 3C000000 		.4byte	.LVL26
 4199 0161 0400     		.2byte	0x4
 4200 0163 F3       		.byte	0xf3
 4201 0164 01       		.uleb128 0x1
 4202 0165 50       		.byte	0x50
 4203 0166 9F       		.byte	0x9f
 4204 0167 3C000000 		.4byte	.LVL26
 4205 016b 46000000 		.4byte	.LVL27
 4206 016f 0100     		.2byte	0x1
 4207 0171 50       		.byte	0x50
ARM GAS  C:\Users\pxc\AppData\Local\Temp\ccofNc3q.s 			page 93


 4208 0172 46000000 		.4byte	.LVL27
 4209 0176 54000000 		.4byte	.LVL30
 4210 017a 0400     		.2byte	0x4
 4211 017c F3       		.byte	0xf3
 4212 017d 01       		.uleb128 0x1
 4213 017e 50       		.byte	0x50
 4214 017f 9F       		.byte	0x9f
 4215 0180 54000000 		.4byte	.LVL30
 4216 0184 5E000000 		.4byte	.LVL31
 4217 0188 0100     		.2byte	0x1
 4218 018a 50       		.byte	0x50
 4219 018b 5E000000 		.4byte	.LVL31
 4220 018f 6C000000 		.4byte	.LVL34
 4221 0193 0400     		.2byte	0x4
 4222 0195 F3       		.byte	0xf3
 4223 0196 01       		.uleb128 0x1
 4224 0197 50       		.byte	0x50
 4225 0198 9F       		.byte	0x9f
 4226 0199 6C000000 		.4byte	.LVL34
 4227 019d 76000000 		.4byte	.LVL35
 4228 01a1 0100     		.2byte	0x1
 4229 01a3 50       		.byte	0x50
 4230 01a4 76000000 		.4byte	.LVL35
 4231 01a8 84000000 		.4byte	.LVL38
 4232 01ac 0400     		.2byte	0x4
 4233 01ae F3       		.byte	0xf3
 4234 01af 01       		.uleb128 0x1
 4235 01b0 50       		.byte	0x50
 4236 01b1 9F       		.byte	0x9f
 4237 01b2 84000000 		.4byte	.LVL38
 4238 01b6 8E000000 		.4byte	.LVL39
 4239 01ba 0100     		.2byte	0x1
 4240 01bc 50       		.byte	0x50
 4241 01bd 8E000000 		.4byte	.LVL39
 4242 01c1 9C000000 		.4byte	.LVL42
 4243 01c5 0400     		.2byte	0x4
 4244 01c7 F3       		.byte	0xf3
 4245 01c8 01       		.uleb128 0x1
 4246 01c9 50       		.byte	0x50
 4247 01ca 9F       		.byte	0x9f
 4248 01cb 9C000000 		.4byte	.LVL42
 4249 01cf 9E000000 		.4byte	.LVL43
 4250 01d3 0100     		.2byte	0x1
 4251 01d5 50       		.byte	0x50
 4252 01d6 9E000000 		.4byte	.LVL43
 4253 01da CC000000 		.4byte	.LFE71
 4254 01de 0400     		.2byte	0x4
 4255 01e0 F3       		.byte	0xf3
 4256 01e1 01       		.uleb128 0x1
 4257 01e2 50       		.byte	0x50
 4258 01e3 9F       		.byte	0x9f
 4259 01e4 00000000 		.4byte	0
 4260 01e8 00000000 		.4byte	0
 4261              	.LLST8:
 4262 01ec 02000000 		.4byte	.LVL104
 4263 01f0 DC030000 		.4byte	.LVL169
 4264 01f4 0200     		.2byte	0x2
ARM GAS  C:\Users\pxc\AppData\Local\Temp\ccofNc3q.s 			page 94


 4265 01f6 30       		.byte	0x30
 4266 01f7 9F       		.byte	0x9f
 4267 01f8 DC030000 		.4byte	.LVL169
 4268 01fc DE030000 		.4byte	.LVL170
 4269 0200 0200     		.2byte	0x2
 4270 0202 31       		.byte	0x31
 4271 0203 9F       		.byte	0x9f
 4272 0204 DE030000 		.4byte	.LVL170
 4273 0208 04040000 		.4byte	.LVL171
 4274 020c 0200     		.2byte	0x2
 4275 020e 30       		.byte	0x30
 4276 020f 9F       		.byte	0x9f
 4277 0210 04040000 		.4byte	.LVL171
 4278 0214 14040000 		.4byte	.LFE64
 4279 0218 0100     		.2byte	0x1
 4280 021a 50       		.byte	0x50
 4281 021b 00000000 		.4byte	0
 4282 021f 00000000 		.4byte	0
 4283              	.LLST9:
 4284 0223 00000000 		.4byte	.LVL172
 4285 0227 06000000 		.4byte	.LVL174
 4286 022b 0100     		.2byte	0x1
 4287 022d 50       		.byte	0x50
 4288 022e 06000000 		.4byte	.LVL174
 4289 0232 2A000000 		.4byte	.LVL179
 4290 0236 0400     		.2byte	0x4
 4291 0238 F3       		.byte	0xf3
 4292 0239 01       		.uleb128 0x1
 4293 023a 50       		.byte	0x50
 4294 023b 9F       		.byte	0x9f
 4295 023c 2A000000 		.4byte	.LVL179
 4296 0240 3C000000 		.4byte	.LFE68
 4297 0244 0100     		.2byte	0x1
 4298 0246 50       		.byte	0x50
 4299 0247 00000000 		.4byte	0
 4300 024b 00000000 		.4byte	0
 4301              	.LLST10:
 4302 024f 00000000 		.4byte	.LVL172
 4303 0253 04000000 		.4byte	.LVL173
 4304 0257 0200     		.2byte	0x2
 4305 0259 30       		.byte	0x30
 4306 025a 9F       		.byte	0x9f
 4307 025b 04000000 		.4byte	.LVL173
 4308 025f 2A000000 		.4byte	.LVL179
 4309 0263 0200     		.2byte	0x2
 4310 0265 31       		.byte	0x31
 4311 0266 9F       		.byte	0x9f
 4312 0267 2A000000 		.4byte	.LVL179
 4313 026b 3C000000 		.4byte	.LFE68
 4314 026f 0200     		.2byte	0x2
 4315 0271 30       		.byte	0x30
 4316 0272 9F       		.byte	0x9f
 4317 0273 00000000 		.4byte	0
 4318 0277 00000000 		.4byte	0
 4319              	.LLST11:
 4320 027b 00000000 		.4byte	.LVL172
 4321 027f 0A000000 		.4byte	.LVL175
ARM GAS  C:\Users\pxc\AppData\Local\Temp\ccofNc3q.s 			page 95


 4322 0283 0200     		.2byte	0x2
 4323 0285 30       		.byte	0x30
 4324 0286 9F       		.byte	0x9f
 4325 0287 0A000000 		.4byte	.LVL175
 4326 028b 2A000000 		.4byte	.LVL179
 4327 028f 0200     		.2byte	0x2
 4328 0291 31       		.byte	0x31
 4329 0292 9F       		.byte	0x9f
 4330 0293 2A000000 		.4byte	.LVL179
 4331 0297 3C000000 		.4byte	.LFE68
 4332 029b 0200     		.2byte	0x2
 4333 029d 30       		.byte	0x30
 4334 029e 9F       		.byte	0x9f
 4335 029f 00000000 		.4byte	0
 4336 02a3 00000000 		.4byte	0
 4337              		.section	.debug_aranges,"",%progbits
 4338 0000 64000000 		.4byte	0x64
 4339 0004 0200     		.2byte	0x2
 4340 0006 00000000 		.4byte	.Ldebug_info0
 4341 000a 04       		.byte	0x4
 4342 000b 00       		.byte	0
 4343 000c 0000     		.2byte	0
 4344 000e 0000     		.2byte	0
 4345 0010 00000000 		.4byte	.LFB65
 4346 0014 1C000000 		.4byte	.LFE65-.LFB65
 4347 0018 00000000 		.4byte	.LFB66
 4348 001c 14000000 		.4byte	.LFE66-.LFB66
 4349 0020 00000000 		.4byte	.LFB69
 4350 0024 54000000 		.4byte	.LFE69-.LFB69
 4351 0028 00000000 		.4byte	.LFB67
 4352 002c 30000000 		.4byte	.LFE67-.LFB67
 4353 0030 00000000 		.4byte	.LFB70
 4354 0034 54000000 		.4byte	.LFE70-.LFB70
 4355 0038 00000000 		.4byte	.LFB71
 4356 003c CC000000 		.4byte	.LFE71-.LFB71
 4357 0040 00000000 		.4byte	.LFB72
 4358 0044 98000000 		.4byte	.LFE72-.LFB72
 4359 0048 00000000 		.4byte	.LFB63
 4360 004c D6020000 		.4byte	.LFE63-.LFB63
 4361 0050 00000000 		.4byte	.LFB64
 4362 0054 14040000 		.4byte	.LFE64-.LFB64
 4363 0058 00000000 		.4byte	.LFB68
 4364 005c 3C000000 		.4byte	.LFE68-.LFB68
 4365 0060 00000000 		.4byte	0
 4366 0064 00000000 		.4byte	0
 4367              		.section	.debug_ranges,"",%progbits
 4368              	.Ldebug_ranges0:
 4369 0000 00000000 		.4byte	.LFB65
 4370 0004 1C000000 		.4byte	.LFE65
 4371 0008 00000000 		.4byte	.LFB66
 4372 000c 14000000 		.4byte	.LFE66
 4373 0010 00000000 		.4byte	.LFB69
 4374 0014 54000000 		.4byte	.LFE69
 4375 0018 00000000 		.4byte	.LFB67
 4376 001c 30000000 		.4byte	.LFE67
 4377 0020 00000000 		.4byte	.LFB70
 4378 0024 54000000 		.4byte	.LFE70
ARM GAS  C:\Users\pxc\AppData\Local\Temp\ccofNc3q.s 			page 96


 4379 0028 00000000 		.4byte	.LFB71
 4380 002c CC000000 		.4byte	.LFE71
 4381 0030 00000000 		.4byte	.LFB72
 4382 0034 98000000 		.4byte	.LFE72
 4383 0038 00000000 		.4byte	.LFB63
 4384 003c D6020000 		.4byte	.LFE63
 4385 0040 00000000 		.4byte	.LFB64
 4386 0044 14040000 		.4byte	.LFE64
 4387 0048 00000000 		.4byte	.LFB68
 4388 004c 3C000000 		.4byte	.LFE68
 4389 0050 00000000 		.4byte	0
 4390 0054 00000000 		.4byte	0
 4391              		.section	.debug_line,"",%progbits
 4392              	.Ldebug_line0:
 4393 0000 4B040000 		.section	.debug_str,"MS",%progbits,1
 4393      0200F601 
 4393      00000201 
 4393      FB0E0D00 
 4393      01010101 
 4394              	.LASF57:
 4395 0000 436F6E66 		.ascii	"Config_VSlow\000"
 4395      69675F56 
 4395      536C6F77 
 4395      00
 4396              	.LASF86:
 4397 000d 4B415F76 		.ascii	"KA_valve_temp\000"
 4397      616C7665 
 4397      5F74656D 
 4397      7000
 4398              	.LASF12:
 4399 001b 75696E74 		.ascii	"uint16\000"
 4399      313600
 4400              	.LASF101:
 4401 0022 636F6E66 		.ascii	"config_para\000"
 4401      69675F70 
 4401      61726100 
 4402              	.LASF110:
 4403 002e 4C43445F 		.ascii	"LCD_Char_1_Position\000"
 4403      43686172 
 4403      5F315F50 
 4403      6F736974 
 4403      696F6E00 
 4404              	.LASF98:
 4405 0042 43757452 		.ascii	"CutReg\000"
 4405      656700
 4406              	.LASF89:
 4407 0049 76616C76 		.ascii	"valvech_flag\000"
 4407      6563685F 
 4407      666C6167 
 4407      00
 4408              	.LASF108:
 4409 0056 45455052 		.ascii	"EEPROM_1_Start\000"
 4409      4F4D5F31 
 4409      5F537461 
 4409      727400
 4410              	.LASF53:
 4411 0065 4F6E6557 		.ascii	"OneWorkFinshState\000"
ARM GAS  C:\Users\pxc\AppData\Local\Temp\ccofNc3q.s 			page 97


 4411      6F726B46 
 4411      696E7368 
 4411      53746174 
 4411      6500
 4412              	.LASF36:
 4413 0077 5374726F 		.ascii	"StrokeStart\000"
 4413      6B655374 
 4413      61727400 
 4414              	.LASF112:
 4415 0083 43794465 		.ascii	"CyDelay\000"
 4415      6C617900 
 4416              	.LASF7:
 4417 008b 6C6F6E67 		.ascii	"long long unsigned int\000"
 4417      206C6F6E 
 4417      6720756E 
 4417      7369676E 
 4417      65642069 
 4418              	.LASF64:
 4419 00a2 6973436F 		.ascii	"isConfig_para_state\000"
 4419      6E666967 
 4419      5F706172 
 4419      615F7374 
 4419      61746500 
 4420              	.LASF71:
 4421 00b6 496E6974 		.ascii	"Init_Stroke_Timer\000"
 4421      5F537472 
 4421      6F6B655F 
 4421      54696D65 
 4421      7200
 4422              	.LASF94:
 4423 00c8 49544D5F 		.ascii	"ITM_RxBuffer\000"
 4423      52784275 
 4423      66666572 
 4423      00
 4424              	.LASF83:
 4425 00d5 64656C61 		.ascii	"delay_num\000"
 4425      795F6E75 
 4425      6D00
 4426              	.LASF6:
 4427 00df 6C6F6E67 		.ascii	"long long int\000"
 4427      206C6F6E 
 4427      6720696E 
 4427      7400
 4428              	.LASF0:
 4429 00ed 7369676E 		.ascii	"signed char\000"
 4429      65642063 
 4429      68617200 
 4430              	.LASF73:
 4431 00f9 4C43445F 		.ascii	"LCD_DISPLAY\000"
 4431      44495350 
 4431      4C415900 
 4432              	.LASF59:
 4433 0105 436F6E66 		.ascii	"Config_VUnload\000"
 4433      69675F56 
 4433      556E6C6F 
 4433      616400
 4434              	.LASF54:
ARM GAS  C:\Users\pxc\AppData\Local\Temp\ccofNc3q.s 			page 98


 4435 0114 43555450 		.ascii	"CUTPARA\000"
 4435      41524100 
 4436              	.LASF4:
 4437 011c 6C6F6E67 		.ascii	"long int\000"
 4437      20696E74 
 4437      00
 4438              	.LASF79:
 4439 0125 6B65795F 		.ascii	"key_com\000"
 4439      636F6D00 
 4440              	.LASF62:
 4441 012d 436F6E66 		.ascii	"Config_KeepTime\000"
 4441      69675F4B 
 4441      65657054 
 4441      696D6500 
 4442              	.LASF27:
 4443 013d 5653746F 		.ascii	"VStop\000"
 4443      7000
 4444              	.LASF11:
 4445 0143 75696E74 		.ascii	"uint8\000"
 4445      3800
 4446              	.LASF115:
 4447 0149 433A5C55 		.ascii	"C:\\Users\\pxc\\Desktop\\MOTION-T1\\posoc\\MOTION-T"
 4447      73657273 
 4447      5C707863 
 4447      5C446573 
 4447      6B746F70 
 4448 0176 312D5665 		.ascii	"1-Ver1.0-2016-09-18.cydsn\000"
 4448      72312E30 
 4448      2D323031 
 4448      362D3039 
 4448      2D31382E 
 4449              	.LASF16:
 4450 0190 646F7562 		.ascii	"double\000"
 4450      6C6500
 4451              	.LASF37:
 4452 0197 4A4F474D 		.ascii	"JOGMODE\000"
 4452      4F444500 
 4453              	.LASF117:
 4454 019f 4C43445F 		.ascii	"LCD_DISPLAY_MODE\000"
 4454      44495350 
 4454      4C41595F 
 4454      4D4F4445 
 4454      00
 4455              	.LASF60:
 4456 01b0 436F6E66 		.ascii	"Config_VBack\000"
 4456      69675F56 
 4456      4261636B 
 4456      00
 4457              	.LASF39:
 4458 01bd 57616974 		.ascii	"WaitFoot\000"
 4458      466F6F74 
 4458      00
 4459              	.LASF13:
 4460 01c6 75696E74 		.ascii	"uint32\000"
 4460      333200
 4461              	.LASF96:
 4462 01cd 5450444F 		.ascii	"TPDO_PROCESS_Status\000"
ARM GAS  C:\Users\pxc\AppData\Local\Temp\ccofNc3q.s 			page 99


 4462      5F50524F 
 4462      43455353 
 4462      5F537461 
 4462      74757300 
 4463              	.LASF102:
 4464 01e1 466F6F74 		.ascii	"FootUP_State\000"
 4464      55505F53 
 4464      74617465 
 4464      00
 4465              	.LASF43:
 4466 01ee 4B656570 		.ascii	"KeepTime\000"
 4466      54696D65 
 4466      00
 4467              	.LASF84:
 4468 01f7 64656C61 		.ascii	"delay_num_count\000"
 4468      795F6E75 
 4468      6D5F636F 
 4468      756E7400 
 4469              	.LASF88:
 4470 0207 4B415F6E 		.ascii	"KA_num\000"
 4470      756D00
 4471              	.LASF74:
 4472 020e 76616C75 		.ascii	"value\000"
 4472      6500
 4473              	.LASF75:
 4474 0214 74696D65 		.ascii	"timer_10ms\000"
 4474      725F3130 
 4474      6D7300
 4475              	.LASF105:
 4476 021f 45455052 		.ascii	"EEPROM_1_Write\000"
 4476      4F4D5F31 
 4476      5F577269 
 4476      746500
 4477              	.LASF8:
 4478 022e 756E7369 		.ascii	"unsigned int\000"
 4478      676E6564 
 4478      20696E74 
 4478      00
 4479              	.LASF33:
 4480 023b 4A6F6756 		.ascii	"JogVStop\000"
 4480      53746F70 
 4480      00
 4481              	.LASF5:
 4482 0244 6C6F6E67 		.ascii	"long unsigned int\000"
 4482      20756E73 
 4482      69676E65 
 4482      6420696E 
 4482      7400
 4483              	.LASF51:
 4484 0256 56616C76 		.ascii	"ValveNum\000"
 4484      654E756D 
 4484      00
 4485              	.LASF46:
 4486 025f 41637469 		.ascii	"Action\000"
 4486      6F6E00
 4487              	.LASF107:
 4488 0266 54696D65 		.ascii	"Timer_1_Start\000"
ARM GAS  C:\Users\pxc\AppData\Local\Temp\ccofNc3q.s 			page 100


 4488      725F315F 
 4488      53746172 
 4488      7400
 4489              	.LASF90:
 4490 0274 54657374 		.ascii	"Test_Array\000"
 4490      5F417272 
 4490      617900
 4491              	.LASF92:
 4492 027f 6C617374 		.ascii	"lastValue\000"
 4492      56616C75 
 4492      6500
 4493              	.LASF66:
 4494 0289 65657072 		.ascii	"eepromPtr\000"
 4494      6F6D5074 
 4494      7200
 4495              	.LASF3:
 4496 0293 73686F72 		.ascii	"short unsigned int\000"
 4496      7420756E 
 4496      7369676E 
 4496      65642069 
 4496      6E7400
 4497              	.LASF49:
 4498 02a6 56657273 		.ascii	"Version\000"
 4498      696F6E00 
 4499              	.LASF82:
 4500 02ae 76616C76 		.ascii	"valve_flag\000"
 4500      655F666C 
 4500      616700
 4501              	.LASF65:
 4502 02b9 6973436F 		.ascii	"isConfig_para_state_2\000"
 4502      6E666967 
 4502      5F706172 
 4502      615F7374 
 4502      6174655F 
 4503              	.LASF63:
 4504 02cf 436F6E66 		.ascii	"Config_UnloadTime\000"
 4504      69675F55 
 4504      6E6C6F61 
 4504      6454696D 
 4504      6500
 4505              	.LASF31:
 4506 02e1 4A6F6756 		.ascii	"JogVUnload\000"
 4506      556E6C6F 
 4506      616400
 4507              	.LASF2:
 4508 02ec 73686F72 		.ascii	"short int\000"
 4508      7420696E 
 4508      7400
 4509              	.LASF116:
 4510 02f6 52656750 		.ascii	"RegPointer\000"
 4510      6F696E74 
 4510      657200
 4511              	.LASF81:
 4512 0301 73746570 		.ascii	"step_flag\000"
 4512      5F666C61 
 4512      6700
 4513              	.LASF70:
ARM GAS  C:\Users\pxc\AppData\Local\Temp\ccofNc3q.s 			page 101


 4514 030b 74656D70 		.ascii	"tempBuf\000"
 4514      42756600 
 4515              	.LASF50:
 4516 0313 4D6F6465 		.ascii	"ModeRunFlag\000"
 4516      52756E46 
 4516      6C616700 
 4517              	.LASF78:
 4518 031f 76616C76 		.ascii	"valve_config_flag\000"
 4518      655F636F 
 4518      6E666967 
 4518      5F666C61 
 4518      6700
 4519              	.LASF24:
 4520 0331 564B6565 		.ascii	"VKeep\000"
 4520      7000
 4521              	.LASF21:
 4522 0337 73697A65 		.ascii	"sizetype\000"
 4522      74797065 
 4522      00
 4523              	.LASF76:
 4524 0340 4D6F6465 		.ascii	"ModeFlag\000"
 4524      466C6167 
 4524      00
 4525              	.LASF87:
 4526 0349 4B415F73 		.ascii	"KA_state_temp\000"
 4526      74617465 
 4526      5F74656D 
 4526      7000
 4527              	.LASF77:
 4528 0357 56616C76 		.ascii	"Valve_config\000"
 4528      655F636F 
 4528      6E666967 
 4528      00
 4529              	.LASF91:
 4530 0364 65657072 		.ascii	"eepromArray\000"
 4530      6F6D4172 
 4530      72617900 
 4531              	.LASF52:
 4532 0370 53546F44 		.ascii	"SToDotFlag\000"
 4532      6F74466C 
 4532      616700
 4533              	.LASF61:
 4534 037b 436F6E66 		.ascii	"Config_VStop\000"
 4534      69675F56 
 4534      53746F70 
 4534      00
 4535              	.LASF100:
 4536 0388 53797374 		.ascii	"System_enable\000"
 4536      656D5F65 
 4536      6E61626C 
 4536      6500
 4537              	.LASF48:
 4538 0396 43757454 		.ascii	"CutTimeStatus\000"
 4538      696D6553 
 4538      74617475 
 4538      7300
 4539              	.LASF111:
ARM GAS  C:\Users\pxc\AppData\Local\Temp\ccofNc3q.s 			page 102


 4540 03a4 4C43445F 		.ascii	"LCD_Char_1_PrintString\000"
 4540      43686172 
 4540      5F315F50 
 4540      72696E74 
 4540      53747269 
 4541              	.LASF35:
 4542 03bb 56414C56 		.ascii	"VALVE_PROCESS\000"
 4542      455F5052 
 4542      4F434553 
 4542      5300
 4543              	.LASF15:
 4544 03c9 666C6F61 		.ascii	"float\000"
 4544      7400
 4545              	.LASF22:
 4546 03cf 56466173 		.ascii	"VFast\000"
 4546      7400
 4547              	.LASF114:
 4548 03d5 2E5C5661 		.ascii	".\\Valve_Control.c\000"
 4548      6C76655F 
 4548      436F6E74 
 4548      726F6C2E 
 4548      6300
 4549              	.LASF30:
 4550 03e7 4A6F6756 		.ascii	"JogVKeep\000"
 4550      4B656570 
 4550      00
 4551              	.LASF20:
 4552 03f0 72656738 		.ascii	"reg8\000"
 4552      00
 4553              	.LASF104:
 4554 03f5 45455052 		.ascii	"EEPROM_1_ReadByte\000"
 4554      4F4D5F31 
 4554      5F526561 
 4554      64427974 
 4554      6500
 4555              	.LASF10:
 4556 0407 696E7433 		.ascii	"int32_t\000"
 4556      325F7400 
 4557              	.LASF1:
 4558 040f 756E7369 		.ascii	"unsigned char\000"
 4558      676E6564 
 4558      20636861 
 4558      7200
 4559              	.LASF55:
 4560 041d 436F6E66 		.ascii	"Config_para\000"
 4560      69675F70 
 4560      61726100 
 4561              	.LASF40:
 4562 0429 43757453 		.ascii	"CutStart\000"
 4562      74617274 
 4562      00
 4563              	.LASF99:
 4564 0432 466F6F74 		.ascii	"FootStart_state\000"
 4564      53746172 
 4564      745F7374 
 4564      61746500 
 4565              	.LASF23:
ARM GAS  C:\Users\pxc\AppData\Local\Temp\ccofNc3q.s 			page 103


 4566 0442 56536C6F 		.ascii	"VSlow\000"
 4566      7700
 4567              	.LASF44:
 4568 0448 556E6C6F 		.ascii	"UnloadTime\000"
 4568      61645469 
 4568      6D6500
 4569              	.LASF93:
 4570 0453 6C617374 		.ascii	"lastMode\000"
 4570      4D6F6465 
 4570      00
 4571              	.LASF72:
 4572 045c 57726974 		.ascii	"Write_config\000"
 4572      655F636F 
 4572      6E666967 
 4572      00
 4573              	.LASF47:
 4574 0469 43757453 		.ascii	"CutStatus\000"
 4574      74617475 
 4574      7300
 4575              	.LASF28:
 4576 0473 4A6F6756 		.ascii	"JogVFast\000"
 4576      46617374 
 4576      00
 4577              	.LASF25:
 4578 047c 56556E6C 		.ascii	"VUnload\000"
 4578      6F616400 
 4579              	.LASF109:
 4580 0484 4953525F 		.ascii	"ISR_Stroke_Timer_Start\000"
 4580      5374726F 
 4580      6B655F54 
 4580      696D6572 
 4580      5F537461 
 4581              	.LASF18:
 4582 049b 63686172 		.ascii	"char\000"
 4582      00
 4583              	.LASF38:
 4584 04a0 57616974 		.ascii	"WaitNoFoot\000"
 4584      4E6F466F 
 4584      6F7400
 4585              	.LASF69:
 4586 04ab 52656164 		.ascii	"Read_config\000"
 4586      5F636F6E 
 4586      66696700 
 4587              	.LASF41:
 4588 04b7 43757474 		.ascii	"Cutting\000"
 4588      696E6700 
 4589              	.LASF9:
 4590 04bf 5F5F696E 		.ascii	"__int32_t\000"
 4590      7433325F 
 4590      7400
 4591              	.LASF17:
 4592 04c9 63686172 		.ascii	"char8\000"
 4592      3800
 4593              	.LASF34:
 4594 04cf 56414C56 		.ascii	"VALVE_ACTION_ENUM\000"
 4594      455F4143 
 4594      54494F4E 
ARM GAS  C:\Users\pxc\AppData\Local\Temp\ccofNc3q.s 			page 104


 4594      5F454E55 
 4594      4D00
 4595              	.LASF85:
 4596 04e1 4B415F76 		.ascii	"KA_valve\000"
 4596      616C7665 
 4596      00
 4597              	.LASF29:
 4598 04ea 4A6F6756 		.ascii	"JogVSlow\000"
 4598      536C6F77 
 4598      00
 4599              	.LASF97:
 4600 04f3 5450444F 		.ascii	"TPDO_OUT_Status\000"
 4600      5F4F5554 
 4600      5F537461 
 4600      74757300 
 4601              	.LASF58:
 4602 0503 436F6E66 		.ascii	"Config_VKeep\000"
 4602      69675F56 
 4602      4B656570 
 4602      00
 4603              	.LASF95:
 4604 0510 4C45445F 		.ascii	"LED_Status\000"
 4604      53746174 
 4604      757300
 4605              	.LASF42:
 4606 051b 4A756467 		.ascii	"JudgMode\000"
 4606      4D6F6465 
 4606      00
 4607              	.LASF80:
 4608 0524 6B65795F 		.ascii	"key_time\000"
 4608      74696D65 
 4608      00
 4609              	.LASF113:
 4610 052d 474E5520 		.ascii	"GNU C 4.9.3 20150303 (release) [ARM/embedded-4_9-br"
 4610      4320342E 
 4610      392E3320 
 4610      32303135 
 4610      30333033 
 4611 0560 616E6368 		.ascii	"anch revision 221220] -mcpu=cortex-m3 -mthumb -g -O"
 4611      20726576 
 4611      6973696F 
 4611      6E203232 
 4611      31323230 
 4612 0593 67202D66 		.ascii	"g -ffunction-sections -ffat-lto-objects\000"
 4612      66756E63 
 4612      74696F6E 
 4612      2D736563 
 4612      74696F6E 
 4613              	.LASF32:
 4614 05bb 4A6F6756 		.ascii	"JogVBack\000"
 4614      4261636B 
 4614      00
 4615              	.LASF45:
 4616 05c4 56415469 		.ascii	"VATime\000"
 4616      6D6500
 4617              	.LASF118:
 4618 05cb 5374726F 		.ascii	"Stroke_Process\000"
ARM GAS  C:\Users\pxc\AppData\Local\Temp\ccofNc3q.s 			page 105


 4618      6B655F50 
 4618      726F6365 
 4618      737300
 4619              	.LASF103:
 4620 05da 4953525F 		.ascii	"ISR_Stroke_Timer_states\000"
 4620      5374726F 
 4620      6B655F54 
 4620      696D6572 
 4620      5F737461 
 4621              	.LASF14:
 4622 05f2 696E7431 		.ascii	"int16\000"
 4622      3600
 4623              	.LASF120:
 4624 05f8 436F6E74 		.ascii	"Control_Reg_1_Write\000"
 4624      726F6C5F 
 4624      5265675F 
 4624      315F5772 
 4624      69746500 
 4625              	.LASF106:
 4626 060c 436C6F63 		.ascii	"Clock_1_Start\000"
 4626      6B5F315F 
 4626      53746172 
 4626      7400
 4627              	.LASF19:
 4628 061a 63797374 		.ascii	"cystatus\000"
 4628      61747573 
 4628      00
 4629              	.LASF26:
 4630 0623 56426163 		.ascii	"VBack\000"
 4630      6B00
 4631              	.LASF56:
 4632 0629 436F6E66 		.ascii	"Config_VFast\000"
 4632      69675F56 
 4632      46617374 
 4632      00
 4633              	.LASF67:
 4634 0636 45455052 		.ascii	"EEPROM_Array_Read\000"
 4634      4F4D5F41 
 4634      72726179 
 4634      5F526561 
 4634      6400
 4635              	.LASF68:
 4636 0648 45455052 		.ascii	"EEPROM_Array_Write\000"
 4636      4F4D5F41 
 4636      72726179 
 4636      5F577269 
 4636      746500
 4637              	.LASF119:
 4638 065b 53746174 		.ascii	"Status_Reg_1_Read\000"
 4638      75735F52 
 4638      65675F31 
 4638      5F526561 
 4638      6400
 4639              		.ident	"GCC: (GNU Tools for ARM Embedded Processors) 4.9.3 20150303 (release) [ARM/embedded-4_9-br
