ARM GAS  C:\Users\PANXIA~1\AppData\Local\Temp\cc4VN01H.s 			page 1


   1              		.syntax unified
   2              		.cpu cortex-m3
   3              		.fpu softvfp
   4              		.eabi_attribute 20, 1
   5              		.eabi_attribute 21, 1
   6              		.eabi_attribute 23, 3
   7              		.eabi_attribute 24, 1
   8              		.eabi_attribute 25, 1
   9              		.eabi_attribute 26, 1
  10              		.eabi_attribute 30, 1
  11              		.eabi_attribute 34, 1
  12              		.eabi_attribute 18, 4
  13              		.thumb
  14              		.file	"cyfitter_cfg.c"
  15              		.text
  16              	.Ltext0:
  17              		.cfi_sections	.debug_frame
  18              		.section	.text.CyClockStartupError,"ax",%progbits
  19              		.align	2
  20              		.thumb
  21              		.thumb_func
  22              		.type	CyClockStartupError, %function
  23              	CyClockStartupError:
  24              	.LFB3:
  25              		.file 1 ".\\Generated_Source\\PSoC5\\cyfitter_cfg.c"
   1:.\Generated_Source\PSoC5/cyfitter_cfg.c **** /*******************************************************************************
   2:.\Generated_Source\PSoC5/cyfitter_cfg.c **** * File Name: cyfitter_cfg.c
   3:.\Generated_Source\PSoC5/cyfitter_cfg.c **** * 
   4:.\Generated_Source\PSoC5/cyfitter_cfg.c **** * PSoC Creator  3.3
   5:.\Generated_Source\PSoC5/cyfitter_cfg.c **** *
   6:.\Generated_Source\PSoC5/cyfitter_cfg.c **** * Description:
   7:.\Generated_Source\PSoC5/cyfitter_cfg.c **** * This file contains device initialization code.
   8:.\Generated_Source\PSoC5/cyfitter_cfg.c **** * Except for the user defined sections in CyClockStartupError(), this file should not be modified.
   9:.\Generated_Source\PSoC5/cyfitter_cfg.c **** * This file is automatically generated by PSoC Creator.
  10:.\Generated_Source\PSoC5/cyfitter_cfg.c **** *
  11:.\Generated_Source\PSoC5/cyfitter_cfg.c **** ********************************************************************************
  12:.\Generated_Source\PSoC5/cyfitter_cfg.c **** * Copyright (c) 2007-2015 Cypress Semiconductor.  All rights reserved.
  13:.\Generated_Source\PSoC5/cyfitter_cfg.c **** * You may use this file only in accordance with the license, terms, conditions, 
  14:.\Generated_Source\PSoC5/cyfitter_cfg.c **** * disclaimers, and limitations in the end user license agreement accompanying 
  15:.\Generated_Source\PSoC5/cyfitter_cfg.c **** * the software package with which this file was provided.
  16:.\Generated_Source\PSoC5/cyfitter_cfg.c **** ********************************************************************************/
  17:.\Generated_Source\PSoC5/cyfitter_cfg.c **** 
  18:.\Generated_Source\PSoC5/cyfitter_cfg.c **** #include <string.h>
  19:.\Generated_Source\PSoC5/cyfitter_cfg.c **** #include "cytypes.h"
  20:.\Generated_Source\PSoC5/cyfitter_cfg.c **** #include "cydevice_trm.h"
  21:.\Generated_Source\PSoC5/cyfitter_cfg.c **** #include "cyfitter.h"
  22:.\Generated_Source\PSoC5/cyfitter_cfg.c **** #include "CyLib.h"
  23:.\Generated_Source\PSoC5/cyfitter_cfg.c **** #include "cyfitter_cfg.h"
  24:.\Generated_Source\PSoC5/cyfitter_cfg.c **** 
  25:.\Generated_Source\PSoC5/cyfitter_cfg.c **** #define CY_NEED_CYCLOCKSTARTUPERROR 1
  26:.\Generated_Source\PSoC5/cyfitter_cfg.c **** 
  27:.\Generated_Source\PSoC5/cyfitter_cfg.c **** 
  28:.\Generated_Source\PSoC5/cyfitter_cfg.c **** #if defined(__GNUC__) || defined(__ARMCC_VERSION)
  29:.\Generated_Source\PSoC5/cyfitter_cfg.c ****     #define CYPACKED 
  30:.\Generated_Source\PSoC5/cyfitter_cfg.c ****     #define CYPACKED_ATTR __attribute__ ((packed))
  31:.\Generated_Source\PSoC5/cyfitter_cfg.c ****     #define CYALIGNED __attribute__ ((aligned))
  32:.\Generated_Source\PSoC5/cyfitter_cfg.c ****     #define CY_CFG_UNUSED __attribute__ ((unused))
ARM GAS  C:\Users\PANXIA~1\AppData\Local\Temp\cc4VN01H.s 			page 2


  33:.\Generated_Source\PSoC5/cyfitter_cfg.c ****     #define CY_CFG_SECTION __attribute__ ((section(".psocinit")))
  34:.\Generated_Source\PSoC5/cyfitter_cfg.c ****     
  35:.\Generated_Source\PSoC5/cyfitter_cfg.c ****     #if defined(__ARMCC_VERSION)
  36:.\Generated_Source\PSoC5/cyfitter_cfg.c ****         #define CY_CFG_MEMORY_BARRIER() __memory_changed()
  37:.\Generated_Source\PSoC5/cyfitter_cfg.c ****     #else
  38:.\Generated_Source\PSoC5/cyfitter_cfg.c ****         #define CY_CFG_MEMORY_BARRIER() __sync_synchronize()
  39:.\Generated_Source\PSoC5/cyfitter_cfg.c ****     #endif
  40:.\Generated_Source\PSoC5/cyfitter_cfg.c ****     
  41:.\Generated_Source\PSoC5/cyfitter_cfg.c **** #elif defined(__ICCARM__)
  42:.\Generated_Source\PSoC5/cyfitter_cfg.c ****     #include <intrinsics.h>
  43:.\Generated_Source\PSoC5/cyfitter_cfg.c **** 
  44:.\Generated_Source\PSoC5/cyfitter_cfg.c ****     #define CYPACKED __packed
  45:.\Generated_Source\PSoC5/cyfitter_cfg.c ****     #define CYPACKED_ATTR 
  46:.\Generated_Source\PSoC5/cyfitter_cfg.c ****     #define CYALIGNED _Pragma("data_alignment=4")
  47:.\Generated_Source\PSoC5/cyfitter_cfg.c ****     #define CY_CFG_UNUSED _Pragma("diag_suppress=Pe177")
  48:.\Generated_Source\PSoC5/cyfitter_cfg.c ****     #define CY_CFG_SECTION _Pragma("location=\".psocinit\"")
  49:.\Generated_Source\PSoC5/cyfitter_cfg.c ****     
  50:.\Generated_Source\PSoC5/cyfitter_cfg.c ****     #define CY_CFG_MEMORY_BARRIER() __DMB()
  51:.\Generated_Source\PSoC5/cyfitter_cfg.c ****     
  52:.\Generated_Source\PSoC5/cyfitter_cfg.c **** #else
  53:.\Generated_Source\PSoC5/cyfitter_cfg.c ****     #error Unsupported toolchain
  54:.\Generated_Source\PSoC5/cyfitter_cfg.c **** #endif
  55:.\Generated_Source\PSoC5/cyfitter_cfg.c **** 
  56:.\Generated_Source\PSoC5/cyfitter_cfg.c **** #if defined(__ARMCC_VERSION)
  57:.\Generated_Source\PSoC5/cyfitter_cfg.c ****     extern unsigned int Load$$LR$$CYCONFIGECC$$Base;
  58:.\Generated_Source\PSoC5/cyfitter_cfg.c ****     #pragma diag_suppress 170,1296
  59:.\Generated_Source\PSoC5/cyfitter_cfg.c ****     #define CYDEV_ECC_VIRT_BASE 0x80000000
  60:.\Generated_Source\PSoC5/cyfitter_cfg.c ****     #define CYAPP_ECC_OFFSET ((uint32)&Load$$LR$$CYCONFIGECC$$Base - CYDEV_ECC_VIRT_BASE)
  61:.\Generated_Source\PSoC5/cyfitter_cfg.c **** #elif defined (__GNUC__) || defined (__ICCARM__)
  62:.\Generated_Source\PSoC5/cyfitter_cfg.c ****     extern int CY_ECC_OFFSET;
  63:.\Generated_Source\PSoC5/cyfitter_cfg.c ****     #define CYAPP_ECC_OFFSET ((uint32)&CY_ECC_OFFSET)
  64:.\Generated_Source\PSoC5/cyfitter_cfg.c **** #endif
  65:.\Generated_Source\PSoC5/cyfitter_cfg.c **** 
  66:.\Generated_Source\PSoC5/cyfitter_cfg.c **** CY_CFG_UNUSED
  67:.\Generated_Source\PSoC5/cyfitter_cfg.c **** static void CYMEMZERO(void *s, size_t n);
  68:.\Generated_Source\PSoC5/cyfitter_cfg.c **** CY_CFG_UNUSED
  69:.\Generated_Source\PSoC5/cyfitter_cfg.c **** static void CYMEMZERO(void *s, size_t n)
  70:.\Generated_Source\PSoC5/cyfitter_cfg.c **** {
  71:.\Generated_Source\PSoC5/cyfitter_cfg.c **** 	(void)memset(s, 0, n);
  72:.\Generated_Source\PSoC5/cyfitter_cfg.c **** }
  73:.\Generated_Source\PSoC5/cyfitter_cfg.c **** CY_CFG_UNUSED
  74:.\Generated_Source\PSoC5/cyfitter_cfg.c **** static void CYCONFIGCPY(void *dest, const void *src, size_t n);
  75:.\Generated_Source\PSoC5/cyfitter_cfg.c **** CY_CFG_UNUSED
  76:.\Generated_Source\PSoC5/cyfitter_cfg.c **** static void CYCONFIGCPY(void *dest, const void *src, size_t n)
  77:.\Generated_Source\PSoC5/cyfitter_cfg.c **** {
  78:.\Generated_Source\PSoC5/cyfitter_cfg.c **** 	(void)memcpy(dest, src, n);
  79:.\Generated_Source\PSoC5/cyfitter_cfg.c **** }
  80:.\Generated_Source\PSoC5/cyfitter_cfg.c **** CY_CFG_UNUSED
  81:.\Generated_Source\PSoC5/cyfitter_cfg.c **** static void CYCONFIGCPYCODE(void *dest, const void *src, size_t n);
  82:.\Generated_Source\PSoC5/cyfitter_cfg.c **** CY_CFG_UNUSED
  83:.\Generated_Source\PSoC5/cyfitter_cfg.c **** static void CYCONFIGCPYCODE(void *dest, const void *src, size_t n)
  84:.\Generated_Source\PSoC5/cyfitter_cfg.c **** {
  85:.\Generated_Source\PSoC5/cyfitter_cfg.c **** 	(void)memcpy(dest, src, n);
  86:.\Generated_Source\PSoC5/cyfitter_cfg.c **** }
  87:.\Generated_Source\PSoC5/cyfitter_cfg.c **** 
  88:.\Generated_Source\PSoC5/cyfitter_cfg.c **** 
  89:.\Generated_Source\PSoC5/cyfitter_cfg.c **** 
ARM GAS  C:\Users\PANXIA~1\AppData\Local\Temp\cc4VN01H.s 			page 3


  90:.\Generated_Source\PSoC5/cyfitter_cfg.c **** /* Clock startup error codes                                                   */
  91:.\Generated_Source\PSoC5/cyfitter_cfg.c **** #define CYCLOCKSTART_NO_ERROR    0u
  92:.\Generated_Source\PSoC5/cyfitter_cfg.c **** #define CYCLOCKSTART_XTAL_ERROR  1u
  93:.\Generated_Source\PSoC5/cyfitter_cfg.c **** #define CYCLOCKSTART_32KHZ_ERROR 2u
  94:.\Generated_Source\PSoC5/cyfitter_cfg.c **** #define CYCLOCKSTART_PLL_ERROR   3u
  95:.\Generated_Source\PSoC5/cyfitter_cfg.c **** 
  96:.\Generated_Source\PSoC5/cyfitter_cfg.c **** #ifdef CY_NEED_CYCLOCKSTARTUPERROR
  97:.\Generated_Source\PSoC5/cyfitter_cfg.c **** /*******************************************************************************
  98:.\Generated_Source\PSoC5/cyfitter_cfg.c **** * Function Name: CyClockStartupError
  99:.\Generated_Source\PSoC5/cyfitter_cfg.c **** ********************************************************************************
 100:.\Generated_Source\PSoC5/cyfitter_cfg.c **** * Summary:
 101:.\Generated_Source\PSoC5/cyfitter_cfg.c **** *  If an error is encountered during clock configuration (crystal startup error,
 102:.\Generated_Source\PSoC5/cyfitter_cfg.c **** *  PLL lock error, etc.), the system will end up here.  Unless reimplemented by
 103:.\Generated_Source\PSoC5/cyfitter_cfg.c **** *  the customer, this function will stop in an infinite loop.
 104:.\Generated_Source\PSoC5/cyfitter_cfg.c **** *
 105:.\Generated_Source\PSoC5/cyfitter_cfg.c **** * Parameters:
 106:.\Generated_Source\PSoC5/cyfitter_cfg.c **** *   void
 107:.\Generated_Source\PSoC5/cyfitter_cfg.c **** *
 108:.\Generated_Source\PSoC5/cyfitter_cfg.c **** * Return:
 109:.\Generated_Source\PSoC5/cyfitter_cfg.c **** *   void
 110:.\Generated_Source\PSoC5/cyfitter_cfg.c **** *
 111:.\Generated_Source\PSoC5/cyfitter_cfg.c **** *******************************************************************************/
 112:.\Generated_Source\PSoC5/cyfitter_cfg.c **** CY_CFG_UNUSED
 113:.\Generated_Source\PSoC5/cyfitter_cfg.c **** static void CyClockStartupError(uint8 errorCode);
 114:.\Generated_Source\PSoC5/cyfitter_cfg.c **** CY_CFG_UNUSED
 115:.\Generated_Source\PSoC5/cyfitter_cfg.c **** static void CyClockStartupError(uint8 errorCode)
 116:.\Generated_Source\PSoC5/cyfitter_cfg.c **** {
  26              		.loc 1 116 0
  27              		.cfi_startproc
  28              		@ Volatile: function does not return.
  29              		@ args = 0, pretend = 0, frame = 0
  30              		@ frame_needed = 0, uses_anonymous_args = 0
  31              		@ link register save eliminated.
  32              	.LVL0:
  33              	.L2:
 117:.\Generated_Source\PSoC5/cyfitter_cfg.c ****     /* To remove the compiler warning if errorCode not used.                */
 118:.\Generated_Source\PSoC5/cyfitter_cfg.c ****     errorCode = errorCode;
 119:.\Generated_Source\PSoC5/cyfitter_cfg.c **** 
 120:.\Generated_Source\PSoC5/cyfitter_cfg.c ****     /* `#START CyClockStartupError` */
 121:.\Generated_Source\PSoC5/cyfitter_cfg.c **** 
 122:.\Generated_Source\PSoC5/cyfitter_cfg.c ****     /* If we have a clock startup error (bad MHz crystal, PLL lock, etc.),  */
 123:.\Generated_Source\PSoC5/cyfitter_cfg.c ****     /* we will end up here to allow the customer to implement something to  */
 124:.\Generated_Source\PSoC5/cyfitter_cfg.c ****     /* deal with the clock condition.                                       */
 125:.\Generated_Source\PSoC5/cyfitter_cfg.c **** 
 126:.\Generated_Source\PSoC5/cyfitter_cfg.c ****     /* `#END` */
 127:.\Generated_Source\PSoC5/cyfitter_cfg.c **** 
 128:.\Generated_Source\PSoC5/cyfitter_cfg.c ****     /* If nothing else, stop here since the clocks have not started         */
 129:.\Generated_Source\PSoC5/cyfitter_cfg.c ****     /* correctly.                                                           */
 130:.\Generated_Source\PSoC5/cyfitter_cfg.c ****     while(1) {}
  34              		.loc 1 130 0 discriminator 1
  35 0000 FEE7     		b	.L2
  36              		.cfi_endproc
  37              	.LFE3:
  38              		.size	CyClockStartupError, .-CyClockStartupError
  39 0002 00BF     		.section	.text.cfg_write_bytes32,"ax",%progbits
  40              		.align	2
  41              		.thumb
ARM GAS  C:\Users\PANXIA~1\AppData\Local\Temp\cc4VN01H.s 			page 4


  42              		.thumb_func
  43              		.type	cfg_write_bytes32, %function
  44              	cfg_write_bytes32:
  45              	.LFB4:
 131:.\Generated_Source\PSoC5/cyfitter_cfg.c **** }
 132:.\Generated_Source\PSoC5/cyfitter_cfg.c **** #endif
 133:.\Generated_Source\PSoC5/cyfitter_cfg.c **** 
 134:.\Generated_Source\PSoC5/cyfitter_cfg.c **** #define CY_CFG_BASE_ADDR_COUNT 29u
 135:.\Generated_Source\PSoC5/cyfitter_cfg.c **** CYPACKED typedef struct
 136:.\Generated_Source\PSoC5/cyfitter_cfg.c **** {
 137:.\Generated_Source\PSoC5/cyfitter_cfg.c **** 	uint8 offset;
 138:.\Generated_Source\PSoC5/cyfitter_cfg.c **** 	uint8 value;
 139:.\Generated_Source\PSoC5/cyfitter_cfg.c **** } CYPACKED_ATTR cy_cfg_addrvalue_t;
 140:.\Generated_Source\PSoC5/cyfitter_cfg.c **** 
 141:.\Generated_Source\PSoC5/cyfitter_cfg.c **** #define cy_cfg_addr_table ((const uint32 CYFAR *)(0x48000000u + CYAPP_ECC_OFFSET))
 142:.\Generated_Source\PSoC5/cyfitter_cfg.c **** #define cy_cfg_data_table ((const cy_cfg_addrvalue_t CYFAR *)(0x48000074u + CYAPP_ECC_OFFSET))
 143:.\Generated_Source\PSoC5/cyfitter_cfg.c **** 
 144:.\Generated_Source\PSoC5/cyfitter_cfg.c **** /* IOPINS0_0 Address: CYREG_PRT0_DM0 Size (bytes): 8 */
 145:.\Generated_Source\PSoC5/cyfitter_cfg.c **** #define BS_IOPINS0_0_VAL ((const uint8 CYFAR *)(0x48000608u + CYAPP_ECC_OFFSET))
 146:.\Generated_Source\PSoC5/cyfitter_cfg.c **** 
 147:.\Generated_Source\PSoC5/cyfitter_cfg.c **** /* IOPINS0_7 Address: CYREG_PRT12_DR Size (bytes): 10 */
 148:.\Generated_Source\PSoC5/cyfitter_cfg.c **** #define BS_IOPINS0_7_VAL ((const uint8 CYFAR *)(0x48000610u + CYAPP_ECC_OFFSET))
 149:.\Generated_Source\PSoC5/cyfitter_cfg.c **** 
 150:.\Generated_Source\PSoC5/cyfitter_cfg.c **** /* IOPINS0_8 Address: CYREG_PRT15_DM0 Size (bytes): 8 */
 151:.\Generated_Source\PSoC5/cyfitter_cfg.c **** #define BS_IOPINS0_8_VAL ((const uint8 CYFAR *)(0x4800061Cu + CYAPP_ECC_OFFSET))
 152:.\Generated_Source\PSoC5/cyfitter_cfg.c **** 
 153:.\Generated_Source\PSoC5/cyfitter_cfg.c **** /* IOPINS0_3 Address: CYREG_PRT3_DM0 Size (bytes): 8 */
 154:.\Generated_Source\PSoC5/cyfitter_cfg.c **** #define BS_IOPINS0_3_VAL ((const uint8 CYFAR *)(0x48000624u + CYAPP_ECC_OFFSET))
 155:.\Generated_Source\PSoC5/cyfitter_cfg.c **** 
 156:.\Generated_Source\PSoC5/cyfitter_cfg.c **** /* IOPINS0_4 Address: CYREG_PRT4_DM0 Size (bytes): 8 */
 157:.\Generated_Source\PSoC5/cyfitter_cfg.c **** #define BS_IOPINS0_4_VAL ((const uint8 CYFAR *)(0x4800062Cu + CYAPP_ECC_OFFSET))
 158:.\Generated_Source\PSoC5/cyfitter_cfg.c **** 
 159:.\Generated_Source\PSoC5/cyfitter_cfg.c **** /* IOPINS0_5 Address: CYREG_PRT5_DM0 Size (bytes): 8 */
 160:.\Generated_Source\PSoC5/cyfitter_cfg.c **** #define BS_IOPINS0_5_VAL ((const uint8 CYFAR *)(0x48000634u + CYAPP_ECC_OFFSET))
 161:.\Generated_Source\PSoC5/cyfitter_cfg.c **** 
 162:.\Generated_Source\PSoC5/cyfitter_cfg.c **** /* IOPINS0_6 Address: CYREG_PRT6_DM0 Size (bytes): 8 */
 163:.\Generated_Source\PSoC5/cyfitter_cfg.c **** #define BS_IOPINS0_6_VAL ((const uint8 CYFAR *)(0x4800063Cu + CYAPP_ECC_OFFSET))
 164:.\Generated_Source\PSoC5/cyfitter_cfg.c **** 
 165:.\Generated_Source\PSoC5/cyfitter_cfg.c **** 
 166:.\Generated_Source\PSoC5/cyfitter_cfg.c **** /*******************************************************************************
 167:.\Generated_Source\PSoC5/cyfitter_cfg.c **** * Function Name: cfg_write_bytes32
 168:.\Generated_Source\PSoC5/cyfitter_cfg.c **** ********************************************************************************
 169:.\Generated_Source\PSoC5/cyfitter_cfg.c **** * Summary:
 170:.\Generated_Source\PSoC5/cyfitter_cfg.c **** *  This function is used for setting up the chip configuration areas that
 171:.\Generated_Source\PSoC5/cyfitter_cfg.c **** *  contain relatively sparse data.
 172:.\Generated_Source\PSoC5/cyfitter_cfg.c **** *
 173:.\Generated_Source\PSoC5/cyfitter_cfg.c **** * Parameters:
 174:.\Generated_Source\PSoC5/cyfitter_cfg.c **** *   void
 175:.\Generated_Source\PSoC5/cyfitter_cfg.c **** *
 176:.\Generated_Source\PSoC5/cyfitter_cfg.c **** * Return:
 177:.\Generated_Source\PSoC5/cyfitter_cfg.c **** *   void
 178:.\Generated_Source\PSoC5/cyfitter_cfg.c **** *
 179:.\Generated_Source\PSoC5/cyfitter_cfg.c **** *******************************************************************************/
 180:.\Generated_Source\PSoC5/cyfitter_cfg.c **** static void cfg_write_bytes32(const uint32 addr_table[], const cy_cfg_addrvalue_t data_table[]);
 181:.\Generated_Source\PSoC5/cyfitter_cfg.c **** static void cfg_write_bytes32(const uint32 addr_table[], const cy_cfg_addrvalue_t data_table[])
 182:.\Generated_Source\PSoC5/cyfitter_cfg.c **** {
  46              		.loc 1 182 0
ARM GAS  C:\Users\PANXIA~1\AppData\Local\Temp\cc4VN01H.s 			page 5


  47              		.cfi_startproc
  48              		@ args = 0, pretend = 0, frame = 0
  49              		@ frame_needed = 0, uses_anonymous_args = 0
  50              		@ link register save eliminated.
  51              	.LVL1:
  52 0000 F0B4     		push	{r4, r5, r6, r7}
  53              		.cfi_def_cfa_offset 16
  54              		.cfi_offset 4, -16
  55              		.cfi_offset 5, -12
  56              		.cfi_offset 6, -8
  57              		.cfi_offset 7, -4
  58              	.LVL2:
 183:.\Generated_Source\PSoC5/cyfitter_cfg.c **** 	/* For 32-bit little-endian architectures */
 184:.\Generated_Source\PSoC5/cyfitter_cfg.c **** 	uint32 i, j = 0u;
  59              		.loc 1 184 0
  60 0002 0022     		movs	r2, #0
 185:.\Generated_Source\PSoC5/cyfitter_cfg.c **** 	for (i = 0u; i < CY_CFG_BASE_ADDR_COUNT; i++)
  61              		.loc 1 185 0
  62 0004 1746     		mov	r7, r2
  63 0006 11E0     		b	.L4
  64              	.LVL3:
  65              	.L7:
  66              	.LBB2:
 186:.\Generated_Source\PSoC5/cyfitter_cfg.c **** 	{
 187:.\Generated_Source\PSoC5/cyfitter_cfg.c **** 		uint32 baseAddr = addr_table[i];
  67              		.loc 1 187 0
  68 0008 50F82760 		ldr	r6, [r0, r7, lsl #2]
  69              	.LVL4:
 188:.\Generated_Source\PSoC5/cyfitter_cfg.c **** 		uint8 count = (uint8)baseAddr;
  70              		.loc 1 188 0
  71 000c F3B2     		uxtb	r3, r6
  72              	.LVL5:
 189:.\Generated_Source\PSoC5/cyfitter_cfg.c **** 		baseAddr &= 0xFFFFFF00u;
  73              		.loc 1 189 0
  74 000e 26F0FF06 		bic	r6, r6, #255
  75              	.LVL6:
 190:.\Generated_Source\PSoC5/cyfitter_cfg.c **** 		while (count != 0u)
  76              		.loc 1 190 0
  77 0012 08E0     		b	.L5
  78              	.L6:
 191:.\Generated_Source\PSoC5/cyfitter_cfg.c **** 		{
 192:.\Generated_Source\PSoC5/cyfitter_cfg.c **** 			CY_SET_XTND_REG8((void CYFAR *)(baseAddr + data_table[j].offset), data_table[j].value);
  79              		.loc 1 192 0
  80 0014 01EB4205 		add	r5, r1, r2, lsl #1
  81 0018 11F81240 		ldrb	r4, [r1, r2, lsl #1]	@ zero_extendqisi2
  82 001c 6D78     		ldrb	r5, [r5, #1]	@ zero_extendqisi2
  83 001e A555     		strb	r5, [r4, r6]
 193:.\Generated_Source\PSoC5/cyfitter_cfg.c **** 			j++;
  84              		.loc 1 193 0
  85 0020 0132     		adds	r2, r2, #1
  86              	.LVL7:
 194:.\Generated_Source\PSoC5/cyfitter_cfg.c **** 			count--;
  87              		.loc 1 194 0
  88 0022 013B     		subs	r3, r3, #1
  89              	.LVL8:
  90 0024 DBB2     		uxtb	r3, r3
  91              	.LVL9:
ARM GAS  C:\Users\PANXIA~1\AppData\Local\Temp\cc4VN01H.s 			page 6


  92              	.L5:
 190:.\Generated_Source\PSoC5/cyfitter_cfg.c **** 		{
  93              		.loc 1 190 0
  94 0026 002B     		cmp	r3, #0
  95 0028 F4D1     		bne	.L6
  96              	.LBE2:
 185:.\Generated_Source\PSoC5/cyfitter_cfg.c **** 	{
  97              		.loc 1 185 0 discriminator 2
  98 002a 0137     		adds	r7, r7, #1
  99              	.LVL10:
 100              	.L4:
 185:.\Generated_Source\PSoC5/cyfitter_cfg.c **** 	{
 101              		.loc 1 185 0 is_stmt 0 discriminator 1
 102 002c 1C2F     		cmp	r7, #28
 103 002e EBD9     		bls	.L7
 195:.\Generated_Source\PSoC5/cyfitter_cfg.c **** 		}
 196:.\Generated_Source\PSoC5/cyfitter_cfg.c **** 	}
 197:.\Generated_Source\PSoC5/cyfitter_cfg.c **** }
 104              		.loc 1 197 0 is_stmt 1
 105 0030 F0BC     		pop	{r4, r5, r6, r7}
 106              		.cfi_restore 7
 107              		.cfi_restore 6
 108              		.cfi_restore 5
 109              		.cfi_restore 4
 110              		.cfi_def_cfa_offset 0
 111              	.LVL11:
 112 0032 7047     		bx	lr
 113              		.cfi_endproc
 114              	.LFE4:
 115              		.size	cfg_write_bytes32, .-cfg_write_bytes32
 116              		.section	.text.AnalogSetDefault,"ax",%progbits
 117              		.align	2
 118              		.thumb
 119              		.thumb_func
 120              		.type	AnalogSetDefault, %function
 121              	AnalogSetDefault:
 122              	.LFB6:
 198:.\Generated_Source\PSoC5/cyfitter_cfg.c **** 
 199:.\Generated_Source\PSoC5/cyfitter_cfg.c **** /*******************************************************************************
 200:.\Generated_Source\PSoC5/cyfitter_cfg.c **** * Function Name: ClockSetup
 201:.\Generated_Source\PSoC5/cyfitter_cfg.c **** ********************************************************************************
 202:.\Generated_Source\PSoC5/cyfitter_cfg.c **** *
 203:.\Generated_Source\PSoC5/cyfitter_cfg.c **** * Summary:
 204:.\Generated_Source\PSoC5/cyfitter_cfg.c **** *  Performs the initialization of all of the clocks in the device based on the
 205:.\Generated_Source\PSoC5/cyfitter_cfg.c **** *  settings in the Clock tab of the DWR.  This includes enabling the requested
 206:.\Generated_Source\PSoC5/cyfitter_cfg.c **** *  clocks and setting the necessary dividers to produce the desired frequency. 
 207:.\Generated_Source\PSoC5/cyfitter_cfg.c **** *
 208:.\Generated_Source\PSoC5/cyfitter_cfg.c **** * Parameters:
 209:.\Generated_Source\PSoC5/cyfitter_cfg.c **** *  void
 210:.\Generated_Source\PSoC5/cyfitter_cfg.c **** *
 211:.\Generated_Source\PSoC5/cyfitter_cfg.c **** * Return:
 212:.\Generated_Source\PSoC5/cyfitter_cfg.c **** *  void
 213:.\Generated_Source\PSoC5/cyfitter_cfg.c **** *
 214:.\Generated_Source\PSoC5/cyfitter_cfg.c **** *******************************************************************************/
 215:.\Generated_Source\PSoC5/cyfitter_cfg.c **** static void ClockSetup(void);
 216:.\Generated_Source\PSoC5/cyfitter_cfg.c **** static void ClockSetup(void)
 217:.\Generated_Source\PSoC5/cyfitter_cfg.c **** {
ARM GAS  C:\Users\PANXIA~1\AppData\Local\Temp\cc4VN01H.s 			page 7


 218:.\Generated_Source\PSoC5/cyfitter_cfg.c **** 	uint32 timeout;
 219:.\Generated_Source\PSoC5/cyfitter_cfg.c **** 	uint8 pllLock;
 220:.\Generated_Source\PSoC5/cyfitter_cfg.c **** 
 221:.\Generated_Source\PSoC5/cyfitter_cfg.c **** 
 222:.\Generated_Source\PSoC5/cyfitter_cfg.c **** 	/* Configure Digital Clocks based on settings from Clock DWR */
 223:.\Generated_Source\PSoC5/cyfitter_cfg.c **** 	CY_SET_XTND_REG16((void CYFAR *)(CYREG_CLKDIST_DCFG0_CFG0), 0x0001u);
 224:.\Generated_Source\PSoC5/cyfitter_cfg.c **** 	CY_SET_XTND_REG8((void CYFAR *)(CYREG_CLKDIST_DCFG0_CFG0 + 0x2u), 0x1Au);
 225:.\Generated_Source\PSoC5/cyfitter_cfg.c **** 	CY_SET_XTND_REG16((void CYFAR *)(CYREG_CLKDIST_DCFG1_CFG0), 0x0041u);
 226:.\Generated_Source\PSoC5/cyfitter_cfg.c **** 	CY_SET_XTND_REG8((void CYFAR *)(CYREG_CLKDIST_DCFG1_CFG0 + 0x2u), 0x18u);
 227:.\Generated_Source\PSoC5/cyfitter_cfg.c **** 	CY_SET_XTND_REG16((void CYFAR *)(CYREG_CLKDIST_DCFG2_CFG0), 0x0047u);
 228:.\Generated_Source\PSoC5/cyfitter_cfg.c **** 	CY_SET_XTND_REG8((void CYFAR *)(CYREG_CLKDIST_DCFG2_CFG0 + 0x2u), 0x18u);
 229:.\Generated_Source\PSoC5/cyfitter_cfg.c **** 
 230:.\Generated_Source\PSoC5/cyfitter_cfg.c **** 	/* Configure ILO based on settings from Clock DWR */
 231:.\Generated_Source\PSoC5/cyfitter_cfg.c **** 	CY_SET_XTND_REG8((void CYFAR *)(CYREG_SLOWCLK_ILO_CR0), 0x02u);
 232:.\Generated_Source\PSoC5/cyfitter_cfg.c **** 	CY_SET_XTND_REG8((void CYFAR *)(CYREG_CLKDIST_CR), 0x08u);
 233:.\Generated_Source\PSoC5/cyfitter_cfg.c **** 
 234:.\Generated_Source\PSoC5/cyfitter_cfg.c **** 	/* Configure XTAL based on settings from Clock DWR */
 235:.\Generated_Source\PSoC5/cyfitter_cfg.c **** 	CY_SET_XTND_REG16((void CYFAR *)(CYREG_FASTCLK_XMHZ_CFG0), 0x3313u);
 236:.\Generated_Source\PSoC5/cyfitter_cfg.c **** 	CY_SET_XTND_REG8((void CYFAR *)(CYREG_FASTCLK_XMHZ_CSR), 0x05u);
 237:.\Generated_Source\PSoC5/cyfitter_cfg.c **** 	/* Wait up to 130000us for the XTAL to lock */
 238:.\Generated_Source\PSoC5/cyfitter_cfg.c **** 	CY_GET_XTND_REG8((void CYFAR *)CYREG_FASTCLK_XMHZ_CSR);
 239:.\Generated_Source\PSoC5/cyfitter_cfg.c **** 	for (timeout = 130000u / 10u; (timeout > 0u) && ((CY_GET_XTND_REG8((void CYFAR *)CYREG_FASTCLK_XMH
 240:.\Generated_Source\PSoC5/cyfitter_cfg.c **** 	{ 
 241:.\Generated_Source\PSoC5/cyfitter_cfg.c **** 		
 242:.\Generated_Source\PSoC5/cyfitter_cfg.c **** 		CyDelayCycles(10u * 48u); /* Delay 10us based on 48MHz clock */
 243:.\Generated_Source\PSoC5/cyfitter_cfg.c **** 	}
 244:.\Generated_Source\PSoC5/cyfitter_cfg.c **** 	if (timeout == 0u)
 245:.\Generated_Source\PSoC5/cyfitter_cfg.c **** 	{
 246:.\Generated_Source\PSoC5/cyfitter_cfg.c **** 		CyClockStartupError(CYCLOCKSTART_XTAL_ERROR);
 247:.\Generated_Source\PSoC5/cyfitter_cfg.c **** 	}
 248:.\Generated_Source\PSoC5/cyfitter_cfg.c **** 	CY_SET_XTND_REG8((void CYFAR *)(CYREG_CLKDIST_CR), 0x48u);
 249:.\Generated_Source\PSoC5/cyfitter_cfg.c **** 
 250:.\Generated_Source\PSoC5/cyfitter_cfg.c **** 	/* Configure IMO based on settings from Clock DWR */
 251:.\Generated_Source\PSoC5/cyfitter_cfg.c **** 	CY_SET_XTND_REG8((void CYFAR *)(CYREG_FASTCLK_IMO_CR), 0x20u);
 252:.\Generated_Source\PSoC5/cyfitter_cfg.c **** 
 253:.\Generated_Source\PSoC5/cyfitter_cfg.c **** 	/* Configure PLL based on settings from Clock DWR */
 254:.\Generated_Source\PSoC5/cyfitter_cfg.c **** 	CY_SET_XTND_REG16((void CYFAR *)(CYREG_FASTCLK_PLL_P), 0x0B21u);
 255:.\Generated_Source\PSoC5/cyfitter_cfg.c **** 	CY_SET_XTND_REG16((void CYFAR *)(CYREG_FASTCLK_PLL_CFG0), 0x1251u);
 256:.\Generated_Source\PSoC5/cyfitter_cfg.c **** 	/* Wait up to 250us for the PLL to lock */
 257:.\Generated_Source\PSoC5/cyfitter_cfg.c **** 	pllLock = 0u;
 258:.\Generated_Source\PSoC5/cyfitter_cfg.c **** 	for (timeout = 250u / 10u; (timeout > 0u) && (pllLock != 0x03u); timeout--)
 259:.\Generated_Source\PSoC5/cyfitter_cfg.c **** 	{ 
 260:.\Generated_Source\PSoC5/cyfitter_cfg.c **** 		pllLock = 0x03u & ((uint8)((uint8)pllLock << 1) | ((CY_GET_XTND_REG8((void CYFAR *)CYREG_FASTCLK_
 261:.\Generated_Source\PSoC5/cyfitter_cfg.c **** 		CyDelayCycles(10u * 48u); /* Delay 10us based on 48MHz clock */
 262:.\Generated_Source\PSoC5/cyfitter_cfg.c **** 	}
 263:.\Generated_Source\PSoC5/cyfitter_cfg.c **** 	/* If we ran out of time the PLL didn't lock so go to the error function */
 264:.\Generated_Source\PSoC5/cyfitter_cfg.c **** 	if (timeout == 0u)
 265:.\Generated_Source\PSoC5/cyfitter_cfg.c **** 	{
 266:.\Generated_Source\PSoC5/cyfitter_cfg.c **** 		CyClockStartupError(CYCLOCKSTART_PLL_ERROR);
 267:.\Generated_Source\PSoC5/cyfitter_cfg.c **** 	}
 268:.\Generated_Source\PSoC5/cyfitter_cfg.c **** 
 269:.\Generated_Source\PSoC5/cyfitter_cfg.c **** 	/* Configure Bus/Master Clock based on settings from Clock DWR */
 270:.\Generated_Source\PSoC5/cyfitter_cfg.c **** 	CY_SET_XTND_REG16((void CYFAR *)(CYREG_CLKDIST_MSTR0), 0x0100u);
 271:.\Generated_Source\PSoC5/cyfitter_cfg.c **** 	CY_SET_XTND_REG8((void CYFAR *)(CYREG_CLKDIST_MSTR0), 0x07u);
 272:.\Generated_Source\PSoC5/cyfitter_cfg.c **** 	CY_SET_XTND_REG8((void CYFAR *)(CYREG_CLKDIST_BCFG0), 0x00u);
 273:.\Generated_Source\PSoC5/cyfitter_cfg.c **** 	CY_SET_XTND_REG8((void CYFAR *)(CYREG_CLKDIST_BCFG2), 0x48u);
 274:.\Generated_Source\PSoC5/cyfitter_cfg.c **** 	CY_SET_XTND_REG8((void CYFAR *)(CYREG_CLKDIST_MSTR0), 0x00u);
ARM GAS  C:\Users\PANXIA~1\AppData\Local\Temp\cc4VN01H.s 			page 8


 275:.\Generated_Source\PSoC5/cyfitter_cfg.c **** 	CY_SET_XTND_REG8((void CYFAR *)(CYREG_CLKDIST_LD), 0x02u);
 276:.\Generated_Source\PSoC5/cyfitter_cfg.c **** 
 277:.\Generated_Source\PSoC5/cyfitter_cfg.c **** 	CY_SET_XTND_REG8((void CYFAR *)(CYREG_PM_ACT_CFG2), ((CY_GET_XTND_REG8((void CYFAR *)CYREG_PM_ACT_
 278:.\Generated_Source\PSoC5/cyfitter_cfg.c **** }
 279:.\Generated_Source\PSoC5/cyfitter_cfg.c **** 
 280:.\Generated_Source\PSoC5/cyfitter_cfg.c **** 
 281:.\Generated_Source\PSoC5/cyfitter_cfg.c **** /* Analog API Functions */
 282:.\Generated_Source\PSoC5/cyfitter_cfg.c **** 
 283:.\Generated_Source\PSoC5/cyfitter_cfg.c **** 
 284:.\Generated_Source\PSoC5/cyfitter_cfg.c **** /*******************************************************************************
 285:.\Generated_Source\PSoC5/cyfitter_cfg.c **** * Function Name: AnalogSetDefault
 286:.\Generated_Source\PSoC5/cyfitter_cfg.c **** ********************************************************************************
 287:.\Generated_Source\PSoC5/cyfitter_cfg.c **** *
 288:.\Generated_Source\PSoC5/cyfitter_cfg.c **** * Summary:
 289:.\Generated_Source\PSoC5/cyfitter_cfg.c **** *  Sets up the analog portions of the chip to default values based on chip
 290:.\Generated_Source\PSoC5/cyfitter_cfg.c **** *  configuration options from the project.
 291:.\Generated_Source\PSoC5/cyfitter_cfg.c **** *
 292:.\Generated_Source\PSoC5/cyfitter_cfg.c **** * Parameters:
 293:.\Generated_Source\PSoC5/cyfitter_cfg.c **** *  void
 294:.\Generated_Source\PSoC5/cyfitter_cfg.c **** *
 295:.\Generated_Source\PSoC5/cyfitter_cfg.c **** * Return:
 296:.\Generated_Source\PSoC5/cyfitter_cfg.c **** *  void
 297:.\Generated_Source\PSoC5/cyfitter_cfg.c **** *
 298:.\Generated_Source\PSoC5/cyfitter_cfg.c **** *******************************************************************************/
 299:.\Generated_Source\PSoC5/cyfitter_cfg.c **** static void AnalogSetDefault(void);
 300:.\Generated_Source\PSoC5/cyfitter_cfg.c **** static void AnalogSetDefault(void)
 301:.\Generated_Source\PSoC5/cyfitter_cfg.c **** {
 123              		.loc 1 301 0
 124              		.cfi_startproc
 125              		@ args = 0, pretend = 0, frame = 0
 126              		@ frame_needed = 0, uses_anonymous_args = 0
 127              		@ link register save eliminated.
 302:.\Generated_Source\PSoC5/cyfitter_cfg.c **** 	uint8 bg_xover_inl_trim = CY_GET_XTND_REG8((void CYFAR *)(CYREG_FLSHID_MFG_CFG_BG_XOVER_INL_TRIM +
 128              		.loc 1 302 0
 129 0000 064B     		ldr	r3, .L10
 130 0002 1B78     		ldrb	r3, [r3]	@ zero_extendqisi2
 131 0004 DBB2     		uxtb	r3, r3
 132              	.LVL12:
 303:.\Generated_Source\PSoC5/cyfitter_cfg.c **** 	CY_SET_XTND_REG8((void CYFAR *)(CYREG_BG_DFT0), (bg_xover_inl_trim & 0x07u));
 133              		.loc 1 303 0
 134 0006 03F00701 		and	r1, r3, #7
 135 000a 054A     		ldr	r2, .L10+4
 136 000c 1170     		strb	r1, [r2]
 304:.\Generated_Source\PSoC5/cyfitter_cfg.c **** 	CY_SET_XTND_REG8((void CYFAR *)(CYREG_BG_DFT1), ((bg_xover_inl_trim >> 4) & 0x0Fu));
 137              		.loc 1 304 0
 138 000e 1B09     		lsrs	r3, r3, #4
 139              	.LVL13:
 140 0010 0132     		adds	r2, r2, #1
 141 0012 1370     		strb	r3, [r2]
 305:.\Generated_Source\PSoC5/cyfitter_cfg.c **** 	CY_SET_XTND_REG8((void CYFAR *)CYREG_PUMP_CR0, 0x44u);
 142              		.loc 1 305 0
 143 0014 4422     		movs	r2, #68
 144 0016 034B     		ldr	r3, .L10+8
 145 0018 1A70     		strb	r2, [r3]
 146 001a 7047     		bx	lr
 147              	.L11:
 148              		.align	2
ARM GAS  C:\Users\PANXIA~1\AppData\Local\Temp\cc4VN01H.s 			page 9


 149              	.L10:
 150 001c CF010049 		.word	1224737231
 151 0020 6E580040 		.word	1073764462
 152 0024 76580040 		.word	1073764470
 153              		.cfi_endproc
 154              	.LFE6:
 155              		.size	AnalogSetDefault, .-AnalogSetDefault
 156              		.section	.text.CYMEMZERO,"ax",%progbits
 157              		.align	2
 158              		.thumb
 159              		.thumb_func
 160              		.type	CYMEMZERO, %function
 161              	CYMEMZERO:
 162              	.LFB0:
  70:.\Generated_Source\PSoC5/cyfitter_cfg.c **** 	(void)memset(s, 0, n);
 163              		.loc 1 70 0
 164              		.cfi_startproc
 165              		@ args = 0, pretend = 0, frame = 0
 166              		@ frame_needed = 0, uses_anonymous_args = 0
 167              	.LVL14:
 168 0000 08B5     		push	{r3, lr}
 169              		.cfi_def_cfa_offset 8
 170              		.cfi_offset 3, -8
 171              		.cfi_offset 14, -4
 172 0002 0A46     		mov	r2, r1
  71:.\Generated_Source\PSoC5/cyfitter_cfg.c **** }
 173              		.loc 1 71 0
 174 0004 0021     		movs	r1, #0
 175              	.LVL15:
 176 0006 FFF7FEFF 		bl	memset
 177              	.LVL16:
 178 000a 08BD     		pop	{r3, pc}
 179              		.cfi_endproc
 180              	.LFE0:
 181              		.size	CYMEMZERO, .-CYMEMZERO
 182              		.section	.text.ClockSetup,"ax",%progbits
 183              		.align	2
 184              		.thumb
 185              		.thumb_func
 186              		.type	ClockSetup, %function
 187              	ClockSetup:
 188              	.LFB5:
 217:.\Generated_Source\PSoC5/cyfitter_cfg.c **** 	uint32 timeout;
 189              		.loc 1 217 0
 190              		.cfi_startproc
 191              		@ args = 0, pretend = 0, frame = 0
 192              		@ frame_needed = 0, uses_anonymous_args = 0
 193 0000 38B5     		push	{r3, r4, r5, lr}
 194              		.cfi_def_cfa_offset 16
 195              		.cfi_offset 3, -16
 196              		.cfi_offset 4, -12
 197              		.cfi_offset 5, -8
 198              		.cfi_offset 14, -4
 223:.\Generated_Source\PSoC5/cyfitter_cfg.c **** 	CY_SET_XTND_REG8((void CYFAR *)(CYREG_CLKDIST_DCFG0_CFG0 + 0x2u), 0x1Au);
 199              		.loc 1 223 0
 200 0002 0122     		movs	r2, #1
 201 0004 374B     		ldr	r3, .L24
ARM GAS  C:\Users\PANXIA~1\AppData\Local\Temp\cc4VN01H.s 			page 10


 202 0006 1A80     		strh	r2, [r3]	@ movhi
 224:.\Generated_Source\PSoC5/cyfitter_cfg.c **** 	CY_SET_XTND_REG16((void CYFAR *)(CYREG_CLKDIST_DCFG1_CFG0), 0x0041u);
 203              		.loc 1 224 0
 204 0008 1A22     		movs	r2, #26
 205 000a 0233     		adds	r3, r3, #2
 206 000c 1A70     		strb	r2, [r3]
 225:.\Generated_Source\PSoC5/cyfitter_cfg.c **** 	CY_SET_XTND_REG8((void CYFAR *)(CYREG_CLKDIST_DCFG1_CFG0 + 0x2u), 0x18u);
 207              		.loc 1 225 0
 208 000e 4122     		movs	r2, #65
 209 0010 0233     		adds	r3, r3, #2
 210 0012 1A80     		strh	r2, [r3]	@ movhi
 226:.\Generated_Source\PSoC5/cyfitter_cfg.c **** 	CY_SET_XTND_REG16((void CYFAR *)(CYREG_CLKDIST_DCFG2_CFG0), 0x0047u);
 211              		.loc 1 226 0
 212 0014 1823     		movs	r3, #24
 213 0016 344A     		ldr	r2, .L24+4
 214 0018 1370     		strb	r3, [r2]
 227:.\Generated_Source\PSoC5/cyfitter_cfg.c **** 	CY_SET_XTND_REG8((void CYFAR *)(CYREG_CLKDIST_DCFG2_CFG0 + 0x2u), 0x18u);
 215              		.loc 1 227 0
 216 001a 4721     		movs	r1, #71
 217 001c 0232     		adds	r2, r2, #2
 218 001e 1180     		strh	r1, [r2]	@ movhi
 228:.\Generated_Source\PSoC5/cyfitter_cfg.c **** 
 219              		.loc 1 228 0
 220 0020 0232     		adds	r2, r2, #2
 221 0022 1370     		strb	r3, [r2]
 231:.\Generated_Source\PSoC5/cyfitter_cfg.c **** 	CY_SET_XTND_REG8((void CYFAR *)(CYREG_CLKDIST_CR), 0x08u);
 222              		.loc 1 231 0
 223 0024 0222     		movs	r2, #2
 224 0026 314B     		ldr	r3, .L24+8
 225 0028 1A70     		strb	r2, [r3]
 232:.\Generated_Source\PSoC5/cyfitter_cfg.c **** 
 226              		.loc 1 232 0
 227 002a 0822     		movs	r2, #8
 228 002c 4FF04023 		mov	r3, #1073758208
 229 0030 1A70     		strb	r2, [r3]
 235:.\Generated_Source\PSoC5/cyfitter_cfg.c **** 	CY_SET_XTND_REG8((void CYFAR *)(CYREG_FASTCLK_XMHZ_CSR), 0x05u);
 230              		.loc 1 235 0
 231 0032 43F21332 		movw	r2, #13075
 232 0036 03F21223 		addw	r3, r3, #530
 233 003a 1A80     		strh	r2, [r3]	@ movhi
 236:.\Generated_Source\PSoC5/cyfitter_cfg.c **** 	/* Wait up to 130000us for the XTAL to lock */
 234              		.loc 1 236 0
 235 003c 023B     		subs	r3, r3, #2
 236 003e 0522     		movs	r2, #5
 237 0040 1A70     		strb	r2, [r3]
 238:.\Generated_Source\PSoC5/cyfitter_cfg.c **** 	for (timeout = 130000u / 10u; (timeout > 0u) && ((CY_GET_XTND_REG8((void CYFAR *)CYREG_FASTCLK_XMH
 238              		.loc 1 238 0
 239 0042 1B78     		ldrb	r3, [r3]	@ zero_extendqisi2
 240              	.LVL17:
 239:.\Generated_Source\PSoC5/cyfitter_cfg.c **** 	{ 
 241              		.loc 1 239 0
 242 0044 43F2C824 		movw	r4, #13000
 243 0048 04E0     		b	.L15
 244              	.LVL18:
 245              	.L17:
 242:.\Generated_Source\PSoC5/cyfitter_cfg.c **** 	}
 246              		.loc 1 242 0 discriminator 4
ARM GAS  C:\Users\PANXIA~1\AppData\Local\Temp\cc4VN01H.s 			page 11


 247 004a 4FF4F070 		mov	r0, #480
 248 004e FFF7FEFF 		bl	CyDelayCycles
 249              	.LVL19:
 239:.\Generated_Source\PSoC5/cyfitter_cfg.c **** 	{ 
 250              		.loc 1 239 0 discriminator 4
 251 0052 013C     		subs	r4, r4, #1
 252              	.LVL20:
 253              	.L15:
 239:.\Generated_Source\PSoC5/cyfitter_cfg.c **** 	{ 
 254              		.loc 1 239 0 is_stmt 0 discriminator 1
 255 0054 24B1     		cbz	r4, .L16
 239:.\Generated_Source\PSoC5/cyfitter_cfg.c **** 	{ 
 256              		.loc 1 239 0 discriminator 3
 257 0056 264B     		ldr	r3, .L24+12
 258 0058 1B78     		ldrb	r3, [r3]	@ zero_extendqisi2
 259 005a 13F0800F 		tst	r3, #128
 260 005e F4D1     		bne	.L17
 261              	.L16:
 244:.\Generated_Source\PSoC5/cyfitter_cfg.c **** 	{
 262              		.loc 1 244 0 is_stmt 1
 263 0060 14B9     		cbnz	r4, .L18
 246:.\Generated_Source\PSoC5/cyfitter_cfg.c **** 	}
 264              		.loc 1 246 0
 265 0062 0120     		movs	r0, #1
 266 0064 FFF7FEFF 		bl	CyClockStartupError
 267              	.LVL21:
 268              	.L18:
 248:.\Generated_Source\PSoC5/cyfitter_cfg.c **** 
 269              		.loc 1 248 0
 270 0068 4822     		movs	r2, #72
 271 006a 4FF04023 		mov	r3, #1073758208
 272 006e 1A70     		strb	r2, [r3]
 251:.\Generated_Source\PSoC5/cyfitter_cfg.c **** 
 273              		.loc 1 251 0
 274 0070 2022     		movs	r2, #32
 275 0072 03F50073 		add	r3, r3, #512
 276 0076 1A70     		strb	r2, [r3]
 254:.\Generated_Source\PSoC5/cyfitter_cfg.c **** 	CY_SET_XTND_REG16((void CYFAR *)(CYREG_FASTCLK_PLL_CFG0), 0x1251u);
 277              		.loc 1 254 0
 278 0078 40F62132 		movw	r2, #2849
 279 007c 2233     		adds	r3, r3, #34
 280 007e 1A80     		strh	r2, [r3]	@ movhi
 255:.\Generated_Source\PSoC5/cyfitter_cfg.c **** 	/* Wait up to 250us for the PLL to lock */
 281              		.loc 1 255 0
 282 0080 41F25122 		movw	r2, #4689
 283 0084 023B     		subs	r3, r3, #2
 284 0086 1A80     		strh	r2, [r3]	@ movhi
 285              	.LVL22:
 257:.\Generated_Source\PSoC5/cyfitter_cfg.c **** 	for (timeout = 250u / 10u; (timeout > 0u) && (pllLock != 0x03u); timeout--)
 286              		.loc 1 257 0
 287 0088 0024     		movs	r4, #0
 258:.\Generated_Source\PSoC5/cyfitter_cfg.c **** 	{ 
 288              		.loc 1 258 0
 289 008a 1925     		movs	r5, #25
 290 008c 0CE0     		b	.L19
 291              	.LVL23:
 292              	.L21:
ARM GAS  C:\Users\PANXIA~1\AppData\Local\Temp\cc4VN01H.s 			page 12


 260:.\Generated_Source\PSoC5/cyfitter_cfg.c **** 		CyDelayCycles(10u * 48u); /* Delay 10us based on 48MHz clock */
 293              		.loc 1 260 0 discriminator 4
 294 008e 194B     		ldr	r3, .L24+16
 295 0090 1B78     		ldrb	r3, [r3]	@ zero_extendqisi2
 296 0092 03F00103 		and	r3, r3, #1
 297 0096 43EA4404 		orr	r4, r3, r4, lsl #1
 298              	.LVL24:
 299 009a 04F00304 		and	r4, r4, #3
 300              	.LVL25:
 261:.\Generated_Source\PSoC5/cyfitter_cfg.c **** 	}
 301              		.loc 1 261 0 discriminator 4
 302 009e 4FF4F070 		mov	r0, #480
 303 00a2 FFF7FEFF 		bl	CyDelayCycles
 304              	.LVL26:
 258:.\Generated_Source\PSoC5/cyfitter_cfg.c **** 	{ 
 305              		.loc 1 258 0 discriminator 4
 306 00a6 013D     		subs	r5, r5, #1
 307              	.LVL27:
 308              	.L19:
 258:.\Generated_Source\PSoC5/cyfitter_cfg.c **** 	{ 
 309              		.loc 1 258 0 is_stmt 0 discriminator 1
 310 00a8 0DB1     		cbz	r5, .L20
 258:.\Generated_Source\PSoC5/cyfitter_cfg.c **** 	{ 
 311              		.loc 1 258 0 discriminator 3
 312 00aa 032C     		cmp	r4, #3
 313 00ac EFD1     		bne	.L21
 314              	.L20:
 264:.\Generated_Source\PSoC5/cyfitter_cfg.c **** 	{
 315              		.loc 1 264 0 is_stmt 1
 316 00ae 15B9     		cbnz	r5, .L22
 266:.\Generated_Source\PSoC5/cyfitter_cfg.c **** 	}
 317              		.loc 1 266 0
 318 00b0 0320     		movs	r0, #3
 319 00b2 FFF7FEFF 		bl	CyClockStartupError
 320              	.LVL28:
 321              	.L22:
 270:.\Generated_Source\PSoC5/cyfitter_cfg.c **** 	CY_SET_XTND_REG8((void CYFAR *)(CYREG_CLKDIST_MSTR0), 0x07u);
 322              		.loc 1 270 0
 323 00b6 104B     		ldr	r3, .L24+20
 324 00b8 4FF48072 		mov	r2, #256
 325 00bc 1A80     		strh	r2, [r3]	@ movhi
 271:.\Generated_Source\PSoC5/cyfitter_cfg.c **** 	CY_SET_XTND_REG8((void CYFAR *)(CYREG_CLKDIST_BCFG0), 0x00u);
 326              		.loc 1 271 0
 327 00be 0722     		movs	r2, #7
 328 00c0 1A70     		strb	r2, [r3]
 272:.\Generated_Source\PSoC5/cyfitter_cfg.c **** 	CY_SET_XTND_REG8((void CYFAR *)(CYREG_CLKDIST_BCFG2), 0x48u);
 329              		.loc 1 272 0
 330 00c2 0022     		movs	r2, #0
 331 00c4 0D49     		ldr	r1, .L24+24
 332 00c6 0A70     		strb	r2, [r1]
 273:.\Generated_Source\PSoC5/cyfitter_cfg.c **** 	CY_SET_XTND_REG8((void CYFAR *)(CYREG_CLKDIST_MSTR0), 0x00u);
 333              		.loc 1 273 0
 334 00c8 4820     		movs	r0, #72
 335 00ca 0231     		adds	r1, r1, #2
 336 00cc 0870     		strb	r0, [r1]
 274:.\Generated_Source\PSoC5/cyfitter_cfg.c **** 	CY_SET_XTND_REG8((void CYFAR *)(CYREG_CLKDIST_LD), 0x02u);
 337              		.loc 1 274 0
ARM GAS  C:\Users\PANXIA~1\AppData\Local\Temp\cc4VN01H.s 			page 13


 338 00ce 1A70     		strb	r2, [r3]
 275:.\Generated_Source\PSoC5/cyfitter_cfg.c **** 
 339              		.loc 1 275 0
 340 00d0 0222     		movs	r2, #2
 341 00d2 033B     		subs	r3, r3, #3
 342 00d4 1A70     		strb	r2, [r3]
 277:.\Generated_Source\PSoC5/cyfitter_cfg.c **** }
 343              		.loc 1 277 0
 344 00d6 0A4A     		ldr	r2, .L24+28
 345 00d8 1378     		ldrb	r3, [r2]	@ zero_extendqisi2
 346 00da 43F00703 		orr	r3, r3, #7
 347 00de 1370     		strb	r3, [r2]
 348 00e0 38BD     		pop	{r3, r4, r5, pc}
 349              	.LVL29:
 350              	.L25:
 351 00e2 00BF     		.align	2
 352              	.L24:
 353 00e4 80400040 		.word	1073758336
 354 00e8 86400040 		.word	1073758342
 355 00ec 00430040 		.word	1073758976
 356 00f0 10420040 		.word	1073758736
 357 00f4 25420040 		.word	1073758757
 358 00f8 04400040 		.word	1073758212
 359 00fc 06400040 		.word	1073758214
 360 0100 A2430040 		.word	1073759138
 361              		.cfi_endproc
 362              	.LFE5:
 363              		.size	ClockSetup, .-ClockSetup
 364              		.section	.text.CYCONFIGCPY,"ax",%progbits
 365              		.align	2
 366              		.thumb
 367              		.thumb_func
 368              		.type	CYCONFIGCPY, %function
 369              	CYCONFIGCPY:
 370              	.LFB1:
  77:.\Generated_Source\PSoC5/cyfitter_cfg.c **** 	(void)memcpy(dest, src, n);
 371              		.loc 1 77 0
 372              		.cfi_startproc
 373              		@ args = 0, pretend = 0, frame = 0
 374              		@ frame_needed = 0, uses_anonymous_args = 0
 375              	.LVL30:
 376 0000 08B5     		push	{r3, lr}
 377              		.cfi_def_cfa_offset 8
 378              		.cfi_offset 3, -8
 379              		.cfi_offset 14, -4
  78:.\Generated_Source\PSoC5/cyfitter_cfg.c **** }
 380              		.loc 1 78 0
 381 0002 FFF7FEFF 		bl	memcpy
 382              	.LVL31:
 383 0006 08BD     		pop	{r3, pc}
 384              		.cfi_endproc
 385              	.LFE1:
 386              		.size	CYCONFIGCPY, .-CYCONFIGCPY
 387              		.section	.text.SetAnalogRoutingPumps,"ax",%progbits
 388              		.align	2
 389              		.global	SetAnalogRoutingPumps
 390              		.thumb
ARM GAS  C:\Users\PANXIA~1\AppData\Local\Temp\cc4VN01H.s 			page 14


 391              		.thumb_func
 392              		.type	SetAnalogRoutingPumps, %function
 393              	SetAnalogRoutingPumps:
 394              	.LFB7:
 306:.\Generated_Source\PSoC5/cyfitter_cfg.c **** }
 307:.\Generated_Source\PSoC5/cyfitter_cfg.c **** 
 308:.\Generated_Source\PSoC5/cyfitter_cfg.c **** 
 309:.\Generated_Source\PSoC5/cyfitter_cfg.c **** /*******************************************************************************
 310:.\Generated_Source\PSoC5/cyfitter_cfg.c **** * Function Name: SetAnalogRoutingPumps
 311:.\Generated_Source\PSoC5/cyfitter_cfg.c **** ********************************************************************************
 312:.\Generated_Source\PSoC5/cyfitter_cfg.c **** *
 313:.\Generated_Source\PSoC5/cyfitter_cfg.c **** * Summary:
 314:.\Generated_Source\PSoC5/cyfitter_cfg.c **** * Enables or disables the analog pumps feeding analog routing switches.
 315:.\Generated_Source\PSoC5/cyfitter_cfg.c **** * Intended to be called at startup, based on the Vdda system configuration;
 316:.\Generated_Source\PSoC5/cyfitter_cfg.c **** * may be called during operation when the user informs us that the Vdda voltage
 317:.\Generated_Source\PSoC5/cyfitter_cfg.c **** * crossed the pump threshold.
 318:.\Generated_Source\PSoC5/cyfitter_cfg.c **** *
 319:.\Generated_Source\PSoC5/cyfitter_cfg.c **** * Parameters:
 320:.\Generated_Source\PSoC5/cyfitter_cfg.c **** *  enabled - 1 to enable the pumps, 0 to disable the pumps
 321:.\Generated_Source\PSoC5/cyfitter_cfg.c **** *
 322:.\Generated_Source\PSoC5/cyfitter_cfg.c **** * Return:
 323:.\Generated_Source\PSoC5/cyfitter_cfg.c **** *  void
 324:.\Generated_Source\PSoC5/cyfitter_cfg.c **** *
 325:.\Generated_Source\PSoC5/cyfitter_cfg.c **** *******************************************************************************/
 326:.\Generated_Source\PSoC5/cyfitter_cfg.c **** void SetAnalogRoutingPumps(uint8 enabled)
 327:.\Generated_Source\PSoC5/cyfitter_cfg.c **** {
 395              		.loc 1 327 0
 396              		.cfi_startproc
 397              		@ args = 0, pretend = 0, frame = 0
 398              		@ frame_needed = 0, uses_anonymous_args = 0
 399              		@ link register save eliminated.
 400              	.LVL32:
 328:.\Generated_Source\PSoC5/cyfitter_cfg.c **** 	uint8 regValue = CY_GET_XTND_REG8((void CYFAR *)CYREG_PUMP_CR0);
 401              		.loc 1 328 0
 402 0000 024A     		ldr	r2, .L29
 403 0002 1378     		ldrb	r3, [r2]	@ zero_extendqisi2
 404 0004 DBB2     		uxtb	r3, r3
 405              	.LVL33:
 329:.\Generated_Source\PSoC5/cyfitter_cfg.c **** 	if (enabled != 0u)
 330:.\Generated_Source\PSoC5/cyfitter_cfg.c **** 	{
 331:.\Generated_Source\PSoC5/cyfitter_cfg.c **** 		regValue |= 0x00u;
 332:.\Generated_Source\PSoC5/cyfitter_cfg.c **** 	}
 333:.\Generated_Source\PSoC5/cyfitter_cfg.c **** 	else
 334:.\Generated_Source\PSoC5/cyfitter_cfg.c **** 	{
 335:.\Generated_Source\PSoC5/cyfitter_cfg.c **** 		regValue &= (uint8)~0x00u;
 336:.\Generated_Source\PSoC5/cyfitter_cfg.c **** 	}
 337:.\Generated_Source\PSoC5/cyfitter_cfg.c **** 	CY_SET_XTND_REG8((void CYFAR *)CYREG_PUMP_CR0, regValue);
 406              		.loc 1 337 0
 407 0006 1370     		strb	r3, [r2]
 408 0008 7047     		bx	lr
 409              	.L30:
 410 000a 00BF     		.align	2
 411              	.L29:
 412 000c 76580040 		.word	1073764470
 413              		.cfi_endproc
 414              	.LFE7:
 415              		.size	SetAnalogRoutingPumps, .-SetAnalogRoutingPumps
ARM GAS  C:\Users\PANXIA~1\AppData\Local\Temp\cc4VN01H.s 			page 15


 416              		.section	.text.cyfitter_cfg,"ax",%progbits
 417              		.align	2
 418              		.global	cyfitter_cfg
 419              		.thumb
 420              		.thumb_func
 421              		.type	cyfitter_cfg, %function
 422              	cyfitter_cfg:
 423              	.LFB8:
 338:.\Generated_Source\PSoC5/cyfitter_cfg.c **** }
 339:.\Generated_Source\PSoC5/cyfitter_cfg.c **** 
 340:.\Generated_Source\PSoC5/cyfitter_cfg.c **** #define CY_AMUX_UNUSED CYREG_BOOST_SR
 341:.\Generated_Source\PSoC5/cyfitter_cfg.c **** 
 342:.\Generated_Source\PSoC5/cyfitter_cfg.c **** 
 343:.\Generated_Source\PSoC5/cyfitter_cfg.c **** /*******************************************************************************
 344:.\Generated_Source\PSoC5/cyfitter_cfg.c **** * Function Name: cyfitter_cfg
 345:.\Generated_Source\PSoC5/cyfitter_cfg.c **** ********************************************************************************
 346:.\Generated_Source\PSoC5/cyfitter_cfg.c **** * Summary:
 347:.\Generated_Source\PSoC5/cyfitter_cfg.c **** *  This function is called by the start-up code for the selected device. It
 348:.\Generated_Source\PSoC5/cyfitter_cfg.c **** *  performs all of the necessary device configuration based on the design
 349:.\Generated_Source\PSoC5/cyfitter_cfg.c **** *  settings.  This includes settings from the Design Wide Resources (DWR) such
 350:.\Generated_Source\PSoC5/cyfitter_cfg.c **** *  as Clocks and Pins as well as any component configuration that is necessary.
 351:.\Generated_Source\PSoC5/cyfitter_cfg.c **** *
 352:.\Generated_Source\PSoC5/cyfitter_cfg.c **** * Parameters:  
 353:.\Generated_Source\PSoC5/cyfitter_cfg.c **** *   void
 354:.\Generated_Source\PSoC5/cyfitter_cfg.c **** *
 355:.\Generated_Source\PSoC5/cyfitter_cfg.c **** * Return:
 356:.\Generated_Source\PSoC5/cyfitter_cfg.c **** *   void
 357:.\Generated_Source\PSoC5/cyfitter_cfg.c **** *
 358:.\Generated_Source\PSoC5/cyfitter_cfg.c **** *******************************************************************************/
 359:.\Generated_Source\PSoC5/cyfitter_cfg.c **** 
 360:.\Generated_Source\PSoC5/cyfitter_cfg.c **** void cyfitter_cfg(void)
 361:.\Generated_Source\PSoC5/cyfitter_cfg.c **** {
 424              		.loc 1 361 0
 425              		.cfi_startproc
 426              		@ args = 0, pretend = 0, frame = 0
 427              		@ frame_needed = 0, uses_anonymous_args = 0
 428 0000 38B5     		push	{r3, r4, r5, lr}
 429              		.cfi_def_cfa_offset 16
 430              		.cfi_offset 3, -16
 431              		.cfi_offset 4, -12
 432              		.cfi_offset 5, -8
 433              		.cfi_offset 14, -4
 362:.\Generated_Source\PSoC5/cyfitter_cfg.c **** #ifdef CYGlobalIntDisable
 363:.\Generated_Source\PSoC5/cyfitter_cfg.c **** 	/* Disable interrupts by default. Let user enable if/when they want. */
 364:.\Generated_Source\PSoC5/cyfitter_cfg.c **** 	CYGlobalIntDisable
 434              		.loc 1 364 0
 435              	@ 364 ".\Generated_Source\PSoC5\cyfitter_cfg.c" 1
 436 0002 72B6     		CPSID   i
 437              	@ 0 "" 2
 365:.\Generated_Source\PSoC5/cyfitter_cfg.c **** #endif
 366:.\Generated_Source\PSoC5/cyfitter_cfg.c **** 
 367:.\Generated_Source\PSoC5/cyfitter_cfg.c **** 	/* Enable/Disable Debug functionality based on settings from System DWR */
 368:.\Generated_Source\PSoC5/cyfitter_cfg.c **** 	CY_SET_XTND_REG8((void CYFAR *)CYREG_MLOGIC_DEBUG, (CY_GET_XTND_REG8((void CYFAR *)CYREG_MLOGIC_DE
 438              		.loc 1 368 0
 439              		.thumb
 440 0004 374A     		ldr	r2, .L35
 441 0006 1378     		ldrb	r3, [r2]	@ zero_extendqisi2
ARM GAS  C:\Users\PANXIA~1\AppData\Local\Temp\cc4VN01H.s 			page 16


 442 0008 43F02003 		orr	r3, r3, #32
 443 000c 1370     		strb	r3, [r2]
 444              	.LVL34:
 445              	.LBB3:
 369:.\Generated_Source\PSoC5/cyfitter_cfg.c **** 
 370:.\Generated_Source\PSoC5/cyfitter_cfg.c **** 	{
 371:.\Generated_Source\PSoC5/cyfitter_cfg.c **** 
 372:.\Generated_Source\PSoC5/cyfitter_cfg.c **** 		CYPACKED typedef struct {
 373:.\Generated_Source\PSoC5/cyfitter_cfg.c **** 			void CYFAR *address;
 374:.\Generated_Source\PSoC5/cyfitter_cfg.c **** 			uint16 size;
 375:.\Generated_Source\PSoC5/cyfitter_cfg.c **** 		} CYPACKED_ATTR cfg_memset_t;
 376:.\Generated_Source\PSoC5/cyfitter_cfg.c **** 
 377:.\Generated_Source\PSoC5/cyfitter_cfg.c **** 		static const cfg_memset_t CYCODE cfg_memset_list [] = {
 378:.\Generated_Source\PSoC5/cyfitter_cfg.c **** 			/* address, size */
 379:.\Generated_Source\PSoC5/cyfitter_cfg.c **** 			{(void CYFAR *)(CYREG_PRT1_DR), 32u},
 380:.\Generated_Source\PSoC5/cyfitter_cfg.c **** 			{(void CYFAR *)(CYDEV_UCFG_B0_P0_U0_BASE), 4096u},
 381:.\Generated_Source\PSoC5/cyfitter_cfg.c **** 			{(void CYFAR *)(CYDEV_UCFG_B1_P2_U0_BASE), 2048u},
 382:.\Generated_Source\PSoC5/cyfitter_cfg.c **** 			{(void CYFAR *)(CYDEV_UCFG_DSI0_BASE), 2560u},
 383:.\Generated_Source\PSoC5/cyfitter_cfg.c **** 			{(void CYFAR *)(CYDEV_UCFG_DSI12_BASE), 512u},
 384:.\Generated_Source\PSoC5/cyfitter_cfg.c **** 			{(void CYFAR *)(CYREG_BCTL0_MDCLK_EN), 32u},
 385:.\Generated_Source\PSoC5/cyfitter_cfg.c **** 		};
 386:.\Generated_Source\PSoC5/cyfitter_cfg.c **** 
 387:.\Generated_Source\PSoC5/cyfitter_cfg.c **** 		uint8 CYDATA i;
 388:.\Generated_Source\PSoC5/cyfitter_cfg.c **** 
 389:.\Generated_Source\PSoC5/cyfitter_cfg.c **** 		/* Zero out critical memory blocks before beginning configuration */
 390:.\Generated_Source\PSoC5/cyfitter_cfg.c **** 		for (i = 0u; i < (sizeof(cfg_memset_list)/sizeof(cfg_memset_list[0])); i++)
 446              		.loc 1 390 0
 447 000e 0024     		movs	r4, #0
 448 0010 0CE0     		b	.L32
 449              	.LVL35:
 450              	.L33:
 451              	.LBB4:
 391:.\Generated_Source\PSoC5/cyfitter_cfg.c **** 		{
 392:.\Generated_Source\PSoC5/cyfitter_cfg.c **** 			const cfg_memset_t CYCODE * CYDATA ms = &cfg_memset_list[i];
 393:.\Generated_Source\PSoC5/cyfitter_cfg.c **** 			CYMEMZERO(ms->address, (size_t)(uint32)(ms->size));
 452              		.loc 1 393 0 discriminator 3
 453 0012 3549     		ldr	r1, .L35+4
 454 0014 6300     		lsls	r3, r4, #1
 455 0016 1A19     		adds	r2, r3, r4
 456 0018 5200     		lsls	r2, r2, #1
 457 001a 0A44     		add	r2, r2, r1
 458 001c 2344     		add	r3, r3, r4
 459 001e 5B00     		lsls	r3, r3, #1
 460 0020 C858     		ldr	r0, [r1, r3]	@ unaligned
 461 0022 9188     		ldrh	r1, [r2, #4]
 462 0024 FFF7FEFF 		bl	CYMEMZERO
 463              	.LVL36:
 464              	.LBE4:
 390:.\Generated_Source\PSoC5/cyfitter_cfg.c **** 		{
 465              		.loc 1 390 0 discriminator 3
 466 0028 0134     		adds	r4, r4, #1
 467              	.LVL37:
 468 002a E4B2     		uxtb	r4, r4
 469              	.LVL38:
 470              	.L32:
 390:.\Generated_Source\PSoC5/cyfitter_cfg.c **** 		{
 471              		.loc 1 390 0 is_stmt 0 discriminator 1
ARM GAS  C:\Users\PANXIA~1\AppData\Local\Temp\cc4VN01H.s 			page 17


 472 002c 052C     		cmp	r4, #5
 473 002e F0D9     		bls	.L33
 394:.\Generated_Source\PSoC5/cyfitter_cfg.c **** 		}
 395:.\Generated_Source\PSoC5/cyfitter_cfg.c **** 
 396:.\Generated_Source\PSoC5/cyfitter_cfg.c **** 		cfg_write_bytes32(cy_cfg_addr_table, cy_cfg_data_table);
 474              		.loc 1 396 0 is_stmt 1
 475 0030 2E4C     		ldr	r4, .L35+8
 476              	.LVL39:
 477 0032 2046     		mov	r0, r4
 478 0034 04F17401 		add	r1, r4, #116
 479 0038 FFF7FEFF 		bl	cfg_write_bytes32
 480              	.LVL40:
 397:.\Generated_Source\PSoC5/cyfitter_cfg.c **** 
 398:.\Generated_Source\PSoC5/cyfitter_cfg.c **** 		/* Enable digital routing */
 399:.\Generated_Source\PSoC5/cyfitter_cfg.c **** 		CY_SET_XTND_REG8((void CYFAR *)CYREG_BCTL0_BANK_CTL, CY_GET_XTND_REG8((void CYFAR *)CYREG_BCTL0_B
 481              		.loc 1 399 0
 482 003c 2C4A     		ldr	r2, .L35+12
 483 003e 1378     		ldrb	r3, [r2]	@ zero_extendqisi2
 484 0040 43F00203 		orr	r3, r3, #2
 485 0044 1370     		strb	r3, [r2]
 400:.\Generated_Source\PSoC5/cyfitter_cfg.c **** 		CY_SET_XTND_REG8((void CYFAR *)CYREG_BCTL1_BANK_CTL, CY_GET_XTND_REG8((void CYFAR *)CYREG_BCTL1_B
 486              		.loc 1 400 0
 487 0046 1032     		adds	r2, r2, #16
 488 0048 1378     		ldrb	r3, [r2]	@ zero_extendqisi2
 489 004a 43F00203 		orr	r3, r3, #2
 490 004e 1370     		strb	r3, [r2]
 401:.\Generated_Source\PSoC5/cyfitter_cfg.c **** 
 402:.\Generated_Source\PSoC5/cyfitter_cfg.c **** 		/* Enable UDB array */
 403:.\Generated_Source\PSoC5/cyfitter_cfg.c **** 		CY_SET_XTND_REG8((void CYFAR *)CYREG_PM_ACT_CFG0, CY_GET_XTND_REG8((void CYFAR *)CYREG_PM_ACT_CFG
 491              		.loc 1 403 0
 492 0050 284D     		ldr	r5, .L35+16
 493 0052 2B78     		ldrb	r3, [r5]	@ zero_extendqisi2
 494 0054 43F04003 		orr	r3, r3, #64
 495 0058 2B70     		strb	r3, [r5]
 404:.\Generated_Source\PSoC5/cyfitter_cfg.c **** 		CY_SET_XTND_REG8((void CYFAR *)CYREG_PM_AVAIL_CR2, CY_GET_XTND_REG8((void CYFAR *)CYREG_PM_AVAIL_
 496              		.loc 1 404 0
 497 005a A2F58632 		sub	r2, r2, #68608
 498 005e 513A     		subs	r2, r2, #81
 499 0060 1378     		ldrb	r3, [r2]	@ zero_extendqisi2
 500 0062 43F01003 		orr	r3, r3, #16
 501 0066 1370     		strb	r3, [r2]
 502              	.LBE3:
 405:.\Generated_Source\PSoC5/cyfitter_cfg.c **** 	}
 406:.\Generated_Source\PSoC5/cyfitter_cfg.c **** 
 407:.\Generated_Source\PSoC5/cyfitter_cfg.c **** 
 408:.\Generated_Source\PSoC5/cyfitter_cfg.c **** 	/* Perform second pass device configuration. These items must be configured in specific order afte
 409:.\Generated_Source\PSoC5/cyfitter_cfg.c **** 	CYCONFIGCPY((void CYFAR *)(CYREG_PRT0_DM0), (const void CYFAR *)(BS_IOPINS0_0_VAL), 8u);
 503              		.loc 1 409 0
 504 0068 2348     		ldr	r0, .L35+20
 505 006a 04F5C161 		add	r1, r4, #1544
 506 006e 0822     		movs	r2, #8
 507 0070 FFF7FEFF 		bl	CYCONFIGCPY
 508              	.LVL41:
 410:.\Generated_Source\PSoC5/cyfitter_cfg.c **** 	CYCONFIGCPY((void CYFAR *)(CYREG_PRT12_DR), (const void CYFAR *)(BS_IOPINS0_7_VAL), 10u);
 509              		.loc 1 410 0
 510 0074 2148     		ldr	r0, .L35+24
 511 0076 04F5C261 		add	r1, r4, #1552
ARM GAS  C:\Users\PANXIA~1\AppData\Local\Temp\cc4VN01H.s 			page 18


 512 007a 0A22     		movs	r2, #10
 513 007c FFF7FEFF 		bl	CYCONFIGCPY
 514              	.LVL42:
 411:.\Generated_Source\PSoC5/cyfitter_cfg.c **** 	CYCONFIGCPY((void CYFAR *)(CYREG_PRT15_DM0), (const void CYFAR *)(BS_IOPINS0_8_VAL), 8u);
 515              		.loc 1 411 0
 516 0080 1F48     		ldr	r0, .L35+28
 517 0082 04F21C61 		addw	r1, r4, #1564
 518 0086 0822     		movs	r2, #8
 519 0088 FFF7FEFF 		bl	CYCONFIGCPY
 520              	.LVL43:
 412:.\Generated_Source\PSoC5/cyfitter_cfg.c **** 	CYCONFIGCPY((void CYFAR *)(CYREG_PRT3_DM0), (const void CYFAR *)(BS_IOPINS0_3_VAL), 8u);
 521              		.loc 1 412 0
 522 008c 1D48     		ldr	r0, .L35+32
 523 008e 04F22461 		addw	r1, r4, #1572
 524 0092 0822     		movs	r2, #8
 525 0094 FFF7FEFF 		bl	CYCONFIGCPY
 526              	.LVL44:
 413:.\Generated_Source\PSoC5/cyfitter_cfg.c **** 	CYCONFIGCPY((void CYFAR *)(CYREG_PRT4_DM0), (const void CYFAR *)(BS_IOPINS0_4_VAL), 8u);
 527              		.loc 1 413 0
 528 0098 1B48     		ldr	r0, .L35+36
 529 009a 04F22C61 		addw	r1, r4, #1580
 530 009e 0822     		movs	r2, #8
 531 00a0 FFF7FEFF 		bl	CYCONFIGCPY
 532              	.LVL45:
 414:.\Generated_Source\PSoC5/cyfitter_cfg.c **** 	CYCONFIGCPY((void CYFAR *)(CYREG_PRT5_DM0), (const void CYFAR *)(BS_IOPINS0_5_VAL), 8u);
 533              		.loc 1 414 0
 534 00a4 1948     		ldr	r0, .L35+40
 535 00a6 04F23461 		addw	r1, r4, #1588
 536 00aa 0822     		movs	r2, #8
 537 00ac FFF7FEFF 		bl	CYCONFIGCPY
 538              	.LVL46:
 415:.\Generated_Source\PSoC5/cyfitter_cfg.c **** 	CYCONFIGCPY((void CYFAR *)(CYREG_PRT6_DM0), (const void CYFAR *)(BS_IOPINS0_6_VAL), 8u);
 539              		.loc 1 415 0
 540 00b0 1748     		ldr	r0, .L35+44
 541 00b2 04F23C61 		addw	r1, r4, #1596
 542 00b6 0822     		movs	r2, #8
 543 00b8 FFF7FEFF 		bl	CYCONFIGCPY
 544              	.LVL47:
 416:.\Generated_Source\PSoC5/cyfitter_cfg.c **** 	/* Switch Boost to the precision bandgap reference from its internal reference */
 417:.\Generated_Source\PSoC5/cyfitter_cfg.c **** 	CY_SET_REG8((void CYXDATA *)CYREG_BOOST_CR2, (CY_GET_REG8((void CYXDATA *)CYREG_BOOST_CR2) | 0x08u
 545              		.loc 1 417 0
 546 00bc 154A     		ldr	r2, .L35+48
 547 00be 1378     		ldrb	r3, [r2]	@ zero_extendqisi2
 548 00c0 43F00803 		orr	r3, r3, #8
 549 00c4 1370     		strb	r3, [r2]
 418:.\Generated_Source\PSoC5/cyfitter_cfg.c **** 
 419:.\Generated_Source\PSoC5/cyfitter_cfg.c **** 	/* Set Flash Cycles based on max possible frequency in case a glitch occurs during ClockSetup(). *
 420:.\Generated_Source\PSoC5/cyfitter_cfg.c **** 	CY_SET_XTND_REG8((void CYFAR *)(CYREG_CACHE_CC_CTL), (((CYDEV_INSTRUCT_CACHE_ENABLED) != 0) ? 0x61
 550              		.loc 1 420 0
 551 00c6 144C     		ldr	r4, .L35+52
 552 00c8 6123     		movs	r3, #97
 553 00ca 2370     		strb	r3, [r4]
 421:.\Generated_Source\PSoC5/cyfitter_cfg.c **** 	/* Setup clocks based on selections from Clock DWR */
 422:.\Generated_Source\PSoC5/cyfitter_cfg.c **** 	ClockSetup();
 554              		.loc 1 422 0
 555 00cc FFF7FEFF 		bl	ClockSetup
 556              	.LVL48:
ARM GAS  C:\Users\PANXIA~1\AppData\Local\Temp\cc4VN01H.s 			page 19


 423:.\Generated_Source\PSoC5/cyfitter_cfg.c **** 	/* Set Flash Cycles based on newly configured 66.00MHz Bus Clock. */
 424:.\Generated_Source\PSoC5/cyfitter_cfg.c **** 	CY_SET_XTND_REG8((void CYFAR *)(CYREG_CACHE_CC_CTL), (((CYDEV_INSTRUCT_CACHE_ENABLED) != 0) ? 0x01
 557              		.loc 1 424 0
 558 00d0 0123     		movs	r3, #1
 559 00d2 2370     		strb	r3, [r4]
 425:.\Generated_Source\PSoC5/cyfitter_cfg.c **** 
 426:.\Generated_Source\PSoC5/cyfitter_cfg.c **** 	/* Perform basic analog initialization to defaults */
 427:.\Generated_Source\PSoC5/cyfitter_cfg.c **** 	AnalogSetDefault();
 560              		.loc 1 427 0
 561 00d4 FFF7FEFF 		bl	AnalogSetDefault
 562              	.LVL49:
 428:.\Generated_Source\PSoC5/cyfitter_cfg.c **** 
 429:.\Generated_Source\PSoC5/cyfitter_cfg.c **** 	/* Configure alternate active mode */
 430:.\Generated_Source\PSoC5/cyfitter_cfg.c **** 	CYCONFIGCPY((void CYFAR *)CYDEV_PM_STBY_BASE, (const void CYFAR *)CYDEV_PM_ACT_BASE, 14u);
 563              		.loc 1 430 0
 564 00d8 1048     		ldr	r0, .L35+56
 565 00da 2946     		mov	r1, r5
 566 00dc 0E22     		movs	r2, #14
 567 00de FFF7FEFF 		bl	CYCONFIGCPY
 568              	.LVL50:
 569 00e2 38BD     		pop	{r3, r4, r5, pc}
 570              	.L36:
 571              		.align	2
 572              	.L35:
 573 00e4 E8460040 		.word	1073759976
 574 00e8 00000000 		.word	.LANCHOR0
 575 00ec 00000048 		.word	CY_ECC_OFFSET+1207959552
 576 00f0 03500140 		.word	1073827843
 577 00f4 A0430040 		.word	1073759136
 578 00f8 02510040 		.word	1073762562
 579 00fc C0510040 		.word	1073762752
 580 0100 F2510040 		.word	1073762802
 581 0104 32510040 		.word	1073762610
 582 0108 42510040 		.word	1073762626
 583 010c 52510040 		.word	1073762642
 584 0110 62510040 		.word	1073762658
 585 0114 22430040 		.word	1073759010
 586 0118 00480040 		.word	1073760256
 587 011c B0430040 		.word	1073759152
 588              		.cfi_endproc
 589              	.LFE8:
 590              		.size	cyfitter_cfg, .-cyfitter_cfg
 591              		.section	.rodata
 592              		.align	2
 593              		.set	.LANCHOR0,. + 0
 594              		.type	cfg_memset_list.4884, %object
 595              		.size	cfg_memset_list.4884, 36
 596              	cfg_memset_list.4884:
 597 0000 10510040 		.word	1073762576
 598 0004 2000     		.short	32
 599 0006 00000140 		.4byte	1073807360
 600 000a 0010     		.short	4096
 601 000c 00140140 		.word	1073812480
 602 0010 0008     		.short	2048
 603 0012 00400140 		.4byte	1073823744
 604 0016 000A     		.short	2560
 605 0018 004C0140 		.word	1073826816
ARM GAS  C:\Users\PANXIA~1\AppData\Local\Temp\cc4VN01H.s 			page 20


 606 001c 0002     		.short	512
 607 001e 00500140 		.4byte	1073827840
 608 0022 2000     		.short	32
 609              		.text
 610              	.Letext0:
 611              		.file 2 "d:\\program files (x86)\\psoc creator\\3.3\\psoc creator\\import\\gnu\\arm\\4.9.3\\lib\\g
 612              		.file 3 ".\\Generated_Source\\PSoC5\\cytypes.h"
 613              		.file 4 ".\\Generated_Source\\PSoC5\\CyLib.h"