ARM GAS  C:\Users\PANXIA~1\AppData\Local\Temp\ccrvLAOd.s 			page 1


   1              		.syntax unified
   2              		.cpu cortex-m3
   3              		.fpu softvfp
   4              		.eabi_attribute 20, 1
   5              		.eabi_attribute 21, 1
   6              		.eabi_attribute 23, 3
   7              		.eabi_attribute 24, 1
   8              		.eabi_attribute 25, 1
   9              		.eabi_attribute 26, 1
  10              		.eabi_attribute 30, 1
  11              		.eabi_attribute 34, 1
  12              		.eabi_attribute 18, 4
  13              		.thumb
  14              		.file	"emcy.c"
  15              		.text
  16              	.Ltext0:
  17              		.cfi_sections	.debug_frame
  18              		.section	.text.OnNumberOfErrorsUpdate,"ax",%progbits
  19              		.align	2
  20              		.global	OnNumberOfErrorsUpdate
  21              		.thumb
  22              		.thumb_func
  23              		.type	OnNumberOfErrorsUpdate, %function
  24              	OnNumberOfErrorsUpdate:
  25              	.LFB0:
  26              		.file 1 ".\\emcy.c"
   1:.\emcy.c      **** /* ========================================
   2:.\emcy.c      ****  *
   3:.\emcy.c      ****  * Copyright YOUR COMPANY, THE YEAR
   4:.\emcy.c      ****  * All Rights Reserved
   5:.\emcy.c      ****  * UNPUBLISHED, LICENSED SOFTWARE.
   6:.\emcy.c      ****  *
   7:.\emcy.c      ****  * CONFIDENTIAL AND PROPRIETARY INFORMATION
   8:.\emcy.c      ****  * WHICH IS THE PROPERTY OF your company.
   9:.\emcy.c      ****  *
  10:.\emcy.c      ****  * ========================================
  11:.\emcy.c      **** */
  12:.\emcy.c      **** 
  13:.\emcy.c      **** /* [] END OF FILE */
  14:.\emcy.c      **** 
  15:.\emcy.c      **** ///*
  16:.\emcy.c      **** //  This file is part of CanFestival, a library implementing CanOpen
  17:.\emcy.c      **** //  Stack.
  18:.\emcy.c      **** 
  19:.\emcy.c      **** //  Copyright (C): Edouard TISSERANT and Francis DUPIN
  20:.\emcy.c      **** 
  21:.\emcy.c      **** //  See COPYING file for copyrights details.
  22:.\emcy.c      **** 
  23:.\emcy.c      **** //  This library is free software; you can redistribute it and/or
  24:.\emcy.c      **** //  modify it under the terms of the GNU Lesser General Public
  25:.\emcy.c      **** //  License as published by the Free Software Foundation; either
  26:.\emcy.c      **** //  version 2.1 of the License, or (at your option) any later version.
  27:.\emcy.c      **** 
  28:.\emcy.c      **** //  This library is distributed in the hope that it will be useful,
  29:.\emcy.c      **** //  but WITHOUT ANY WARRANTY; without even the implied warranty of
  30:.\emcy.c      **** //  MERCHANTABILITY or FITNESS FOR A PARTICULAR PURPOSE.  See the GNU
  31:.\emcy.c      **** //  Lesser General Public License for more details.
ARM GAS  C:\Users\PANXIA~1\AppData\Local\Temp\ccrvLAOd.s 			page 2


  32:.\emcy.c      **** 
  33:.\emcy.c      **** //  You should have received a copy of the GNU Lesser General Public
  34:.\emcy.c      **** //  License along with this library; if not, write to the Free Software
  35:.\emcy.c      **** //  Foundation, Inc., 59 Temple Place, Suite 330, Boston, MA  02111-1307
  36:.\emcy.c      **** //  USA
  37:.\emcy.c      **** //*/
  38:.\emcy.c      **** 
  39:.\emcy.c      **** ///*!
  40:.\emcy.c      **** //** @file   emcy.c
  41:.\emcy.c      **** //** @author Luis Jimenez
  42:.\emcy.c      **** //** @date   Wed Sep 26 2007
  43:.\emcy.c      **** //**
  44:.\emcy.c      **** //** @brief Definitions of the functions that manage EMCY (emergency) messages
  45:.\emcy.c      **** //**
  46:.\emcy.c      **** //**
  47:.\emcy.c      **** //*/
  48:.\emcy.c      **** 
  49:.\emcy.c      **** //#include <data.h>
  50:.\emcy.c      **** //#include "emcy.h"
  51:.\emcy.c      **** //#include "canfestival.h"
  52:.\emcy.c      **** //#include "sysdep.h"
  53:.\emcy.c      **** 
  54:.\emcy.c      **** 
  55:.\emcy.c      **** 
  56:.\emcy.c      **** //UNS32 OnNumberOfErrorsUpdate(CO_Data* d, const indextable * unsused_indextable, UNS8 unsused_bSub
  57:.\emcy.c      **** //UNS8 sendEMCY(CO_Data* d, UNS16 errCode, UNS8 errRegister);
  58:.\emcy.c      **** 
  59:.\emcy.c      **** 
  60:.\emcy.c      **** ///*! This is called when Index 0x1003 is updated.
  61:.\emcy.c      **** //**
  62:.\emcy.c      **** //**
  63:.\emcy.c      **** //** @param d
  64:.\emcy.c      **** //** @param unsused_indextable
  65:.\emcy.c      **** //** @param unsused_bSubindex
  66:.\emcy.c      **** //**
  67:.\emcy.c      **** //** @return
  68:.\emcy.c      **** //**/
  69:.\emcy.c      **** //UNS32 OnNumberOfErrorsUpdate(CO_Data* d, const indextable * unsused_indextable, UNS8 unsused_bSub
  70:.\emcy.c      **** //{
  71:.\emcy.c      **** //	UNS8 index;
  72:.\emcy.c      **** //  // if 0, reset Pre-defined Error Field
  73:.\emcy.c      **** //  // else, don't change and give an abort message (eeror code: 0609 0030h)
  74:.\emcy.c      **** //	if (*d->error_number == 0)
  75:.\emcy.c      **** //		for (index = 0; index < d->error_history_size; ++index)
  76:.\emcy.c      **** //			*(d->error_first_element + index) = 0;		/* clear all the fields in Pre-defined Error Field (10
  77:.\emcy.c      **** //	else
  78:.\emcy.c      **** //		;// abort message
  79:.\emcy.c      **** //  return 0;
  80:.\emcy.c      **** //}
  81:.\emcy.c      **** 
  82:.\emcy.c      **** ///*! start the EMCY mangagement.
  83:.\emcy.c      **** //**
  84:.\emcy.c      **** //**
  85:.\emcy.c      **** //** @param d
  86:.\emcy.c      **** //**/
  87:.\emcy.c      **** //void emergencyInit(CO_Data* d)
  88:.\emcy.c      **** //{
ARM GAS  C:\Users\PANXIA~1\AppData\Local\Temp\ccrvLAOd.s 			page 3


  89:.\emcy.c      **** //  RegisterSetODentryCallBack(d, 0x1003, 0x00, &OnNumberOfErrorsUpdate);
  90:.\emcy.c      **** 
  91:.\emcy.c      **** //  *d->error_number = 0;
  92:.\emcy.c      **** //}
  93:.\emcy.c      **** 
  94:.\emcy.c      **** ///*!
  95:.\emcy.c      **** //**
  96:.\emcy.c      **** //**
  97:.\emcy.c      **** //** @param d
  98:.\emcy.c      **** //**/
  99:.\emcy.c      **** //void emergencyStop(CO_Data* d)
 100:.\emcy.c      **** //{
 101:.\emcy.c      **** //
 102:.\emcy.c      **** //}
 103:.\emcy.c      **** 
 104:.\emcy.c      **** ///*!
 105:.\emcy.c      **** // **
 106:.\emcy.c      **** // **
 107:.\emcy.c      **** // ** @param d
 108:.\emcy.c      **** // ** @param cob_id
 109:.\emcy.c      **** // **
 110:.\emcy.c      **** // ** @return
 111:.\emcy.c      **** // **/
 112:.\emcy.c      **** //UNS8 sendEMCY(CO_Data* d, UNS16 errCode, UNS8 errRegister)
 113:.\emcy.c      **** //{
 114:.\emcy.c      **** //	Message m;
 115:.\emcy.c      **** //
 116:.\emcy.c      **** //	MSG_WAR(0x3051, "sendEMCY", 0);
 117:.\emcy.c      **** //
 118:.\emcy.c      **** //	m.cob_id = (UNS16)UNS16_LE(*(UNS32*)d->error_cobid);
 119:.\emcy.c      **** //	m.rtr = NOT_A_REQUEST;
 120:.\emcy.c      **** //	m.len = 8;
 121:.\emcy.c      **** //	m.data[0] = errCode & 0xFF;        /* LSB */
 122:.\emcy.c      **** //	m.data[1] = (errCode >> 8) & 0xFF; /* MSB */
 123:.\emcy.c      **** //	m.data[2] = errRegister;
 124:.\emcy.c      **** //	m.data[3] = 0;		/* Manufacturer specific Error Field still not implemented */
 125:.\emcy.c      **** //	m.data[4] = 0;
 126:.\emcy.c      **** //	m.data[5] = 0;
 127:.\emcy.c      **** //	m.data[6] = 0;
 128:.\emcy.c      **** //	m.data[7] = 0;
 129:.\emcy.c      **** //
 130:.\emcy.c      **** //	return canSend(d->canHandle,&m);
 131:.\emcy.c      **** //}
 132:.\emcy.c      **** 
 133:.\emcy.c      **** ///*! Sets a new error with code errCode. Also sets corresponding bits in Error register (1001h)
 134:.\emcy.c      **** // **
 135:.\emcy.c      **** // **
 136:.\emcy.c      **** // ** @param d
 137:.\emcy.c      **** // ** @param errCode Code of the error
 138:.\emcy.c      **** // ** @param errRegister Bits of Error register (1001h) to be set.
 139:.\emcy.c      **** // ** @return 1 if error, 0 if successful
 140:.\emcy.c      **** // */
 141:.\emcy.c      **** //UNS8 EMCY_setError(CO_Data* d, UNS16 errCode, UNS8 errRegMask, UNS16 addInfo)
 142:.\emcy.c      **** //{
 143:.\emcy.c      **** //	UNS8 index;
 144:.\emcy.c      **** //	UNS8 errRegister_tmp;
 145:.\emcy.c      **** //
ARM GAS  C:\Users\PANXIA~1\AppData\Local\Temp\ccrvLAOd.s 			page 4


 146:.\emcy.c      **** //	for (index = 0; index < EMCY_MAX_ERRORS; ++index)
 147:.\emcy.c      **** //	{
 148:.\emcy.c      **** //		if (d->error_data[index].errCode == errCode)		/* error already registered */
 149:.\emcy.c      **** //		{
 150:.\emcy.c      **** //			if (d->error_data[index].active)
 151:.\emcy.c      **** //			{
 152:.\emcy.c      **** //				MSG_WAR(0x3052, "EMCY message already sent", 0);
 153:.\emcy.c      **** //				return 0;
 154:.\emcy.c      **** //			} else d->error_data[index].active = 1;		/* set as active error */
 155:.\emcy.c      **** //			break;
 156:.\emcy.c      **** //		}
 157:.\emcy.c      **** //	}
 158:.\emcy.c      **** //
 159:.\emcy.c      **** //	if (index == EMCY_MAX_ERRORS)		/* if errCode not already registered */
 160:.\emcy.c      **** //		for (index = 0; index < EMCY_MAX_ERRORS; ++index) if (d->error_data[index].active == 0) break;	
 161:.\emcy.c      **** //
 162:.\emcy.c      **** //	if (index == EMCY_MAX_ERRORS)		/* error_data full */
 163:.\emcy.c      **** //	{
 164:.\emcy.c      **** //		MSG_ERR(0x3053, "error_data full", 0);
 165:.\emcy.c      **** //		return 1;
 166:.\emcy.c      **** //	}
 167:.\emcy.c      **** //
 168:.\emcy.c      **** //	d->error_data[index].errCode = errCode;
 169:.\emcy.c      **** //	d->error_data[index].errRegMask = errRegMask;
 170:.\emcy.c      **** //	d->error_data[index].active = 1;
 171:.\emcy.c      **** //
 172:.\emcy.c      **** //	/* set the new state in the error state machine */
 173:.\emcy.c      **** //	d->error_state = Error_occurred;
 174:.\emcy.c      **** 
 175:.\emcy.c      **** //	/* set Error Register (1001h) */
 176:.\emcy.c      **** //	for (index = 0, errRegister_tmp = 0; index < EMCY_MAX_ERRORS; ++index)
 177:.\emcy.c      **** //		if (d->error_data[index].active == 1) errRegister_tmp |= d->error_data[index].errRegMask;
 178:.\emcy.c      **** //	*d->error_register = errRegister_tmp;
 179:.\emcy.c      **** //
 180:.\emcy.c      **** //	/* set Pre-defined Error Field (1003h) */
 181:.\emcy.c      **** //	for (index = d->error_history_size - 1; index > 0; --index)
 182:.\emcy.c      **** //		*(d->error_first_element + index) = *(d->error_first_element + index - 1);
 183:.\emcy.c      **** //	*(d->error_first_element) = errCode | ((UNS32)addInfo << 16);
 184:.\emcy.c      **** //	if(*d->error_number < d->error_history_size) ++(*d->error_number);
 185:.\emcy.c      **** //
 186:.\emcy.c      **** //	/* send EMCY message */
 187:.\emcy.c      **** //	if (d->CurrentCommunicationState.csEmergency)
 188:.\emcy.c      **** //		return sendEMCY(d, errCode, *d->error_register);
 189:.\emcy.c      **** //	else return 1;
 190:.\emcy.c      **** //}
 191:.\emcy.c      **** 
 192:.\emcy.c      **** ///*! Deletes error errCode. Also clears corresponding bits in Error register (1001h)
 193:.\emcy.c      **** // **
 194:.\emcy.c      **** // **
 195:.\emcy.c      **** // ** @param d
 196:.\emcy.c      **** // ** @param errCode Code of the error
 197:.\emcy.c      **** // ** @param errRegister Bits of Error register (1001h) to be set.
 198:.\emcy.c      **** // ** @return 1 if error, 0 if successful
 199:.\emcy.c      **** // */
 200:.\emcy.c      **** //void EMCY_errorRecovered(CO_Data* d, UNS16 errCode)
 201:.\emcy.c      **** //{
 202:.\emcy.c      **** //	UNS8 index;
ARM GAS  C:\Users\PANXIA~1\AppData\Local\Temp\ccrvLAOd.s 			page 5


 203:.\emcy.c      **** //	UNS8 errRegister_tmp;
 204:.\emcy.c      **** //	UNS8 anyActiveError = 0;
 205:.\emcy.c      **** //
 206:.\emcy.c      **** //	for (index = 0; index < EMCY_MAX_ERRORS; ++index)
 207:.\emcy.c      **** //		if (d->error_data[index].errCode == errCode) break;		/* find the position of the error */
 208:.\emcy.c      **** 
 209:.\emcy.c      **** //
 210:.\emcy.c      **** //	if ((index != EMCY_MAX_ERRORS) && (d->error_data[index].active == 1))
 211:.\emcy.c      **** //	{
 212:.\emcy.c      **** //		d->error_data[index].active = 0;
 213:.\emcy.c      **** //
 214:.\emcy.c      **** //		/* set Error Register (1001h) and check error state machine */
 215:.\emcy.c      **** //		for (index = 0, errRegister_tmp = 0; index < EMCY_MAX_ERRORS; ++index)
 216:.\emcy.c      **** //			if (d->error_data[index].active == 1)
 217:.\emcy.c      **** //			{
 218:.\emcy.c      **** //				anyActiveError = 1;
 219:.\emcy.c      **** //				errRegister_tmp |= d->error_data[index].errRegMask;
 220:.\emcy.c      **** //			}
 221:.\emcy.c      **** //		if(anyActiveError == 0)
 222:.\emcy.c      **** //		{
 223:.\emcy.c      **** //			d->error_state = Error_free;
 224:.\emcy.c      **** //			/* send a EMCY message with code "Error Reset or No Error" */
 225:.\emcy.c      **** //			if (d->CurrentCommunicationState.csEmergency)
 226:.\emcy.c      **** //				sendEMCY(d, 0x0000, 0x00);
 227:.\emcy.c      **** //		}
 228:.\emcy.c      **** //		*d->error_register = errRegister_tmp;
 229:.\emcy.c      **** //	}
 230:.\emcy.c      **** //	else
 231:.\emcy.c      **** //		MSG_WAR(0x3054, "recovered error was not active", 0);
 232:.\emcy.c      **** //}
 233:.\emcy.c      **** 
 234:.\emcy.c      **** ///*! This function is responsible to process an EMCY canopen-message.
 235:.\emcy.c      **** // **
 236:.\emcy.c      **** // **
 237:.\emcy.c      **** // ** @param d
 238:.\emcy.c      **** // ** @param m The CAN-message which has to be analysed.
 239:.\emcy.c      **** // **
 240:.\emcy.c      **** // **/
 241:.\emcy.c      **** //void proceedEMCY(CO_Data* d, Message* m)
 242:.\emcy.c      **** //{
 243:.\emcy.c      **** //	UNS8 nodeID;
 244:.\emcy.c      **** //	UNS16 errCode;
 245:.\emcy.c      **** //	UNS8 errReg;
 246:.\emcy.c      **** //
 247:.\emcy.c      **** //	MSG_WAR(0x3055, "EMCY received. Proceed. ", 0);
 248:.\emcy.c      **** //
 249:.\emcy.c      **** //	/* Test if the size of the EMCY is ok */
 250:.\emcy.c      **** //	if ( m->len != 8) {
 251:.\emcy.c      **** //		MSG_ERR(0x1056, "Error size EMCY. CobId  : ", m->cob_id);
 252:.\emcy.c      **** //		return;
 253:.\emcy.c      **** //	}
 254:.\emcy.c      **** //
 255:.\emcy.c      **** //	/* post the received EMCY */
 256:.\emcy.c      **** //	nodeID = UNS16_LE(m->cob_id) & 0x7F;
 257:.\emcy.c      **** //	errCode = m->data[0] | ((UNS16)m->data[1] << 8);
 258:.\emcy.c      **** //	errReg = m->data[2];
 259:.\emcy.c      **** //	(*d->post_emcy)(d, nodeID, errCode, errReg);
ARM GAS  C:\Users\PANXIA~1\AppData\Local\Temp\ccrvLAOd.s 			page 6


 260:.\emcy.c      **** //}
 261:.\emcy.c      **** 
 262:.\emcy.c      **** //void _post_emcy(CO_Data* d, UNS8 nodeID, UNS16 errCode, UNS8 errReg){}
 263:.\emcy.c      **** 
 264:.\emcy.c      **** /*
 265:.\emcy.c      ****   This file is part of CanFestival, a library implementing CanOpen
 266:.\emcy.c      ****   Stack.
 267:.\emcy.c      **** 
 268:.\emcy.c      ****   Copyright (C): Edouard TISSERANT and Francis DUPIN
 269:.\emcy.c      **** 
 270:.\emcy.c      ****   See COPYING file for copyrights details.
 271:.\emcy.c      **** 
 272:.\emcy.c      ****   This library is free software; you can redistribute it and/or
 273:.\emcy.c      ****   modify it under the terms of the GNU Lesser General Public
 274:.\emcy.c      ****   License as published by the Free Software Foundation; either
 275:.\emcy.c      ****   version 2.1 of the License, or (at your option) any later version.
 276:.\emcy.c      **** 
 277:.\emcy.c      ****   This library is distributed in the hope that it will be useful,
 278:.\emcy.c      ****   but WITHOUT ANY WARRANTY; without even the implied warranty of
 279:.\emcy.c      ****   MERCHANTABILITY or FITNESS FOR A PARTICULAR PURPOSE.  See the GNU
 280:.\emcy.c      ****   Lesser General Public License for more details.
 281:.\emcy.c      **** 
 282:.\emcy.c      ****   You should have received a copy of the GNU Lesser General Public
 283:.\emcy.c      ****   License along with this library; if not, write to the Free Software
 284:.\emcy.c      ****   Foundation, Inc., 59 Temple Place, Suite 330, Boston, MA  02111-1307
 285:.\emcy.c      ****   USA
 286:.\emcy.c      **** */
 287:.\emcy.c      **** 
 288:.\emcy.c      **** /*!
 289:.\emcy.c      **** ** @file   emcy.c
 290:.\emcy.c      **** ** @author Luis Jimenez
 291:.\emcy.c      **** ** @date   Wed Sep 26 2007
 292:.\emcy.c      **** **
 293:.\emcy.c      **** ** @brief Definitions of the functions that manage EMCY (emergency) messages
 294:.\emcy.c      **** **
 295:.\emcy.c      **** **
 296:.\emcy.c      **** */
 297:.\emcy.c      **** 
 298:.\emcy.c      **** #include <data.h>
 299:.\emcy.c      **** #include "emcy.h"
 300:.\emcy.c      **** #include "canfestival.h"
 301:.\emcy.c      **** #include "sysdep.h"
 302:.\emcy.c      **** 
 303:.\emcy.c      **** 
 304:.\emcy.c      **** 
 305:.\emcy.c      **** UNS32 OnNumberOfErrorsUpdate(CO_Data* d, const indextable * unsused_indextable, UNS8 unsused_bSubin
 306:.\emcy.c      **** UNS8 sendEMCY(CO_Data* d, UNS16 errCode, UNS8 errRegister);
 307:.\emcy.c      **** 
 308:.\emcy.c      **** 
 309:.\emcy.c      **** /*! This is called when Index 0x1003 is updated.
 310:.\emcy.c      **** **
 311:.\emcy.c      **** **
 312:.\emcy.c      **** ** @param d
 313:.\emcy.c      **** ** @param unsused_indextable
 314:.\emcy.c      **** ** @param unsused_bSubindex
 315:.\emcy.c      **** **
 316:.\emcy.c      **** ** @return
ARM GAS  C:\Users\PANXIA~1\AppData\Local\Temp\ccrvLAOd.s 			page 7


 317:.\emcy.c      **** **/
 318:.\emcy.c      **** UNS32 OnNumberOfErrorsUpdate(CO_Data* d, const indextable * unsused_indextable, UNS8 unsused_bSubin
 319:.\emcy.c      **** {
  27              		.loc 1 319 0
  28              		.cfi_startproc
  29              		@ args = 0, pretend = 0, frame = 0
  30              		@ frame_needed = 0, uses_anonymous_args = 0
  31              		@ link register save eliminated.
  32              	.LVL0:
 320:.\emcy.c      ****     UNS8 index;
 321:.\emcy.c      ****   // if 0, reset Pre-defined Error Field
 322:.\emcy.c      ****   // else, don't change and give an abort message (eeror code: 0609 0030h)
 323:.\emcy.c      ****     if (*d->error_number == 0)
  33              		.loc 1 323 0
  34 0000 D0F87831 		ldr	r3, [r0, #376]
  35 0004 1B78     		ldrb	r3, [r3]	@ zero_extendqisi2
  36 0006 43B1     		cbz	r3, .L5
  37 0008 0CE0     		b	.L3
  38              	.LVL1:
  39              	.L4:
 324:.\emcy.c      ****         for (index = 0; index < d->error_history_size; ++index)
 325:.\emcy.c      ****             *(d->error_first_element + index) = 0;		/* clear all the fields in Pre-defined Error Fi
  40              		.loc 1 325 0 discriminator 3
  41 000a D0F87C21 		ldr	r2, [r0, #380]
  42 000e 0021     		movs	r1, #0
  43 0010 42F82310 		str	r1, [r2, r3, lsl #2]
 324:.\emcy.c      ****         for (index = 0; index < d->error_history_size; ++index)
  44              		.loc 1 324 0 discriminator 3
  45 0014 0133     		adds	r3, r3, #1
  46              	.LVL2:
  47 0016 DBB2     		uxtb	r3, r3
  48              	.LVL3:
  49 0018 00E0     		b	.L2
  50              	.LVL4:
  51              	.L5:
  52 001a 0023     		movs	r3, #0
  53              	.LVL5:
  54              	.L2:
 324:.\emcy.c      ****         for (index = 0; index < d->error_history_size; ++index)
  55              		.loc 1 324 0 is_stmt 0 discriminator 1
  56 001c 90F87521 		ldrb	r2, [r0, #373]	@ zero_extendqisi2
  57 0020 9A42     		cmp	r2, r3
  58 0022 F2D8     		bhi	.L4
  59              	.LVL6:
  60              	.L3:
 326:.\emcy.c      ****     else
 327:.\emcy.c      ****         ;// abort message
 328:.\emcy.c      ****   return 0;
 329:.\emcy.c      **** }
  61              		.loc 1 329 0 is_stmt 1
  62 0024 0020     		movs	r0, #0
  63              	.LVL7:
  64 0026 7047     		bx	lr
  65              		.cfi_endproc
  66              	.LFE0:
  67              		.size	OnNumberOfErrorsUpdate, .-OnNumberOfErrorsUpdate
  68              		.section	.text.emergencyInit,"ax",%progbits
ARM GAS  C:\Users\PANXIA~1\AppData\Local\Temp\ccrvLAOd.s 			page 8


  69              		.align	2
  70              		.global	emergencyInit
  71              		.thumb
  72              		.thumb_func
  73              		.type	emergencyInit, %function
  74              	emergencyInit:
  75              	.LFB1:
 330:.\emcy.c      **** 
 331:.\emcy.c      **** /*! start the EMCY mangagement.
 332:.\emcy.c      **** **
 333:.\emcy.c      **** **
 334:.\emcy.c      **** ** @param d
 335:.\emcy.c      **** **/
 336:.\emcy.c      **** void emergencyInit(CO_Data* d)
 337:.\emcy.c      **** {
  76              		.loc 1 337 0
  77              		.cfi_startproc
  78              		@ args = 0, pretend = 0, frame = 0
  79              		@ frame_needed = 0, uses_anonymous_args = 0
  80              	.LVL8:
  81 0000 10B5     		push	{r4, lr}
  82              		.cfi_def_cfa_offset 8
  83              		.cfi_offset 4, -8
  84              		.cfi_offset 14, -4
  85 0002 0446     		mov	r4, r0
 338:.\emcy.c      ****   RegisterSetODentryCallBack(d, 0x1003, 0x00, &OnNumberOfErrorsUpdate);
  86              		.loc 1 338 0
  87 0004 41F20301 		movw	r1, #4099
  88 0008 0022     		movs	r2, #0
  89 000a 044B     		ldr	r3, .L8
  90 000c FFF7FEFF 		bl	RegisterSetODentryCallBack
  91              	.LVL9:
 339:.\emcy.c      **** 
 340:.\emcy.c      ****   *d->error_number = 0;
  92              		.loc 1 340 0
  93 0010 D4F87831 		ldr	r3, [r4, #376]
  94 0014 0022     		movs	r2, #0
  95 0016 1A70     		strb	r2, [r3]
  96 0018 10BD     		pop	{r4, pc}
  97              	.LVL10:
  98              	.L9:
  99 001a 00BF     		.align	2
 100              	.L8:
 101 001c 00000000 		.word	OnNumberOfErrorsUpdate
 102              		.cfi_endproc
 103              	.LFE1:
 104              		.size	emergencyInit, .-emergencyInit
 105              		.section	.text.emergencyStop,"ax",%progbits
 106              		.align	2
 107              		.global	emergencyStop
 108              		.thumb
 109              		.thumb_func
 110              		.type	emergencyStop, %function
 111              	emergencyStop:
 112              	.LFB2:
 341:.\emcy.c      **** }
 342:.\emcy.c      **** 
ARM GAS  C:\Users\PANXIA~1\AppData\Local\Temp\ccrvLAOd.s 			page 9


 343:.\emcy.c      **** /*!
 344:.\emcy.c      **** **
 345:.\emcy.c      **** **
 346:.\emcy.c      **** ** @param d
 347:.\emcy.c      **** **/
 348:.\emcy.c      **** void emergencyStop(CO_Data* d)
 349:.\emcy.c      **** {
 113              		.loc 1 349 0
 114              		.cfi_startproc
 115              		@ args = 0, pretend = 0, frame = 0
 116              		@ frame_needed = 0, uses_anonymous_args = 0
 117              		@ link register save eliminated.
 118              	.LVL11:
 119 0000 7047     		bx	lr
 120              		.cfi_endproc
 121              	.LFE2:
 122              		.size	emergencyStop, .-emergencyStop
 123 0002 00BF     		.section	.text.sendEMCY,"ax",%progbits
 124              		.align	2
 125              		.global	sendEMCY
 126              		.thumb
 127              		.thumb_func
 128              		.type	sendEMCY, %function
 129              	sendEMCY:
 130              	.LFB3:
 350:.\emcy.c      **** 
 351:.\emcy.c      **** }
 352:.\emcy.c      **** 
 353:.\emcy.c      **** /*!
 354:.\emcy.c      ****  **
 355:.\emcy.c      ****  **
 356:.\emcy.c      ****  ** @param d
 357:.\emcy.c      ****  ** @param cob_id
 358:.\emcy.c      ****  **
 359:.\emcy.c      ****  ** @return
 360:.\emcy.c      ****  **/
 361:.\emcy.c      **** UNS8 sendEMCY(CO_Data* d, UNS16 errCode, UNS8 errRegister)
 362:.\emcy.c      **** {
 131              		.loc 1 362 0
 132              		.cfi_startproc
 133              		@ args = 0, pretend = 0, frame = 16
 134              		@ frame_needed = 0, uses_anonymous_args = 0
 135              	.LVL12:
 136              		.loc 1 362 0
 137 0000 10B5     		push	{r4, lr}
 138              		.cfi_def_cfa_offset 8
 139              		.cfi_offset 4, -8
 140              		.cfi_offset 14, -4
 141 0002 84B0     		sub	sp, sp, #16
 142              		.cfi_def_cfa_offset 24
 363:.\emcy.c      ****     Message m;
 364:.\emcy.c      **** 
 365:.\emcy.c      ****     MSG_WAR(0x3051, "sendEMCY", 0);
 366:.\emcy.c      **** 
 367:.\emcy.c      ****     m.cob_id = (UNS16)UNS16_LE(*(UNS32*)d->error_cobid);
 143              		.loc 1 367 0
 144 0004 D0F88431 		ldr	r3, [r0, #388]
ARM GAS  C:\Users\PANXIA~1\AppData\Local\Temp\ccrvLAOd.s 			page 10


 145 0008 1B88     		ldrh	r3, [r3]
 146 000a ADF80430 		strh	r3, [sp, #4]	@ movhi
 368:.\emcy.c      ****     m.rtr = NOT_A_REQUEST;
 147              		.loc 1 368 0
 148 000e 0023     		movs	r3, #0
 149 0010 8DF80630 		strb	r3, [sp, #6]
 369:.\emcy.c      ****     m.len = 8;
 150              		.loc 1 369 0
 151 0014 0824     		movs	r4, #8
 152 0016 8DF80740 		strb	r4, [sp, #7]
 370:.\emcy.c      ****     m.data[0] = errCode & 0xFF;        /* LSB */
 153              		.loc 1 370 0
 154 001a 8DF80810 		strb	r1, [sp, #8]
 371:.\emcy.c      ****     m.data[1] = (errCode >> 8) & 0xFF; /* MSB */
 155              		.loc 1 371 0
 156 001e E140     		lsrs	r1, r1, r4
 157              	.LVL13:
 158 0020 8DF80910 		strb	r1, [sp, #9]
 372:.\emcy.c      ****     m.data[2] = errRegister;
 159              		.loc 1 372 0
 160 0024 8DF80A20 		strb	r2, [sp, #10]
 373:.\emcy.c      ****     m.data[3] = 0;		/* Manufacturer specific Error Field still not implemented */
 161              		.loc 1 373 0
 162 0028 8DF80B30 		strb	r3, [sp, #11]
 374:.\emcy.c      ****     m.data[4] = 0;
 163              		.loc 1 374 0
 164 002c 8DF80C30 		strb	r3, [sp, #12]
 375:.\emcy.c      ****     m.data[5] = 0;
 165              		.loc 1 375 0
 166 0030 8DF80D30 		strb	r3, [sp, #13]
 376:.\emcy.c      ****     m.data[6] = 0;
 167              		.loc 1 376 0
 168 0034 8DF80E30 		strb	r3, [sp, #14]
 377:.\emcy.c      ****     m.data[7] = 0;
 169              		.loc 1 377 0
 170 0038 8DF80F30 		strb	r3, [sp, #15]
 378:.\emcy.c      **** 
 379:.\emcy.c      ****     return canSend(d->canHandle,&m);
 171              		.loc 1 379 0
 172 003c D0F85001 		ldr	r0, [r0, #336]
 173              	.LVL14:
 174 0040 01A9     		add	r1, sp, #4
 175 0042 FFF7FEFF 		bl	canSend
 176              	.LVL15:
 380:.\emcy.c      **** }
 177              		.loc 1 380 0
 178 0046 04B0     		add	sp, sp, #16
 179              		.cfi_def_cfa_offset 8
 180              		@ sp needed
 181 0048 10BD     		pop	{r4, pc}
 182              		.cfi_endproc
 183              	.LFE3:
 184              		.size	sendEMCY, .-sendEMCY
 185 004a 00BF     		.section	.text.EMCY_setError,"ax",%progbits
 186              		.align	2
 187              		.global	EMCY_setError
 188              		.thumb
ARM GAS  C:\Users\PANXIA~1\AppData\Local\Temp\ccrvLAOd.s 			page 11


 189              		.thumb_func
 190              		.type	EMCY_setError, %function
 191              	EMCY_setError:
 192              	.LFB4:
 381:.\emcy.c      **** 
 382:.\emcy.c      **** /*! Sets a new error with code errCode. Also sets corresponding bits in Error register (1001h)
 383:.\emcy.c      ****  **
 384:.\emcy.c      ****  **
 385:.\emcy.c      ****  ** @param d
 386:.\emcy.c      ****  ** @param errCode Code of the error
 387:.\emcy.c      ****  ** @param errRegister Bits of Error register (1001h) to be set.
 388:.\emcy.c      ****  ** @return 1 if error, 0 if successful
 389:.\emcy.c      ****  */
 390:.\emcy.c      **** UNS8 EMCY_setError(CO_Data* d, UNS16 errCode, UNS8 errRegMask, UNS16 addInfo)
 391:.\emcy.c      **** {
 193              		.loc 1 391 0
 194              		.cfi_startproc
 195              		@ args = 0, pretend = 0, frame = 0
 196              		@ frame_needed = 0, uses_anonymous_args = 0
 197              	.LVL16:
 198 0000 70B5     		push	{r4, r5, r6, lr}
 199              		.cfi_def_cfa_offset 16
 200              		.cfi_offset 4, -16
 201              		.cfi_offset 5, -12
 202              		.cfi_offset 6, -8
 203              		.cfi_offset 14, -4
 204              	.LVL17:
 392:.\emcy.c      ****     UNS8 index;
 393:.\emcy.c      ****     UNS8 errRegister_tmp;
 394:.\emcy.c      **** 
 395:.\emcy.c      ****     for (index = 0; index < EMCY_MAX_ERRORS; ++index)
 205              		.loc 1 395 0
 206 0002 0024     		movs	r4, #0
 207 0004 13E0     		b	.L14
 208              	.LVL18:
 209              	.L18:
 396:.\emcy.c      ****     {
 397:.\emcy.c      ****         if (d->error_data[index].errCode == errCode)		/* error already registered */
 210              		.loc 1 397 0
 211 0006 04F16205 		add	r5, r4, #98
 212 000a 30F82550 		ldrh	r5, [r0, r5, lsl #2]
 213 000e 8D42     		cmp	r5, r1
 214 0010 0BD1     		bne	.L15
 398:.\emcy.c      ****         {
 399:.\emcy.c      ****             if (d->error_data[index].active)
 215              		.loc 1 399 0
 216 0012 00EB8405 		add	r5, r0, r4, lsl #2
 217 0016 95F88B51 		ldrb	r5, [r5, #395]	@ zero_extendqisi2
 218 001a 002D     		cmp	r5, #0
 219 001c 61D1     		bne	.L28
 400:.\emcy.c      ****             {
 401:.\emcy.c      ****                 MSG_WAR(0x3052, "EMCY message already sent", 0);
 402:.\emcy.c      ****                 return 0;
 403:.\emcy.c      ****             } else d->error_data[index].active = 1;		/* set as active error */
 220              		.loc 1 403 0
 221 001e 00EB8406 		add	r6, r0, r4, lsl #2
 222 0022 0125     		movs	r5, #1
ARM GAS  C:\Users\PANXIA~1\AppData\Local\Temp\ccrvLAOd.s 			page 12


 223 0024 86F88B51 		strb	r5, [r6, #395]
 404:.\emcy.c      ****             break;
 224              		.loc 1 404 0
 225 0028 03E0     		b	.L17
 226              	.L15:
 395:.\emcy.c      ****     {
 227              		.loc 1 395 0 discriminator 2
 228 002a 0134     		adds	r4, r4, #1
 229              	.LVL19:
 230 002c E4B2     		uxtb	r4, r4
 231              	.LVL20:
 232              	.L14:
 395:.\emcy.c      ****     {
 233              		.loc 1 395 0 is_stmt 0 discriminator 1
 234 002e 072C     		cmp	r4, #7
 235 0030 E9D9     		bls	.L18
 236              	.L17:
 405:.\emcy.c      ****         }
 406:.\emcy.c      ****     }
 407:.\emcy.c      **** 
 408:.\emcy.c      ****     if (index == EMCY_MAX_ERRORS)		/* if errCode not already registered */
 237              		.loc 1 408 0 is_stmt 1
 238 0032 082C     		cmp	r4, #8
 239 0034 0BD1     		bne	.L20
 240 0036 07E0     		b	.L29
 241              	.L21:
 409:.\emcy.c      ****         for (index = 0; index < EMCY_MAX_ERRORS; ++index) if (d->error_data[index].active == 0) bre
 242              		.loc 1 409 0 discriminator 4
 243 0038 00EB8405 		add	r5, r0, r4, lsl #2
 244 003c 95F88B51 		ldrb	r5, [r5, #395]	@ zero_extendqisi2
 245 0040 2DB1     		cbz	r5, .L20
 246              		.loc 1 409 0 is_stmt 0 discriminator 2
 247 0042 0134     		adds	r4, r4, #1
 248              	.LVL21:
 249 0044 E4B2     		uxtb	r4, r4
 250              	.LVL22:
 251 0046 00E0     		b	.L19
 252              	.L29:
 253 0048 0024     		movs	r4, #0
 254              	.LVL23:
 255              	.L19:
 256              		.loc 1 409 0 discriminator 3
 257 004a 072C     		cmp	r4, #7
 258 004c F4D9     		bls	.L21
 259              	.L20:
 410:.\emcy.c      **** 
 411:.\emcy.c      ****     if (index == EMCY_MAX_ERRORS)		/* error_data full */
 260              		.loc 1 411 0 is_stmt 1
 261 004e 082C     		cmp	r4, #8
 262 0050 49D0     		beq	.L30
 412:.\emcy.c      ****     {
 413:.\emcy.c      ****         MSG_ERR(0x3053, "error_data full", 0);
 414:.\emcy.c      ****         return 1;
 415:.\emcy.c      ****     }
 416:.\emcy.c      **** 
 417:.\emcy.c      ****     d->error_data[index].errCode = errCode;
 263              		.loc 1 417 0
ARM GAS  C:\Users\PANXIA~1\AppData\Local\Temp\ccrvLAOd.s 			page 13


 264 0052 6234     		adds	r4, r4, #98
 265              	.LVL24:
 266 0054 20F82410 		strh	r1, [r0, r4, lsl #2]	@ movhi
 418:.\emcy.c      ****     d->error_data[index].errRegMask = errRegMask;
 267              		.loc 1 418 0
 268 0058 00EB8404 		add	r4, r0, r4, lsl #2
 269 005c A270     		strb	r2, [r4, #2]
 419:.\emcy.c      ****     d->error_data[index].active = 1;
 270              		.loc 1 419 0
 271 005e 0122     		movs	r2, #1
 272              	.LVL25:
 273 0060 E270     		strb	r2, [r4, #3]
 420:.\emcy.c      **** 
 421:.\emcy.c      ****     /* set the new state in the error state machine */
 422:.\emcy.c      ****     d->error_state = Error_occurred;
 274              		.loc 1 422 0
 275 0062 80F87421 		strb	r2, [r0, #372]
 276              	.LVL26:
 423:.\emcy.c      **** 
 424:.\emcy.c      ****     /* set Error Register (1001h) */
 425:.\emcy.c      ****     for (index = 0, errRegister_tmp = 0; index < EMCY_MAX_ERRORS; ++index)
 277              		.loc 1 425 0
 278 0066 0025     		movs	r5, #0
 279 0068 2A46     		mov	r2, r5
 280 006a 0CE0     		b	.L22
 281              	.LVL27:
 282              	.L24:
 426:.\emcy.c      ****         if (d->error_data[index].active == 1) errRegister_tmp |= d->error_data[index].errRegMask;
 283              		.loc 1 426 0
 284 006c 00EB8204 		add	r4, r0, r2, lsl #2
 285 0070 94F88B41 		ldrb	r4, [r4, #395]	@ zero_extendqisi2
 286 0074 012C     		cmp	r4, #1
 287 0076 04D1     		bne	.L23
 288              		.loc 1 426 0 is_stmt 0 discriminator 1
 289 0078 00EB8204 		add	r4, r0, r2, lsl #2
 290 007c 94F88A41 		ldrb	r4, [r4, #394]	@ zero_extendqisi2
 291 0080 2543     		orrs	r5, r5, r4
 292              	.LVL28:
 293              	.L23:
 425:.\emcy.c      ****         if (d->error_data[index].active == 1) errRegister_tmp |= d->error_data[index].errRegMask;
 294              		.loc 1 425 0 is_stmt 1 discriminator 2
 295 0082 0132     		adds	r2, r2, #1
 296              	.LVL29:
 297 0084 D2B2     		uxtb	r2, r2
 298              	.LVL30:
 299              	.L22:
 425:.\emcy.c      ****         if (d->error_data[index].active == 1) errRegister_tmp |= d->error_data[index].errRegMask;
 300              		.loc 1 425 0 is_stmt 0 discriminator 1
 301 0086 072A     		cmp	r2, #7
 302 0088 F0D9     		bls	.L24
 427:.\emcy.c      ****     *d->error_register = errRegister_tmp;
 303              		.loc 1 427 0 is_stmt 1
 304 008a D0F88021 		ldr	r2, [r0, #384]
 305              	.LVL31:
 306 008e 1570     		strb	r5, [r2]
 428:.\emcy.c      **** 
 429:.\emcy.c      ****     /* set Pre-defined Error Field (1003h) */
ARM GAS  C:\Users\PANXIA~1\AppData\Local\Temp\ccrvLAOd.s 			page 14


 430:.\emcy.c      ****     for (index = d->error_history_size - 1; index > 0; --index)
 307              		.loc 1 430 0
 308 0090 90F87521 		ldrb	r2, [r0, #373]	@ zero_extendqisi2
 309 0094 013A     		subs	r2, r2, #1
 310 0096 D2B2     		uxtb	r2, r2
 311              	.LVL32:
 312 0098 0AE0     		b	.L25
 313              	.LVL33:
 314              	.L26:
 431:.\emcy.c      ****         *(d->error_first_element + index) = *(d->error_first_element + index - 1);
 315              		.loc 1 431 0 discriminator 3
 316 009a D0F87C51 		ldr	r5, [r0, #380]
 317 009e 02F18044 		add	r4, r2, #1073741824
 318 00a2 013C     		subs	r4, r4, #1
 319 00a4 55F82440 		ldr	r4, [r5, r4, lsl #2]
 320 00a8 45F82240 		str	r4, [r5, r2, lsl #2]
 430:.\emcy.c      ****         *(d->error_first_element + index) = *(d->error_first_element + index - 1);
 321              		.loc 1 430 0 discriminator 3
 322 00ac 013A     		subs	r2, r2, #1
 323              	.LVL34:
 324 00ae D2B2     		uxtb	r2, r2
 325              	.LVL35:
 326              	.L25:
 430:.\emcy.c      ****         *(d->error_first_element + index) = *(d->error_first_element + index - 1);
 327              		.loc 1 430 0 is_stmt 0 discriminator 1
 328 00b0 002A     		cmp	r2, #0
 329 00b2 F2D1     		bne	.L26
 432:.\emcy.c      ****     *(d->error_first_element) = errCode | ((UNS32)addInfo << 16);
 330              		.loc 1 432 0 is_stmt 1
 331 00b4 D0F87C21 		ldr	r2, [r0, #380]
 332              	.LVL36:
 333 00b8 41EA0343 		orr	r3, r1, r3, lsl #16
 334              	.LVL37:
 335 00bc 1360     		str	r3, [r2]
 433:.\emcy.c      ****     if(*d->error_number < d->error_history_size) ++(*d->error_number);
 336              		.loc 1 433 0
 337 00be D0F87821 		ldr	r2, [r0, #376]
 338 00c2 1378     		ldrb	r3, [r2]	@ zero_extendqisi2
 339 00c4 90F87541 		ldrb	r4, [r0, #373]	@ zero_extendqisi2
 340 00c8 A342     		cmp	r3, r4
 341 00ca 01D2     		bcs	.L27
 342              		.loc 1 433 0 is_stmt 0 discriminator 1
 343 00cc 0133     		adds	r3, r3, #1
 344 00ce 1370     		strb	r3, [r2]
 345              	.L27:
 434:.\emcy.c      **** 
 435:.\emcy.c      ****     /* send EMCY message */
 436:.\emcy.c      ****     if (d->CurrentCommunicationState.csEmergency)
 346              		.loc 1 436 0 is_stmt 1
 347 00d0 90F87B30 		ldrb	r3, [r0, #123]	@ zero_extendqisi2
 348 00d4 4BB1     		cbz	r3, .L31
 437:.\emcy.c      ****         return sendEMCY(d, errCode, *d->error_register);
 349              		.loc 1 437 0
 350 00d6 D0F88031 		ldr	r3, [r0, #384]
 351 00da 1A78     		ldrb	r2, [r3]	@ zero_extendqisi2
 352 00dc FFF7FEFF 		bl	sendEMCY
 353              	.LVL38:
ARM GAS  C:\Users\PANXIA~1\AppData\Local\Temp\ccrvLAOd.s 			page 15


 354 00e0 70BD     		pop	{r4, r5, r6, pc}
 355              	.LVL39:
 356              	.L28:
 402:.\emcy.c      ****             } else d->error_data[index].active = 1;		/* set as active error */
 357              		.loc 1 402 0
 358 00e2 0020     		movs	r0, #0
 359              	.LVL40:
 360 00e4 70BD     		pop	{r4, r5, r6, pc}
 361              	.LVL41:
 362              	.L30:
 414:.\emcy.c      ****     }
 363              		.loc 1 414 0
 364 00e6 0120     		movs	r0, #1
 365              	.LVL42:
 366 00e8 70BD     		pop	{r4, r5, r6, pc}
 367              	.LVL43:
 368              	.L31:
 438:.\emcy.c      ****     else return 1;
 369              		.loc 1 438 0
 370 00ea 0120     		movs	r0, #1
 371              	.LVL44:
 439:.\emcy.c      **** }
 372              		.loc 1 439 0
 373 00ec 70BD     		pop	{r4, r5, r6, pc}
 374              		.cfi_endproc
 375              	.LFE4:
 376              		.size	EMCY_setError, .-EMCY_setError
 377 00ee 00BF     		.section	.text.EMCY_errorRecovered,"ax",%progbits
 378              		.align	2
 379              		.global	EMCY_errorRecovered
 380              		.thumb
 381              		.thumb_func
 382              		.type	EMCY_errorRecovered, %function
 383              	EMCY_errorRecovered:
 384              	.LFB5:
 440:.\emcy.c      **** 
 441:.\emcy.c      **** /*! Deletes error errCode. Also clears corresponding bits in Error register (1001h)
 442:.\emcy.c      ****  **
 443:.\emcy.c      ****  **
 444:.\emcy.c      ****  ** @param d
 445:.\emcy.c      ****  ** @param errCode Code of the error
 446:.\emcy.c      ****  ** @param errRegister Bits of Error register (1001h) to be set.
 447:.\emcy.c      ****  ** @return 1 if error, 0 if successful
 448:.\emcy.c      ****  */
 449:.\emcy.c      **** void EMCY_errorRecovered(CO_Data* d, UNS16 errCode)
 450:.\emcy.c      **** {
 385              		.loc 1 450 0
 386              		.cfi_startproc
 387              		@ args = 0, pretend = 0, frame = 0
 388              		@ frame_needed = 0, uses_anonymous_args = 0
 389              	.LVL45:
 390 0000 38B5     		push	{r3, r4, r5, lr}
 391              		.cfi_def_cfa_offset 16
 392              		.cfi_offset 3, -16
 393              		.cfi_offset 4, -12
 394              		.cfi_offset 5, -8
 395              		.cfi_offset 14, -4
ARM GAS  C:\Users\PANXIA~1\AppData\Local\Temp\ccrvLAOd.s 			page 16


 396              	.LVL46:
 451:.\emcy.c      ****     UNS8 index;
 452:.\emcy.c      ****     UNS8 errRegister_tmp;
 453:.\emcy.c      ****     UNS8 anyActiveError = 0;
 454:.\emcy.c      **** 
 455:.\emcy.c      ****     for (index = 0; index < EMCY_MAX_ERRORS; ++index)
 397              		.loc 1 455 0
 398 0002 0023     		movs	r3, #0
 399 0004 07E0     		b	.L34
 400              	.LVL47:
 401              	.L36:
 456:.\emcy.c      ****         if (d->error_data[index].errCode == errCode) break;		/* find the position of the error */
 402              		.loc 1 456 0
 403 0006 03F16202 		add	r2, r3, #98
 404 000a 30F82220 		ldrh	r2, [r0, r2, lsl #2]
 405 000e 8A42     		cmp	r2, r1
 406 0010 03D0     		beq	.L35
 455:.\emcy.c      ****         if (d->error_data[index].errCode == errCode) break;		/* find the position of the error */
 407              		.loc 1 455 0 discriminator 2
 408 0012 0133     		adds	r3, r3, #1
 409              	.LVL48:
 410 0014 DBB2     		uxtb	r3, r3
 411              	.LVL49:
 412              	.L34:
 455:.\emcy.c      ****         if (d->error_data[index].errCode == errCode) break;		/* find the position of the error */
 413              		.loc 1 455 0 is_stmt 0 discriminator 1
 414 0016 072B     		cmp	r3, #7
 415 0018 F5D9     		bls	.L36
 416              	.L35:
 457:.\emcy.c      **** 
 458:.\emcy.c      **** 
 459:.\emcy.c      ****     if ((index != EMCY_MAX_ERRORS) && (d->error_data[index].active == 1))
 417              		.loc 1 459 0 is_stmt 1
 418 001a 082B     		cmp	r3, #8
 419 001c 2CD0     		beq	.L33
 420              		.loc 1 459 0 is_stmt 0 discriminator 1
 421 001e 00EB8302 		add	r2, r0, r3, lsl #2
 422 0022 92F88B21 		ldrb	r2, [r2, #395]	@ zero_extendqisi2
 423 0026 012A     		cmp	r2, #1
 424 0028 26D1     		bne	.L33
 460:.\emcy.c      ****     {
 461:.\emcy.c      ****         d->error_data[index].active = 0;
 425              		.loc 1 461 0 is_stmt 1
 426 002a 6233     		adds	r3, r3, #98
 427              	.LVL50:
 428 002c 00EB8303 		add	r3, r0, r3, lsl #2
 429 0030 0022     		movs	r2, #0
 430 0032 DA70     		strb	r2, [r3, #3]
 431              	.LVL51:
 453:.\emcy.c      **** 
 432              		.loc 1 453 0
 433 0034 1146     		mov	r1, r2
 434              	.LVL52:
 462:.\emcy.c      **** 
 463:.\emcy.c      ****         /* set Error Register (1001h) and check error state machine */
 464:.\emcy.c      ****         for (index = 0, errRegister_tmp = 0; index < EMCY_MAX_ERRORS; ++index)
 435              		.loc 1 464 0
ARM GAS  C:\Users\PANXIA~1\AppData\Local\Temp\ccrvLAOd.s 			page 17


 436 0036 1546     		mov	r5, r2
 437 0038 1346     		mov	r3, r2
 438 003a 0DE0     		b	.L38
 439              	.LVL53:
 440              	.L40:
 465:.\emcy.c      ****             if (d->error_data[index].active == 1)
 441              		.loc 1 465 0
 442 003c 00EB8302 		add	r2, r0, r3, lsl #2
 443 0040 92F88B21 		ldrb	r2, [r2, #395]	@ zero_extendqisi2
 444 0044 012A     		cmp	r2, #1
 445 0046 05D1     		bne	.L39
 446              	.LVL54:
 466:.\emcy.c      ****             {
 467:.\emcy.c      ****                 anyActiveError = 1;
 468:.\emcy.c      ****                 errRegister_tmp |= d->error_data[index].errRegMask;
 447              		.loc 1 468 0
 448 0048 00EB8302 		add	r2, r0, r3, lsl #2
 449 004c 92F88A21 		ldrb	r2, [r2, #394]	@ zero_extendqisi2
 450 0050 1543     		orrs	r5, r5, r2
 451              	.LVL55:
 467:.\emcy.c      ****                 errRegister_tmp |= d->error_data[index].errRegMask;
 452              		.loc 1 467 0
 453 0052 0121     		movs	r1, #1
 454              	.LVL56:
 455              	.L39:
 464:.\emcy.c      ****             if (d->error_data[index].active == 1)
 456              		.loc 1 464 0 discriminator 2
 457 0054 0133     		adds	r3, r3, #1
 458              	.LVL57:
 459 0056 DBB2     		uxtb	r3, r3
 460              	.LVL58:
 461              	.L38:
 464:.\emcy.c      ****             if (d->error_data[index].active == 1)
 462              		.loc 1 464 0 is_stmt 0 discriminator 1
 463 0058 072B     		cmp	r3, #7
 464 005a EFD9     		bls	.L40
 465 005c 0446     		mov	r4, r0
 469:.\emcy.c      ****             }
 470:.\emcy.c      ****         if(anyActiveError == 0)
 466              		.loc 1 470 0 is_stmt 1
 467 005e 41B9     		cbnz	r1, .L41
 471:.\emcy.c      ****         {
 472:.\emcy.c      ****             d->error_state = Error_free;
 468              		.loc 1 472 0
 469 0060 0023     		movs	r3, #0
 470              	.LVL59:
 471 0062 80F87431 		strb	r3, [r0, #372]
 473:.\emcy.c      ****             /* send a EMCY message with code "Error Reset or No Error" */
 474:.\emcy.c      ****             if (d->CurrentCommunicationState.csEmergency)
 472              		.loc 1 474 0
 473 0066 90F87B30 		ldrb	r3, [r0, #123]	@ zero_extendqisi2
 474 006a 13B1     		cbz	r3, .L41
 475:.\emcy.c      ****                 sendEMCY(d, 0x0000, 0x00);
 475              		.loc 1 475 0
 476 006c 0A46     		mov	r2, r1
 477 006e FFF7FEFF 		bl	sendEMCY
 478              	.LVL60:
ARM GAS  C:\Users\PANXIA~1\AppData\Local\Temp\ccrvLAOd.s 			page 18


 479              	.L41:
 476:.\emcy.c      ****         }
 477:.\emcy.c      ****         *d->error_register = errRegister_tmp;
 480              		.loc 1 477 0
 481 0072 D4F88031 		ldr	r3, [r4, #384]
 482 0076 1D70     		strb	r5, [r3]
 483              	.LVL61:
 484              	.L33:
 485 0078 38BD     		pop	{r3, r4, r5, pc}
 486              		.cfi_endproc
 487              	.LFE5:
 488              		.size	EMCY_errorRecovered, .-EMCY_errorRecovered
 489              		.section	.text.proceedEMCY,"ax",%progbits
 490              		.align	2
 491              		.global	proceedEMCY
 492              		.thumb
 493              		.thumb_func
 494              		.type	proceedEMCY, %function
 495              	proceedEMCY:
 496              	.LFB6:
 478:.\emcy.c      ****     }
 479:.\emcy.c      ****     else
 480:.\emcy.c      ****         MSG_WAR(0x3054, "recovered error was not active", 0);
 481:.\emcy.c      **** }
 482:.\emcy.c      **** 
 483:.\emcy.c      **** /*! This function is responsible to process an EMCY canopen-message.
 484:.\emcy.c      ****  **
 485:.\emcy.c      ****  **
 486:.\emcy.c      ****  ** @param d
 487:.\emcy.c      ****  ** @param m The CAN-message which has to be analysed.
 488:.\emcy.c      ****  **
 489:.\emcy.c      ****  **/
 490:.\emcy.c      **** void proceedEMCY(CO_Data* d, Message* m)
 491:.\emcy.c      **** {
 497              		.loc 1 491 0
 498              		.cfi_startproc
 499              		@ args = 0, pretend = 0, frame = 0
 500              		@ frame_needed = 0, uses_anonymous_args = 0
 501              	.LVL62:
 502 0000 38B5     		push	{r3, r4, r5, lr}
 503              		.cfi_def_cfa_offset 16
 504              		.cfi_offset 3, -16
 505              		.cfi_offset 4, -12
 506              		.cfi_offset 5, -8
 507              		.cfi_offset 14, -4
 492:.\emcy.c      ****     UNS8 nodeID;
 493:.\emcy.c      ****     UNS16 errCode;
 494:.\emcy.c      ****     UNS8 errReg;
 495:.\emcy.c      **** 
 496:.\emcy.c      ****     MSG_WAR(0x3055, "EMCY received. Proceed. ", 0);
 497:.\emcy.c      **** 
 498:.\emcy.c      ****     /* Test if the size of the EMCY is ok */
 499:.\emcy.c      ****     if ( m->len != 8) {
 508              		.loc 1 499 0
 509 0002 CB78     		ldrb	r3, [r1, #3]	@ zero_extendqisi2
 510 0004 082B     		cmp	r3, #8
 511 0006 0BD1     		bne	.L43
ARM GAS  C:\Users\PANXIA~1\AppData\Local\Temp\ccrvLAOd.s 			page 19


 512 0008 0B46     		mov	r3, r1
 500:.\emcy.c      ****         MSG_ERR(0x1056, "Error size EMCY. CobId  : ", m->cob_id);
 501:.\emcy.c      ****         return;
 502:.\emcy.c      ****     }
 503:.\emcy.c      **** 
 504:.\emcy.c      ****     /* post the received EMCY */
 505:.\emcy.c      ****     nodeID = UNS16_LE(m->cob_id) & 0x7F;
 513              		.loc 1 505 0
 514 000a 0988     		ldrh	r1, [r1]
 515              	.LVL63:
 506:.\emcy.c      ****     errCode = m->data[0] | ((UNS16)m->data[1] << 8);
 516              		.loc 1 506 0
 517 000c 1A79     		ldrb	r2, [r3, #4]	@ zero_extendqisi2
 518 000e 5D79     		ldrb	r5, [r3, #5]	@ zero_extendqisi2
 519              	.LVL64:
 507:.\emcy.c      ****     errReg = m->data[2];
 508:.\emcy.c      ****     (*d->post_emcy)(d, nodeID, errCode, errReg);
 520              		.loc 1 508 0
 521 0010 D0F8A841 		ldr	r4, [r0, #424]
 522 0014 01F07F01 		and	r1, r1, #127
 523              	.LVL65:
 524 0018 42EA0522 		orr	r2, r2, r5, lsl #8
 525              	.LVL66:
 526 001c 9B79     		ldrb	r3, [r3, #6]	@ zero_extendqisi2
 527              	.LVL67:
 528 001e A047     		blx	r4
 529              	.LVL68:
 530              	.L43:
 531 0020 38BD     		pop	{r3, r4, r5, pc}
 532              		.cfi_endproc
 533              	.LFE6:
 534              		.size	proceedEMCY, .-proceedEMCY
 535 0022 00BF     		.section	.text._post_emcy,"ax",%progbits
 536              		.align	2
 537              		.global	_post_emcy
 538              		.thumb
 539              		.thumb_func
 540              		.type	_post_emcy, %function
 541              	_post_emcy:
 542              	.LFB7:
 509:.\emcy.c      **** }
 510:.\emcy.c      **** 
 511:.\emcy.c      **** void _post_emcy(CO_Data* d, UNS8 nodeID, UNS16 errCode, UNS8 errReg){}
 543              		.loc 1 511 0
 544              		.cfi_startproc
 545              		@ args = 0, pretend = 0, frame = 0
 546              		@ frame_needed = 0, uses_anonymous_args = 0
 547              		@ link register save eliminated.
 548              	.LVL69:
 549 0000 7047     		bx	lr
 550              		.cfi_endproc
 551              	.LFE7:
 552              		.size	_post_emcy, .-_post_emcy
 553 0002 00BF     		.text
 554              	.Letext0:
 555              		.file 2 "./data.h"
 556              		.file 3 "./can.h"
ARM GAS  C:\Users\PANXIA~1\AppData\Local\Temp\ccrvLAOd.s 			page 20


 557              		.file 4 "./applicfg.h"
 558              		.file 5 "./objdictdef.h"
 559              		.file 6 "./objacces.h"
 560              		.file 7 "./sdo.h"
 561              		.file 8 "./pdo.h"
 562              		.file 9 "./states.h"
 563              		.file 10 "./lifegrd.h"
 564              		.file 11 "./sync.h"
 565              		.file 12 "./emcy.h"
 566              		.file 13 ".\\canfestival.h"