ARM GAS  C:\Users\PANXIA~1\AppData\Local\Temp\cckUlCze.s 			page 1


   1              		.syntax unified
   2              		.cpu cortex-m3
   3              		.fpu softvfp
   4              		.eabi_attribute 20, 1
   5              		.eabi_attribute 21, 1
   6              		.eabi_attribute 23, 3
   7              		.eabi_attribute 24, 1
   8              		.eabi_attribute 25, 1
   9              		.eabi_attribute 26, 1
  10              		.eabi_attribute 30, 1
  11              		.eabi_attribute 34, 1
  12              		.eabi_attribute 18, 4
  13              		.thumb
  14              		.file	"Valve_Control.c"
  15              		.text
  16              	.Ltext0:
  17              		.cfi_sections	.debug_frame
  18              		.section	.text.EEPROM_Array_Read,"ax",%progbits
  19              		.align	2
  20              		.global	EEPROM_Array_Read
  21              		.thumb
  22              		.thumb_func
  23              		.type	EEPROM_Array_Read, %function
  24              	EEPROM_Array_Read:
  25              	.LFB65:
  26              		.file 1 ".\\Valve_Control.c"
   1:.\Valve_Control.c **** /* ========================================
   2:.\Valve_Control.c ****  *
   3:.\Valve_Control.c ****  * Copyright YOUR COMPANY, THE YEAR
   4:.\Valve_Control.c ****  * All Rights Reserved
   5:.\Valve_Control.c ****  * UNPUBLISHED, LICENSED SOFTWARE.
   6:.\Valve_Control.c ****  *
   7:.\Valve_Control.c ****  * CONFIDENTIAL AND PROPRIETARY INFORMATION
   8:.\Valve_Control.c ****  * WHICH IS THE PROPERTY OF your company.
   9:.\Valve_Control.c ****  *
  10:.\Valve_Control.c ****  * ========================================
  11:.\Valve_Control.c **** */
  12:.\Valve_Control.c **** /* ========================================
  13:.\Valve_Control.c ****  *
  14:.\Valve_Control.c ****  * Copyright YOUR COMPANY, THE YEAR
  15:.\Valve_Control.c ****  * All Rights Reserved
  16:.\Valve_Control.c ****  * UNPUBLISHED, LICENSED SOFTWARE.
  17:.\Valve_Control.c ****  *
  18:.\Valve_Control.c ****  * CONFIDENTIAL AND PROPRIETARY INFORMATION
  19:.\Valve_Control.c ****  * WHICH IS THE PROPERTY OF your company.
  20:.\Valve_Control.c ****  *
  21:.\Valve_Control.c ****  * ========================================
  22:.\Valve_Control.c **** */
  23:.\Valve_Control.c **** #include "product.h"
  24:.\Valve_Control.c **** #include "TestSlave.h"
  25:.\Valve_Control.c **** 
  26:.\Valve_Control.c **** #define BIT1 0X01       //KA1
  27:.\Valve_Control.c **** #define BIT2 0X02       //KA2
  28:.\Valve_Control.c **** #define BIT3 0X04       //KA3
  29:.\Valve_Control.c **** #define BIT4 0X08       //KA4
  30:.\Valve_Control.c **** #define BIT5 0X10       //KA5
  31:.\Valve_Control.c **** #define BIT6 0X20       //KA6
ARM GAS  C:\Users\PANXIA~1\AppData\Local\Temp\cckUlCze.s 			page 2


  32:.\Valve_Control.c **** #define BIT7 0X40
  33:.\Valve_Control.c **** #define BIT8 0X80
  34:.\Valve_Control.c **** 
  35:.\Valve_Control.c **** #define KA1_bit     0
  36:.\Valve_Control.c **** #define KA2_bit     1
  37:.\Valve_Control.c **** #define KA3_bit     2
  38:.\Valve_Control.c **** #define KA4_bit     3
  39:.\Valve_Control.c **** #define KA5_bit     4
  40:.\Valve_Control.c **** #define KA6_bit     5
  41:.\Valve_Control.c **** 
  42:.\Valve_Control.c **** #define INITIAL        0x01
  43:.\Valve_Control.c **** static const uint8 CYCODE Test_Array[1]={0XFF};
  44:.\Valve_Control.c **** static const uint8 CYCODE eepromArray[]={0x00, 0x00, 0x00, 0x00, 0x00, 0x00,0x00,0x00};  //ÈòÄÁªÑÈÖ
  45:.\Valve_Control.c **** //static const uint8 CYCODE eepromUnlodeTime = 0;  //ÈòÄÁªÑÈÖçÁΩÆÂàùÂßãÂåñÂÄº
  46:.\Valve_Control.c **** //static const uint8 CYCODE eepromKeepTime   = 0;  //ÈòÄÁªÑÈÖçÁΩÆÂàùÂßãÂåñÂÄº
  47:.\Valve_Control.c **** 
  48:.\Valve_Control.c **** struct CUTPARA	CutReg;
  49:.\Valve_Control.c **** 
  50:.\Valve_Control.c **** uint8 LED_Status[]={0x01,0x02,0x04,0x08,0x10,0x20};
  51:.\Valve_Control.c **** uint8 FootStart_state = 0x01;
  52:.\Valve_Control.c **** uint8 FootUP_State    = 0x01;
  53:.\Valve_Control.c **** CY_ISR_PROTO(Stroke_ISRHandle);
  54:.\Valve_Control.c **** uint16 Get_ADvalue(uint8 timetype);
  55:.\Valve_Control.c **** 
  56:.\Valve_Control.c **** extern int ISR_Stroke_Timer_states;
  57:.\Valve_Control.c **** /**********************************************************
  58:.\Valve_Control.c **** ÂáΩÊï∞ÂêçÔºö
  59:.\Valve_Control.c **** Âäü  ËÉΩÔºö
  60:.\Valve_Control.c **** ÂèÇ  Êï∞ÔºöÊó†
  61:.\Valve_Control.c **** ËøîÂõûÂÄºÔºöÊó†
  62:.\Valve_Control.c **** ËØ¥Êòé  ÔºöËß¶Âèë‰∏≠Êñ≠Êó∂Èó¥10ms
  63:.\Valve_Control.c **** ************************************************************/
  64:.\Valve_Control.c **** void timer_10ms(void)
  65:.\Valve_Control.c **** {
  66:.\Valve_Control.c **** 	//Stroke_Timer_STATUS;
  67:.\Valve_Control.c **** //	ISR_Stroke_Timer_ClearPending();
  68:.\Valve_Control.c **** //	if(CutReg.ModeRunFlag == 0x01)
  69:.\Valve_Control.c **** //	{
  70:.\Valve_Control.c ****    ISR_Stroke_Timer_states = 0x00; 
  71:.\Valve_Control.c ****  
  72:.\Valve_Control.c ****    if(((Enter_Start == System_enable)  || ( One_Work_Runing == CutReg.OneWorkFinshState && System_e
  73:.\Valve_Control.c ****     {
  74:.\Valve_Control.c ****         
  75:.\Valve_Control.c **** 		if(CutMode() == CUTSMODE && CutReg.CutTimeStatus < VUnload && (!FootStart()))
  76:.\Valve_Control.c **** 		{
  77:.\Valve_Control.c **** 			CyDelay(5);
  78:.\Valve_Control.c **** 			if(!FootStart())
  79:.\Valve_Control.c **** 			{
  80:.\Valve_Control.c **** 				ValveOut(CutReg.Action[VBack]);
  81:.\Valve_Control.c ****                 LED_WRITE(LED_Status[VBack]);
  82:.\Valve_Control.c **** 				CutReg.CutTimeStatus = VBack;
  83:.\Valve_Control.c ****               //CutReg.OneWorkFinshState = One_Work_Runing;   /* Â¢ûÂä†Âä®‰ΩúÂÆåÊàêÊ†áÂøó20160820*/
  84:.\Valve_Control.c **** 			}
  85:.\Valve_Control.c **** 		} 
  86:.\Valve_Control.c ****        // 
  87:.\Valve_Control.c **** 		switch(CutReg.CutTimeStatus)
  88:.\Valve_Control.c **** 		{
ARM GAS  C:\Users\PANXIA~1\AppData\Local\Temp\cckUlCze.s 			page 3


  89:.\Valve_Control.c **** 		case VFast:
  90:.\Valve_Control.c ****            CutReg.OneWorkFinshState = One_Work_Runing;   /* Â¢ûÂä†Âä®‰ΩúÂÆåÊàêÊ†áÂøó20160820*/
  91:.\Valve_Control.c **** 			if(DownPoint())
  92:.\Valve_Control.c **** 			{
  93:.\Valve_Control.c **** 				ValveOut(CutReg.Action[VSlow]);
  94:.\Valve_Control.c ****                 LED_WRITE(LED_Status[VSlow]);
  95:.\Valve_Control.c **** 				CutReg.CutTimeStatus = VSlow;
  96:.\Valve_Control.c **** 			}
  97:.\Valve_Control.c **** 			else
  98:.\Valve_Control.c **** 			{
  99:.\Valve_Control.c **** 				ValveOut(CutReg.Action[VFast]);
 100:.\Valve_Control.c ****                 LED_WRITE(LED_Status[VFast]);
 101:.\Valve_Control.c **** 				CutReg.CutTimeStatus = VFast;
 102:.\Valve_Control.c **** 			}
 103:.\Valve_Control.c **** 			break;
 104:.\Valve_Control.c **** 		case VSlow:
 105:.\Valve_Control.c ****             //  CutReg.OneWorkFinshState = One_Work_Runing;   /* Â¢ûÂä†Âä®‰ΩúÂÆåÊàêÊ†áÂøó20160820*/
 106:.\Valve_Control.c **** 			if(DownPoint())
 107:.\Valve_Control.c **** 			{
 108:.\Valve_Control.c **** 				ValveOut(CutReg.Action[VKeep]);
 109:.\Valve_Control.c ****                 LED_WRITE(LED_Status[VKeep]);
 110:.\Valve_Control.c **** 				CutReg.CutTimeStatus = VKeep;
 111:.\Valve_Control.c **** 				CutReg.Cnt = 0;
 112:.\Valve_Control.c **** 			}
 113:.\Valve_Control.c **** 			else
 114:.\Valve_Control.c **** 			{
 115:.\Valve_Control.c **** 				ValveOut(CutReg.Action[VFast]);
 116:.\Valve_Control.c ****                 LED_WRITE(LED_Status[VFast]);
 117:.\Valve_Control.c **** 				CutReg.CutTimeStatus = VFast;
 118:.\Valve_Control.c **** 			}
 119:.\Valve_Control.c **** 			break;
 120:.\Valve_Control.c **** 		case VKeep:
 121:.\Valve_Control.c ****            //  CutReg.OneWorkFinshState = One_Work_Runing;   /* Â¢ûÂä†Âä®‰ΩúÂÆåÊàêÊ†áÂøó20160820*/
 122:.\Valve_Control.c **** 			CutReg.Cnt++;
 123:.\Valve_Control.c **** 			if(CutReg.Cnt >= CutReg.KeepTime)
 124:.\Valve_Control.c **** 			{
 125:.\Valve_Control.c **** 				CutReg.Cnt = 0;
 126:.\Valve_Control.c **** 				ValveOut(CutReg.Action[VUnload]);
 127:.\Valve_Control.c ****                 LED_WRITE(LED_Status[VUnload]);
 128:.\Valve_Control.c **** 				CutReg.CutTimeStatus = VUnload;
 129:.\Valve_Control.c **** 			}
 130:.\Valve_Control.c **** 			else
 131:.\Valve_Control.c **** 			{
 132:.\Valve_Control.c **** 				ValveOut(CutReg.Action[VKeep]);
 133:.\Valve_Control.c ****                 LED_WRITE(LED_Status[VKeep]);
 134:.\Valve_Control.c **** 				CutReg.CutTimeStatus = VKeep;
 135:.\Valve_Control.c **** 			}
 136:.\Valve_Control.c **** 			break;
 137:.\Valve_Control.c **** 		case VUnload:
 138:.\Valve_Control.c ****           //    CutReg.OneWorkFinshState = One_Work_Runing;   /* Â¢ûÂä†Âä®‰ΩúÂÆåÊàêÊ†áÂøó20160820*/
 139:.\Valve_Control.c **** 			CutReg.Cnt++;
 140:.\Valve_Control.c **** 			if(CutReg.Cnt >= CutReg.UnloadTime)
 141:.\Valve_Control.c **** 			{
 142:.\Valve_Control.c **** 				CutReg.Cnt = 0;
 143:.\Valve_Control.c **** 				ValveOut(CutReg.Action[VBack]);
 144:.\Valve_Control.c ****                 LED_WRITE(LED_Status[VBack]);
 145:.\Valve_Control.c **** 				CutReg.CutTimeStatus = VBack;
ARM GAS  C:\Users\PANXIA~1\AppData\Local\Temp\cckUlCze.s 			page 4


 146:.\Valve_Control.c **** 			}
 147:.\Valve_Control.c **** 			else
 148:.\Valve_Control.c **** 			{
 149:.\Valve_Control.c **** 				ValveOut(CutReg.Action[VUnload]);
 150:.\Valve_Control.c ****                 LED_WRITE(LED_Status[VUnload]);
 151:.\Valve_Control.c **** 				CutReg.CutTimeStatus = VUnload;
 152:.\Valve_Control.c **** 			}
 153:.\Valve_Control.c **** 			break;
 154:.\Valve_Control.c **** 		case VBack:
 155:.\Valve_Control.c ****          //   CutReg.OneWorkFinshState = One_Work_Runing;   /* Â¢ûÂä†Âä®‰ΩúÂÆåÊàêÊ†áÂøó20160820*/
 156:.\Valve_Control.c **** 			if(UpperPoint())
 157:.\Valve_Control.c **** 			{
 158:.\Valve_Control.c **** 				if(UpperPoint())
 159:.\Valve_Control.c **** 				{
 160:.\Valve_Control.c **** 					ValveOut(CutReg.Action[VStop]);
 161:.\Valve_Control.c ****                     LED_WRITE(LED_Status[VStop]);
 162:.\Valve_Control.c **** 					CutReg.CutTimeStatus = VStop;
 163:.\Valve_Control.c **** 					CutReg.Cnt = 0;
 164:.\Valve_Control.c ****                     CutReg.OneWorkFinshState = One_Work_Finish;//ÂÆåÊàê‰∏ÄÊ¨°Âä®‰ΩúÊ†áÂøó 20160829Á
 165:.\Valve_Control.c **** 				}
 166:.\Valve_Control.c **** 			}
 167:.\Valve_Control.c **** 			else
 168:.\Valve_Control.c **** 			{
 169:.\Valve_Control.c **** 				ValveOut(CutReg.Action[VBack]);
 170:.\Valve_Control.c ****                 LED_WRITE(LED_Status[VBack]);
 171:.\Valve_Control.c **** 				CutReg.CutTimeStatus = VBack;
 172:.\Valve_Control.c **** 			}
 173:.\Valve_Control.c **** 			break;
 174:.\Valve_Control.c **** 		case VStop:
 175:.\Valve_Control.c **** 			CutReg.Cnt++;
 176:.\Valve_Control.c **** 			if(CutReg.Cnt >= 100  )//
 177:.\Valve_Control.c **** 			{
 178:.\Valve_Control.c **** 				CutReg.Cnt = 0;
 179:.\Valve_Control.c **** 				ISR_Stroke_Timer_states =0x01;
 180:.\Valve_Control.c ****           
 181:.\Valve_Control.c **** 				CutReg.CutTimeStatus = VFast;  //ÁªìÊùü
 182:.\Valve_Control.c ****             
 183:.\Valve_Control.c ****                 CutReg.CutTimeStatus = VStop;
 184:.\Valve_Control.c **** 				CutReg.CutStatus = JudgMode;
 185:.\Valve_Control.c ****              
 186:.\Valve_Control.c **** 			}
 187:.\Valve_Control.c **** 			else
 188:.\Valve_Control.c **** 			{
 189:.\Valve_Control.c **** 				ValveOut(CutReg.Action[VStop]);
 190:.\Valve_Control.c ****                 LED_WRITE(LED_Status[VStop]);
 191:.\Valve_Control.c **** 				CutReg.CutTimeStatus = VStop;
 192:.\Valve_Control.c ****                 
 193:.\Valve_Control.c **** 			}
 194:.\Valve_Control.c ****            
 195:.\Valve_Control.c **** 			break;
 196:.\Valve_Control.c **** 		default : break;
 197:.\Valve_Control.c **** 		}
 198:.\Valve_Control.c ****     }
 199:.\Valve_Control.c **** //	}
 200:.\Valve_Control.c **** //	else if(CutReg.ModeRunFlag == 0x02)//ÁÇπÂä®
 201:.\Valve_Control.c **** //	{
 202:.\Valve_Control.c **** //		CutReg.Cnt++;
ARM GAS  C:\Users\PANXIA~1\AppData\Local\Temp\cckUlCze.s 			page 5


 203:.\Valve_Control.c **** //	}
 204:.\Valve_Control.c **** //	else
 205:.\Valve_Control.c **** //	{
 206:.\Valve_Control.c **** //		CutReg.Cnt++;
 207:.\Valve_Control.c **** //	}
 208:.\Valve_Control.c **** 
 209:.\Valve_Control.c **** }
 210:.\Valve_Control.c **** 
 211:.\Valve_Control.c **** 
 212:.\Valve_Control.c **** /*****************************************************
 213:.\Valve_Control.c **** ÂáΩÊï∞ÂêçÔºöuint8 Stroke_Process(void)
 214:.\Valve_Control.c **** Âäü  ËÉΩÔºöÂâ™ÂàáË°åÁ®ãÊéßÂà∂ÊµÅÁ®ã
 215:.\Valve_Control.c **** ÂèÇ  Êï∞ÔºöÊó†
 216:.\Valve_Control.c **** ËøîÂõûÂÄºÔºöÊó†
 217:.\Valve_Control.c **** *****************************************************/
 218:.\Valve_Control.c **** uint8 Stroke_Process(void)
 219:.\Valve_Control.c **** {
 220:.\Valve_Control.c **** 	uint8 ModeFlag = 0;
 221:.\Valve_Control.c **** 	static int16 UnloadTime = 0;
 222:.\Valve_Control.c **** 	ModeFlag = 0;
 223:.\Valve_Control.c **** 	
 224:.\Valve_Control.c **** 	switch(CutReg.CutStatus)
 225:.\Valve_Control.c **** 	{
 226:.\Valve_Control.c **** 	case StrokeStart:
 227:.\Valve_Control.c **** 		if(CutMode() == CUTCMODE || CutMode() == CUTSMODE )//ËøûÁª≠ ÂçïÊ¨°
 228:.\Valve_Control.c **** 		{
 229:.\Valve_Control.c ****             CutReg.CutStatus = WaitNoFoot;
 230:.\Valve_Control.c **** 		}
 231:.\Valve_Control.c **** 		else if(CutMode() == CUTJMODE)//ÁÇπÂä®
 232:.\Valve_Control.c **** 		{
 233:.\Valve_Control.c **** 			CutReg.CutStatus = JOGMODE;
 234:.\Valve_Control.c **** 		}
 235:.\Valve_Control.c ****         
 236:.\Valve_Control.c ****         if(System_enable == Enter_return)
 237:.\Valve_Control.c ****         {
 238:.\Valve_Control.c ****             CutReg.CutStatus = JOGMODE;
 239:.\Valve_Control.c ****         }
 240:.\Valve_Control.c **** 		break;
 241:.\Valve_Control.c **** 	case JOGMODE:
 242:.\Valve_Control.c ****         
 243:.\Valve_Control.c **** 		if((CutMode() != CUTJMODE)&& System_enable != Enter_return)
 244:.\Valve_Control.c **** 		{
 245:.\Valve_Control.c **** 			ValveOut(CutReg.Action[VStop]);
 246:.\Valve_Control.c ****             LED_WRITE(LED_Status[VStop]);
 247:.\Valve_Control.c **** 			CutReg.CutStatus = StrokeStart;
 248:.\Valve_Control.c **** 		}
 249:.\Valve_Control.c **** 		else if(FootStart() && FootStart_state)//‰∏ã
 250:.\Valve_Control.c **** 		{
 251:.\Valve_Control.c ****             /* Â¢ûÂä†Âä®‰ΩúÂÆåÊàêÊ†áÂøó20160820*/
 252:.\Valve_Control.c ****             CutReg.OneWorkFinshState = One_Work_Runing;
 253:.\Valve_Control.c **** 			while(FootStart())
 254:.\Valve_Control.c **** 			{
 255:.\Valve_Control.c **** //				MoveLED(1);
 256:.\Valve_Control.c **** 				if(DownPoint())
 257:.\Valve_Control.c **** 				{
 258:.\Valve_Control.c **** 					ValveOut(CutReg.Action[VSlow]);
 259:.\Valve_Control.c ****                     LED_WRITE(LED_Status[VSlow]);
ARM GAS  C:\Users\PANXIA~1\AppData\Local\Temp\cckUlCze.s 			page 6


 260:.\Valve_Control.c **** 					UnloadTime = CutReg.UnloadTime;
 261:.\Valve_Control.c **** 				}
 262:.\Valve_Control.c **** 				else
 263:.\Valve_Control.c **** 				{
 264:.\Valve_Control.c **** 					ValveOut(CutReg.Action[VFast]);
 265:.\Valve_Control.c ****                     LED_WRITE(LED_Status[VFast]);
 266:.\Valve_Control.c **** 				}
 267:.\Valve_Control.c **** 				if(CutMode() != CUTJMODE)
 268:.\Valve_Control.c **** 				{
 269:.\Valve_Control.c **** 					ValveOut(CutReg.Action[VStop]);
 270:.\Valve_Control.c ****                     LED_WRITE(LED_Status[VStop]);
 271:.\Valve_Control.c **** 					CutReg.CutStatus = StrokeStart;
 272:.\Valve_Control.c **** 					break;
 273:.\Valve_Control.c **** 				}
 274:.\Valve_Control.c **** 			}
 275:.\Valve_Control.c **** 			ValveOut(CutReg.Action[VStop]);
 276:.\Valve_Control.c ****             LED_WRITE(LED_Status[VStop]);
 277:.\Valve_Control.c **** //			MoveLED(0);
 278:.\Valve_Control.c **** 		}
 279:.\Valve_Control.c **** 		else if(FootUp() && FootUP_State)//‰∏ä
 280:.\Valve_Control.c **** 		{
 281:.\Valve_Control.c **** 			UnloadTime = 0;
 282:.\Valve_Control.c **** 			while(FootUp())
 283:.\Valve_Control.c **** 			{
 284:.\Valve_Control.c **** //				MoveLED(1);
 285:.\Valve_Control.c **** 				if(UpperPoint())
 286:.\Valve_Control.c **** 				{
 287:.\Valve_Control.c **** 					ValveOut(CutReg.Action[VStop]);
 288:.\Valve_Control.c ****                     LED_WRITE(LED_Status[VStop]);
 289:.\Valve_Control.c **** 				}
 290:.\Valve_Control.c **** 				else
 291:.\Valve_Control.c **** 				{
 292:.\Valve_Control.c **** 					ValveOut(CutReg.Action[VBack]);
 293:.\Valve_Control.c ****                     LED_WRITE(LED_Status[VBack]);
 294:.\Valve_Control.c **** 				}
 295:.\Valve_Control.c **** 				if(CutMode() != CUTJMODE && System_enable != Enter_return)
 296:.\Valve_Control.c **** 				{
 297:.\Valve_Control.c **** 					ValveOut(CutReg.Action[VStop]);
 298:.\Valve_Control.c ****                     LED_WRITE(LED_Status[VStop]);
 299:.\Valve_Control.c **** 					CutReg.CutStatus = StrokeStart;
 300:.\Valve_Control.c **** 					break;
 301:.\Valve_Control.c **** 				}
 302:.\Valve_Control.c **** 			}
 303:.\Valve_Control.c **** 			ValveOut(CutReg.Action[VStop]);
 304:.\Valve_Control.c ****             LED_WRITE(LED_Status[VStop]);
 305:.\Valve_Control.c **** //			MoveLED(0);
 306:.\Valve_Control.c **** 		}
 307:.\Valve_Control.c **** 			
 308:.\Valve_Control.c **** 		if(CutMode() == CUTJMODE && !FootStart() && CutReg.Action[VUnload] != 0 && UnloadTime > 0)
 309:.\Valve_Control.c **** 		{
 310:.\Valve_Control.c **** 			ValveOut(CutReg.Action[VUnload]);//Âç∏Ëç∑			
 311:.\Valve_Control.c **** 			UnloadTime -= 1;
 312:.\Valve_Control.c **** 			CyDelay(10);
 313:.\Valve_Control.c **** 		}
 314:.\Valve_Control.c **** 		else
 315:.\Valve_Control.c ****         {
 316:.\Valve_Control.c **** 			 ValveOut(CutReg.Action[VStop]);//ÂÅúÊ≠¢
ARM GAS  C:\Users\PANXIA~1\AppData\Local\Temp\cckUlCze.s 			page 7


 317:.\Valve_Control.c ****             /* Â¢ûÂä†Âä®‰ΩúÂÆåÊàêÊ†áÂøó20160820*/
 318:.\Valve_Control.c ****              CutReg.OneWorkFinshState = One_Work_Finish;
 319:.\Valve_Control.c ****         }
 320:.\Valve_Control.c **** 		
 321:.\Valve_Control.c **** 		break;
 322:.\Valve_Control.c **** 	case WaitNoFoot://ËØªÂâ™ÂàáÊï∞ÊçÆ
 323:.\Valve_Control.c **** 		if(!FootStart())
 324:.\Valve_Control.c ****         {
 325:.\Valve_Control.c **** 			CyDelay(5);
 326:.\Valve_Control.c **** 			if(!FootStart())
 327:.\Valve_Control.c **** 			{
 328:.\Valve_Control.c ****             	CutReg.CutStatus = WaitFoot;
 329:.\Valve_Control.c **** 			}
 330:.\Valve_Control.c ****         }
 331:.\Valve_Control.c ****         else
 332:.\Valve_Control.c ****         {
 333:.\Valve_Control.c ****             CutReg.CutStatus = WaitNoFoot;	
 334:.\Valve_Control.c ****         }
 335:.\Valve_Control.c **** 		break;
 336:.\Valve_Control.c **** 	case WaitFoot: //Á≠âÂæÖËÑöË∏èÂºÄÂÖ≥ÊúâÊïà‰ø°Âè∑
 337:.\Valve_Control.c **** 		if(FootStart())
 338:.\Valve_Control.c **** 		{
 339:.\Valve_Control.c **** 			CyDelay(5);
 340:.\Valve_Control.c **** 			if(FootStart())
 341:.\Valve_Control.c **** 			{                
 342:.\Valve_Control.c **** 				CutReg.CutStatus  = CutStart;
 343:.\Valve_Control.c ****                 CutReg.SToDotFlag = 0;
 344:.\Valve_Control.c **** 			}
 345:.\Valve_Control.c **** 		}
 346:.\Valve_Control.c **** 		else
 347:.\Valve_Control.c **** 		{
 348:.\Valve_Control.c **** 			CutReg.CutStatus = WaitFoot;   
 349:.\Valve_Control.c ****             if( CutReg.SToDotFlag && CutMode() == CUTJMODE)
 350:.\Valve_Control.c ****             {
 351:.\Valve_Control.c ****                 CutReg.CutStatus = JOGMODE;
 352:.\Valve_Control.c ****             }
 353:.\Valve_Control.c **** 		}
 354:.\Valve_Control.c **** 		break;
 355:.\Valve_Control.c **** 	case CutStart:
 356:.\Valve_Control.c **** //		CutReg.KeepTime = (Get_ADvalue(0) - 900)/2;
 357:.\Valve_Control.c **** //       CutReg.KeepTime = Get_ADvalue(0) - 900;
 358:.\Valve_Control.c **** //		CutReg.UnloadTime = Get_ADvalue(1) - 900;
 359:.\Valve_Control.c **** 		CutReg.CutStatus = Cutting;
 360:.\Valve_Control.c **** 		CutReg.Cnt = 0;
 361:.\Valve_Control.c **** 		CutReg.CutTimeStatus = VFast;
 362:.\Valve_Control.c **** 		ISR_Stroke_Timer_states = 0x00;
 363:.\Valve_Control.c **** //		MoveLED(1);
 364:.\Valve_Control.c **** 		break;
 365:.\Valve_Control.c **** 	case Cutting: break;
 366:.\Valve_Control.c **** 	case JudgMode://Âà§Êñ≠ ÂçïÊ¨°/ËøûÁª≠
 367:.\Valve_Control.c **** //		MoveLED(0);
 368:.\Valve_Control.c **** 		if(CutMode() == CUTCMODE)//ËøûÁª≠
 369:.\Valve_Control.c **** 		{
 370:.\Valve_Control.c **** 			CutReg.CutStatus = CutStart;//Âõû
 371:.\Valve_Control.c **** 		}
 372:.\Valve_Control.c **** 		else if(CutMode() == CUTSMODE)//ÂçïÊ¨°
 373:.\Valve_Control.c **** 		{
ARM GAS  C:\Users\PANXIA~1\AppData\Local\Temp\cckUlCze.s 			page 8


 374:.\Valve_Control.c **** 			CutReg.CutStatus = WaitNoFoot;
 375:.\Valve_Control.c ****             CutReg.SToDotFlag = 1;
 376:.\Valve_Control.c ****            
 377:.\Valve_Control.c **** 		}
 378:.\Valve_Control.c **** 		else if(CutMode() == CUTJMODE)//ÁÇπÂä®
 379:.\Valve_Control.c **** 		{
 380:.\Valve_Control.c **** 			CutReg.CutStatus = JOGMODE;
 381:.\Valve_Control.c ****             ModeFlag = 1;
 382:.\Valve_Control.c **** 		}
 383:.\Valve_Control.c **** 		break;
 384:.\Valve_Control.c **** 	default : break;
 385:.\Valve_Control.c **** 	}
 386:.\Valve_Control.c **** 	return ModeFlag;
 387:.\Valve_Control.c **** }
 388:.\Valve_Control.c **** 
 389:.\Valve_Control.c **** /**********************************************************
 390:.\Valve_Control.c **** ÂáΩÊï∞ÂêçÔºö
 391:.\Valve_Control.c **** Âäü  ËÉΩÔºö
 392:.\Valve_Control.c **** ÂèÇ  Êï∞ÔºöÊó†
 393:.\Valve_Control.c **** ËøîÂõûÂÄºÔºöÊó†
 394:.\Valve_Control.c **** ************************************************************/
 395:.\Valve_Control.c **** void EEPROM_Array_Read(uint8 *eepromPtr,uint8 *buf,uint16 len)
 396:.\Valve_Control.c **** {
  27              		.loc 1 396 0
  28              		.cfi_startproc
  29              		@ args = 0, pretend = 0, frame = 0
  30              		@ frame_needed = 0, uses_anonymous_args = 0
  31              	.LVL0:
  32 0000 70B5     		push	{r4, r5, r6, lr}
  33              		.cfi_def_cfa_offset 16
  34              		.cfi_offset 4, -16
  35              		.cfi_offset 5, -12
  36              		.cfi_offset 6, -8
  37              		.cfi_offset 14, -4
  38 0002 0E46     		mov	r6, r1
  39 0004 1546     		mov	r5, r2
  40              	.LVL1:
 397:.\Valve_Control.c **** 	reg8 * RegPointer;
 398:.\Valve_Control.c **** 	uint16 i;
 399:.\Valve_Control.c **** 	
 400:.\Valve_Control.c **** //	RegPointer = (reg8 *)CYDEV_EE_BASE;
 401:.\Valve_Control.c ****     
 402:.\Valve_Control.c **** // RegPointer = eepromPtr;
 403:.\Valve_Control.c **** 	for(i = 0; i < len; i++)
  41              		.loc 1 403 0
  42 0006 0024     		movs	r4, #0
  43 0008 05E0     		b	.L2
  44              	.LVL2:
  45              	.L3:
 404:.\Valve_Control.c **** 	{
 405:.\Valve_Control.c **** 		buf[i] = EEPROM_1_ReadByte(i);
  46              		.loc 1 405 0 discriminator 3
  47 000a 2046     		mov	r0, r4
  48 000c FFF7FEFF 		bl	EEPROM_1_ReadByte
  49              	.LVL3:
  50 0010 3055     		strb	r0, [r6, r4]
 403:.\Valve_Control.c **** 	{
ARM GAS  C:\Users\PANXIA~1\AppData\Local\Temp\cckUlCze.s 			page 9


  51              		.loc 1 403 0 discriminator 3
  52 0012 0134     		adds	r4, r4, #1
  53              	.LVL4:
  54 0014 A4B2     		uxth	r4, r4
  55              	.LVL5:
  56              	.L2:
 403:.\Valve_Control.c **** 	{
  57              		.loc 1 403 0 is_stmt 0 discriminator 1
  58 0016 AC42     		cmp	r4, r5
  59 0018 F7D3     		bcc	.L3
 406:.\Valve_Control.c **** 	}
 407:.\Valve_Control.c **** }
  60              		.loc 1 407 0 is_stmt 1
  61 001a 70BD     		pop	{r4, r5, r6, pc}
  62              		.cfi_endproc
  63              	.LFE65:
  64              		.size	EEPROM_Array_Read, .-EEPROM_Array_Read
  65              		.section	.text.EEPROM_Array_Write,"ax",%progbits
  66              		.align	2
  67              		.global	EEPROM_Array_Write
  68              		.thumb
  69              		.thumb_func
  70              		.type	EEPROM_Array_Write, %function
  71              	EEPROM_Array_Write:
  72              	.LFB66:
 408:.\Valve_Control.c **** void EEPROM_Array_Write(uint8 *eepromPtr,uint8 *buf,uint16 len) //Ê≤°ÊúâÂÅöË∂äÁïåÂ§ÑÁêÜÔºåË∂ÖËøá16‰
 409:.\Valve_Control.c **** {
  73              		.loc 1 409 0
  74              		.cfi_startproc
  75              		@ args = 0, pretend = 0, frame = 0
  76              		@ frame_needed = 0, uses_anonymous_args = 0
  77              	.LVL6:
 410:.\Valve_Control.c ****     if(--len)
  78              		.loc 1 410 0
  79 0000 012A     		cmp	r2, #1
  80 0002 06D0     		beq	.L8
 409:.\Valve_Control.c ****     if(--len)
  81              		.loc 1 409 0
  82 0004 08B5     		push	{r3, lr}
  83              		.cfi_def_cfa_offset 8
  84              		.cfi_offset 3, -8
  85              		.cfi_offset 14, -4
  86 0006 0346     		mov	r3, r0
 411:.\Valve_Control.c ****     EEPROM_1_Write(buf,eepromPtr[0]);
  87              		.loc 1 411 0
  88 0008 0846     		mov	r0, r1
  89              	.LVL7:
  90 000a 1978     		ldrb	r1, [r3]	@ zero_extendqisi2
  91              	.LVL8:
  92 000c FFF7FEFF 		bl	EEPROM_1_Write
  93              	.LVL9:
  94 0010 08BD     		pop	{r3, pc}
  95              	.LVL10:
  96              	.L8:
  97              		.cfi_def_cfa_offset 0
  98              		.cfi_restore 3
  99              		.cfi_restore 14
ARM GAS  C:\Users\PANXIA~1\AppData\Local\Temp\cckUlCze.s 			page 10


 100 0012 7047     		bx	lr
 101              		.cfi_endproc
 102              	.LFE66:
 103              		.size	EEPROM_Array_Write, .-EEPROM_Array_Write
 104              		.section	.text.Read_config,"ax",%progbits
 105              		.align	2
 106              		.global	Read_config
 107              		.thumb
 108              		.thumb_func
 109              		.type	Read_config, %function
 110              	Read_config:
 111              	.LFB69:
 412:.\Valve_Control.c ****     
 413:.\Valve_Control.c **** }
 414:.\Valve_Control.c **** ///**********************************************************
 415:.\Valve_Control.c **** //ÂáΩÊï∞ÂêçÔºö
 416:.\Valve_Control.c **** //Âäü  ËÉΩÔºö
 417:.\Valve_Control.c **** //ÂèÇ  Êï∞ÔºöÊó†
 418:.\Valve_Control.c **** //ËøîÂõûÂÄºÔºöÊó†
 419:.\Valve_Control.c **** //************************************************************/
 420:.\Valve_Control.c **** //void EEPROM_Byte_Write(uint16 StartAddr,uint8 byte)
 421:.\Valve_Control.c **** //{
 422:.\Valve_Control.c **** //	EEPROM_1_ByteWrite(byte, StartAddr/16,StartAddr%16);
 423:.\Valve_Control.c **** //}
 424:.\Valve_Control.c **** /**********************************************************
 425:.\Valve_Control.c **** ÂáΩÊï∞ÂêçÔºö
 426:.\Valve_Control.c **** Âäü  ËÉΩÔºö
 427:.\Valve_Control.c **** ÂèÇ  Êï∞ÔºöÊó†
 428:.\Valve_Control.c **** ËøîÂõûÂÄºÔºöÊó†
 429:.\Valve_Control.c **** ************************************************************/
 430:.\Valve_Control.c **** /**********************************************************
 431:.\Valve_Control.c **** ÂáΩÊï∞ÂêçÔºö
 432:.\Valve_Control.c **** Âäü  ËÉΩÔºö
 433:.\Valve_Control.c **** ÂèÇ  Êï∞ÔºöÊó†
 434:.\Valve_Control.c **** ËøîÂõûÂÄºÔºöÊó†
 435:.\Valve_Control.c **** ************************************************************/
 436:.\Valve_Control.c **** //void MoveLED(uint8 step)
 437:.\Valve_Control.c **** //{
 438:.\Valve_Control.c **** //	switch(step)
 439:.\Valve_Control.c **** //	{
 440:.\Valve_Control.c **** //	case 0: //Âø´‰∏ã
 441:.\Valve_Control.c **** //        LED_WRITE(0x01);
 442:.\Valve_Control.c **** //		break;
 443:.\Valve_Control.c **** //	case 1:
 444:.\Valve_Control.c **** //		StopLED_OFF(); 
 445:.\Valve_Control.c **** //		RunLED_FLASH(); 
 446:.\Valve_Control.c **** //		break;
 447:.\Valve_Control.c **** //	default : break;
 448:.\Valve_Control.c **** //	}
 449:.\Valve_Control.c **** //}
 450:.\Valve_Control.c **** /*****************************************************
 451:.\Valve_Control.c **** ÂáΩÊï∞ÂêçÔºövoid Init_Stroke_Timer(void)
 452:.\Valve_Control.c **** Âäü  ËÉΩÔºöÂàùÂßãÂåñÂâ™Á®ãË°åÁ®ãÊéßÂà∂Êó∂ÈíüÂÆöÊó∂Âô®
 453:.\Valve_Control.c **** ÂèÇ  Êï∞ÔºöÊó†
 454:.\Valve_Control.c **** ËøîÂõûÂÄºÔºöÊó†
 455:.\Valve_Control.c **** *****************************************************/
 456:.\Valve_Control.c **** void Init_Stroke_Timer(void)
ARM GAS  C:\Users\PANXIA~1\AppData\Local\Temp\cckUlCze.s 			page 11


 457:.\Valve_Control.c **** {	
 458:.\Valve_Control.c **** 	Clock_1_Start();   
 459:.\Valve_Control.c ****     
 460:.\Valve_Control.c ****     Timer_1_Start();
 461:.\Valve_Control.c ****     
 462:.\Valve_Control.c **** 	EEPROM_1_Start();
 463:.\Valve_Control.c ****     
 464:.\Valve_Control.c **** 	ISR_Stroke_Timer_Start();
 465:.\Valve_Control.c ****     
 466:.\Valve_Control.c ****     Read_config();
 467:.\Valve_Control.c **** 
 468:.\Valve_Control.c **** 	CutReg.CutStatus = StrokeStart;
 469:.\Valve_Control.c **** 	CutReg.ModeRunFlag = 0;
 470:.\Valve_Control.c ****     
 471:.\Valve_Control.c ****     CutReg.ValveNum = 6;
 472:.\Valve_Control.c **** 	CutReg.Version = 2000;//V1.001
 473:.\Valve_Control.c **** 
 474:.\Valve_Control.c **** }
 475:.\Valve_Control.c **** 
 476:.\Valve_Control.c **** 
 477:.\Valve_Control.c **** void Valve_config(uint8 valve_config_flag)             //ÈòÄÁªÑÈÖçÁΩÆ
 478:.\Valve_Control.c **** {
 479:.\Valve_Control.c ****     uint8   key_com = 0x03; 
 480:.\Valve_Control.c ****     uint16  key_time = 0;
 481:.\Valve_Control.c ****     enum VALVE_ACTION_ENUM   step_flag  = VFast;            //ÈªòËÆ§ÈÄâÊã©‚ÄúÂø´‰∏ã‚ÄùÂäüËÉΩ
 482:.\Valve_Control.c ****     uint8   valve_flag = 0;                                 //ÈªòËÆ§Êú™ÈÄâÊã©ÈòÄÁªÑ
 483:.\Valve_Control.c ****     uint16  delay_num = 0;                                  //ÈòÄÁªÑÊåáÁ§∫ÁÅØÈó™ÁÉÅÂª∂Êó∂ÂèòÈáè
 484:.\Valve_Control.c ****     uint16  delay_num_count = 500;                          //
 485:.\Valve_Control.c ****     uint8     KA_valve = 0;                                   //ÈòÄÁªÑ‰ΩçÁä∂ÊÄÅÂèòÈáè
 486:.\Valve_Control.c ****     uint8     KA_valve_temp = 0;                              //ÈòÄÁªÑ‰ΩçÁä∂ÊÄÅ‰∏¥Êó∂ÂèòÈáè
 487:.\Valve_Control.c ****     uint8   KA_state_temp = 0;                              //ÈòÄÁªÑÁä∂ÊÄÅ‰∏¥Êó∂ÂèòÈáè
 488:.\Valve_Control.c ****     uint8   KA_num = 0;                                     //ÈòÄÁªÑ ‰Ωç ‰ΩçÁΩÆ
 489:.\Valve_Control.c ****     uint8   valvech_flag = 0;                               //ÈòÄÁªÑ ‰Ωç Áä∂ÊÄÅ‰øÆÊîπÊ†áÂøó
 490:.\Valve_Control.c ****     
 491:.\Valve_Control.c ****     while(valve_config_flag)
 492:.\Valve_Control.c ****     {
 493:.\Valve_Control.c ****       //  key_com = Read_KeyValue();   //ËØªÂèñÊåâÈîÆÂÄº
 494:.\Valve_Control.c ****        if(1)                            // if((key_com != Key_Null) && (valvech_flag == 0))
 495:.\Valve_Control.c ****         {
 496:.\Valve_Control.c ****            // switch(key_com)
 497:.\Valve_Control.c ****             {
 498:.\Valve_Control.c ****                // case Key_step:
 499:.\Valve_Control.c ****                 {
 500:.\Valve_Control.c ****                     key_time = 0;
 501:.\Valve_Control.c ****                   //  while((Read_KeyValue() == Key_step) && (key_time < 40) )
 502:.\Valve_Control.c ****                     {
 503:.\Valve_Control.c ****                         key_time ++;
 504:.\Valve_Control.c ****                         CyDelay(1);
 505:.\Valve_Control.c ****                     }
 506:.\Valve_Control.c ****                     if(key_time >= 39)                          //ÈïøÊåâ
 507:.\Valve_Control.c ****                     {
 508:.\Valve_Control.c ****                        
 509:.\Valve_Control.c ****                         EEPROM_Array_Write(eepromArray,CutReg.Action,6);  //‰øùÂ≠òÈÖçÁΩÆ
 510:.\Valve_Control.c ****                         LED_WRITE(0X00);
 511:.\Valve_Control.c ****                         CyDelay(500);                                     //ÈÄÄÂá∫ÊåáÁ§∫
 512:.\Valve_Control.c ****                         ValveOut(0X3F);
 513:.\Valve_Control.c ****                         CyDelay(500);
ARM GAS  C:\Users\PANXIA~1\AppData\Local\Temp\cckUlCze.s 			page 12


 514:.\Valve_Control.c ****                         ValveOut(0X00);
 515:.\Valve_Control.c ****                         CyDelay(500);
 516:.\Valve_Control.c ****                         ValveOut(0X3F);
 517:.\Valve_Control.c ****                         CyDelay(500);
 518:.\Valve_Control.c ****                         ValveOut(0X00);
 519:.\Valve_Control.c ****                         valve_config_flag = 0;                  //ÈÖçÁΩÆÊ†áÂøóÊ∏ÖÈõ∂(‰øùÂ≠òÈÄÄÂá∫)
 520:.\Valve_Control.c **** //                        CySoftwareReset();                      //Á≥ªÁªüËΩØÂ§ç‰Ωç            
 521:.\Valve_Control.c ****                     }
 522:.\Valve_Control.c ****                     else                                        //Áü≠Êåâ
 523:.\Valve_Control.c ****                     {
 524:.\Valve_Control.c ****                         if(valve_flag == 0)                     //Êú™ÈÖçÁΩÆÊâçËøõË°åÂäüËÉΩÊ≠•È™§Âàá
 525:.\Valve_Control.c ****                         {
 526:.\Valve_Control.c ****                             if(++step_flag == (VStop+1))
 527:.\Valve_Control.c ****                                 step_flag = VFast;
 528:.\Valve_Control.c ****                         }
 529:.\Valve_Control.c ****                         else
 530:.\Valve_Control.c ****                         {
 531:.\Valve_Control.c ****                             valve_flag = 0;                     //Ê∏ÖÈô§ÊòæÁ§∫Áä∂ÊÄÅÊ†áÂøó
 532:.\Valve_Control.c ****                         }
 533:.\Valve_Control.c ****                         ValveOut(CutReg.Action[step_flag]);     //ÊòæÁ§∫ÂΩìÂâçÈòÄÁªÑÈÖçÁΩÆÁä∂ÊÄÅ   
 534:.\Valve_Control.c ****                         switch(step_flag)
 535:.\Valve_Control.c ****                         {
 536:.\Valve_Control.c ****                             case    VFast:                      //Âø´‰∏ã
 537:.\Valve_Control.c ****                             {
 538:.\Valve_Control.c ****                                 LED_WRITE(LED_Status[VFast]);
 539:.\Valve_Control.c ****                             }
 540:.\Valve_Control.c ****                             break;
 541:.\Valve_Control.c ****                             case    VSlow:                      //Â∑•Ëøõ
 542:.\Valve_Control.c ****                             {
 543:.\Valve_Control.c ****                                 LED_WRITE(LED_Status[VSlow]);
 544:.\Valve_Control.c ****                             }
 545:.\Valve_Control.c ****                             break;
 546:.\Valve_Control.c ****                             case    VKeep:                      //‰øùÂéã
 547:.\Valve_Control.c ****                             {
 548:.\Valve_Control.c ****                                 LED_WRITE(LED_Status[VKeep]);
 549:.\Valve_Control.c ****                             }
 550:.\Valve_Control.c ****                             break;
 551:.\Valve_Control.c ****                             case    VUnload:                    //Âç∏Ëç∑
 552:.\Valve_Control.c ****                             {
 553:.\Valve_Control.c ****                                 LED_WRITE(LED_Status[VUnload]);
 554:.\Valve_Control.c ****                             }
 555:.\Valve_Control.c ****                             break;
 556:.\Valve_Control.c ****                             case    VBack:                      //ÂõûÁ®ã
 557:.\Valve_Control.c ****                             {
 558:.\Valve_Control.c ****                                 LED_WRITE(LED_Status[VBack]);
 559:.\Valve_Control.c ****                             }
 560:.\Valve_Control.c ****                             break;
 561:.\Valve_Control.c ****                             case    VStop:                      //ÂÅúÊ≠¢
 562:.\Valve_Control.c ****                             {
 563:.\Valve_Control.c ****                                 LED_WRITE(LED_Status[VStop]);
 564:.\Valve_Control.c ****                             }
 565:.\Valve_Control.c ****                             break;
 566:.\Valve_Control.c ****                             default:
 567:.\Valve_Control.c ****                             break;
 568:.\Valve_Control.c ****                         }
 569:.\Valve_Control.c ****                     }
 570:.\Valve_Control.c ****                 }
ARM GAS  C:\Users\PANXIA~1\AppData\Local\Temp\cckUlCze.s 			page 13


 571:.\Valve_Control.c ****                 break;
 572:.\Valve_Control.c ****              //   case Key_valve:
 573:.\Valve_Control.c ****                 {
 574:.\Valve_Control.c ****                     key_time = 0;
 575:.\Valve_Control.c ****                //     while((Read_KeyValue() == Key_valve) && (key_time < 40) )
 576:.\Valve_Control.c ****                     {
 577:.\Valve_Control.c ****                         key_time ++; 
 578:.\Valve_Control.c ****                         CyDelay(1);
 579:.\Valve_Control.c ****                     }              
 580:.\Valve_Control.c ****                     if((key_time >= 39) && (valvech_flag == 0))                             //ÈïøÊå
 581:.\Valve_Control.c ****                     {
 582:.\Valve_Control.c ****                         if( (valve_flag >= 1) && (valve_flag <= 6) )
 583:.\Valve_Control.c ****                         {
 584:.\Valve_Control.c ****                             KA_valve = (~ KA_valve) & 0x01;
 585:.\Valve_Control.c ****                             CutReg.Action[step_flag] = ((CutReg.Action[step_flag] & (~(1 << KA_num)
 586:.\Valve_Control.c ****                             ValveOut(CutReg.Action[step_flag]);
 587:.\Valve_Control.c ****                             valvech_flag = 1;
 588:.\Valve_Control.c ****                         } 
 589:.\Valve_Control.c ****                         if(valve_flag == 0)                                                 //Êú™ÈÄ
 590:.\Valve_Control.c ****                         {
 591:.\Valve_Control.c ****                             valvech_flag = 1;
 592:.\Valve_Control.c ****                         }
 593:.\Valve_Control.c ****                     }
 594:.\Valve_Control.c ****                     
 595:.\Valve_Control.c ****                     if((key_time < 49) || (valvech_flag == 1))                              //Áü≠Êå
 596:.\Valve_Control.c ****                     {
 597:.\Valve_Control.c ****                         if((++valve_flag) == 7)
 598:.\Valve_Control.c ****                             valve_flag = 1;
 599:.\Valve_Control.c ****                         
 600:.\Valve_Control.c ****                         switch(valve_flag)
 601:.\Valve_Control.c ****                         {
 602:.\Valve_Control.c ****                             case    1:                  //KA1
 603:.\Valve_Control.c ****                             {
 604:.\Valve_Control.c ****                                 KA_num = KA1_bit;
 605:.\Valve_Control.c ****                                 KA_valve = ((CutReg.Action[step_flag] >> KA_num) & 0X01);    //ÂæóÂ
 606:.\Valve_Control.c ****                                 KA_valve_temp = KA_valve;
 607:.\Valve_Control.c ****                                 
 608:.\Valve_Control.c ****                                 ValveOut(CutReg.Action[step_flag] | BIT1);                   //ÁÇπ‰
 609:.\Valve_Control.c ****                             }
 610:.\Valve_Control.c ****                             break;
 611:.\Valve_Control.c ****                             case    2:                  //KA2
 612:.\Valve_Control.c ****                             {
 613:.\Valve_Control.c ****                                 KA_num = KA2_bit;
 614:.\Valve_Control.c ****                                 KA_valve = ((CutReg.Action[step_flag] >> KA_num) & 0X01);    //ÂæóÂ
 615:.\Valve_Control.c ****                                 KA_valve_temp = KA_valve;
 616:.\Valve_Control.c ****                                 
 617:.\Valve_Control.c ****                                 ValveOut(CutReg.Action[step_flag] | BIT2);
 618:.\Valve_Control.c ****                             }
 619:.\Valve_Control.c ****                             break;
 620:.\Valve_Control.c ****                             case    3:                  //KA3
 621:.\Valve_Control.c ****                             {
 622:.\Valve_Control.c ****                                 KA_num = KA3_bit;
 623:.\Valve_Control.c ****                                 KA_valve = ((CutReg.Action[step_flag] >> KA_num) & 0X01);    //ÂæóÂ
 624:.\Valve_Control.c ****                                 KA_valve_temp = KA_valve;
 625:.\Valve_Control.c ****                                 
 626:.\Valve_Control.c ****                                 ValveOut(CutReg.Action[step_flag] | BIT3);
 627:.\Valve_Control.c ****                             }
ARM GAS  C:\Users\PANXIA~1\AppData\Local\Temp\cckUlCze.s 			page 14


 628:.\Valve_Control.c ****                             break;
 629:.\Valve_Control.c ****                             case    4:                  //KA4
 630:.\Valve_Control.c ****                             {
 631:.\Valve_Control.c ****                                 KA_num = KA4_bit;
 632:.\Valve_Control.c ****                                 KA_valve = ((CutReg.Action[step_flag] >> KA_num) & 0X01);    //ÂæóÂ
 633:.\Valve_Control.c ****                                 KA_valve_temp = KA_valve;
 634:.\Valve_Control.c ****                                 
 635:.\Valve_Control.c ****                                 ValveOut(CutReg.Action[step_flag] | BIT4);
 636:.\Valve_Control.c ****                             }
 637:.\Valve_Control.c ****                             break;
 638:.\Valve_Control.c ****                             case    5:                  //KA5
 639:.\Valve_Control.c ****                             {
 640:.\Valve_Control.c ****                                 KA_num = KA5_bit;
 641:.\Valve_Control.c ****                                 KA_valve = ((CutReg.Action[step_flag] >> KA_num) & 0X01);    //ÂæóÂ
 642:.\Valve_Control.c ****                                 KA_valve_temp = KA_valve;
 643:.\Valve_Control.c ****                                 
 644:.\Valve_Control.c ****                                 ValveOut(CutReg.Action[step_flag] | BIT5);
 645:.\Valve_Control.c ****                             }
 646:.\Valve_Control.c ****                             break;
 647:.\Valve_Control.c ****                             case    6:                  //KA6
 648:.\Valve_Control.c ****                             {
 649:.\Valve_Control.c ****                                 KA_num = KA6_bit;
 650:.\Valve_Control.c ****                                 KA_valve = ((CutReg.Action[step_flag] >> KA_num) & 0X01);    //ÂæóÂ
 651:.\Valve_Control.c ****                                 KA_valve_temp = KA_valve;
 652:.\Valve_Control.c ****                                 
 653:.\Valve_Control.c ****                                 ValveOut(CutReg.Action[step_flag] | BIT6);
 654:.\Valve_Control.c ****                             }
 655:.\Valve_Control.c ****                             break;
 656:.\Valve_Control.c ****                         }
 657:.\Valve_Control.c ****                     }    
 658:.\Valve_Control.c ****                 }
 659:.\Valve_Control.c ****                 break;
 660:.\Valve_Control.c ****             }
 661:.\Valve_Control.c ****         }
 662:.\Valve_Control.c ****         else
 663:.\Valve_Control.c ****         {
 664:.\Valve_Control.c ****             if(1)//if(key_com == Key_Null)             //Êó†ÊåâÈîÆÊåâ‰∏ãÊó∂Â∞ÜÈòÄÁªÑ‰øÆÊîπÊ†áÂøóÊ∏Ö
 665:.\Valve_Control.c ****             {
 666:.\Valve_Control.c ****                 valvech_flag = 0;
 667:.\Valve_Control.c ****                 delay_num_count = 400;
 668:.\Valve_Control.c ****             }    
 669:.\Valve_Control.c ****             else
 670:.\Valve_Control.c ****                 delay_num_count = 8;
 671:.\Valve_Control.c **** 
 672:.\Valve_Control.c ****             if( (valve_flag >= 1) && (valve_flag <= 6) )//ÈÄâ‰∏≠ÈòÄÁªÑÊó∂Áõ∏Â∫î‰ΩçÊåáÁ§∫ÁÅØÈó™ÁÉÅÊé
 673:.\Valve_Control.c ****             {
 674:.\Valve_Control.c ****                 delay_num  ++;
 675:.\Valve_Control.c ****                 if(delay_num >= delay_num_count)
 676:.\Valve_Control.c ****                 {                            
 677:.\Valve_Control.c ****                     delay_num = 0;
 678:.\Valve_Control.c ****                     KA_valve_temp = (~ KA_valve_temp)&0x01;                                        
 679:.\Valve_Control.c ****                     KA_state_temp = ((CutReg.Action[step_flag] & (~(1 << KA_num))) | (((uint8)KA_va
 680:.\Valve_Control.c ****                     ValveOut(KA_state_temp);
 681:.\Valve_Control.c ****                 }  
 682:.\Valve_Control.c ****                 CyDelay(1);
 683:.\Valve_Control.c ****             }
 684:.\Valve_Control.c ****             else
ARM GAS  C:\Users\PANXIA~1\AppData\Local\Temp\cckUlCze.s 			page 15


 685:.\Valve_Control.c ****             {
 686:.\Valve_Control.c ****                 delay_num = 0;
 687:.\Valve_Control.c ****             }
 688:.\Valve_Control.c ****             
 689:.\Valve_Control.c ****         }      
 690:.\Valve_Control.c ****     }
 691:.\Valve_Control.c **** }
 692:.\Valve_Control.c **** void Read_config(void)
 693:.\Valve_Control.c **** {
 112              		.loc 1 693 0
 113              		.cfi_startproc
 114              		@ args = 0, pretend = 0, frame = 16
 115              		@ frame_needed = 0, uses_anonymous_args = 0
 116 0000 00B5     		push	{lr}
 117              		.cfi_def_cfa_offset 4
 118              		.cfi_offset 14, -4
 119 0002 85B0     		sub	sp, sp, #20
 120              		.cfi_def_cfa_offset 24
 694:.\Valve_Control.c ****         uint8 tempBuf[sizeof(config_para)-1] ;
 695:.\Valve_Control.c ****         EEPROM_Array_Read(eepromArray,tempBuf,sizeof(tempBuf));//ËØªÈòÄÁªÑÈÖçÁΩÆ
 121              		.loc 1 695 0
 122 0004 1048     		ldr	r0, .L11
 123 0006 01A9     		add	r1, sp, #4
 124 0008 0B22     		movs	r2, #11
 125 000a FFF7FEFF 		bl	EEPROM_Array_Read
 126              	.LVL11:
 696:.\Valve_Control.c ****         memcpy(&config_para,tempBuf,sizeof(tempBuf));//----Ê≥®ÊÑèÂ§ßÂ∞è
 127              		.loc 1 696 0
 128 000e 0F4B     		ldr	r3, .L11+4
 129 0010 01AA     		add	r2, sp, #4
 130 0012 03CA     		ldmia	r2!, {r0, r1}
 131 0014 1860     		str	r0, [r3]	@ unaligned
 132 0016 5960     		str	r1, [r3, #4]	@ unaligned
 133 0018 1188     		ldrh	r1, [r2]	@ unaligned
 134 001a 9278     		ldrb	r2, [r2, #2]	@ zero_extendqisi2
 135 001c 1981     		strh	r1, [r3, #8]	@ unaligned
 136 001e 9A72     		strb	r2, [r3, #10]
 697:.\Valve_Control.c ****         CutReg.Action[VFast]   =   config_para.Config_VFast;
 137              		.loc 1 697 0
 138 0020 1978     		ldrb	r1, [r3]	@ zero_extendqisi2
 139 0022 0B4A     		ldr	r2, .L11+8
 140 0024 1172     		strb	r1, [r2, #8]
 698:.\Valve_Control.c ****         CutReg.Action[VSlow]   =   config_para.Config_VSlow;
 141              		.loc 1 698 0
 142 0026 5978     		ldrb	r1, [r3, #1]	@ zero_extendqisi2
 143 0028 5172     		strb	r1, [r2, #9]
 699:.\Valve_Control.c ****         CutReg.Action[VKeep]   =   config_para.Config_VKeep;
 144              		.loc 1 699 0
 145 002a 9978     		ldrb	r1, [r3, #2]	@ zero_extendqisi2
 146 002c 9172     		strb	r1, [r2, #10]
 700:.\Valve_Control.c ****         CutReg.Action[VUnload] =   config_para.Config_VUnload;
 147              		.loc 1 700 0
 148 002e D978     		ldrb	r1, [r3, #3]	@ zero_extendqisi2
 149 0030 D172     		strb	r1, [r2, #11]
 701:.\Valve_Control.c ****         CutReg.Action[VBack]   =   config_para.Config_VBack;
 150              		.loc 1 701 0
 151 0032 1979     		ldrb	r1, [r3, #4]	@ zero_extendqisi2
ARM GAS  C:\Users\PANXIA~1\AppData\Local\Temp\cckUlCze.s 			page 16


 152 0034 1173     		strb	r1, [r2, #12]
 702:.\Valve_Control.c ****         CutReg.Action[VStop]   =   config_para.Config_VStop;
 153              		.loc 1 702 0
 154 0036 5979     		ldrb	r1, [r3, #5]	@ zero_extendqisi2
 155 0038 5173     		strb	r1, [r2, #13]
 703:.\Valve_Control.c ****         CutReg.KeepTime        =   config_para.Config_KeepTime;
 156              		.loc 1 703 0
 157 003a D988     		ldrh	r1, [r3, #6]
 158 003c 1180     		strh	r1, [r2]	@ movhi
 704:.\Valve_Control.c ****         CutReg.UnloadTime      =   config_para.Config_UnloadTime;
 159              		.loc 1 704 0
 160 003e 1B89     		ldrh	r3, [r3, #8]
 161 0040 5380     		strh	r3, [r2, #2]	@ movhi
 705:.\Valve_Control.c **** 
 706:.\Valve_Control.c **** 
 707:.\Valve_Control.c **** }
 162              		.loc 1 707 0
 163 0042 05B0     		add	sp, sp, #20
 164              		.cfi_def_cfa_offset 4
 165              		@ sp needed
 166 0044 5DF804FB 		ldr	pc, [sp], #4
 167              	.L12:
 168              		.align	2
 169              	.L11:
 170 0048 00000000 		.word	.LANCHOR0
 171 004c 00000000 		.word	config_para
 172 0050 00000000 		.word	CutReg
 173              		.cfi_endproc
 174              	.LFE69:
 175              		.size	Read_config, .-Read_config
 176              		.section	.text.Init_Stroke_Timer,"ax",%progbits
 177              		.align	2
 178              		.global	Init_Stroke_Timer
 179              		.thumb
 180              		.thumb_func
 181              		.type	Init_Stroke_Timer, %function
 182              	Init_Stroke_Timer:
 183              	.LFB67:
 457:.\Valve_Control.c **** 	Clock_1_Start();   
 184              		.loc 1 457 0
 185              		.cfi_startproc
 186              		@ args = 0, pretend = 0, frame = 0
 187              		@ frame_needed = 0, uses_anonymous_args = 0
 188 0000 08B5     		push	{r3, lr}
 189              		.cfi_def_cfa_offset 8
 190              		.cfi_offset 3, -8
 191              		.cfi_offset 14, -4
 458:.\Valve_Control.c ****     
 192              		.loc 1 458 0
 193 0002 FFF7FEFF 		bl	Clock_1_Start
 194              	.LVL12:
 460:.\Valve_Control.c ****     
 195              		.loc 1 460 0
 196 0006 FFF7FEFF 		bl	Timer_1_Start
 197              	.LVL13:
 462:.\Valve_Control.c ****     
 198              		.loc 1 462 0
ARM GAS  C:\Users\PANXIA~1\AppData\Local\Temp\cckUlCze.s 			page 17


 199 000a FFF7FEFF 		bl	EEPROM_1_Start
 200              	.LVL14:
 464:.\Valve_Control.c ****     
 201              		.loc 1 464 0
 202 000e FFF7FEFF 		bl	ISR_Stroke_Timer_Start
 203              	.LVL15:
 466:.\Valve_Control.c **** 
 204              		.loc 1 466 0
 205 0012 FFF7FEFF 		bl	Read_config
 206              	.LVL16:
 468:.\Valve_Control.c **** 	CutReg.ModeRunFlag = 0;
 207              		.loc 1 468 0
 208 0016 054B     		ldr	r3, .L15
 209 0018 0022     		movs	r2, #0
 210 001a 1A74     		strb	r2, [r3, #16]
 469:.\Valve_Control.c ****     
 211              		.loc 1 469 0
 212 001c 1A75     		strb	r2, [r3, #20]
 471:.\Valve_Control.c **** 	CutReg.Version = 2000;//V1.001
 213              		.loc 1 471 0
 214 001e 0622     		movs	r2, #6
 215 0020 5A75     		strb	r2, [r3, #21]
 472:.\Valve_Control.c **** 
 216              		.loc 1 472 0
 217 0022 4FF4FA62 		mov	r2, #2000
 218 0026 5A82     		strh	r2, [r3, #18]	@ movhi
 219 0028 08BD     		pop	{r3, pc}
 220              	.L16:
 221 002a 00BF     		.align	2
 222              	.L15:
 223 002c 00000000 		.word	CutReg
 224              		.cfi_endproc
 225              	.LFE67:
 226              		.size	Init_Stroke_Timer, .-Init_Stroke_Timer
 227              		.section	.text.Write_config,"ax",%progbits
 228              		.align	2
 229              		.global	Write_config
 230              		.thumb
 231              		.thumb_func
 232              		.type	Write_config, %function
 233              	Write_config:
 234              	.LFB70:
 708:.\Valve_Control.c **** void Write_config(void)
 709:.\Valve_Control.c **** {
 235              		.loc 1 709 0
 236              		.cfi_startproc
 237              		@ args = 0, pretend = 0, frame = 16
 238              		@ frame_needed = 0, uses_anonymous_args = 0
 239 0000 10B5     		push	{r4, lr}
 240              		.cfi_def_cfa_offset 8
 241              		.cfi_offset 4, -8
 242              		.cfi_offset 14, -4
 243 0002 84B0     		sub	sp, sp, #16
 244              		.cfi_def_cfa_offset 24
 710:.\Valve_Control.c ****         uint8 tempBuf[sizeof(config_para)-1];
 711:.\Valve_Control.c ****         memcpy(tempBuf,(&config_para),sizeof(config_para)-1);        
 245              		.loc 1 711 0
ARM GAS  C:\Users\PANXIA~1\AppData\Local\Temp\cckUlCze.s 			page 18


 246 0004 104C     		ldr	r4, .L19
 247 0006 01AB     		add	r3, sp, #4
 248 0008 2068     		ldr	r0, [r4]	@ unaligned
 249 000a 6168     		ldr	r1, [r4, #4]	@ unaligned
 250 000c 03C3     		stmia	r3!, {r0, r1}
 251 000e 2189     		ldrh	r1, [r4, #8]	@ unaligned
 252 0010 A27A     		ldrb	r2, [r4, #10]	@ zero_extendqisi2
 253 0012 1980     		strh	r1, [r3]	@ unaligned
 254 0014 9A70     		strb	r2, [r3, #2]
 712:.\Valve_Control.c ****         EEPROM_Array_Write(eepromArray,tempBuf,sizeof(tempBuf));
 255              		.loc 1 712 0
 256 0016 0D48     		ldr	r0, .L19+4
 257 0018 01A9     		add	r1, sp, #4
 258 001a 0B22     		movs	r2, #11
 259 001c FFF7FEFF 		bl	EEPROM_Array_Write
 260              	.LVL17:
 713:.\Valve_Control.c ****         CutReg.Action[VFast]   =   config_para.Config_VFast;
 261              		.loc 1 713 0
 262 0020 2278     		ldrb	r2, [r4]	@ zero_extendqisi2
 263 0022 0B4B     		ldr	r3, .L19+8
 264 0024 1A72     		strb	r2, [r3, #8]
 714:.\Valve_Control.c ****         CutReg.Action[VSlow]   =   config_para.Config_VSlow;
 265              		.loc 1 714 0
 266 0026 6278     		ldrb	r2, [r4, #1]	@ zero_extendqisi2
 267 0028 5A72     		strb	r2, [r3, #9]
 715:.\Valve_Control.c ****         CutReg.Action[VKeep]   =   config_para.Config_VKeep;
 268              		.loc 1 715 0
 269 002a A278     		ldrb	r2, [r4, #2]	@ zero_extendqisi2
 270 002c 9A72     		strb	r2, [r3, #10]
 716:.\Valve_Control.c ****         CutReg.Action[VUnload] =   config_para.Config_VUnload;
 271              		.loc 1 716 0
 272 002e E278     		ldrb	r2, [r4, #3]	@ zero_extendqisi2
 273 0030 DA72     		strb	r2, [r3, #11]
 717:.\Valve_Control.c ****         CutReg.Action[VBack]   =   config_para.Config_VBack;
 274              		.loc 1 717 0
 275 0032 2279     		ldrb	r2, [r4, #4]	@ zero_extendqisi2
 276 0034 1A73     		strb	r2, [r3, #12]
 718:.\Valve_Control.c ****         CutReg.Action[VStop]   =   config_para.Config_VStop;
 277              		.loc 1 718 0
 278 0036 6279     		ldrb	r2, [r4, #5]	@ zero_extendqisi2
 279 0038 5A73     		strb	r2, [r3, #13]
 719:.\Valve_Control.c ****         CutReg.KeepTime        =   config_para.Config_KeepTime;
 280              		.loc 1 719 0
 281 003a E288     		ldrh	r2, [r4, #6]
 282 003c 1A80     		strh	r2, [r3]	@ movhi
 720:.\Valve_Control.c ****         CutReg.UnloadTime      =   config_para.Config_UnloadTime;
 283              		.loc 1 720 0
 284 003e 2289     		ldrh	r2, [r4, #8]
 285 0040 5A80     		strh	r2, [r3, #2]	@ movhi
 721:.\Valve_Control.c ****            
 722:.\Valve_Control.c **** }
 286              		.loc 1 722 0
 287 0042 04B0     		add	sp, sp, #16
 288              		.cfi_def_cfa_offset 8
 289              		@ sp needed
 290 0044 10BD     		pop	{r4, pc}
 291              	.L20:
ARM GAS  C:\Users\PANXIA~1\AppData\Local\Temp\cckUlCze.s 			page 19


 292 0046 00BF     		.align	2
 293              	.L19:
 294 0048 00000000 		.word	config_para
 295 004c 00000000 		.word	.LANCHOR0
 296 0050 00000000 		.word	CutReg
 297              		.cfi_endproc
 298              	.LFE70:
 299              		.size	Write_config, .-Write_config
 300              		.section	.text.LCD_DISPLAY,"ax",%progbits
 301              		.align	2
 302              		.global	LCD_DISPLAY
 303              		.thumb
 304              		.thumb_func
 305              		.type	LCD_DISPLAY, %function
 306              	LCD_DISPLAY:
 307              	.LFB71:
 723:.\Valve_Control.c **** static lastValue = 0xFF;
 724:.\Valve_Control.c **** static lastMode  = 0xFF;
 725:.\Valve_Control.c **** void LCD_DISPLAY(uint8 value)
 726:.\Valve_Control.c **** {
 308              		.loc 1 726 0
 309              		.cfi_startproc
 310              		@ args = 0, pretend = 0, frame = 0
 311              		@ frame_needed = 0, uses_anonymous_args = 0
 312              	.LVL18:
 313 0000 08B5     		push	{r3, lr}
 314              		.cfi_def_cfa_offset 8
 315              		.cfi_offset 3, -8
 316              		.cfi_offset 14, -4
 727:.\Valve_Control.c ****     
 728:.\Valve_Control.c ****     if(lastValue != value)
 317              		.loc 1 728 0
 318 0002 2A4B     		ldr	r3, .L30
 319 0004 1B68     		ldr	r3, [r3]
 320 0006 9842     		cmp	r0, r3
 321 0008 4FD0     		beq	.L21
 729:.\Valve_Control.c ****     {
 730:.\Valve_Control.c ****         //LCD_Char_1_WriteControl(0x01);
 731:.\Valve_Control.c ****         lastValue = value;
 322              		.loc 1 731 0
 323 000a 284B     		ldr	r3, .L30
 324 000c 1860     		str	r0, [r3]
 732:.\Valve_Control.c ****     }
 733:.\Valve_Control.c **** 
 734:.\Valve_Control.c ****     else 
 735:.\Valve_Control.c ****     {
 736:.\Valve_Control.c ****         return;
 737:.\Valve_Control.c ****     }
 738:.\Valve_Control.c ****     if(value == LED_Status[VFast] )
 325              		.loc 1 738 0
 326 000e 1B79     		ldrb	r3, [r3, #4]	@ zero_extendqisi2
 327 0010 8342     		cmp	r3, r0
 328 0012 07D1     		bne	.L23
 739:.\Valve_Control.c ****     {
 740:.\Valve_Control.c ****        LCD_Char_1_Position(1,0) ;
 329              		.loc 1 740 0
 330 0014 0120     		movs	r0, #1
ARM GAS  C:\Users\PANXIA~1\AppData\Local\Temp\cckUlCze.s 			page 20


 331              	.LVL19:
 332 0016 0021     		movs	r1, #0
 333 0018 FFF7FEFF 		bl	LCD_Char_1_Position
 334              	.LVL20:
 741:.\Valve_Control.c ****        LCD_Char_1_PrintString("  Fast  ");
 335              		.loc 1 741 0
 336 001c 2448     		ldr	r0, .L30+4
 337 001e FFF7FEFF 		bl	LCD_Char_1_PrintString
 338              	.LVL21:
 339 0022 08BD     		pop	{r3, pc}
 340              	.LVL22:
 341              	.L23:
 742:.\Valve_Control.c ****     }
 743:.\Valve_Control.c ****     else if(value == LED_Status[VSlow] )
 342              		.loc 1 743 0
 343 0024 214B     		ldr	r3, .L30
 344 0026 5B79     		ldrb	r3, [r3, #5]	@ zero_extendqisi2
 345 0028 8342     		cmp	r3, r0
 346 002a 07D1     		bne	.L24
 744:.\Valve_Control.c ****     {
 745:.\Valve_Control.c ****         LCD_Char_1_Position(1,0) ;
 347              		.loc 1 745 0
 348 002c 0120     		movs	r0, #1
 349              	.LVL23:
 350 002e 0021     		movs	r1, #0
 351 0030 FFF7FEFF 		bl	LCD_Char_1_Position
 352              	.LVL24:
 746:.\Valve_Control.c ****         LCD_Char_1_PrintString("  Slow  ");
 353              		.loc 1 746 0
 354 0034 1F48     		ldr	r0, .L30+8
 355 0036 FFF7FEFF 		bl	LCD_Char_1_PrintString
 356              	.LVL25:
 357 003a 08BD     		pop	{r3, pc}
 358              	.LVL26:
 359              	.L24:
 747:.\Valve_Control.c ****     }
 748:.\Valve_Control.c ****        else if(value == LED_Status[VKeep] )
 360              		.loc 1 748 0
 361 003c 1B4B     		ldr	r3, .L30
 362 003e 9B79     		ldrb	r3, [r3, #6]	@ zero_extendqisi2
 363 0040 8342     		cmp	r3, r0
 364 0042 07D1     		bne	.L25
 749:.\Valve_Control.c ****     {
 750:.\Valve_Control.c ****         LCD_Char_1_Position(1,0) ;
 365              		.loc 1 750 0
 366 0044 0120     		movs	r0, #1
 367              	.LVL27:
 368 0046 0021     		movs	r1, #0
 369 0048 FFF7FEFF 		bl	LCD_Char_1_Position
 370              	.LVL28:
 751:.\Valve_Control.c ****         LCD_Char_1_PrintString("  Keep  ");
 371              		.loc 1 751 0
 372 004c 1A48     		ldr	r0, .L30+12
 373 004e FFF7FEFF 		bl	LCD_Char_1_PrintString
 374              	.LVL29:
 375 0052 08BD     		pop	{r3, pc}
 376              	.LVL30:
ARM GAS  C:\Users\PANXIA~1\AppData\Local\Temp\cckUlCze.s 			page 21


 377              	.L25:
 752:.\Valve_Control.c ****     }
 753:.\Valve_Control.c ****        else if(value == LED_Status[VUnload] )
 378              		.loc 1 753 0
 379 0054 154B     		ldr	r3, .L30
 380 0056 DB79     		ldrb	r3, [r3, #7]	@ zero_extendqisi2
 381 0058 8342     		cmp	r3, r0
 382 005a 07D1     		bne	.L26
 754:.\Valve_Control.c ****     {
 755:.\Valve_Control.c ****         LCD_Char_1_Position(1,0) ;
 383              		.loc 1 755 0
 384 005c 0120     		movs	r0, #1
 385              	.LVL31:
 386 005e 0021     		movs	r1, #0
 387 0060 FFF7FEFF 		bl	LCD_Char_1_Position
 388              	.LVL32:
 756:.\Valve_Control.c ****         LCD_Char_1_PrintString(" Unload");
 389              		.loc 1 756 0
 390 0064 1548     		ldr	r0, .L30+16
 391 0066 FFF7FEFF 		bl	LCD_Char_1_PrintString
 392              	.LVL33:
 393 006a 08BD     		pop	{r3, pc}
 394              	.LVL34:
 395              	.L26:
 757:.\Valve_Control.c ****     }
 758:.\Valve_Control.c ****        else if(value == LED_Status[VStop] )
 396              		.loc 1 758 0
 397 006c 0F4B     		ldr	r3, .L30
 398 006e 5B7A     		ldrb	r3, [r3, #9]	@ zero_extendqisi2
 399 0070 8342     		cmp	r3, r0
 400 0072 07D1     		bne	.L27
 759:.\Valve_Control.c ****     {
 760:.\Valve_Control.c ****         LCD_Char_1_Position(1,0) ;
 401              		.loc 1 760 0
 402 0074 0120     		movs	r0, #1
 403              	.LVL35:
 404 0076 0021     		movs	r1, #0
 405 0078 FFF7FEFF 		bl	LCD_Char_1_Position
 406              	.LVL36:
 761:.\Valve_Control.c ****         LCD_Char_1_PrintString("  Stop  ");
 407              		.loc 1 761 0
 408 007c 1048     		ldr	r0, .L30+20
 409 007e FFF7FEFF 		bl	LCD_Char_1_PrintString
 410              	.LVL37:
 411 0082 08BD     		pop	{r3, pc}
 412              	.LVL38:
 413              	.L27:
 762:.\Valve_Control.c ****     }
 763:.\Valve_Control.c ****          else if(value == LED_Status[VBack] )
 414              		.loc 1 763 0
 415 0084 094B     		ldr	r3, .L30
 416 0086 1B7A     		ldrb	r3, [r3, #8]	@ zero_extendqisi2
 417 0088 8342     		cmp	r3, r0
 418 008a 07D1     		bne	.L28
 764:.\Valve_Control.c ****     {
 765:.\Valve_Control.c ****         LCD_Char_1_Position(1,0) ;
 419              		.loc 1 765 0
ARM GAS  C:\Users\PANXIA~1\AppData\Local\Temp\cckUlCze.s 			page 22


 420 008c 0120     		movs	r0, #1
 421              	.LVL39:
 422 008e 0021     		movs	r1, #0
 423 0090 FFF7FEFF 		bl	LCD_Char_1_Position
 424              	.LVL40:
 766:.\Valve_Control.c ****         LCD_Char_1_PrintString("  Back  ");
 425              		.loc 1 766 0
 426 0094 0B48     		ldr	r0, .L30+24
 427 0096 FFF7FEFF 		bl	LCD_Char_1_PrintString
 428              	.LVL41:
 429 009a 08BD     		pop	{r3, pc}
 430              	.LVL42:
 431              	.L28:
 767:.\Valve_Control.c ****     }
 768:.\Valve_Control.c ****     else
 769:.\Valve_Control.c ****     {
 770:.\Valve_Control.c ****         LCD_Char_1_Position(1,0) ;
 432              		.loc 1 770 0
 433 009c 0120     		movs	r0, #1
 434              	.LVL43:
 435 009e 0021     		movs	r1, #0
 436 00a0 FFF7FEFF 		bl	LCD_Char_1_Position
 437              	.LVL44:
 771:.\Valve_Control.c ****         LCD_Char_1_PrintString("  Error ");
 438              		.loc 1 771 0
 439 00a4 0848     		ldr	r0, .L30+28
 440 00a6 FFF7FEFF 		bl	LCD_Char_1_PrintString
 441              	.LVL45:
 442              	.L21:
 443 00aa 08BD     		pop	{r3, pc}
 444              	.L31:
 445              		.align	2
 446              	.L30:
 447 00ac 00000000 		.word	.LANCHOR1
 448 00b0 00000000 		.word	.LC0
 449 00b4 0C000000 		.word	.LC1
 450 00b8 18000000 		.word	.LC2
 451 00bc 24000000 		.word	.LC3
 452 00c0 2C000000 		.word	.LC4
 453 00c4 38000000 		.word	.LC5
 454 00c8 44000000 		.word	.LC6
 455              		.cfi_endproc
 456              	.LFE71:
 457              		.size	LCD_DISPLAY, .-LCD_DISPLAY
 458              		.section	.text.LCD_DISPLAY_MODE,"ax",%progbits
 459              		.align	2
 460              		.global	LCD_DISPLAY_MODE
 461              		.thumb
 462              		.thumb_func
 463              		.type	LCD_DISPLAY_MODE, %function
 464              	LCD_DISPLAY_MODE:
 465              	.LFB72:
 772:.\Valve_Control.c ****     } 
 773:.\Valve_Control.c **** 
 774:.\Valve_Control.c **** }
 775:.\Valve_Control.c **** void LCD_DISPLAY_MODE()
 776:.\Valve_Control.c **** {
ARM GAS  C:\Users\PANXIA~1\AppData\Local\Temp\cckUlCze.s 			page 23


 466              		.loc 1 776 0
 467              		.cfi_startproc
 468              		@ args = 0, pretend = 0, frame = 0
 469              		@ frame_needed = 0, uses_anonymous_args = 0
 470 0000 08B5     		push	{r3, lr}
 471              		.cfi_def_cfa_offset 8
 472              		.cfi_offset 3, -8
 473              		.cfi_offset 14, -4
 777:.\Valve_Control.c ****     if(lastMode  != CutMode())
 474              		.loc 1 777 0
 475 0002 FFF7FEFF 		bl	Status_Reg_1_Read
 476              	.LVL46:
 477 0006 00F06000 		and	r0, r0, #96
 478 000a 1E4B     		ldr	r3, .L38
 479 000c DB68     		ldr	r3, [r3, #12]
 480 000e 9842     		cmp	r0, r3
 481 0010 36D0     		beq	.L32
 778:.\Valve_Control.c ****     {
 779:.\Valve_Control.c ****     //LCD_Char_1_WriteControl(0x01);
 780:.\Valve_Control.c ****       lastMode = CutMode();
 482              		.loc 1 780 0
 483 0012 FFF7FEFF 		bl	Status_Reg_1_Read
 484              	.LVL47:
 485 0016 00F06000 		and	r0, r0, #96
 486 001a 1A4B     		ldr	r3, .L38
 487 001c D860     		str	r0, [r3, #12]
 781:.\Valve_Control.c ****     }
 782:.\Valve_Control.c ****     else 
 783:.\Valve_Control.c ****     {
 784:.\Valve_Control.c ****         return;
 785:.\Valve_Control.c ****     }
 786:.\Valve_Control.c ****     if(CutMode() == CUTCMODE)
 488              		.loc 1 786 0
 489 001e FFF7FEFF 		bl	Status_Reg_1_Read
 490              	.LVL48:
 491 0022 00F06000 		and	r0, r0, #96
 492 0026 4028     		cmp	r0, #64
 493 0028 07D1     		bne	.L34
 787:.\Valve_Control.c ****     {
 788:.\Valve_Control.c ****         LCD_Char_1_Position(0,1) ;
 494              		.loc 1 788 0
 495 002a 0020     		movs	r0, #0
 496 002c 0121     		movs	r1, #1
 497 002e FFF7FEFF 		bl	LCD_Char_1_Position
 498              	.LVL49:
 789:.\Valve_Control.c ****         LCD_Char_1_PrintString("C-MODE");
 499              		.loc 1 789 0
 500 0032 1548     		ldr	r0, .L38+4
 501 0034 FFF7FEFF 		bl	LCD_Char_1_PrintString
 502              	.LVL50:
 503 0038 08BD     		pop	{r3, pc}
 504              	.L34:
 790:.\Valve_Control.c ****     }
 791:.\Valve_Control.c ****     else if(CutMode() == CUTJMODE)
 505              		.loc 1 791 0
 506 003a FFF7FEFF 		bl	Status_Reg_1_Read
 507              	.LVL51:
ARM GAS  C:\Users\PANXIA~1\AppData\Local\Temp\cckUlCze.s 			page 24


 508 003e 00F06000 		and	r0, r0, #96
 509 0042 6028     		cmp	r0, #96
 510 0044 07D1     		bne	.L35
 792:.\Valve_Control.c ****     {
 793:.\Valve_Control.c ****         LCD_Char_1_Position(0,1) ;
 511              		.loc 1 793 0
 512 0046 0020     		movs	r0, #0
 513 0048 0121     		movs	r1, #1
 514 004a FFF7FEFF 		bl	LCD_Char_1_Position
 515              	.LVL52:
 794:.\Valve_Control.c ****         LCD_Char_1_PrintString("J-MODE");
 516              		.loc 1 794 0
 517 004e 0F48     		ldr	r0, .L38+8
 518 0050 FFF7FEFF 		bl	LCD_Char_1_PrintString
 519              	.LVL53:
 520 0054 08BD     		pop	{r3, pc}
 521              	.L35:
 795:.\Valve_Control.c ****     }
 796:.\Valve_Control.c ****     else if(CutMode() == CUTSMODE)
 522              		.loc 1 796 0
 523 0056 FFF7FEFF 		bl	Status_Reg_1_Read
 524              	.LVL54:
 525 005a 00F06000 		and	r0, r0, #96
 526 005e 2028     		cmp	r0, #32
 527 0060 07D1     		bne	.L36
 797:.\Valve_Control.c ****     {
 798:.\Valve_Control.c ****         LCD_Char_1_Position(0,1) ;
 528              		.loc 1 798 0
 529 0062 0020     		movs	r0, #0
 530 0064 0121     		movs	r1, #1
 531 0066 FFF7FEFF 		bl	LCD_Char_1_Position
 532              	.LVL55:
 799:.\Valve_Control.c ****         LCD_Char_1_PrintString("S-MODE");
 533              		.loc 1 799 0
 534 006a 0948     		ldr	r0, .L38+12
 535 006c FFF7FEFF 		bl	LCD_Char_1_PrintString
 536              	.LVL56:
 537 0070 08BD     		pop	{r3, pc}
 538              	.L36:
 800:.\Valve_Control.c ****     }
 801:.\Valve_Control.c ****     else 
 802:.\Valve_Control.c ****     {
 803:.\Valve_Control.c ****         LCD_Char_1_Position(0,1);
 539              		.loc 1 803 0
 540 0072 0020     		movs	r0, #0
 541 0074 0121     		movs	r1, #1
 542 0076 FFF7FEFF 		bl	LCD_Char_1_Position
 543              	.LVL57:
 804:.\Valve_Control.c ****         LCD_Char_1_PrintString("UNKNOWN");
 544              		.loc 1 804 0
 545 007a 0648     		ldr	r0, .L38+16
 546 007c FFF7FEFF 		bl	LCD_Char_1_PrintString
 547              	.LVL58:
 548              	.L32:
 549 0080 08BD     		pop	{r3, pc}
 550              	.L39:
 551 0082 00BF     		.align	2
ARM GAS  C:\Users\PANXIA~1\AppData\Local\Temp\cckUlCze.s 			page 25


 552              	.L38:
 553 0084 00000000 		.word	.LANCHOR1
 554 0088 50000000 		.word	.LC7
 555 008c 58000000 		.word	.LC8
 556 0090 60000000 		.word	.LC9
 557 0094 68000000 		.word	.LC10
 558              		.cfi_endproc
 559              	.LFE72:
 560              		.size	LCD_DISPLAY_MODE, .-LCD_DISPLAY_MODE
 561              		.section	.text.timer_10ms,"ax",%progbits
 562              		.align	2
 563              		.global	timer_10ms
 564              		.thumb
 565              		.thumb_func
 566              		.type	timer_10ms, %function
 567              	timer_10ms:
 568              	.LFB63:
  65:.\Valve_Control.c **** 	//Stroke_Timer_STATUS;
 569              		.loc 1 65 0
 570              		.cfi_startproc
 571              		@ args = 0, pretend = 0, frame = 0
 572              		@ frame_needed = 0, uses_anonymous_args = 0
  70:.\Valve_Control.c ****  
 573              		.loc 1 70 0
 574 0000 0022     		movs	r2, #0
 575 0002 AE4B     		ldr	r3, .L59
 576 0004 1A60     		str	r2, [r3]
  72:.\Valve_Control.c ****     {
 577              		.loc 1 72 0
 578 0006 AE4B     		ldr	r3, .L59+4
 579 0008 1A78     		ldrb	r2, [r3]	@ zero_extendqisi2
 580 000a AA2A     		cmp	r2, #170
 581 000c 08D0     		beq	.L41
  72:.\Valve_Control.c ****     {
 582              		.loc 1 72 0 is_stmt 0 discriminator 2
 583 000e AD4B     		ldr	r3, .L59+8
 584 0010 DB7D     		ldrb	r3, [r3, #23]	@ zero_extendqisi2
 585 0012 DBB2     		uxtb	r3, r3
 586 0014 112B     		cmp	r3, #17
 587 0016 40F05D81 		bne	.L58
  72:.\Valve_Control.c ****     {
 588              		.loc 1 72 0 discriminator 3
 589 001a 882A     		cmp	r2, #136
 590 001c 00F05A81 		beq	.L58
 591              	.L41:
  72:.\Valve_Control.c ****     {
 592              		.loc 1 72 0 discriminator 4
 593 0020 A02A     		cmp	r2, #160
 594 0022 00F05781 		beq	.L58
  65:.\Valve_Control.c **** 	//Stroke_Timer_STATUS;
 595              		.loc 1 65 0 is_stmt 1
 596 0026 10B5     		push	{r4, lr}
 597              		.cfi_def_cfa_offset 8
 598              		.cfi_offset 4, -8
 599              		.cfi_offset 14, -4
  75:.\Valve_Control.c **** 		{
 600              		.loc 1 75 0
ARM GAS  C:\Users\PANXIA~1\AppData\Local\Temp\cckUlCze.s 			page 26


 601 0028 FFF7FEFF 		bl	Status_Reg_1_Read
 602              	.LVL59:
 603 002c 00F06000 		and	r0, r0, #96
 604 0030 2028     		cmp	r0, #32
 605 0032 22D1     		bne	.L43
  75:.\Valve_Control.c **** 		{
 606              		.loc 1 75 0 is_stmt 0 discriminator 1
 607 0034 A34B     		ldr	r3, .L59+8
 608 0036 5B7C     		ldrb	r3, [r3, #17]	@ zero_extendqisi2
 609 0038 DBB2     		uxtb	r3, r3
 610 003a 022B     		cmp	r3, #2
 611 003c 1DD8     		bhi	.L43
  75:.\Valve_Control.c **** 		{
 612              		.loc 1 75 0 discriminator 2
 613 003e FFF7FEFF 		bl	Status_Reg_1_Read
 614              	.LVL60:
 615 0042 10F0080F 		tst	r0, #8
 616 0046 18D0     		beq	.L43
  77:.\Valve_Control.c **** 			if(!FootStart())
 617              		.loc 1 77 0 is_stmt 1
 618 0048 0520     		movs	r0, #5
 619 004a FFF7FEFF 		bl	CyDelay
 620              	.LVL61:
  78:.\Valve_Control.c **** 			{
 621              		.loc 1 78 0
 622 004e FFF7FEFF 		bl	Status_Reg_1_Read
 623              	.LVL62:
 624 0052 10F0080F 		tst	r0, #8
 625 0056 10D0     		beq	.L43
  80:.\Valve_Control.c ****                 LED_WRITE(LED_Status[VBack]);
 626              		.loc 1 80 0
 627 0058 9A4C     		ldr	r4, .L59+8
 628 005a 207B     		ldrb	r0, [r4, #12]	@ zero_extendqisi2
 629 005c FFF7FEFF 		bl	Control_Reg_1_Write
 630              	.LVL63:
 631 0060 227B     		ldrb	r2, [r4, #12]	@ zero_extendqisi2
 632 0062 994B     		ldr	r3, .L59+12
 633 0064 1A70     		strb	r2, [r3]
 634              	.LBB2:
  81:.\Valve_Control.c **** 				CutReg.CutTimeStatus = VBack;
 635              		.loc 1 81 0
 636 0066 994B     		ldr	r3, .L59+16
 637 0068 187A     		ldrb	r0, [r3, #8]	@ zero_extendqisi2
 638 006a 994B     		ldr	r3, .L59+20
 639 006c 1870     		strb	r0, [r3]
 640 006e FFF7FEFF 		bl	LCD_DISPLAY
 641              	.LVL64:
 642 0072 FFF7FEFF 		bl	LCD_DISPLAY_MODE
 643              	.LVL65:
 644              	.LBE2:
  82:.\Valve_Control.c ****               //CutReg.OneWorkFinshState = One_Work_Runing;   /* Â¢ûÂä†Âä®‰ΩúÂÆåÊàêÊ†áÂøó20160820*/
 645              		.loc 1 82 0
 646 0076 0423     		movs	r3, #4
 647 0078 6374     		strb	r3, [r4, #17]
 648              	.L43:
  87:.\Valve_Control.c **** 		{
 649              		.loc 1 87 0
ARM GAS  C:\Users\PANXIA~1\AppData\Local\Temp\cckUlCze.s 			page 27


 650 007a 924B     		ldr	r3, .L59+8
 651 007c 5B7C     		ldrb	r3, [r3, #17]	@ zero_extendqisi2
 652 007e DBB2     		uxtb	r3, r3
 653 0080 052B     		cmp	r3, #5
 654 0082 00F21981 		bhi	.L40
 655 0086 DFE813F0 		tbh	[pc, r3, lsl #1]
 656              	.L45:
 657 008a 0600     		.2byte	(.L44-.L45)/2
 658 008c 3200     		.2byte	(.L46-.L45)/2
 659 008e 5D00     		.2byte	(.L47-.L45)/2
 660 0090 8E00     		.2byte	(.L48-.L45)/2
 661 0092 BF00     		.2byte	(.L49-.L45)/2
 662 0094 F100     		.2byte	(.L50-.L45)/2
 663              		.p2align 1
 664              	.L44:
  90:.\Valve_Control.c **** 			if(DownPoint())
 665              		.loc 1 90 0
 666 0096 1122     		movs	r2, #17
 667 0098 8A4B     		ldr	r3, .L59+8
 668 009a DA75     		strb	r2, [r3, #23]
  91:.\Valve_Control.c **** 			{
 669              		.loc 1 91 0
 670 009c FFF7FEFF 		bl	Status_Reg_1_Read
 671              	.LVL66:
 672 00a0 10F0010F 		tst	r0, #1
 673 00a4 11D1     		bne	.L51
  93:.\Valve_Control.c ****                 LED_WRITE(LED_Status[VSlow]);
 674              		.loc 1 93 0
 675 00a6 874C     		ldr	r4, .L59+8
 676 00a8 607A     		ldrb	r0, [r4, #9]	@ zero_extendqisi2
 677 00aa FFF7FEFF 		bl	Control_Reg_1_Write
 678              	.LVL67:
 679 00ae 627A     		ldrb	r2, [r4, #9]	@ zero_extendqisi2
 680 00b0 854B     		ldr	r3, .L59+12
 681 00b2 1A70     		strb	r2, [r3]
 682              	.LBB3:
  94:.\Valve_Control.c **** 				CutReg.CutTimeStatus = VSlow;
 683              		.loc 1 94 0
 684 00b4 854B     		ldr	r3, .L59+16
 685 00b6 5879     		ldrb	r0, [r3, #5]	@ zero_extendqisi2
 686 00b8 854B     		ldr	r3, .L59+20
 687 00ba 1870     		strb	r0, [r3]
 688 00bc FFF7FEFF 		bl	LCD_DISPLAY
 689              	.LVL68:
 690 00c0 FFF7FEFF 		bl	LCD_DISPLAY_MODE
 691              	.LVL69:
 692              	.LBE3:
  95:.\Valve_Control.c **** 			}
 693              		.loc 1 95 0
 694 00c4 0123     		movs	r3, #1
 695 00c6 6374     		strb	r3, [r4, #17]
 696 00c8 10BD     		pop	{r4, pc}
 697              	.L51:
  99:.\Valve_Control.c ****                 LED_WRITE(LED_Status[VFast]);
 698              		.loc 1 99 0
 699 00ca 7E4C     		ldr	r4, .L59+8
 700 00cc 207A     		ldrb	r0, [r4, #8]	@ zero_extendqisi2
ARM GAS  C:\Users\PANXIA~1\AppData\Local\Temp\cckUlCze.s 			page 28


 701 00ce FFF7FEFF 		bl	Control_Reg_1_Write
 702              	.LVL70:
 703 00d2 227A     		ldrb	r2, [r4, #8]	@ zero_extendqisi2
 704 00d4 7C4B     		ldr	r3, .L59+12
 705 00d6 1A70     		strb	r2, [r3]
 706              	.LBB4:
 100:.\Valve_Control.c **** 				CutReg.CutTimeStatus = VFast;
 707              		.loc 1 100 0
 708 00d8 7C4B     		ldr	r3, .L59+16
 709 00da 1879     		ldrb	r0, [r3, #4]	@ zero_extendqisi2
 710 00dc 7C4B     		ldr	r3, .L59+20
 711 00de 1870     		strb	r0, [r3]
 712 00e0 FFF7FEFF 		bl	LCD_DISPLAY
 713              	.LVL71:
 714 00e4 FFF7FEFF 		bl	LCD_DISPLAY_MODE
 715              	.LVL72:
 716              	.LBE4:
 101:.\Valve_Control.c **** 			}
 717              		.loc 1 101 0
 718 00e8 0023     		movs	r3, #0
 719 00ea 6374     		strb	r3, [r4, #17]
 720 00ec 10BD     		pop	{r4, pc}
 721              	.L46:
 106:.\Valve_Control.c **** 			{
 722              		.loc 1 106 0
 723 00ee FFF7FEFF 		bl	Status_Reg_1_Read
 724              	.LVL73:
 725 00f2 10F0010F 		tst	r0, #1
 726 00f6 13D1     		bne	.L52
 108:.\Valve_Control.c ****                 LED_WRITE(LED_Status[VKeep]);
 727              		.loc 1 108 0
 728 00f8 724C     		ldr	r4, .L59+8
 729 00fa A07A     		ldrb	r0, [r4, #10]	@ zero_extendqisi2
 730 00fc FFF7FEFF 		bl	Control_Reg_1_Write
 731              	.LVL74:
 732 0100 A27A     		ldrb	r2, [r4, #10]	@ zero_extendqisi2
 733 0102 714B     		ldr	r3, .L59+12
 734 0104 1A70     		strb	r2, [r3]
 735              	.LBB5:
 109:.\Valve_Control.c **** 				CutReg.CutTimeStatus = VKeep;
 736              		.loc 1 109 0
 737 0106 714B     		ldr	r3, .L59+16
 738 0108 9879     		ldrb	r0, [r3, #6]	@ zero_extendqisi2
 739 010a 714B     		ldr	r3, .L59+20
 740 010c 1870     		strb	r0, [r3]
 741 010e FFF7FEFF 		bl	LCD_DISPLAY
 742              	.LVL75:
 743 0112 FFF7FEFF 		bl	LCD_DISPLAY_MODE
 744              	.LVL76:
 745              	.LBE5:
 110:.\Valve_Control.c **** 				CutReg.Cnt = 0;
 746              		.loc 1 110 0
 747 0116 0223     		movs	r3, #2
 748 0118 6374     		strb	r3, [r4, #17]
 111:.\Valve_Control.c **** 			}
 749              		.loc 1 111 0
 750 011a 0023     		movs	r3, #0
ARM GAS  C:\Users\PANXIA~1\AppData\Local\Temp\cckUlCze.s 			page 29


 751 011c E381     		strh	r3, [r4, #14]	@ movhi
 752 011e 10BD     		pop	{r4, pc}
 753              	.L52:
 115:.\Valve_Control.c ****                 LED_WRITE(LED_Status[VFast]);
 754              		.loc 1 115 0
 755 0120 684C     		ldr	r4, .L59+8
 756 0122 207A     		ldrb	r0, [r4, #8]	@ zero_extendqisi2
 757 0124 FFF7FEFF 		bl	Control_Reg_1_Write
 758              	.LVL77:
 759 0128 227A     		ldrb	r2, [r4, #8]	@ zero_extendqisi2
 760 012a 674B     		ldr	r3, .L59+12
 761 012c 1A70     		strb	r2, [r3]
 762              	.LBB6:
 116:.\Valve_Control.c **** 				CutReg.CutTimeStatus = VFast;
 763              		.loc 1 116 0
 764 012e 674B     		ldr	r3, .L59+16
 765 0130 1879     		ldrb	r0, [r3, #4]	@ zero_extendqisi2
 766 0132 674B     		ldr	r3, .L59+20
 767 0134 1870     		strb	r0, [r3]
 768 0136 FFF7FEFF 		bl	LCD_DISPLAY
 769              	.LVL78:
 770 013a FFF7FEFF 		bl	LCD_DISPLAY_MODE
 771              	.LVL79:
 772              	.LBE6:
 117:.\Valve_Control.c **** 			}
 773              		.loc 1 117 0
 774 013e 0023     		movs	r3, #0
 775 0140 6374     		strb	r3, [r4, #17]
 776 0142 10BD     		pop	{r4, pc}
 777              	.L47:
 122:.\Valve_Control.c **** 			if(CutReg.Cnt >= CutReg.KeepTime)
 778              		.loc 1 122 0
 779 0144 5F4A     		ldr	r2, .L59+8
 780 0146 D389     		ldrh	r3, [r2, #14]
 781 0148 0133     		adds	r3, r3, #1
 782 014a 9BB2     		uxth	r3, r3
 783 014c D381     		strh	r3, [r2, #14]	@ movhi
 123:.\Valve_Control.c **** 			{
 784              		.loc 1 123 0
 785 014e D189     		ldrh	r1, [r2, #14]
 786 0150 89B2     		uxth	r1, r1
 787 0152 1388     		ldrh	r3, [r2]
 788 0154 9BB2     		uxth	r3, r3
 789 0156 9942     		cmp	r1, r3
 790 0158 13D3     		bcc	.L53
 125:.\Valve_Control.c **** 				ValveOut(CutReg.Action[VUnload]);
 791              		.loc 1 125 0
 792 015a 1446     		mov	r4, r2
 793 015c 0023     		movs	r3, #0
 794 015e D381     		strh	r3, [r2, #14]	@ movhi
 126:.\Valve_Control.c ****                 LED_WRITE(LED_Status[VUnload]);
 795              		.loc 1 126 0
 796 0160 D07A     		ldrb	r0, [r2, #11]	@ zero_extendqisi2
 797 0162 FFF7FEFF 		bl	Control_Reg_1_Write
 798              	.LVL80:
 799 0166 E27A     		ldrb	r2, [r4, #11]	@ zero_extendqisi2
 800 0168 574B     		ldr	r3, .L59+12
ARM GAS  C:\Users\PANXIA~1\AppData\Local\Temp\cckUlCze.s 			page 30


 801 016a 1A70     		strb	r2, [r3]
 802              	.LBB7:
 127:.\Valve_Control.c **** 				CutReg.CutTimeStatus = VUnload;
 803              		.loc 1 127 0
 804 016c 574B     		ldr	r3, .L59+16
 805 016e D879     		ldrb	r0, [r3, #7]	@ zero_extendqisi2
 806 0170 574B     		ldr	r3, .L59+20
 807 0172 1870     		strb	r0, [r3]
 808 0174 FFF7FEFF 		bl	LCD_DISPLAY
 809              	.LVL81:
 810 0178 FFF7FEFF 		bl	LCD_DISPLAY_MODE
 811              	.LVL82:
 812              	.LBE7:
 128:.\Valve_Control.c **** 			}
 813              		.loc 1 128 0
 814 017c 0323     		movs	r3, #3
 815 017e 6374     		strb	r3, [r4, #17]
 816 0180 10BD     		pop	{r4, pc}
 817              	.L53:
 132:.\Valve_Control.c ****                 LED_WRITE(LED_Status[VKeep]);
 818              		.loc 1 132 0
 819 0182 504C     		ldr	r4, .L59+8
 820 0184 A07A     		ldrb	r0, [r4, #10]	@ zero_extendqisi2
 821 0186 FFF7FEFF 		bl	Control_Reg_1_Write
 822              	.LVL83:
 823 018a A27A     		ldrb	r2, [r4, #10]	@ zero_extendqisi2
 824 018c 4E4B     		ldr	r3, .L59+12
 825 018e 1A70     		strb	r2, [r3]
 826              	.LBB8:
 133:.\Valve_Control.c **** 				CutReg.CutTimeStatus = VKeep;
 827              		.loc 1 133 0
 828 0190 4E4B     		ldr	r3, .L59+16
 829 0192 9879     		ldrb	r0, [r3, #6]	@ zero_extendqisi2
 830 0194 4E4B     		ldr	r3, .L59+20
 831 0196 1870     		strb	r0, [r3]
 832 0198 FFF7FEFF 		bl	LCD_DISPLAY
 833              	.LVL84:
 834 019c FFF7FEFF 		bl	LCD_DISPLAY_MODE
 835              	.LVL85:
 836              	.LBE8:
 134:.\Valve_Control.c **** 			}
 837              		.loc 1 134 0
 838 01a0 0223     		movs	r3, #2
 839 01a2 6374     		strb	r3, [r4, #17]
 840 01a4 10BD     		pop	{r4, pc}
 841              	.L48:
 139:.\Valve_Control.c **** 			if(CutReg.Cnt >= CutReg.UnloadTime)
 842              		.loc 1 139 0
 843 01a6 474A     		ldr	r2, .L59+8
 844 01a8 D389     		ldrh	r3, [r2, #14]
 845 01aa 0133     		adds	r3, r3, #1
 846 01ac 9BB2     		uxth	r3, r3
 847 01ae D381     		strh	r3, [r2, #14]	@ movhi
 140:.\Valve_Control.c **** 			{
 848              		.loc 1 140 0
 849 01b0 D189     		ldrh	r1, [r2, #14]
 850 01b2 89B2     		uxth	r1, r1
ARM GAS  C:\Users\PANXIA~1\AppData\Local\Temp\cckUlCze.s 			page 31


 851 01b4 5388     		ldrh	r3, [r2, #2]
 852 01b6 9BB2     		uxth	r3, r3
 853 01b8 9942     		cmp	r1, r3
 854 01ba 13D3     		bcc	.L54
 142:.\Valve_Control.c **** 				ValveOut(CutReg.Action[VBack]);
 855              		.loc 1 142 0
 856 01bc 1446     		mov	r4, r2
 857 01be 0023     		movs	r3, #0
 858 01c0 D381     		strh	r3, [r2, #14]	@ movhi
 143:.\Valve_Control.c ****                 LED_WRITE(LED_Status[VBack]);
 859              		.loc 1 143 0
 860 01c2 107B     		ldrb	r0, [r2, #12]	@ zero_extendqisi2
 861 01c4 FFF7FEFF 		bl	Control_Reg_1_Write
 862              	.LVL86:
 863 01c8 227B     		ldrb	r2, [r4, #12]	@ zero_extendqisi2
 864 01ca 3F4B     		ldr	r3, .L59+12
 865 01cc 1A70     		strb	r2, [r3]
 866              	.LBB9:
 144:.\Valve_Control.c **** 				CutReg.CutTimeStatus = VBack;
 867              		.loc 1 144 0
 868 01ce 3F4B     		ldr	r3, .L59+16
 869 01d0 187A     		ldrb	r0, [r3, #8]	@ zero_extendqisi2
 870 01d2 3F4B     		ldr	r3, .L59+20
 871 01d4 1870     		strb	r0, [r3]
 872 01d6 FFF7FEFF 		bl	LCD_DISPLAY
 873              	.LVL87:
 874 01da FFF7FEFF 		bl	LCD_DISPLAY_MODE
 875              	.LVL88:
 876              	.LBE9:
 145:.\Valve_Control.c **** 			}
 877              		.loc 1 145 0
 878 01de 0423     		movs	r3, #4
 879 01e0 6374     		strb	r3, [r4, #17]
 880 01e2 10BD     		pop	{r4, pc}
 881              	.L54:
 149:.\Valve_Control.c ****                 LED_WRITE(LED_Status[VUnload]);
 882              		.loc 1 149 0
 883 01e4 374C     		ldr	r4, .L59+8
 884 01e6 E07A     		ldrb	r0, [r4, #11]	@ zero_extendqisi2
 885 01e8 FFF7FEFF 		bl	Control_Reg_1_Write
 886              	.LVL89:
 887 01ec E27A     		ldrb	r2, [r4, #11]	@ zero_extendqisi2
 888 01ee 364B     		ldr	r3, .L59+12
 889 01f0 1A70     		strb	r2, [r3]
 890              	.LBB10:
 150:.\Valve_Control.c **** 				CutReg.CutTimeStatus = VUnload;
 891              		.loc 1 150 0
 892 01f2 364B     		ldr	r3, .L59+16
 893 01f4 D879     		ldrb	r0, [r3, #7]	@ zero_extendqisi2
 894 01f6 364B     		ldr	r3, .L59+20
 895 01f8 1870     		strb	r0, [r3]
 896 01fa FFF7FEFF 		bl	LCD_DISPLAY
 897              	.LVL90:
 898 01fe FFF7FEFF 		bl	LCD_DISPLAY_MODE
 899              	.LVL91:
 900              	.LBE10:
 151:.\Valve_Control.c **** 			}
ARM GAS  C:\Users\PANXIA~1\AppData\Local\Temp\cckUlCze.s 			page 32


 901              		.loc 1 151 0
 902 0202 0323     		movs	r3, #3
 903 0204 6374     		strb	r3, [r4, #17]
 904 0206 10BD     		pop	{r4, pc}
 905              	.L49:
 156:.\Valve_Control.c **** 			{
 906              		.loc 1 156 0
 907 0208 FFF7FEFF 		bl	Status_Reg_1_Read
 908              	.LVL92:
 909 020c 10F0020F 		tst	r0, #2
 910 0210 1AD1     		bne	.L55
 158:.\Valve_Control.c **** 				{
 911              		.loc 1 158 0
 912 0212 FFF7FEFF 		bl	Status_Reg_1_Read
 913              	.LVL93:
 914 0216 10F0020F 		tst	r0, #2
 915 021a 4DD1     		bne	.L40
 160:.\Valve_Control.c ****                     LED_WRITE(LED_Status[VStop]);
 916              		.loc 1 160 0
 917 021c 294C     		ldr	r4, .L59+8
 918 021e 607B     		ldrb	r0, [r4, #13]	@ zero_extendqisi2
 919 0220 FFF7FEFF 		bl	Control_Reg_1_Write
 920              	.LVL94:
 921 0224 627B     		ldrb	r2, [r4, #13]	@ zero_extendqisi2
 922 0226 284B     		ldr	r3, .L59+12
 923 0228 1A70     		strb	r2, [r3]
 924              	.LBB11:
 161:.\Valve_Control.c **** 					CutReg.CutTimeStatus = VStop;
 925              		.loc 1 161 0
 926 022a 284B     		ldr	r3, .L59+16
 927 022c 587A     		ldrb	r0, [r3, #9]	@ zero_extendqisi2
 928 022e 284B     		ldr	r3, .L59+20
 929 0230 1870     		strb	r0, [r3]
 930 0232 FFF7FEFF 		bl	LCD_DISPLAY
 931              	.LVL95:
 932 0236 FFF7FEFF 		bl	LCD_DISPLAY_MODE
 933              	.LVL96:
 934              	.LBE11:
 162:.\Valve_Control.c **** 					CutReg.Cnt = 0;
 935              		.loc 1 162 0
 936 023a 0523     		movs	r3, #5
 937 023c 6374     		strb	r3, [r4, #17]
 163:.\Valve_Control.c ****                     CutReg.OneWorkFinshState = One_Work_Finish;//ÂÆåÊàê‰∏ÄÊ¨°Âä®‰ΩúÊ†áÂøó 20160829Á
 938              		.loc 1 163 0
 939 023e 0023     		movs	r3, #0
 940 0240 E381     		strh	r3, [r4, #14]	@ movhi
 164:.\Valve_Control.c **** 				}
 941              		.loc 1 164 0
 942 0242 FF23     		movs	r3, #255
 943 0244 E375     		strb	r3, [r4, #23]
 944 0246 10BD     		pop	{r4, pc}
 945              	.L55:
 169:.\Valve_Control.c ****                 LED_WRITE(LED_Status[VBack]);
 946              		.loc 1 169 0
 947 0248 1E4C     		ldr	r4, .L59+8
 948 024a 207B     		ldrb	r0, [r4, #12]	@ zero_extendqisi2
 949 024c FFF7FEFF 		bl	Control_Reg_1_Write
ARM GAS  C:\Users\PANXIA~1\AppData\Local\Temp\cckUlCze.s 			page 33


 950              	.LVL97:
 951 0250 227B     		ldrb	r2, [r4, #12]	@ zero_extendqisi2
 952 0252 1D4B     		ldr	r3, .L59+12
 953 0254 1A70     		strb	r2, [r3]
 954              	.LBB12:
 170:.\Valve_Control.c **** 				CutReg.CutTimeStatus = VBack;
 955              		.loc 1 170 0
 956 0256 1D4B     		ldr	r3, .L59+16
 957 0258 187A     		ldrb	r0, [r3, #8]	@ zero_extendqisi2
 958 025a 1D4B     		ldr	r3, .L59+20
 959 025c 1870     		strb	r0, [r3]
 960 025e FFF7FEFF 		bl	LCD_DISPLAY
 961              	.LVL98:
 962 0262 FFF7FEFF 		bl	LCD_DISPLAY_MODE
 963              	.LVL99:
 964              	.LBE12:
 171:.\Valve_Control.c **** 			}
 965              		.loc 1 171 0
 966 0266 0423     		movs	r3, #4
 967 0268 6374     		strb	r3, [r4, #17]
 968 026a 10BD     		pop	{r4, pc}
 969              	.L50:
 175:.\Valve_Control.c **** 			if(CutReg.Cnt >= 100  )//
 970              		.loc 1 175 0
 971 026c 154A     		ldr	r2, .L59+8
 972 026e D389     		ldrh	r3, [r2, #14]
 973 0270 0133     		adds	r3, r3, #1
 974 0272 9BB2     		uxth	r3, r3
 975 0274 D381     		strh	r3, [r2, #14]	@ movhi
 176:.\Valve_Control.c **** 			{
 976              		.loc 1 176 0
 977 0276 D389     		ldrh	r3, [r2, #14]
 978 0278 9BB2     		uxth	r3, r3
 979 027a 632B     		cmp	r3, #99
 980 027c 0BD9     		bls	.L56
 178:.\Valve_Control.c **** 				ISR_Stroke_Timer_states =0x01;
 981              		.loc 1 178 0
 982 027e 1346     		mov	r3, r2
 983 0280 0022     		movs	r2, #0
 984 0282 DA81     		strh	r2, [r3, #14]	@ movhi
 179:.\Valve_Control.c ****           
 985              		.loc 1 179 0
 986 0284 0120     		movs	r0, #1
 987 0286 0D49     		ldr	r1, .L59
 988 0288 0860     		str	r0, [r1]
 181:.\Valve_Control.c ****             
 989              		.loc 1 181 0
 990 028a 5A74     		strb	r2, [r3, #17]
 183:.\Valve_Control.c **** 				CutReg.CutStatus = JudgMode;
 991              		.loc 1 183 0
 992 028c 0522     		movs	r2, #5
 993 028e 5A74     		strb	r2, [r3, #17]
 184:.\Valve_Control.c ****              
 994              		.loc 1 184 0
 995 0290 0622     		movs	r2, #6
 996 0292 1A74     		strb	r2, [r3, #16]
 997 0294 10BD     		pop	{r4, pc}
ARM GAS  C:\Users\PANXIA~1\AppData\Local\Temp\cckUlCze.s 			page 34


 998              	.L56:
 189:.\Valve_Control.c ****                 LED_WRITE(LED_Status[VStop]);
 999              		.loc 1 189 0
 1000 0296 0B4C     		ldr	r4, .L59+8
 1001 0298 607B     		ldrb	r0, [r4, #13]	@ zero_extendqisi2
 1002 029a FFF7FEFF 		bl	Control_Reg_1_Write
 1003              	.LVL100:
 1004 029e 627B     		ldrb	r2, [r4, #13]	@ zero_extendqisi2
 1005 02a0 094B     		ldr	r3, .L59+12
 1006 02a2 1A70     		strb	r2, [r3]
 1007              	.LBB13:
 190:.\Valve_Control.c **** 				CutReg.CutTimeStatus = VStop;
 1008              		.loc 1 190 0
 1009 02a4 094B     		ldr	r3, .L59+16
 1010 02a6 587A     		ldrb	r0, [r3, #9]	@ zero_extendqisi2
 1011 02a8 094B     		ldr	r3, .L59+20
 1012 02aa 1870     		strb	r0, [r3]
 1013 02ac FFF7FEFF 		bl	LCD_DISPLAY
 1014              	.LVL101:
 1015 02b0 FFF7FEFF 		bl	LCD_DISPLAY_MODE
 1016              	.LVL102:
 1017              	.LBE13:
 191:.\Valve_Control.c ****                 
 1018              		.loc 1 191 0
 1019 02b4 0523     		movs	r3, #5
 1020 02b6 6374     		strb	r3, [r4, #17]
 1021              	.L40:
 1022 02b8 10BD     		pop	{r4, pc}
 1023              	.L60:
 1024 02ba 00BF     		.align	2
 1025              	.L59:
 1026 02bc 00000000 		.word	ISR_Stroke_Timer_states
 1027 02c0 00000000 		.word	System_enable
 1028 02c4 00000000 		.word	CutReg
 1029 02c8 00000000 		.word	TPDO_OUT_Status
 1030 02cc 00000000 		.word	.LANCHOR1
 1031 02d0 00000000 		.word	TPDO_PROCESS_Status
 1032              	.L58:
 1033              		.cfi_def_cfa_offset 0
 1034              		.cfi_restore 4
 1035              		.cfi_restore 14
 1036 02d4 7047     		bx	lr
 1037              		.cfi_endproc
 1038              	.LFE63:
 1039              		.size	timer_10ms, .-timer_10ms
 1040 02d6 00BF     		.section	.text.Stroke_Process,"ax",%progbits
 1041              		.align	2
 1042              		.global	Stroke_Process
 1043              		.thumb
 1044              		.thumb_func
 1045              		.type	Stroke_Process, %function
 1046              	Stroke_Process:
 1047              	.LFB64:
 219:.\Valve_Control.c **** 	uint8 ModeFlag = 0;
 1048              		.loc 1 219 0
 1049              		.cfi_startproc
 1050              		@ args = 0, pretend = 0, frame = 0
ARM GAS  C:\Users\PANXIA~1\AppData\Local\Temp\cckUlCze.s 			page 35


 1051              		@ frame_needed = 0, uses_anonymous_args = 0
 1052 0000 10B5     		push	{r4, lr}
 1053              		.cfi_def_cfa_offset 8
 1054              		.cfi_offset 4, -8
 1055              		.cfi_offset 14, -4
 1056              	.LVL103:
 224:.\Valve_Control.c **** 	{
 1057              		.loc 1 224 0
 1058 0002 AB4B     		ldr	r3, .L99
 1059 0004 1B7C     		ldrb	r3, [r3, #16]	@ zero_extendqisi2
 1060 0006 DBB2     		uxtb	r3, r3
 1061 0008 062B     		cmp	r3, #6
 1062 000a 00F2AD81 		bhi	.L91
 1063 000e DFE813F0 		tbh	[pc, r3, lsl #1]
 1064              	.L64:
 1065 0012 0700     		.2byte	(.L63-.L64)/2
 1066 0014 2A00     		.2byte	(.L65-.L64)/2
 1067 0016 3801     		.2byte	(.L66-.L64)/2
 1068 0018 5B01     		.2byte	(.L67-.L64)/2
 1069 001a 8001     		.2byte	(.L68-.L64)/2
 1070 001c AB01     		.2byte	(.L91-.L64)/2
 1071 001e 8901     		.2byte	(.L69-.L64)/2
 1072              		.p2align 1
 1073              	.L63:
 227:.\Valve_Control.c **** 		{
 1074              		.loc 1 227 0
 1075 0020 FFF7FEFF 		bl	Status_Reg_1_Read
 1076              	.LVL104:
 1077 0024 00F06000 		and	r0, r0, #96
 1078 0028 4028     		cmp	r0, #64
 1079 002a 05D0     		beq	.L70
 227:.\Valve_Control.c **** 		{
 1080              		.loc 1 227 0 is_stmt 0 discriminator 1
 1081 002c FFF7FEFF 		bl	Status_Reg_1_Read
 1082              	.LVL105:
 1083 0030 00F06000 		and	r0, r0, #96
 1084 0034 2028     		cmp	r0, #32
 1085 0036 03D1     		bne	.L71
 1086              	.L70:
 229:.\Valve_Control.c **** 		}
 1087              		.loc 1 229 0 is_stmt 1
 1088 0038 0222     		movs	r2, #2
 1089 003a 9D4B     		ldr	r3, .L99
 1090 003c 1A74     		strb	r2, [r3, #16]
 1091 003e 08E0     		b	.L72
 1092              	.L71:
 231:.\Valve_Control.c **** 		{
 1093              		.loc 1 231 0
 1094 0040 FFF7FEFF 		bl	Status_Reg_1_Read
 1095              	.LVL106:
 1096 0044 00F06000 		and	r0, r0, #96
 1097 0048 6028     		cmp	r0, #96
 1098 004a 02D1     		bne	.L72
 233:.\Valve_Control.c **** 		}
 1099              		.loc 1 233 0
 1100 004c 0122     		movs	r2, #1
 1101 004e 984B     		ldr	r3, .L99
ARM GAS  C:\Users\PANXIA~1\AppData\Local\Temp\cckUlCze.s 			page 36


 1102 0050 1A74     		strb	r2, [r3, #16]
 1103              	.L72:
 236:.\Valve_Control.c ****         {
 1104              		.loc 1 236 0
 1105 0052 984B     		ldr	r3, .L99+4
 1106 0054 1B78     		ldrb	r3, [r3]	@ zero_extendqisi2
 1107 0056 882B     		cmp	r3, #136
 1108 0058 40F08881 		bne	.L92
 238:.\Valve_Control.c ****         }
 1109              		.loc 1 238 0
 1110 005c 0122     		movs	r2, #1
 1111 005e 944B     		ldr	r3, .L99
 1112 0060 1A74     		strb	r2, [r3, #16]
 222:.\Valve_Control.c **** 	
 1113              		.loc 1 222 0
 1114 0062 0020     		movs	r0, #0
 1115 0064 10BD     		pop	{r4, pc}
 1116              	.L65:
 243:.\Valve_Control.c **** 		{
 1117              		.loc 1 243 0
 1118 0066 FFF7FEFF 		bl	Status_Reg_1_Read
 1119              	.LVL107:
 1120 006a 00F06000 		and	r0, r0, #96
 1121 006e 6028     		cmp	r0, #96
 1122 0070 15D0     		beq	.L73
 243:.\Valve_Control.c **** 		{
 1123              		.loc 1 243 0 is_stmt 0 discriminator 1
 1124 0072 904B     		ldr	r3, .L99+4
 1125 0074 1B78     		ldrb	r3, [r3]	@ zero_extendqisi2
 1126 0076 882B     		cmp	r3, #136
 1127 0078 11D0     		beq	.L73
 245:.\Valve_Control.c ****             LED_WRITE(LED_Status[VStop]);
 1128              		.loc 1 245 0 is_stmt 1
 1129 007a 8D4C     		ldr	r4, .L99
 1130 007c 607B     		ldrb	r0, [r4, #13]	@ zero_extendqisi2
 1131 007e FFF7FEFF 		bl	Control_Reg_1_Write
 1132              	.LVL108:
 1133 0082 627B     		ldrb	r2, [r4, #13]	@ zero_extendqisi2
 1134 0084 8C4B     		ldr	r3, .L99+8
 1135 0086 1A70     		strb	r2, [r3]
 1136              	.LBB14:
 246:.\Valve_Control.c **** 			CutReg.CutStatus = StrokeStart;
 1137              		.loc 1 246 0
 1138 0088 8C4B     		ldr	r3, .L99+12
 1139 008a 587A     		ldrb	r0, [r3, #9]	@ zero_extendqisi2
 1140 008c 8C4B     		ldr	r3, .L99+16
 1141 008e 1870     		strb	r0, [r3]
 1142 0090 FFF7FEFF 		bl	LCD_DISPLAY
 1143              	.LVL109:
 1144 0094 FFF7FEFF 		bl	LCD_DISPLAY_MODE
 1145              	.LVL110:
 1146              	.LBE14:
 247:.\Valve_Control.c **** 		}
 1147              		.loc 1 247 0
 1148 0098 0023     		movs	r3, #0
 1149 009a 2374     		strb	r3, [r4, #16]
 1150 009c C1E0     		b	.L74
ARM GAS  C:\Users\PANXIA~1\AppData\Local\Temp\cckUlCze.s 			page 37


 1151              	.L73:
 249:.\Valve_Control.c **** 		{
 1152              		.loc 1 249 0
 1153 009e FFF7FEFF 		bl	Status_Reg_1_Read
 1154              	.LVL111:
 1155 00a2 10F0080F 		tst	r0, #8
 1156 00a6 5BD1     		bne	.L75
 249:.\Valve_Control.c **** 		{
 1157              		.loc 1 249 0 is_stmt 0 discriminator 1
 1158 00a8 844B     		ldr	r3, .L99+12
 1159 00aa 1B7C     		ldrb	r3, [r3, #16]	@ zero_extendqisi2
 1160 00ac 002B     		cmp	r3, #0
 1161 00ae 57D0     		beq	.L75
 252:.\Valve_Control.c **** 			while(FootStart())
 1162              		.loc 1 252 0 is_stmt 1
 1163 00b0 1122     		movs	r2, #17
 1164 00b2 7F4B     		ldr	r3, .L99
 1165 00b4 DA75     		strb	r2, [r3, #23]
 253:.\Valve_Control.c **** 			{
 1166              		.loc 1 253 0
 1167 00b6 3EE0     		b	.L76
 1168              	.L80:
 256:.\Valve_Control.c **** 				{
 1169              		.loc 1 256 0
 1170 00b8 FFF7FEFF 		bl	Status_Reg_1_Read
 1171              	.LVL112:
 1172 00bc 10F0010F 		tst	r0, #1
 1173 00c0 12D1     		bne	.L77
 258:.\Valve_Control.c ****                     LED_WRITE(LED_Status[VSlow]);
 1174              		.loc 1 258 0
 1175 00c2 7B4C     		ldr	r4, .L99
 1176 00c4 607A     		ldrb	r0, [r4, #9]	@ zero_extendqisi2
 1177 00c6 FFF7FEFF 		bl	Control_Reg_1_Write
 1178              	.LVL113:
 1179 00ca 627A     		ldrb	r2, [r4, #9]	@ zero_extendqisi2
 1180 00cc 7A4B     		ldr	r3, .L99+8
 1181 00ce 1A70     		strb	r2, [r3]
 1182              	.LBB15:
 259:.\Valve_Control.c **** 					UnloadTime = CutReg.UnloadTime;
 1183              		.loc 1 259 0
 1184 00d0 7A4B     		ldr	r3, .L99+12
 1185 00d2 5879     		ldrb	r0, [r3, #5]	@ zero_extendqisi2
 1186 00d4 7A4B     		ldr	r3, .L99+16
 1187 00d6 1870     		strb	r0, [r3]
 1188 00d8 FFF7FEFF 		bl	LCD_DISPLAY
 1189              	.LVL114:
 1190 00dc FFF7FEFF 		bl	LCD_DISPLAY_MODE
 1191              	.LVL115:
 1192              	.LBE15:
 260:.\Valve_Control.c **** 				}
 1193              		.loc 1 260 0
 1194 00e0 6288     		ldrh	r2, [r4, #2]
 1195 00e2 784B     		ldr	r3, .L99+20
 1196 00e4 1A80     		strh	r2, [r3]	@ movhi
 1197 00e6 0EE0     		b	.L78
 1198              	.L77:
 264:.\Valve_Control.c ****                     LED_WRITE(LED_Status[VFast]);
ARM GAS  C:\Users\PANXIA~1\AppData\Local\Temp\cckUlCze.s 			page 38


 1199              		.loc 1 264 0
 1200 00e8 714C     		ldr	r4, .L99
 1201 00ea 207A     		ldrb	r0, [r4, #8]	@ zero_extendqisi2
 1202 00ec FFF7FEFF 		bl	Control_Reg_1_Write
 1203              	.LVL116:
 1204 00f0 227A     		ldrb	r2, [r4, #8]	@ zero_extendqisi2
 1205 00f2 714B     		ldr	r3, .L99+8
 1206 00f4 1A70     		strb	r2, [r3]
 1207              	.LBB16:
 265:.\Valve_Control.c **** 				}
 1208              		.loc 1 265 0
 1209 00f6 714B     		ldr	r3, .L99+12
 1210 00f8 1879     		ldrb	r0, [r3, #4]	@ zero_extendqisi2
 1211 00fa 714B     		ldr	r3, .L99+16
 1212 00fc 1870     		strb	r0, [r3]
 1213 00fe FFF7FEFF 		bl	LCD_DISPLAY
 1214              	.LVL117:
 1215 0102 FFF7FEFF 		bl	LCD_DISPLAY_MODE
 1216              	.LVL118:
 1217              	.L78:
 1218              	.LBE16:
 267:.\Valve_Control.c **** 				{
 1219              		.loc 1 267 0
 1220 0106 FFF7FEFF 		bl	Status_Reg_1_Read
 1221              	.LVL119:
 1222 010a 00F06000 		and	r0, r0, #96
 1223 010e 6028     		cmp	r0, #96
 1224 0110 11D0     		beq	.L76
 269:.\Valve_Control.c ****                     LED_WRITE(LED_Status[VStop]);
 1225              		.loc 1 269 0
 1226 0112 674C     		ldr	r4, .L99
 1227 0114 607B     		ldrb	r0, [r4, #13]	@ zero_extendqisi2
 1228 0116 FFF7FEFF 		bl	Control_Reg_1_Write
 1229              	.LVL120:
 1230 011a 627B     		ldrb	r2, [r4, #13]	@ zero_extendqisi2
 1231 011c 664B     		ldr	r3, .L99+8
 1232 011e 1A70     		strb	r2, [r3]
 1233              	.LBB17:
 270:.\Valve_Control.c **** 					CutReg.CutStatus = StrokeStart;
 1234              		.loc 1 270 0
 1235 0120 664B     		ldr	r3, .L99+12
 1236 0122 587A     		ldrb	r0, [r3, #9]	@ zero_extendqisi2
 1237 0124 664B     		ldr	r3, .L99+16
 1238 0126 1870     		strb	r0, [r3]
 1239 0128 FFF7FEFF 		bl	LCD_DISPLAY
 1240              	.LVL121:
 1241 012c FFF7FEFF 		bl	LCD_DISPLAY_MODE
 1242              	.LVL122:
 1243              	.LBE17:
 271:.\Valve_Control.c **** 					break;
 1244              		.loc 1 271 0
 1245 0130 0023     		movs	r3, #0
 1246 0132 2374     		strb	r3, [r4, #16]
 272:.\Valve_Control.c **** 				}
 1247              		.loc 1 272 0
 1248 0134 04E0     		b	.L79
 1249              	.L76:
ARM GAS  C:\Users\PANXIA~1\AppData\Local\Temp\cckUlCze.s 			page 39


 253:.\Valve_Control.c **** 			{
 1250              		.loc 1 253 0
 1251 0136 FFF7FEFF 		bl	Status_Reg_1_Read
 1252              	.LVL123:
 1253 013a 10F0080F 		tst	r0, #8
 1254 013e BBD0     		beq	.L80
 1255              	.L79:
 275:.\Valve_Control.c ****             LED_WRITE(LED_Status[VStop]);
 1256              		.loc 1 275 0
 1257 0140 5B4C     		ldr	r4, .L99
 1258 0142 607B     		ldrb	r0, [r4, #13]	@ zero_extendqisi2
 1259 0144 FFF7FEFF 		bl	Control_Reg_1_Write
 1260              	.LVL124:
 1261 0148 627B     		ldrb	r2, [r4, #13]	@ zero_extendqisi2
 1262 014a 5B4B     		ldr	r3, .L99+8
 1263 014c 1A70     		strb	r2, [r3]
 1264              	.LBB18:
 276:.\Valve_Control.c **** //			MoveLED(0);
 1265              		.loc 1 276 0
 1266 014e 5B4B     		ldr	r3, .L99+12
 1267 0150 587A     		ldrb	r0, [r3, #9]	@ zero_extendqisi2
 1268 0152 5B4B     		ldr	r3, .L99+16
 1269 0154 1870     		strb	r0, [r3]
 1270 0156 FFF7FEFF 		bl	LCD_DISPLAY
 1271              	.LVL125:
 1272 015a FFF7FEFF 		bl	LCD_DISPLAY_MODE
 1273              	.LVL126:
 1274              	.LBE18:
 1275 015e 60E0     		b	.L74
 1276              	.L75:
 279:.\Valve_Control.c **** 		{
 1277              		.loc 1 279 0
 1278 0160 FFF7FEFF 		bl	Status_Reg_1_Read
 1279              	.LVL127:
 1280 0164 10F0040F 		tst	r0, #4
 1281 0168 5BD1     		bne	.L74
 279:.\Valve_Control.c **** 		{
 1282              		.loc 1 279 0 is_stmt 0 discriminator 1
 1283 016a 544B     		ldr	r3, .L99+12
 1284 016c 5B7C     		ldrb	r3, [r3, #17]	@ zero_extendqisi2
 1285 016e 002B     		cmp	r3, #0
 1286 0170 57D0     		beq	.L74
 281:.\Valve_Control.c **** 			while(FootUp())
 1287              		.loc 1 281 0 is_stmt 1
 1288 0172 0022     		movs	r2, #0
 1289 0174 534B     		ldr	r3, .L99+20
 1290 0176 1A80     		strh	r2, [r3]	@ movhi
 282:.\Valve_Control.c **** 			{
 1291              		.loc 1 282 0
 1292 0178 3FE0     		b	.L81
 1293              	.L85:
 285:.\Valve_Control.c **** 				{
 1294              		.loc 1 285 0
 1295 017a FFF7FEFF 		bl	Status_Reg_1_Read
 1296              	.LVL128:
 1297 017e 10F0020F 		tst	r0, #2
 1298 0182 0FD1     		bne	.L82
ARM GAS  C:\Users\PANXIA~1\AppData\Local\Temp\cckUlCze.s 			page 40


 287:.\Valve_Control.c ****                     LED_WRITE(LED_Status[VStop]);
 1299              		.loc 1 287 0
 1300 0184 4A4C     		ldr	r4, .L99
 1301 0186 607B     		ldrb	r0, [r4, #13]	@ zero_extendqisi2
 1302 0188 FFF7FEFF 		bl	Control_Reg_1_Write
 1303              	.LVL129:
 1304 018c 627B     		ldrb	r2, [r4, #13]	@ zero_extendqisi2
 1305 018e 4A4B     		ldr	r3, .L99+8
 1306 0190 1A70     		strb	r2, [r3]
 1307              	.LBB19:
 288:.\Valve_Control.c **** 				}
 1308              		.loc 1 288 0
 1309 0192 4A4B     		ldr	r3, .L99+12
 1310 0194 587A     		ldrb	r0, [r3, #9]	@ zero_extendqisi2
 1311 0196 4A4B     		ldr	r3, .L99+16
 1312 0198 1870     		strb	r0, [r3]
 1313 019a FFF7FEFF 		bl	LCD_DISPLAY
 1314              	.LVL130:
 1315 019e FFF7FEFF 		bl	LCD_DISPLAY_MODE
 1316              	.LVL131:
 1317              	.LBE19:
 1318 01a2 0EE0     		b	.L83
 1319              	.L82:
 292:.\Valve_Control.c ****                     LED_WRITE(LED_Status[VBack]);
 1320              		.loc 1 292 0
 1321 01a4 424C     		ldr	r4, .L99
 1322 01a6 207B     		ldrb	r0, [r4, #12]	@ zero_extendqisi2
 1323 01a8 FFF7FEFF 		bl	Control_Reg_1_Write
 1324              	.LVL132:
 1325 01ac 227B     		ldrb	r2, [r4, #12]	@ zero_extendqisi2
 1326 01ae 424B     		ldr	r3, .L99+8
 1327 01b0 1A70     		strb	r2, [r3]
 1328              	.LBB20:
 293:.\Valve_Control.c **** 				}
 1329              		.loc 1 293 0
 1330 01b2 424B     		ldr	r3, .L99+12
 1331 01b4 187A     		ldrb	r0, [r3, #8]	@ zero_extendqisi2
 1332 01b6 424B     		ldr	r3, .L99+16
 1333 01b8 1870     		strb	r0, [r3]
 1334 01ba FFF7FEFF 		bl	LCD_DISPLAY
 1335              	.LVL133:
 1336 01be FFF7FEFF 		bl	LCD_DISPLAY_MODE
 1337              	.LVL134:
 1338              	.L83:
 1339              	.LBE20:
 295:.\Valve_Control.c **** 				{
 1340              		.loc 1 295 0
 1341 01c2 FFF7FEFF 		bl	Status_Reg_1_Read
 1342              	.LVL135:
 1343 01c6 00F06000 		and	r0, r0, #96
 1344 01ca 6028     		cmp	r0, #96
 1345 01cc 15D0     		beq	.L81
 295:.\Valve_Control.c **** 				{
 1346              		.loc 1 295 0 is_stmt 0 discriminator 1
 1347 01ce 394B     		ldr	r3, .L99+4
 1348 01d0 1B78     		ldrb	r3, [r3]	@ zero_extendqisi2
 1349 01d2 882B     		cmp	r3, #136
ARM GAS  C:\Users\PANXIA~1\AppData\Local\Temp\cckUlCze.s 			page 41


 1350 01d4 11D0     		beq	.L81
 297:.\Valve_Control.c ****                     LED_WRITE(LED_Status[VStop]);
 1351              		.loc 1 297 0 is_stmt 1
 1352 01d6 364C     		ldr	r4, .L99
 1353 01d8 607B     		ldrb	r0, [r4, #13]	@ zero_extendqisi2
 1354 01da FFF7FEFF 		bl	Control_Reg_1_Write
 1355              	.LVL136:
 1356 01de 627B     		ldrb	r2, [r4, #13]	@ zero_extendqisi2
 1357 01e0 354B     		ldr	r3, .L99+8
 1358 01e2 1A70     		strb	r2, [r3]
 1359              	.LBB21:
 298:.\Valve_Control.c **** 					CutReg.CutStatus = StrokeStart;
 1360              		.loc 1 298 0
 1361 01e4 354B     		ldr	r3, .L99+12
 1362 01e6 587A     		ldrb	r0, [r3, #9]	@ zero_extendqisi2
 1363 01e8 354B     		ldr	r3, .L99+16
 1364 01ea 1870     		strb	r0, [r3]
 1365 01ec FFF7FEFF 		bl	LCD_DISPLAY
 1366              	.LVL137:
 1367 01f0 FFF7FEFF 		bl	LCD_DISPLAY_MODE
 1368              	.LVL138:
 1369              	.LBE21:
 299:.\Valve_Control.c **** 					break;
 1370              		.loc 1 299 0
 1371 01f4 0023     		movs	r3, #0
 1372 01f6 2374     		strb	r3, [r4, #16]
 300:.\Valve_Control.c **** 				}
 1373              		.loc 1 300 0
 1374 01f8 04E0     		b	.L84
 1375              	.L81:
 282:.\Valve_Control.c **** 			{
 1376              		.loc 1 282 0
 1377 01fa FFF7FEFF 		bl	Status_Reg_1_Read
 1378              	.LVL139:
 1379 01fe 10F0040F 		tst	r0, #4
 1380 0202 BAD0     		beq	.L85
 1381              	.L84:
 303:.\Valve_Control.c ****             LED_WRITE(LED_Status[VStop]);
 1382              		.loc 1 303 0
 1383 0204 2A4C     		ldr	r4, .L99
 1384 0206 607B     		ldrb	r0, [r4, #13]	@ zero_extendqisi2
 1385 0208 FFF7FEFF 		bl	Control_Reg_1_Write
 1386              	.LVL140:
 1387 020c 627B     		ldrb	r2, [r4, #13]	@ zero_extendqisi2
 1388 020e 2A4B     		ldr	r3, .L99+8
 1389 0210 1A70     		strb	r2, [r3]
 1390              	.LBB22:
 304:.\Valve_Control.c **** //			MoveLED(0);
 1391              		.loc 1 304 0
 1392 0212 2A4B     		ldr	r3, .L99+12
 1393 0214 587A     		ldrb	r0, [r3, #9]	@ zero_extendqisi2
 1394 0216 2A4B     		ldr	r3, .L99+16
 1395 0218 1870     		strb	r0, [r3]
 1396 021a FFF7FEFF 		bl	LCD_DISPLAY
 1397              	.LVL141:
 1398 021e FFF7FEFF 		bl	LCD_DISPLAY_MODE
 1399              	.LVL142:
ARM GAS  C:\Users\PANXIA~1\AppData\Local\Temp\cckUlCze.s 			page 42


 1400              	.L74:
 1401              	.LBE22:
 308:.\Valve_Control.c **** 		{
 1402              		.loc 1 308 0
 1403 0222 FFF7FEFF 		bl	Status_Reg_1_Read
 1404              	.LVL143:
 1405 0226 00F06000 		and	r0, r0, #96
 1406 022a 6028     		cmp	r0, #96
 1407 022c 1ED1     		bne	.L86
 308:.\Valve_Control.c **** 		{
 1408              		.loc 1 308 0 is_stmt 0 discriminator 1
 1409 022e FFF7FEFF 		bl	Status_Reg_1_Read
 1410              	.LVL144:
 1411 0232 10F0080F 		tst	r0, #8
 1412 0236 19D0     		beq	.L86
 308:.\Valve_Control.c **** 		{
 1413              		.loc 1 308 0 discriminator 2
 1414 0238 1D4B     		ldr	r3, .L99
 1415 023a DB7A     		ldrb	r3, [r3, #11]	@ zero_extendqisi2
 1416 023c 13F0FF0F 		tst	r3, #255
 1417 0240 14D0     		beq	.L86
 308:.\Valve_Control.c **** 		{
 1418              		.loc 1 308 0 discriminator 3
 1419 0242 204B     		ldr	r3, .L99+20
 1420 0244 B3F90030 		ldrsh	r3, [r3]
 1421 0248 002B     		cmp	r3, #0
 1422 024a 0FDD     		ble	.L86
 310:.\Valve_Control.c **** 			UnloadTime -= 1;
 1423              		.loc 1 310 0 is_stmt 1
 1424 024c 184C     		ldr	r4, .L99
 1425 024e E07A     		ldrb	r0, [r4, #11]	@ zero_extendqisi2
 1426 0250 FFF7FEFF 		bl	Control_Reg_1_Write
 1427              	.LVL145:
 1428 0254 E27A     		ldrb	r2, [r4, #11]	@ zero_extendqisi2
 1429 0256 184B     		ldr	r3, .L99+8
 1430 0258 1A70     		strb	r2, [r3]
 311:.\Valve_Control.c **** 			CyDelay(10);
 1431              		.loc 1 311 0
 1432 025a 1A4A     		ldr	r2, .L99+20
 1433 025c 1388     		ldrh	r3, [r2]
 1434 025e 013B     		subs	r3, r3, #1
 1435 0260 1380     		strh	r3, [r2]	@ movhi
 312:.\Valve_Control.c **** 		}
 1436              		.loc 1 312 0
 1437 0262 0A20     		movs	r0, #10
 1438 0264 FFF7FEFF 		bl	CyDelay
 1439              	.LVL146:
 222:.\Valve_Control.c **** 	
 1440              		.loc 1 222 0
 1441 0268 0020     		movs	r0, #0
 312:.\Valve_Control.c **** 		}
 1442              		.loc 1 312 0
 1443 026a 10BD     		pop	{r4, pc}
 1444              	.L86:
 316:.\Valve_Control.c ****             /* Â¢ûÂä†Âä®‰ΩúÂÆåÊàêÊ†áÂøó20160820*/
 1445              		.loc 1 316 0
 1446 026c 104C     		ldr	r4, .L99
ARM GAS  C:\Users\PANXIA~1\AppData\Local\Temp\cckUlCze.s 			page 43


 1447 026e 607B     		ldrb	r0, [r4, #13]	@ zero_extendqisi2
 1448 0270 FFF7FEFF 		bl	Control_Reg_1_Write
 1449              	.LVL147:
 1450 0274 627B     		ldrb	r2, [r4, #13]	@ zero_extendqisi2
 1451 0276 104B     		ldr	r3, .L99+8
 1452 0278 1A70     		strb	r2, [r3]
 318:.\Valve_Control.c ****         }
 1453              		.loc 1 318 0
 1454 027a FF23     		movs	r3, #255
 1455 027c E375     		strb	r3, [r4, #23]
 222:.\Valve_Control.c **** 	
 1456              		.loc 1 222 0
 1457 027e 0020     		movs	r0, #0
 1458 0280 10BD     		pop	{r4, pc}
 1459              	.L66:
 323:.\Valve_Control.c ****         {
 1460              		.loc 1 323 0
 1461 0282 FFF7FEFF 		bl	Status_Reg_1_Read
 1462              	.LVL148:
 1463 0286 10F0080F 		tst	r0, #8
 1464 028a 0CD0     		beq	.L87
 325:.\Valve_Control.c **** 			if(!FootStart())
 1465              		.loc 1 325 0
 1466 028c 0520     		movs	r0, #5
 1467 028e FFF7FEFF 		bl	CyDelay
 1468              	.LVL149:
 326:.\Valve_Control.c **** 			{
 1469              		.loc 1 326 0
 1470 0292 FFF7FEFF 		bl	Status_Reg_1_Read
 1471              	.LVL150:
 1472 0296 10F0080F 		tst	r0, #8
 1473 029a 69D0     		beq	.L93
 328:.\Valve_Control.c **** 			}
 1474              		.loc 1 328 0
 1475 029c 0322     		movs	r2, #3
 1476 029e 044B     		ldr	r3, .L99
 1477 02a0 1A74     		strb	r2, [r3, #16]
 222:.\Valve_Control.c **** 	
 1478              		.loc 1 222 0
 1479 02a2 0020     		movs	r0, #0
 1480 02a4 10BD     		pop	{r4, pc}
 1481              	.L87:
 333:.\Valve_Control.c ****         }
 1482              		.loc 1 333 0
 1483 02a6 0222     		movs	r2, #2
 1484 02a8 014B     		ldr	r3, .L99
 1485 02aa 1A74     		strb	r2, [r3, #16]
 222:.\Valve_Control.c **** 	
 1486              		.loc 1 222 0
 1487 02ac 0020     		movs	r0, #0
 1488 02ae 10BD     		pop	{r4, pc}
 1489              	.L100:
 1490              		.align	2
 1491              	.L99:
 1492 02b0 00000000 		.word	CutReg
 1493 02b4 00000000 		.word	System_enable
 1494 02b8 00000000 		.word	TPDO_OUT_Status
ARM GAS  C:\Users\PANXIA~1\AppData\Local\Temp\cckUlCze.s 			page 44


 1495 02bc 00000000 		.word	.LANCHOR1
 1496 02c0 00000000 		.word	TPDO_PROCESS_Status
 1497 02c4 00000000 		.word	.LANCHOR2
 1498              	.L67:
 337:.\Valve_Control.c **** 		{
 1499              		.loc 1 337 0
 1500 02c8 FFF7FEFF 		bl	Status_Reg_1_Read
 1501              	.LVL151:
 1502 02cc 10F0080F 		tst	r0, #8
 1503 02d0 0DD1     		bne	.L88
 339:.\Valve_Control.c **** 			if(FootStart())
 1504              		.loc 1 339 0
 1505 02d2 0520     		movs	r0, #5
 1506 02d4 FFF7FEFF 		bl	CyDelay
 1507              	.LVL152:
 340:.\Valve_Control.c **** 			{                
 1508              		.loc 1 340 0
 1509 02d8 FFF7FEFF 		bl	Status_Reg_1_Read
 1510              	.LVL153:
 1511 02dc 10F0080F 		tst	r0, #8
 1512 02e0 48D1     		bne	.L94
 342:.\Valve_Control.c ****                 CutReg.SToDotFlag = 0;
 1513              		.loc 1 342 0
 1514 02e2 284B     		ldr	r3, .L101
 1515 02e4 0422     		movs	r2, #4
 1516 02e6 1A74     		strb	r2, [r3, #16]
 343:.\Valve_Control.c **** 			}
 1517              		.loc 1 343 0
 1518 02e8 0020     		movs	r0, #0
 1519 02ea 9875     		strb	r0, [r3, #22]
 1520 02ec 10BD     		pop	{r4, pc}
 1521              	.L88:
 348:.\Valve_Control.c ****             if( CutReg.SToDotFlag && CutMode() == CUTJMODE)
 1522              		.loc 1 348 0
 1523 02ee 254B     		ldr	r3, .L101
 1524 02f0 0322     		movs	r2, #3
 1525 02f2 1A74     		strb	r2, [r3, #16]
 349:.\Valve_Control.c ****             {
 1526              		.loc 1 349 0
 1527 02f4 9B7D     		ldrb	r3, [r3, #22]	@ zero_extendqisi2
 1528 02f6 13F0FF0F 		tst	r3, #255
 1529 02fa 3DD0     		beq	.L95
 349:.\Valve_Control.c ****             {
 1530              		.loc 1 349 0 is_stmt 0 discriminator 1
 1531 02fc FFF7FEFF 		bl	Status_Reg_1_Read
 1532              	.LVL154:
 1533 0300 00F06000 		and	r0, r0, #96
 1534 0304 6028     		cmp	r0, #96
 1535 0306 39D1     		bne	.L96
 351:.\Valve_Control.c ****             }
 1536              		.loc 1 351 0 is_stmt 1
 1537 0308 0122     		movs	r2, #1
 1538 030a 1E4B     		ldr	r3, .L101
 1539 030c 1A74     		strb	r2, [r3, #16]
 222:.\Valve_Control.c **** 	
 1540              		.loc 1 222 0
 1541 030e 0020     		movs	r0, #0
ARM GAS  C:\Users\PANXIA~1\AppData\Local\Temp\cckUlCze.s 			page 45


 1542 0310 10BD     		pop	{r4, pc}
 1543              	.L68:
 359:.\Valve_Control.c **** 		CutReg.Cnt = 0;
 1544              		.loc 1 359 0
 1545 0312 1C4B     		ldr	r3, .L101
 1546 0314 0522     		movs	r2, #5
 1547 0316 1A74     		strb	r2, [r3, #16]
 360:.\Valve_Control.c **** 		CutReg.CutTimeStatus = VFast;
 1548              		.loc 1 360 0
 1549 0318 0020     		movs	r0, #0
 1550 031a D881     		strh	r0, [r3, #14]	@ movhi
 361:.\Valve_Control.c **** 		ISR_Stroke_Timer_states = 0x00;
 1551              		.loc 1 361 0
 1552 031c 5874     		strb	r0, [r3, #17]
 362:.\Valve_Control.c **** //		MoveLED(1);
 1553              		.loc 1 362 0
 1554 031e 1A4B     		ldr	r3, .L101+4
 1555 0320 1860     		str	r0, [r3]
 364:.\Valve_Control.c **** 	case Cutting: break;
 1556              		.loc 1 364 0
 1557 0322 10BD     		pop	{r4, pc}
 1558              	.L69:
 368:.\Valve_Control.c **** 		{
 1559              		.loc 1 368 0
 1560 0324 FFF7FEFF 		bl	Status_Reg_1_Read
 1561              	.LVL155:
 1562 0328 00F06000 		and	r0, r0, #96
 1563 032c 4028     		cmp	r0, #64
 1564 032e 04D1     		bne	.L89
 370:.\Valve_Control.c **** 		}
 1565              		.loc 1 370 0
 1566 0330 0422     		movs	r2, #4
 1567 0332 144B     		ldr	r3, .L101
 1568 0334 1A74     		strb	r2, [r3, #16]
 222:.\Valve_Control.c **** 	
 1569              		.loc 1 222 0
 1570 0336 0020     		movs	r0, #0
 1571 0338 10BD     		pop	{r4, pc}
 1572              	.L89:
 372:.\Valve_Control.c **** 		{
 1573              		.loc 1 372 0
 1574 033a FFF7FEFF 		bl	Status_Reg_1_Read
 1575              	.LVL156:
 1576 033e 00F06000 		and	r0, r0, #96
 1577 0342 2028     		cmp	r0, #32
 1578 0344 06D1     		bne	.L90
 374:.\Valve_Control.c ****             CutReg.SToDotFlag = 1;
 1579              		.loc 1 374 0
 1580 0346 0F4B     		ldr	r3, .L101
 1581 0348 0222     		movs	r2, #2
 1582 034a 1A74     		strb	r2, [r3, #16]
 375:.\Valve_Control.c ****            
 1583              		.loc 1 375 0
 1584 034c 0122     		movs	r2, #1
 1585 034e 9A75     		strb	r2, [r3, #22]
 222:.\Valve_Control.c **** 	
 1586              		.loc 1 222 0
ARM GAS  C:\Users\PANXIA~1\AppData\Local\Temp\cckUlCze.s 			page 46


 1587 0350 0020     		movs	r0, #0
 1588 0352 10BD     		pop	{r4, pc}
 1589              	.L90:
 378:.\Valve_Control.c **** 		{
 1590              		.loc 1 378 0
 1591 0354 FFF7FEFF 		bl	Status_Reg_1_Read
 1592              	.LVL157:
 1593 0358 00F06000 		and	r0, r0, #96
 1594 035c 6028     		cmp	r0, #96
 1595 035e 0FD1     		bne	.L97
 380:.\Valve_Control.c ****             ModeFlag = 1;
 1596              		.loc 1 380 0
 1597 0360 0120     		movs	r0, #1
 1598 0362 084B     		ldr	r3, .L101
 1599 0364 1874     		strb	r0, [r3, #16]
 1600              	.LVL158:
 1601 0366 10BD     		pop	{r4, pc}
 1602              	.LVL159:
 1603              	.L91:
 222:.\Valve_Control.c **** 	
 1604              		.loc 1 222 0
 1605 0368 0020     		movs	r0, #0
 1606 036a 10BD     		pop	{r4, pc}
 1607              	.L92:
 1608 036c 0020     		movs	r0, #0
 1609 036e 10BD     		pop	{r4, pc}
 1610              	.L93:
 1611 0370 0020     		movs	r0, #0
 1612 0372 10BD     		pop	{r4, pc}
 1613              	.L94:
 1614 0374 0020     		movs	r0, #0
 1615 0376 10BD     		pop	{r4, pc}
 1616              	.L95:
 1617 0378 0020     		movs	r0, #0
 1618 037a 10BD     		pop	{r4, pc}
 1619              	.L96:
 1620 037c 0020     		movs	r0, #0
 1621 037e 10BD     		pop	{r4, pc}
 1622              	.L97:
 1623 0380 0020     		movs	r0, #0
 1624              	.LVL160:
 387:.\Valve_Control.c **** 
 1625              		.loc 1 387 0
 1626 0382 10BD     		pop	{r4, pc}
 1627              	.L102:
 1628              		.align	2
 1629              	.L101:
 1630 0384 00000000 		.word	CutReg
 1631 0388 00000000 		.word	ISR_Stroke_Timer_states
 1632              		.cfi_endproc
 1633              	.LFE64:
 1634              		.size	Stroke_Process, .-Stroke_Process
 1635              		.section	.text.Valve_config,"ax",%progbits
 1636              		.align	2
 1637              		.global	Valve_config
 1638              		.thumb
 1639              		.thumb_func
ARM GAS  C:\Users\PANXIA~1\AppData\Local\Temp\cckUlCze.s 			page 47


 1640              		.type	Valve_config, %function
 1641              	Valve_config:
 1642              	.LFB68:
 478:.\Valve_Control.c ****     uint8   key_com = 0x03; 
 1643              		.loc 1 478 0
 1644              		.cfi_startproc
 1645              		@ args = 0, pretend = 0, frame = 0
 1646              		@ frame_needed = 0, uses_anonymous_args = 0
 1647              	.LVL161:
 491:.\Valve_Control.c ****     {
 1648              		.loc 1 491 0
 1649 0000 98B1     		cbz	r0, .L106
 478:.\Valve_Control.c ****     uint8   key_com = 0x03; 
 1650              		.loc 1 478 0
 1651 0002 10B5     		push	{r4, lr}
 1652              		.cfi_def_cfa_offset 8
 1653              		.cfi_offset 4, -8
 1654              		.cfi_offset 14, -4
 1655              	.LVL162:
 504:.\Valve_Control.c ****                     }
 1656              		.loc 1 504 0
 1657 0004 0120     		movs	r0, #1
 1658              	.LVL163:
 1659 0006 FFF7FEFF 		bl	CyDelay
 1660              	.LVL164:
 533:.\Valve_Control.c ****                         switch(step_flag)
 1661              		.loc 1 533 0
 1662 000a 084C     		ldr	r4, .L107
 1663 000c 607A     		ldrb	r0, [r4, #9]	@ zero_extendqisi2
 1664 000e FFF7FEFF 		bl	Control_Reg_1_Write
 1665              	.LVL165:
 1666 0012 627A     		ldrb	r2, [r4, #9]	@ zero_extendqisi2
 1667 0014 064B     		ldr	r3, .L107+4
 1668 0016 1A70     		strb	r2, [r3]
 1669              	.LBB23:
 543:.\Valve_Control.c ****                             }
 1670              		.loc 1 543 0
 1671 0018 064B     		ldr	r3, .L107+8
 1672 001a 5879     		ldrb	r0, [r3, #5]	@ zero_extendqisi2
 1673 001c 064B     		ldr	r3, .L107+12
 1674 001e 1870     		strb	r0, [r3]
 1675 0020 FFF7FEFF 		bl	LCD_DISPLAY
 1676              	.LVL166:
 1677 0024 FFF7FEFF 		bl	LCD_DISPLAY_MODE
 1678              	.LVL167:
 1679 0028 10BD     		pop	{r4, pc}
 1680              	.LVL168:
 1681              	.L106:
 1682              		.cfi_def_cfa_offset 0
 1683              		.cfi_restore 4
 1684              		.cfi_restore 14
 1685 002a 7047     		bx	lr
 1686              	.L108:
 1687              		.align	2
 1688              	.L107:
 1689 002c 00000000 		.word	CutReg
 1690 0030 00000000 		.word	TPDO_OUT_Status
ARM GAS  C:\Users\PANXIA~1\AppData\Local\Temp\cckUlCze.s 			page 48


 1691 0034 00000000 		.word	.LANCHOR1
 1692 0038 00000000 		.word	TPDO_PROCESS_Status
 1693              	.LBE23:
 1694              		.cfi_endproc
 1695              	.LFE68:
 1696              		.size	Valve_config, .-Valve_config
 1697              		.global	FootUP_State
 1698              		.global	FootStart_state
 1699              		.global	LED_Status
 1700              		.comm	CutReg,24,4
 1701              		.section	.rodata
 1702              		.align	2
 1703              		.set	.LANCHOR0,. + 0
 1704              		.type	eepromArray, %object
 1705              		.size	eepromArray, 8
 1706              	eepromArray:
 1707 0000 00000000 		.space	8
 1707      00000000 
 1708              		.data
 1709              		.align	2
 1710              		.set	.LANCHOR1,. + 0
 1711              		.type	lastValue, %object
 1712              		.size	lastValue, 4
 1713              	lastValue:
 1714 0000 FF000000 		.word	255
 1715              		.type	LED_Status, %object
 1716              		.size	LED_Status, 6
 1717              	LED_Status:
 1718 0004 01       		.byte	1
 1719 0005 02       		.byte	2
 1720 0006 04       		.byte	4
 1721 0007 08       		.byte	8
 1722 0008 10       		.byte	16
 1723 0009 20       		.byte	32
 1724 000a 0000     		.space	2
 1725              		.type	lastMode, %object
 1726              		.size	lastMode, 4
 1727              	lastMode:
 1728 000c FF000000 		.word	255
 1729              		.type	FootStart_state, %object
 1730              		.size	FootStart_state, 1
 1731              	FootStart_state:
 1732 0010 01       		.byte	1
 1733              		.type	FootUP_State, %object
 1734              		.size	FootUP_State, 1
 1735              	FootUP_State:
 1736 0011 01       		.byte	1
 1737 0012 0000     		.section	.rodata.str1.4,"aMS",%progbits,1
 1738              		.align	2
 1739              	.LC0:
 1740 0000 20204661 		.ascii	"  Fast  \000"
 1740      73742020 
 1740      00
 1741 0009 000000   		.space	3
 1742              	.LC1:
 1743 000c 2020536C 		.ascii	"  Slow  \000"
 1743      6F772020 
ARM GAS  C:\Users\PANXIA~1\AppData\Local\Temp\cckUlCze.s 			page 49


 1743      00
 1744 0015 000000   		.space	3
 1745              	.LC2:
 1746 0018 20204B65 		.ascii	"  Keep  \000"
 1746      65702020 
 1746      00
 1747 0021 000000   		.space	3
 1748              	.LC3:
 1749 0024 20556E6C 		.ascii	" Unload\000"
 1749      6F616400 
 1750              	.LC4:
 1751 002c 20205374 		.ascii	"  Stop  \000"
 1751      6F702020 
 1751      00
 1752 0035 000000   		.space	3
 1753              	.LC5:
 1754 0038 20204261 		.ascii	"  Back  \000"
 1754      636B2020 
 1754      00
 1755 0041 000000   		.space	3
 1756              	.LC6:
 1757 0044 20204572 		.ascii	"  Error \000"
 1757      726F7220 
 1757      00
 1758 004d 000000   		.space	3
 1759              	.LC7:
 1760 0050 432D4D4F 		.ascii	"C-MODE\000"
 1760      444500
 1761 0057 00       		.space	1
 1762              	.LC8:
 1763 0058 4A2D4D4F 		.ascii	"J-MODE\000"
 1763      444500
 1764 005f 00       		.space	1
 1765              	.LC9:
 1766 0060 532D4D4F 		.ascii	"S-MODE\000"
 1766      444500
 1767 0067 00       		.space	1
 1768              	.LC10:
 1769 0068 554E4B4E 		.ascii	"UNKNOWN\000"
 1769      4F574E00 
 1770              		.bss
 1771              		.align	1
 1772              		.set	.LANCHOR2,. + 0
 1773              		.type	UnloadTime.7507, %object
 1774              		.size	UnloadTime.7507, 2
 1775              	UnloadTime.7507:
 1776 0000 0000     		.space	2
 1777              		.text
 1778              	.Letext0:
 1779              		.file 2 "c:\\program files (x86)\\cypress\\psoc creator\\3.3\\psoc creator\\import\\gnu\\arm\\4.9.
 1780              		.file 3 "c:\\program files (x86)\\cypress\\psoc creator\\3.3\\psoc creator\\import\\gnu\\arm\\4.9.
 1781              		.file 4 "Generated_Source\\PSoC5/cytypes.h"
 1782              		.file 5 ".\\Valve_Control.h"
 1783              		.file 6 ".\\TestSlave.h"
 1784              		.file 7 "Generated_Source\\PSoC5/core_cm3.h"
 1785              		.file 8 "Generated_Source\\PSoC5/EEPROM_1.h"
 1786              		.file 9 "Generated_Source\\PSoC5/Clock_1.h"
ARM GAS  C:\Users\PANXIA~1\AppData\Local\Temp\cckUlCze.s 			page 50


 1787              		.file 10 "Generated_Source\\PSoC5/Timer_1.h"
 1788              		.file 11 "Generated_Source\\PSoC5/ISR_Stroke_Timer.h"
 1789              		.file 12 "Generated_Source\\PSoC5/LCD_Char_1.h"
 1790              		.file 13 "Generated_Source\\PSoC5/CyLib.h"
 1791              		.file 14 "Generated_Source\\PSoC5/Status_Reg_1.h"
 1792              		.file 15 "Generated_Source\\PSoC5/Control_Reg_1.h"