ARM GAS  C:\Users\PANXIA~1\AppData\Local\Temp\cc7aohEk.s 			page 1


   1              		.syntax unified
   2              		.cpu cortex-m3
   3              		.fpu softvfp
   4              		.eabi_attribute 20, 1
   5              		.eabi_attribute 21, 1
   6              		.eabi_attribute 23, 3
   7              		.eabi_attribute 24, 1
   8              		.eabi_attribute 25, 1
   9              		.eabi_attribute 26, 1
  10              		.eabi_attribute 30, 1
  11              		.eabi_attribute 34, 1
  12              		.eabi_attribute 18, 4
  13              		.thumb
  14              		.file	"Cm3Start.c"
  15              		.text
  16              	.Ltext0:
  17              		.cfi_sections	.debug_frame
  18              		.section	.text.IntDefaultHandler,"ax",%progbits
  19              		.align	2
  20              		.global	IntDefaultHandler
  21              		.thumb
  22              		.thumb_func
  23              		.type	IntDefaultHandler, %function
  24              	IntDefaultHandler:
  25              	.LFB0:
  26              		.file 1 ".\\Generated_Source\\PSoC5\\Cm3Start.c"
   1:.\Generated_Source\PSoC5/Cm3Start.c **** /*******************************************************************************
   2:.\Generated_Source\PSoC5/Cm3Start.c **** * File Name: Cm3Start.c
   3:.\Generated_Source\PSoC5/Cm3Start.c **** * Version 5.20
   4:.\Generated_Source\PSoC5/Cm3Start.c **** *
   5:.\Generated_Source\PSoC5/Cm3Start.c **** *  Description:
   6:.\Generated_Source\PSoC5/Cm3Start.c **** *  Startup code for the ARM CM3.
   7:.\Generated_Source\PSoC5/Cm3Start.c **** *
   8:.\Generated_Source\PSoC5/Cm3Start.c **** ********************************************************************************
   9:.\Generated_Source\PSoC5/Cm3Start.c **** * Copyright 2008-2015, Cypress Semiconductor Corporation. All rights reserved.
  10:.\Generated_Source\PSoC5/Cm3Start.c **** * You may use this file only in accordance with the license, terms, conditions,
  11:.\Generated_Source\PSoC5/Cm3Start.c **** * disclaimers, and limitations in the end user license agreement accompanying
  12:.\Generated_Source\PSoC5/Cm3Start.c **** * the software package with which this file was provided.
  13:.\Generated_Source\PSoC5/Cm3Start.c **** *******************************************************************************/
  14:.\Generated_Source\PSoC5/Cm3Start.c **** 
  15:.\Generated_Source\PSoC5/Cm3Start.c **** #include <limits.h>
  16:.\Generated_Source\PSoC5/Cm3Start.c **** #include "cydevice_trm.h"
  17:.\Generated_Source\PSoC5/Cm3Start.c **** #include "cytypes.h"
  18:.\Generated_Source\PSoC5/Cm3Start.c **** #include "cyfitter_cfg.h"
  19:.\Generated_Source\PSoC5/Cm3Start.c **** #include "CyLib.h"
  20:.\Generated_Source\PSoC5/Cm3Start.c **** #include "CyDmac.h"
  21:.\Generated_Source\PSoC5/Cm3Start.c **** #include "cyfitter.h"
  22:.\Generated_Source\PSoC5/Cm3Start.c **** #include "cyapicallbacks.h"
  23:.\Generated_Source\PSoC5/Cm3Start.c **** 
  24:.\Generated_Source\PSoC5/Cm3Start.c **** #define CY_NUM_INTERRUPTS           (32u)
  25:.\Generated_Source\PSoC5/Cm3Start.c **** #define CY_NUM_VECTORS              (CYINT_IRQ_BASE + CY_NUM_INTERRUPTS)
  26:.\Generated_Source\PSoC5/Cm3Start.c **** #define CY_NUM_ROM_VECTORS          (4u)
  27:.\Generated_Source\PSoC5/Cm3Start.c **** #define CY_NVIC_APINT_PTR           ((reg32 *) CYREG_NVIC_APPLN_INTR)
  28:.\Generated_Source\PSoC5/Cm3Start.c **** #define CY_NVIC_CFG_CTRL_PTR        ((reg32 *) CYREG_NVIC_CFG_CONTROL)
  29:.\Generated_Source\PSoC5/Cm3Start.c **** #define CY_NVIC_APINT_PRIGROUP_3_5  (0x00000400u)  /* Priority group 3.5 split */
  30:.\Generated_Source\PSoC5/Cm3Start.c **** #define CY_NVIC_APINT_VECTKEY       (0x05FA0000u)  /* This key is required in order to write the NV
  31:.\Generated_Source\PSoC5/Cm3Start.c **** #define CY_NVIC_CFG_STACKALIGN      (0x00000200u)  /* This specifies that the exception stack must 
ARM GAS  C:\Users\PANXIA~1\AppData\Local\Temp\cc7aohEk.s 			page 2


  32:.\Generated_Source\PSoC5/Cm3Start.c **** 
  33:.\Generated_Source\PSoC5/Cm3Start.c **** #if defined(__ARMCC_VERSION)
  34:.\Generated_Source\PSoC5/Cm3Start.c ****     #define INITIAL_STACK_POINTER ((cyisraddress)(uint32)&Image$$ARM_LIB_STACK$$ZI$$Limit)
  35:.\Generated_Source\PSoC5/Cm3Start.c **** #elif defined (__GNUC__)
  36:.\Generated_Source\PSoC5/Cm3Start.c ****     #define INITIAL_STACK_POINTER (&__cy_stack)
  37:.\Generated_Source\PSoC5/Cm3Start.c **** #elif defined (__ICCARM__)
  38:.\Generated_Source\PSoC5/Cm3Start.c ****     #pragma language=extended
  39:.\Generated_Source\PSoC5/Cm3Start.c ****     #pragma segment="CSTACK"
  40:.\Generated_Source\PSoC5/Cm3Start.c ****     #define INITIAL_STACK_POINTER  { .__ptr = __sfe( "CSTACK" ) }
  41:.\Generated_Source\PSoC5/Cm3Start.c **** 
  42:.\Generated_Source\PSoC5/Cm3Start.c ****     extern void __iar_program_start( void );
  43:.\Generated_Source\PSoC5/Cm3Start.c ****     extern void __iar_data_init3 (void);
  44:.\Generated_Source\PSoC5/Cm3Start.c **** #endif  /* (__ARMCC_VERSION) */
  45:.\Generated_Source\PSoC5/Cm3Start.c **** 
  46:.\Generated_Source\PSoC5/Cm3Start.c **** #if defined(__GNUC__)
  47:.\Generated_Source\PSoC5/Cm3Start.c ****     #include <errno.h>
  48:.\Generated_Source\PSoC5/Cm3Start.c ****     extern int  errno;
  49:.\Generated_Source\PSoC5/Cm3Start.c ****     extern int  end;
  50:.\Generated_Source\PSoC5/Cm3Start.c **** #endif  /* defined(__GNUC__) */
  51:.\Generated_Source\PSoC5/Cm3Start.c **** 
  52:.\Generated_Source\PSoC5/Cm3Start.c **** /* Extern functions */
  53:.\Generated_Source\PSoC5/Cm3Start.c **** extern void CyBtldr_CheckLaunch(void);
  54:.\Generated_Source\PSoC5/Cm3Start.c **** 
  55:.\Generated_Source\PSoC5/Cm3Start.c **** /* Function prototypes */
  56:.\Generated_Source\PSoC5/Cm3Start.c **** void initialize_psoc(void);
  57:.\Generated_Source\PSoC5/Cm3Start.c **** CY_ISR(IntDefaultHandler);
  58:.\Generated_Source\PSoC5/Cm3Start.c **** void Reset(void);
  59:.\Generated_Source\PSoC5/Cm3Start.c **** CY_ISR(IntDefaultHandler);
  60:.\Generated_Source\PSoC5/Cm3Start.c **** 
  61:.\Generated_Source\PSoC5/Cm3Start.c **** /* Global variables */
  62:.\Generated_Source\PSoC5/Cm3Start.c **** #if !defined (__ICCARM__)
  63:.\Generated_Source\PSoC5/Cm3Start.c ****     CY_NOINIT static uint32 cySysNoInitDataValid;
  64:.\Generated_Source\PSoC5/Cm3Start.c **** #endif  /* !defined (__ICCARM__) */
  65:.\Generated_Source\PSoC5/Cm3Start.c **** 
  66:.\Generated_Source\PSoC5/Cm3Start.c **** 
  67:.\Generated_Source\PSoC5/Cm3Start.c **** /*******************************************************************************
  68:.\Generated_Source\PSoC5/Cm3Start.c **** * Default Ram Interrupt Vector table storage area. Must be 256-byte aligned.
  69:.\Generated_Source\PSoC5/Cm3Start.c **** *******************************************************************************/
  70:.\Generated_Source\PSoC5/Cm3Start.c **** #if defined (__ICCARM__)
  71:.\Generated_Source\PSoC5/Cm3Start.c ****     #pragma location=".ramvectors"
  72:.\Generated_Source\PSoC5/Cm3Start.c ****     #pragma data_alignment=256
  73:.\Generated_Source\PSoC5/Cm3Start.c **** #else
  74:.\Generated_Source\PSoC5/Cm3Start.c ****     CY_SECTION(".ramvectors")
  75:.\Generated_Source\PSoC5/Cm3Start.c ****     CY_ALIGN(256)
  76:.\Generated_Source\PSoC5/Cm3Start.c **** #endif  /* defined (__ICCARM__) */
  77:.\Generated_Source\PSoC5/Cm3Start.c **** cyisraddress CyRamVectors[CY_NUM_VECTORS];
  78:.\Generated_Source\PSoC5/Cm3Start.c **** 
  79:.\Generated_Source\PSoC5/Cm3Start.c **** 
  80:.\Generated_Source\PSoC5/Cm3Start.c **** /*******************************************************************************
  81:.\Generated_Source\PSoC5/Cm3Start.c **** * Function Name: IntDefaultHandler
  82:.\Generated_Source\PSoC5/Cm3Start.c **** ********************************************************************************
  83:.\Generated_Source\PSoC5/Cm3Start.c **** *
  84:.\Generated_Source\PSoC5/Cm3Start.c **** * Summary:
  85:.\Generated_Source\PSoC5/Cm3Start.c **** *  This function is called for all interrupts, other than a reset that gets
  86:.\Generated_Source\PSoC5/Cm3Start.c **** *  called before the system is setup.
  87:.\Generated_Source\PSoC5/Cm3Start.c **** *
  88:.\Generated_Source\PSoC5/Cm3Start.c **** * Parameters:
ARM GAS  C:\Users\PANXIA~1\AppData\Local\Temp\cc7aohEk.s 			page 3


  89:.\Generated_Source\PSoC5/Cm3Start.c **** *  None
  90:.\Generated_Source\PSoC5/Cm3Start.c **** *
  91:.\Generated_Source\PSoC5/Cm3Start.c **** * Return:
  92:.\Generated_Source\PSoC5/Cm3Start.c **** *  None
  93:.\Generated_Source\PSoC5/Cm3Start.c **** *
  94:.\Generated_Source\PSoC5/Cm3Start.c **** * Theory:
  95:.\Generated_Source\PSoC5/Cm3Start.c **** *  Any value other than zero is acceptable.
  96:.\Generated_Source\PSoC5/Cm3Start.c **** *
  97:.\Generated_Source\PSoC5/Cm3Start.c **** *******************************************************************************/
  98:.\Generated_Source\PSoC5/Cm3Start.c **** CY_ISR(IntDefaultHandler)
  99:.\Generated_Source\PSoC5/Cm3Start.c **** {
  27              		.loc 1 99 0
  28              		.cfi_startproc
  29              		@ Volatile: function does not return.
  30              		@ args = 0, pretend = 0, frame = 0
  31              		@ frame_needed = 0, uses_anonymous_args = 0
  32              		@ link register save eliminated.
  33              	.L2:
 100:.\Generated_Source\PSoC5/Cm3Start.c ****     #ifdef CY_BOOT_INT_DEFAULT_HANDLER_EXCEPTION_ENTRY_CALLBACK
 101:.\Generated_Source\PSoC5/Cm3Start.c ****         CyBoot_IntDefaultHandler_Exception_EntryCallback();
 102:.\Generated_Source\PSoC5/Cm3Start.c ****     #endif /* CY_BOOT_INT_DEFAULT_HANDLER_EXCEPTION_ENTRY_CALLBACK */
 103:.\Generated_Source\PSoC5/Cm3Start.c **** 
 104:.\Generated_Source\PSoC5/Cm3Start.c ****     while(1)
 105:.\Generated_Source\PSoC5/Cm3Start.c ****     {
 106:.\Generated_Source\PSoC5/Cm3Start.c ****         /***********************************************************************
 107:.\Generated_Source\PSoC5/Cm3Start.c ****         * We must not get here. If we do, a serious problem occurs, so go
 108:.\Generated_Source\PSoC5/Cm3Start.c ****         * into an infinite loop.
 109:.\Generated_Source\PSoC5/Cm3Start.c ****         ***********************************************************************/
 110:.\Generated_Source\PSoC5/Cm3Start.c ****     }
  34              		.loc 1 110 0 discriminator 1
  35 0000 FEE7     		b	.L2
  36              		.cfi_endproc
  37              	.LFE0:
  38              		.size	IntDefaultHandler, .-IntDefaultHandler
  39 0002 00BF     		.section	.text._exit,"ax",%progbits
  40              		.align	2
  41              		.weak	_exit
  42              		.thumb
  43              		.thumb_func
  44              		.type	_exit, %function
  45              	_exit:
  46              	.LFB1:
 111:.\Generated_Source\PSoC5/Cm3Start.c **** }
 112:.\Generated_Source\PSoC5/Cm3Start.c **** 
 113:.\Generated_Source\PSoC5/Cm3Start.c **** 
 114:.\Generated_Source\PSoC5/Cm3Start.c **** #if defined(__ARMCC_VERSION)
 115:.\Generated_Source\PSoC5/Cm3Start.c **** 
 116:.\Generated_Source\PSoC5/Cm3Start.c **** /* Local function for device reset. */
 117:.\Generated_Source\PSoC5/Cm3Start.c **** extern void Reset(void);
 118:.\Generated_Source\PSoC5/Cm3Start.c **** 
 119:.\Generated_Source\PSoC5/Cm3Start.c **** /* Application entry point. */
 120:.\Generated_Source\PSoC5/Cm3Start.c **** extern void $Super$$main(void);
 121:.\Generated_Source\PSoC5/Cm3Start.c **** 
 122:.\Generated_Source\PSoC5/Cm3Start.c **** /* Linker-generated Stack Base addresses, Two Region and One Region */
 123:.\Generated_Source\PSoC5/Cm3Start.c **** extern uint32 Image$$ARM_LIB_STACK$$ZI$$Limit;
 124:.\Generated_Source\PSoC5/Cm3Start.c **** 
 125:.\Generated_Source\PSoC5/Cm3Start.c **** /* RealView C Library initialization. */
ARM GAS  C:\Users\PANXIA~1\AppData\Local\Temp\cc7aohEk.s 			page 4


 126:.\Generated_Source\PSoC5/Cm3Start.c **** extern int __main(void);
 127:.\Generated_Source\PSoC5/Cm3Start.c **** 
 128:.\Generated_Source\PSoC5/Cm3Start.c **** 
 129:.\Generated_Source\PSoC5/Cm3Start.c **** /*******************************************************************************
 130:.\Generated_Source\PSoC5/Cm3Start.c **** * Function Name: Reset
 131:.\Generated_Source\PSoC5/Cm3Start.c **** ********************************************************************************
 132:.\Generated_Source\PSoC5/Cm3Start.c **** *
 133:.\Generated_Source\PSoC5/Cm3Start.c **** * Summary:
 134:.\Generated_Source\PSoC5/Cm3Start.c **** *  This function handles the reset interrupt for the RVDS/MDK toolchains.
 135:.\Generated_Source\PSoC5/Cm3Start.c **** *  This is the first bit of code that is executed at startup.
 136:.\Generated_Source\PSoC5/Cm3Start.c **** *
 137:.\Generated_Source\PSoC5/Cm3Start.c **** * Parameters:
 138:.\Generated_Source\PSoC5/Cm3Start.c **** *  None
 139:.\Generated_Source\PSoC5/Cm3Start.c **** *
 140:.\Generated_Source\PSoC5/Cm3Start.c **** * Return:
 141:.\Generated_Source\PSoC5/Cm3Start.c **** *  None
 142:.\Generated_Source\PSoC5/Cm3Start.c **** *
 143:.\Generated_Source\PSoC5/Cm3Start.c **** *******************************************************************************/
 144:.\Generated_Source\PSoC5/Cm3Start.c **** void Reset(void)
 145:.\Generated_Source\PSoC5/Cm3Start.c **** {
 146:.\Generated_Source\PSoC5/Cm3Start.c ****     #if(CYDEV_PROJ_TYPE != CYDEV_PROJ_TYPE_LOADABLE && CYDEV_PROJ_TYPE != CYDEV_PROJ_TYPE_LOADABLEA
 147:.\Generated_Source\PSoC5/Cm3Start.c **** 
 148:.\Generated_Source\PSoC5/Cm3Start.c ****         /* For PSoC 5LP, debugging is enabled by default */
 149:.\Generated_Source\PSoC5/Cm3Start.c ****         #if(CYDEV_DEBUGGING_ENABLE == 0)
 150:.\Generated_Source\PSoC5/Cm3Start.c ****             *(reg32 *)(CYDEV_DEBUG_ENABLE_REGISTER) |= CYDEV_DEBUG_ENABLE_MASK;
 151:.\Generated_Source\PSoC5/Cm3Start.c ****         #endif /* (CYDEV_DEBUGGING_ENABLE) */
 152:.\Generated_Source\PSoC5/Cm3Start.c **** 
 153:.\Generated_Source\PSoC5/Cm3Start.c ****         /* Reset Status Register has Read-to-clear SW access mode.
 154:.\Generated_Source\PSoC5/Cm3Start.c ****         * Preserve current RESET_SR0 state to make it available for next reading.
 155:.\Generated_Source\PSoC5/Cm3Start.c ****         */
 156:.\Generated_Source\PSoC5/Cm3Start.c ****         *(reg32 *)(CYREG_PHUB_CFGMEM23_CFG1) = *(reg32 *)(CYREG_RESET_SR0);
 157:.\Generated_Source\PSoC5/Cm3Start.c **** 
 158:.\Generated_Source\PSoC5/Cm3Start.c ****     #endif  /* (CYDEV_PROJ_TYPE != CYDEV_PROJ_TYPE_LOADABLE && CYDEV_PROJ_TYPE != CYDEV_PROJ_TYPE_L
 159:.\Generated_Source\PSoC5/Cm3Start.c **** 
 160:.\Generated_Source\PSoC5/Cm3Start.c ****     #if ((CYDEV_BOOTLOADER_ENABLE) && (CYDEV_PROJ_TYPE != CYDEV_PROJ_TYPE_LOADABLEANDBOOTLOADER))
 161:.\Generated_Source\PSoC5/Cm3Start.c ****         CyBtldr_CheckLaunch();
 162:.\Generated_Source\PSoC5/Cm3Start.c ****     #endif /* ((CYDEV_BOOTLOADER_ENABLE) && (CYDEV_PROJ_TYPE != CYDEV_PROJ_TYPE_LOADABLEANDBOOTLOAD
 163:.\Generated_Source\PSoC5/Cm3Start.c **** 
 164:.\Generated_Source\PSoC5/Cm3Start.c ****     __main();
 165:.\Generated_Source\PSoC5/Cm3Start.c **** }
 166:.\Generated_Source\PSoC5/Cm3Start.c **** 
 167:.\Generated_Source\PSoC5/Cm3Start.c **** 
 168:.\Generated_Source\PSoC5/Cm3Start.c **** /*******************************************************************************
 169:.\Generated_Source\PSoC5/Cm3Start.c **** * Function Name: $Sub$$main
 170:.\Generated_Source\PSoC5/Cm3Start.c **** ********************************************************************************
 171:.\Generated_Source\PSoC5/Cm3Start.c **** *
 172:.\Generated_Source\PSoC5/Cm3Start.c **** * Summary:
 173:.\Generated_Source\PSoC5/Cm3Start.c **** *  This function is called immediately before the users main
 174:.\Generated_Source\PSoC5/Cm3Start.c **** *
 175:.\Generated_Source\PSoC5/Cm3Start.c **** * Parameters:
 176:.\Generated_Source\PSoC5/Cm3Start.c **** *  None
 177:.\Generated_Source\PSoC5/Cm3Start.c **** *
 178:.\Generated_Source\PSoC5/Cm3Start.c **** * Return:
 179:.\Generated_Source\PSoC5/Cm3Start.c **** *  None
 180:.\Generated_Source\PSoC5/Cm3Start.c **** *
 181:.\Generated_Source\PSoC5/Cm3Start.c **** *******************************************************************************/
 182:.\Generated_Source\PSoC5/Cm3Start.c **** void $Sub$$main(void)
ARM GAS  C:\Users\PANXIA~1\AppData\Local\Temp\cc7aohEk.s 			page 5


 183:.\Generated_Source\PSoC5/Cm3Start.c **** {
 184:.\Generated_Source\PSoC5/Cm3Start.c ****     initialize_psoc();
 185:.\Generated_Source\PSoC5/Cm3Start.c **** 
 186:.\Generated_Source\PSoC5/Cm3Start.c ****     /* Call original main */
 187:.\Generated_Source\PSoC5/Cm3Start.c ****     $Super$$main();
 188:.\Generated_Source\PSoC5/Cm3Start.c **** 
 189:.\Generated_Source\PSoC5/Cm3Start.c ****     while (1)
 190:.\Generated_Source\PSoC5/Cm3Start.c ****     {
 191:.\Generated_Source\PSoC5/Cm3Start.c ****         /* If main returns, it is undefined what we should do. */
 192:.\Generated_Source\PSoC5/Cm3Start.c ****     }
 193:.\Generated_Source\PSoC5/Cm3Start.c **** }
 194:.\Generated_Source\PSoC5/Cm3Start.c **** 
 195:.\Generated_Source\PSoC5/Cm3Start.c **** #elif defined(__GNUC__)
 196:.\Generated_Source\PSoC5/Cm3Start.c **** 
 197:.\Generated_Source\PSoC5/Cm3Start.c **** void Start_c(void);
 198:.\Generated_Source\PSoC5/Cm3Start.c **** 
 199:.\Generated_Source\PSoC5/Cm3Start.c **** /* Stack Base address */
 200:.\Generated_Source\PSoC5/Cm3Start.c **** extern void __cy_stack(void);
 201:.\Generated_Source\PSoC5/Cm3Start.c **** 
 202:.\Generated_Source\PSoC5/Cm3Start.c **** /* Application entry point. */
 203:.\Generated_Source\PSoC5/Cm3Start.c **** extern int main(void);
 204:.\Generated_Source\PSoC5/Cm3Start.c **** 
 205:.\Generated_Source\PSoC5/Cm3Start.c **** /* Static objects constructors initializer */
 206:.\Generated_Source\PSoC5/Cm3Start.c **** extern void __libc_init_array(void);
 207:.\Generated_Source\PSoC5/Cm3Start.c **** 
 208:.\Generated_Source\PSoC5/Cm3Start.c **** typedef unsigned char __cy_byte_align8 __attribute ((aligned (8)));
 209:.\Generated_Source\PSoC5/Cm3Start.c **** 
 210:.\Generated_Source\PSoC5/Cm3Start.c **** struct __cy_region
 211:.\Generated_Source\PSoC5/Cm3Start.c **** {
 212:.\Generated_Source\PSoC5/Cm3Start.c ****     __cy_byte_align8 *init; /* Initial contents of this region.  */
 213:.\Generated_Source\PSoC5/Cm3Start.c ****     __cy_byte_align8 *data; /* Start address of region.  */
 214:.\Generated_Source\PSoC5/Cm3Start.c ****     size_t init_size;       /* Size of initial data.  */
 215:.\Generated_Source\PSoC5/Cm3Start.c ****     size_t zero_size;       /* Additional size to be zeroed.  */
 216:.\Generated_Source\PSoC5/Cm3Start.c **** };
 217:.\Generated_Source\PSoC5/Cm3Start.c **** 
 218:.\Generated_Source\PSoC5/Cm3Start.c **** extern const struct __cy_region __cy_regions[];
 219:.\Generated_Source\PSoC5/Cm3Start.c **** extern const char __cy_region_num __attribute__((weak));
 220:.\Generated_Source\PSoC5/Cm3Start.c **** #define __cy_region_num ((size_t)&__cy_region_num)
 221:.\Generated_Source\PSoC5/Cm3Start.c **** 
 222:.\Generated_Source\PSoC5/Cm3Start.c **** 
 223:.\Generated_Source\PSoC5/Cm3Start.c **** /*******************************************************************************
 224:.\Generated_Source\PSoC5/Cm3Start.c **** * System Calls of the Red Hat newlib C Library
 225:.\Generated_Source\PSoC5/Cm3Start.c **** *******************************************************************************/
 226:.\Generated_Source\PSoC5/Cm3Start.c **** 
 227:.\Generated_Source\PSoC5/Cm3Start.c **** 
 228:.\Generated_Source\PSoC5/Cm3Start.c **** /*******************************************************************************
 229:.\Generated_Source\PSoC5/Cm3Start.c **** * Function Name: _exit
 230:.\Generated_Source\PSoC5/Cm3Start.c **** ********************************************************************************
 231:.\Generated_Source\PSoC5/Cm3Start.c **** *
 232:.\Generated_Source\PSoC5/Cm3Start.c **** * Summary:
 233:.\Generated_Source\PSoC5/Cm3Start.c **** *  Exit a program without cleaning up files. If your system doesn't provide
 234:.\Generated_Source\PSoC5/Cm3Start.c **** *  this, it is best to avoid linking with subroutines that require it (exit,
 235:.\Generated_Source\PSoC5/Cm3Start.c **** *  system).
 236:.\Generated_Source\PSoC5/Cm3Start.c **** *
 237:.\Generated_Source\PSoC5/Cm3Start.c **** * Parameters:
 238:.\Generated_Source\PSoC5/Cm3Start.c **** *  status: Status caused program exit.
 239:.\Generated_Source\PSoC5/Cm3Start.c **** *
ARM GAS  C:\Users\PANXIA~1\AppData\Local\Temp\cc7aohEk.s 			page 6


 240:.\Generated_Source\PSoC5/Cm3Start.c **** * Return:
 241:.\Generated_Source\PSoC5/Cm3Start.c **** *  None
 242:.\Generated_Source\PSoC5/Cm3Start.c **** *
 243:.\Generated_Source\PSoC5/Cm3Start.c **** *******************************************************************************/
 244:.\Generated_Source\PSoC5/Cm3Start.c **** __attribute__((weak))
 245:.\Generated_Source\PSoC5/Cm3Start.c **** void _exit(int status)
 246:.\Generated_Source\PSoC5/Cm3Start.c **** {
  47              		.loc 1 246 0
  48              		.cfi_startproc
  49              		@ Volatile: function does not return.
  50              		@ args = 0, pretend = 0, frame = 0
  51              		@ frame_needed = 0, uses_anonymous_args = 0
  52              	.LVL0:
  53 0000 08B5     		push	{r3, lr}
  54              		.cfi_def_cfa_offset 8
  55              		.cfi_offset 3, -8
  56              		.cfi_offset 14, -4
 247:.\Generated_Source\PSoC5/Cm3Start.c ****     CyHalt((uint8) status);
  57              		.loc 1 247 0
  58 0002 C0B2     		uxtb	r0, r0
  59              	.LVL1:
  60 0004 FFF7FEFF 		bl	CyHalt
  61              	.LVL2:
  62              	.L4:
 248:.\Generated_Source\PSoC5/Cm3Start.c ****     while(1)
 249:.\Generated_Source\PSoC5/Cm3Start.c ****     {
 250:.\Generated_Source\PSoC5/Cm3Start.c **** 
 251:.\Generated_Source\PSoC5/Cm3Start.c ****     }
  63              		.loc 1 251 0 discriminator 1
  64 0008 FEE7     		b	.L4
  65              		.cfi_endproc
  66              	.LFE1:
  67              		.size	_exit, .-_exit
  68 000a 00BF     		.section	.text._sbrk,"ax",%progbits
  69              		.align	2
  70              		.weak	_sbrk
  71              		.thumb
  72              		.thumb_func
  73              		.type	_sbrk, %function
  74              	_sbrk:
  75              	.LFB2:
 252:.\Generated_Source\PSoC5/Cm3Start.c **** }
 253:.\Generated_Source\PSoC5/Cm3Start.c **** 
 254:.\Generated_Source\PSoC5/Cm3Start.c **** 
 255:.\Generated_Source\PSoC5/Cm3Start.c **** /*******************************************************************************
 256:.\Generated_Source\PSoC5/Cm3Start.c **** * Function Name: _sbrk
 257:.\Generated_Source\PSoC5/Cm3Start.c **** ********************************************************************************
 258:.\Generated_Source\PSoC5/Cm3Start.c **** *
 259:.\Generated_Source\PSoC5/Cm3Start.c **** * Summary:
 260:.\Generated_Source\PSoC5/Cm3Start.c **** *  Increase program data space. As malloc and related functions depend on this,
 261:.\Generated_Source\PSoC5/Cm3Start.c **** *  it is useful to have a working implementation. The following suffices for a
 262:.\Generated_Source\PSoC5/Cm3Start.c **** *  standalone system; it exploits the symbol end automatically defined by the
 263:.\Generated_Source\PSoC5/Cm3Start.c **** *  GNU linker.
 264:.\Generated_Source\PSoC5/Cm3Start.c **** *
 265:.\Generated_Source\PSoC5/Cm3Start.c **** * Parameters:
 266:.\Generated_Source\PSoC5/Cm3Start.c **** *  nbytes: The number of bytes requested (if the parameter value is positive)
 267:.\Generated_Source\PSoC5/Cm3Start.c **** *  from the heap or returned back to the heap (if the parameter value is
ARM GAS  C:\Users\PANXIA~1\AppData\Local\Temp\cc7aohEk.s 			page 7


 268:.\Generated_Source\PSoC5/Cm3Start.c **** *  negative).
 269:.\Generated_Source\PSoC5/Cm3Start.c **** *
 270:.\Generated_Source\PSoC5/Cm3Start.c **** * Return:
 271:.\Generated_Source\PSoC5/Cm3Start.c **** *  None
 272:.\Generated_Source\PSoC5/Cm3Start.c **** *
 273:.\Generated_Source\PSoC5/Cm3Start.c **** *******************************************************************************/
 274:.\Generated_Source\PSoC5/Cm3Start.c **** __attribute__((weak))
 275:.\Generated_Source\PSoC5/Cm3Start.c **** void * _sbrk (int nbytes)
 276:.\Generated_Source\PSoC5/Cm3Start.c **** {
  76              		.loc 1 276 0
  77              		.cfi_startproc
  78              		@ args = 0, pretend = 0, frame = 0
  79              		@ frame_needed = 0, uses_anonymous_args = 0
  80              	.LVL3:
  81 0000 08B5     		push	{r3, lr}
  82              		.cfi_def_cfa_offset 8
  83              		.cfi_offset 3, -8
  84              		.cfi_offset 14, -4
 277:.\Generated_Source\PSoC5/Cm3Start.c ****     extern int  end;            /* Symbol defined by linker map. Start of free memory (as symbol). 
 278:.\Generated_Source\PSoC5/Cm3Start.c ****     void *      returnValue;
 279:.\Generated_Source\PSoC5/Cm3Start.c **** 
 280:.\Generated_Source\PSoC5/Cm3Start.c ****     /* The statically held previous end of the heap, with its initialization. */
 281:.\Generated_Source\PSoC5/Cm3Start.c ****     static void *heapPointer = (void *) &end;                 /* Previous end */
 282:.\Generated_Source\PSoC5/Cm3Start.c **** 
 283:.\Generated_Source\PSoC5/Cm3Start.c ****     if (((heapPointer + nbytes) - (void *) &end) <= CYDEV_HEAP_SIZE)
  85              		.loc 1 283 0
  86 0002 094B     		ldr	r3, .L10
  87 0004 1A68     		ldr	r2, [r3]
  88 0006 1044     		add	r0, r0, r2
  89              	.LVL4:
  90 0008 084B     		ldr	r3, .L10+4
  91 000a C31A     		subs	r3, r0, r3
  92 000c 802B     		cmp	r3, #128
  93 000e 02DC     		bgt	.L7
  94              	.LVL5:
 284:.\Generated_Source\PSoC5/Cm3Start.c ****     {
 285:.\Generated_Source\PSoC5/Cm3Start.c ****         returnValue  = heapPointer;
 286:.\Generated_Source\PSoC5/Cm3Start.c ****         heapPointer += nbytes;
  95              		.loc 1 286 0
  96 0010 054B     		ldr	r3, .L10
  97 0012 1860     		str	r0, [r3]
  98 0014 05E0     		b	.L8
  99              	.LVL6:
 100              	.L7:
 287:.\Generated_Source\PSoC5/Cm3Start.c ****     }
 288:.\Generated_Source\PSoC5/Cm3Start.c ****     else
 289:.\Generated_Source\PSoC5/Cm3Start.c ****     {
 290:.\Generated_Source\PSoC5/Cm3Start.c ****         errno = ENOMEM;
 101              		.loc 1 290 0
 102 0016 FFF7FEFF 		bl	__errno
 103              	.LVL7:
 104 001a 0C23     		movs	r3, #12
 105 001c 0360     		str	r3, [r0]
 106              	.LVL8:
 291:.\Generated_Source\PSoC5/Cm3Start.c ****         returnValue = (void *) -1;
 107              		.loc 1 291 0
 108 001e 4FF0FF32 		mov	r2, #-1
ARM GAS  C:\Users\PANXIA~1\AppData\Local\Temp\cc7aohEk.s 			page 8


 109              	.LVL9:
 110              	.L8:
 292:.\Generated_Source\PSoC5/Cm3Start.c ****     }
 293:.\Generated_Source\PSoC5/Cm3Start.c **** 
 294:.\Generated_Source\PSoC5/Cm3Start.c ****     return (returnValue);
 295:.\Generated_Source\PSoC5/Cm3Start.c **** }
 111              		.loc 1 295 0
 112 0022 1046     		mov	r0, r2
 113 0024 08BD     		pop	{r3, pc}
 114              	.L11:
 115 0026 00BF     		.align	2
 116              	.L10:
 117 0028 00000000 		.word	.LANCHOR0
 118 002c 00000000 		.word	end
 119              		.cfi_endproc
 120              	.LFE2:
 121              		.size	_sbrk, .-_sbrk
 122              		.section	.text.Start_c,"ax",%progbits
 123              		.align	2
 124              		.global	Start_c
 125              		.thumb
 126              		.thumb_func
 127              		.type	Start_c, %function
 128              	Start_c:
 129              	.LFB4:
 296:.\Generated_Source\PSoC5/Cm3Start.c **** 
 297:.\Generated_Source\PSoC5/Cm3Start.c **** 
 298:.\Generated_Source\PSoC5/Cm3Start.c **** /*******************************************************************************
 299:.\Generated_Source\PSoC5/Cm3Start.c **** * Function Name: Reset
 300:.\Generated_Source\PSoC5/Cm3Start.c **** ********************************************************************************
 301:.\Generated_Source\PSoC5/Cm3Start.c **** *
 302:.\Generated_Source\PSoC5/Cm3Start.c **** * Summary:
 303:.\Generated_Source\PSoC5/Cm3Start.c **** *  This function handles the reset interrupt for the GCC toolchain. This is the
 304:.\Generated_Source\PSoC5/Cm3Start.c **** *  first bit of code that is executed at startup.
 305:.\Generated_Source\PSoC5/Cm3Start.c **** *
 306:.\Generated_Source\PSoC5/Cm3Start.c **** * Parameters:
 307:.\Generated_Source\PSoC5/Cm3Start.c **** *  None
 308:.\Generated_Source\PSoC5/Cm3Start.c **** *
 309:.\Generated_Source\PSoC5/Cm3Start.c **** * Return:
 310:.\Generated_Source\PSoC5/Cm3Start.c **** *  None
 311:.\Generated_Source\PSoC5/Cm3Start.c **** *
 312:.\Generated_Source\PSoC5/Cm3Start.c **** *******************************************************************************/
 313:.\Generated_Source\PSoC5/Cm3Start.c **** void Reset(void)
 314:.\Generated_Source\PSoC5/Cm3Start.c **** {
 315:.\Generated_Source\PSoC5/Cm3Start.c ****     #if(CYDEV_PROJ_TYPE != CYDEV_PROJ_TYPE_LOADABLE && CYDEV_PROJ_TYPE != CYDEV_PROJ_TYPE_LOADABLEA
 316:.\Generated_Source\PSoC5/Cm3Start.c **** 
 317:.\Generated_Source\PSoC5/Cm3Start.c ****         /* For PSoC 5LP, debugging is enabled by default */
 318:.\Generated_Source\PSoC5/Cm3Start.c ****         #if(CYDEV_DEBUGGING_ENABLE == 0)
 319:.\Generated_Source\PSoC5/Cm3Start.c ****             *(reg32 *)(CYDEV_DEBUG_ENABLE_REGISTER) |= CYDEV_DEBUG_ENABLE_MASK;
 320:.\Generated_Source\PSoC5/Cm3Start.c ****         #endif /* (CYDEV_DEBUGGING_ENABLE) */
 321:.\Generated_Source\PSoC5/Cm3Start.c **** 
 322:.\Generated_Source\PSoC5/Cm3Start.c ****         /* Reset Status Register has Read-to-clear SW access mode.
 323:.\Generated_Source\PSoC5/Cm3Start.c ****         * Preserve current RESET_SR0 state to make it available for next reading.
 324:.\Generated_Source\PSoC5/Cm3Start.c ****         */
 325:.\Generated_Source\PSoC5/Cm3Start.c ****         *(reg32 *)(CYREG_PHUB_CFGMEM23_CFG1) = *(reg32 *)(CYREG_RESET_SR0);
 326:.\Generated_Source\PSoC5/Cm3Start.c **** 
 327:.\Generated_Source\PSoC5/Cm3Start.c ****     #endif  /* (CYDEV_PROJ_TYPE != CYDEV_PROJ_TYPE_LOADABLE && CYDEV_PROJ_TYPE != CYDEV_PROJ_TYPE_L
ARM GAS  C:\Users\PANXIA~1\AppData\Local\Temp\cc7aohEk.s 			page 9


 328:.\Generated_Source\PSoC5/Cm3Start.c **** 
 329:.\Generated_Source\PSoC5/Cm3Start.c ****     #if ((CYDEV_BOOTLOADER_ENABLE) && (CYDEV_PROJ_TYPE != CYDEV_PROJ_TYPE_LOADABLEANDBOOTLOADER))
 330:.\Generated_Source\PSoC5/Cm3Start.c ****         CyBtldr_CheckLaunch();
 331:.\Generated_Source\PSoC5/Cm3Start.c ****     #endif /* ((CYDEV_BOOTLOADER_ENABLE) && (CYDEV_PROJ_TYPE != CYDEV_PROJ_TYPE_LOADABLEANDBOOTLOAD
 332:.\Generated_Source\PSoC5/Cm3Start.c **** 
 333:.\Generated_Source\PSoC5/Cm3Start.c ****     Start_c();
 334:.\Generated_Source\PSoC5/Cm3Start.c **** }
 335:.\Generated_Source\PSoC5/Cm3Start.c **** 
 336:.\Generated_Source\PSoC5/Cm3Start.c **** 
 337:.\Generated_Source\PSoC5/Cm3Start.c **** /*******************************************************************************
 338:.\Generated_Source\PSoC5/Cm3Start.c **** * Function Name: Start_c
 339:.\Generated_Source\PSoC5/Cm3Start.c **** ********************************************************************************
 340:.\Generated_Source\PSoC5/Cm3Start.c **** *
 341:.\Generated_Source\PSoC5/Cm3Start.c **** * Summary:
 342:.\Generated_Source\PSoC5/Cm3Start.c **** *  This function handles initializing the .data and .bss sections in
 343:.\Generated_Source\PSoC5/Cm3Start.c **** *  preparation for running the standard C code.  Once initialization is complete
 344:.\Generated_Source\PSoC5/Cm3Start.c **** *  it will call main(). This function will never return.
 345:.\Generated_Source\PSoC5/Cm3Start.c **** *
 346:.\Generated_Source\PSoC5/Cm3Start.c **** * Parameters:
 347:.\Generated_Source\PSoC5/Cm3Start.c **** *  None
 348:.\Generated_Source\PSoC5/Cm3Start.c **** *
 349:.\Generated_Source\PSoC5/Cm3Start.c **** * Return:
 350:.\Generated_Source\PSoC5/Cm3Start.c **** *  None
 351:.\Generated_Source\PSoC5/Cm3Start.c **** *
 352:.\Generated_Source\PSoC5/Cm3Start.c **** *******************************************************************************/
 353:.\Generated_Source\PSoC5/Cm3Start.c **** void Start_c(void)  __attribute__ ((noreturn));
 354:.\Generated_Source\PSoC5/Cm3Start.c **** void Start_c(void)
 355:.\Generated_Source\PSoC5/Cm3Start.c **** {
 130              		.loc 1 355 0
 131              		.cfi_startproc
 132              		@ Volatile: function does not return.
 133              		@ args = 0, pretend = 0, frame = 0
 134              		@ frame_needed = 0, uses_anonymous_args = 0
 135 0000 08B5     		push	{r3, lr}
 136              		.cfi_def_cfa_offset 8
 137              		.cfi_offset 3, -8
 138              		.cfi_offset 14, -4
 139              	.LVL10:
 356:.\Generated_Source\PSoC5/Cm3Start.c ****     unsigned regions = __cy_region_num;
 357:.\Generated_Source\PSoC5/Cm3Start.c ****     const struct __cy_region *rptr = __cy_regions;
 358:.\Generated_Source\PSoC5/Cm3Start.c **** 
 359:.\Generated_Source\PSoC5/Cm3Start.c ****     /* Initialize memory */
 360:.\Generated_Source\PSoC5/Cm3Start.c ****     for (regions = __cy_region_num; regions != 0u; regions--)
 140              		.loc 1 360 0
 141 0002 104E     		ldr	r6, .L21
 357:.\Generated_Source\PSoC5/Cm3Start.c **** 
 142              		.loc 1 357 0
 143 0004 104D     		ldr	r5, .L21+4
 144              		.loc 1 360 0
 145 0006 16E0     		b	.L13
 146              	.LVL11:
 147              	.L18:
 148              	.LBB2:
 361:.\Generated_Source\PSoC5/Cm3Start.c ****     {
 362:.\Generated_Source\PSoC5/Cm3Start.c ****         uint32 *src = (uint32 *)rptr->init;
 149              		.loc 1 362 0
 150 0008 2968     		ldr	r1, [r5]
ARM GAS  C:\Users\PANXIA~1\AppData\Local\Temp\cc7aohEk.s 			page 10


 151              	.LVL12:
 363:.\Generated_Source\PSoC5/Cm3Start.c ****         uint32 *dst = (uint32 *)rptr->data;
 152              		.loc 1 363 0
 153 000a 6B68     		ldr	r3, [r5, #4]
 154              	.LVL13:
 364:.\Generated_Source\PSoC5/Cm3Start.c ****         unsigned limit = rptr->init_size;
 155              		.loc 1 364 0
 156 000c AC68     		ldr	r4, [r5, #8]
 157              	.LVL14:
 365:.\Generated_Source\PSoC5/Cm3Start.c ****         unsigned count;
 366:.\Generated_Source\PSoC5/Cm3Start.c **** 
 367:.\Generated_Source\PSoC5/Cm3Start.c ****         for (count = 0u; count != limit; count += sizeof (uint32))
 158              		.loc 1 367 0
 159 000e 0022     		movs	r2, #0
 160 0010 04E0     		b	.L14
 161              	.LVL15:
 162              	.L15:
 368:.\Generated_Source\PSoC5/Cm3Start.c ****         {
 369:.\Generated_Source\PSoC5/Cm3Start.c ****             *dst = *src;
 163              		.loc 1 369 0 discriminator 3
 164 0012 51F8040B 		ldr	r0, [r1], #4
 165              	.LVL16:
 166 0016 43F8040B 		str	r0, [r3], #4
 167              	.LVL17:
 367:.\Generated_Source\PSoC5/Cm3Start.c ****         {
 168              		.loc 1 367 0 discriminator 3
 169 001a 0432     		adds	r2, r2, #4
 170              	.LVL18:
 171              	.L14:
 367:.\Generated_Source\PSoC5/Cm3Start.c ****         {
 172              		.loc 1 367 0 is_stmt 0 discriminator 1
 173 001c A242     		cmp	r2, r4
 174 001e F8D1     		bne	.L15
 370:.\Generated_Source\PSoC5/Cm3Start.c ****             dst++;
 371:.\Generated_Source\PSoC5/Cm3Start.c ****             src++;
 372:.\Generated_Source\PSoC5/Cm3Start.c ****         }
 373:.\Generated_Source\PSoC5/Cm3Start.c ****         limit = rptr->zero_size;
 175              		.loc 1 373 0 is_stmt 1
 176 0020 E868     		ldr	r0, [r5, #12]
 177              	.LVL19:
 374:.\Generated_Source\PSoC5/Cm3Start.c ****         for (count = 0u; count != limit; count += sizeof (uint32))
 178              		.loc 1 374 0
 179 0022 0022     		movs	r2, #0
 180 0024 03E0     		b	.L16
 181              	.LVL20:
 182              	.L17:
 375:.\Generated_Source\PSoC5/Cm3Start.c ****         {
 376:.\Generated_Source\PSoC5/Cm3Start.c ****             *dst = 0u;
 183              		.loc 1 376 0 discriminator 3
 184 0026 0021     		movs	r1, #0
 185 0028 43F8041B 		str	r1, [r3], #4
 186              	.LVL21:
 374:.\Generated_Source\PSoC5/Cm3Start.c ****         for (count = 0u; count != limit; count += sizeof (uint32))
 187              		.loc 1 374 0 discriminator 3
 188 002c 0432     		adds	r2, r2, #4
 189              	.LVL22:
 190              	.L16:
ARM GAS  C:\Users\PANXIA~1\AppData\Local\Temp\cc7aohEk.s 			page 11


 374:.\Generated_Source\PSoC5/Cm3Start.c ****         for (count = 0u; count != limit; count += sizeof (uint32))
 191              		.loc 1 374 0 is_stmt 0 discriminator 1
 192 002e 8242     		cmp	r2, r0
 193 0030 F9D1     		bne	.L17
 377:.\Generated_Source\PSoC5/Cm3Start.c ****             dst++;
 378:.\Generated_Source\PSoC5/Cm3Start.c ****         }
 379:.\Generated_Source\PSoC5/Cm3Start.c **** 
 380:.\Generated_Source\PSoC5/Cm3Start.c ****         rptr++;
 194              		.loc 1 380 0 is_stmt 1 discriminator 2
 195 0032 1035     		adds	r5, r5, #16
 196              	.LVL23:
 197              	.LBE2:
 360:.\Generated_Source\PSoC5/Cm3Start.c ****     {
 198              		.loc 1 360 0 discriminator 2
 199 0034 013E     		subs	r6, r6, #1
 200              	.LVL24:
 201              	.L13:
 360:.\Generated_Source\PSoC5/Cm3Start.c ****     {
 202              		.loc 1 360 0 is_stmt 0 discriminator 1
 203 0036 002E     		cmp	r6, #0
 204 0038 E6D1     		bne	.L18
 381:.\Generated_Source\PSoC5/Cm3Start.c ****     }
 382:.\Generated_Source\PSoC5/Cm3Start.c **** 
 383:.\Generated_Source\PSoC5/Cm3Start.c ****     /* Invoke static objects constructors */
 384:.\Generated_Source\PSoC5/Cm3Start.c ****     __libc_init_array();
 205              		.loc 1 384 0 is_stmt 1
 206 003a FFF7FEFF 		bl	__libc_init_array
 207              	.LVL25:
 385:.\Generated_Source\PSoC5/Cm3Start.c ****     (void) main();
 208              		.loc 1 385 0
 209 003e FFF7FEFF 		bl	main
 210              	.LVL26:
 211              	.L19:
 386:.\Generated_Source\PSoC5/Cm3Start.c **** 
 387:.\Generated_Source\PSoC5/Cm3Start.c ****     while (1)
 388:.\Generated_Source\PSoC5/Cm3Start.c ****     {
 389:.\Generated_Source\PSoC5/Cm3Start.c ****         /* If main returns, make sure we don't return. */
 390:.\Generated_Source\PSoC5/Cm3Start.c ****     }
 212              		.loc 1 390 0 discriminator 1
 213 0042 FEE7     		b	.L19
 214              	.L22:
 215              		.align	2
 216              	.L21:
 217 0044 00000000 		.word	__cy_region_num
 218 0048 00000000 		.word	__cy_regions
 219              		.cfi_endproc
 220              	.LFE4:
 221              		.size	Start_c, .-Start_c
 222              		.section	.text.Reset,"ax",%progbits
 223              		.align	2
 224              		.global	Reset
 225              		.thumb
 226              		.thumb_func
 227              		.type	Reset, %function
 228              	Reset:
 229              	.LFB3:
 314:.\Generated_Source\PSoC5/Cm3Start.c ****     #if(CYDEV_PROJ_TYPE != CYDEV_PROJ_TYPE_LOADABLE && CYDEV_PROJ_TYPE != CYDEV_PROJ_TYPE_LOADABLEA
ARM GAS  C:\Users\PANXIA~1\AppData\Local\Temp\cc7aohEk.s 			page 12


 230              		.loc 1 314 0
 231              		.cfi_startproc
 232              		@ Volatile: function does not return.
 233              		@ args = 0, pretend = 0, frame = 0
 234              		@ frame_needed = 0, uses_anonymous_args = 0
 235 0000 08B5     		push	{r3, lr}
 236              		.cfi_def_cfa_offset 8
 237              		.cfi_offset 3, -8
 238              		.cfi_offset 14, -4
 319:.\Generated_Source\PSoC5/Cm3Start.c ****         #endif /* (CYDEV_DEBUGGING_ENABLE) */
 239              		.loc 1 319 0
 240 0002 074A     		ldr	r2, .L25
 241 0004 1368     		ldr	r3, [r2]
 242 0006 43F02003 		orr	r3, r3, #32
 243 000a 1360     		str	r3, [r2]
 325:.\Generated_Source\PSoC5/Cm3Start.c **** 
 244              		.loc 1 325 0
 245 000c 054B     		ldr	r3, .L25+4
 246 000e 1A68     		ldr	r2, [r3]
 247 0010 03F53F53 		add	r3, r3, #12224
 248 0014 0233     		adds	r3, r3, #2
 249 0016 1A60     		str	r2, [r3]
 330:.\Generated_Source\PSoC5/Cm3Start.c ****     #endif /* ((CYDEV_BOOTLOADER_ENABLE) && (CYDEV_PROJ_TYPE != CYDEV_PROJ_TYPE_LOADABLEANDBOOTLOAD
 250              		.loc 1 330 0
 251 0018 FFF7FEFF 		bl	CyBtldr_CheckLaunch
 252              	.LVL27:
 333:.\Generated_Source\PSoC5/Cm3Start.c **** }
 253              		.loc 1 333 0
 254 001c FFF7FEFF 		bl	Start_c
 255              	.LVL28:
 256              	.L26:
 257              		.align	2
 258              	.L25:
 259 0020 E8460040 		.word	1073759976
 260 0024 FA460040 		.word	1073759994
 261              		.cfi_endproc
 262              	.LFE3:
 263              		.size	Reset, .-Reset
 264              		.section	.text.initialize_psoc,"ax",%progbits
 265              		.align	2
 266              		.global	initialize_psoc
 267              		.thumb
 268              		.thumb_func
 269              		.type	initialize_psoc, %function
 270              	initialize_psoc:
 271              	.LFB5:
 391:.\Generated_Source\PSoC5/Cm3Start.c **** }
 392:.\Generated_Source\PSoC5/Cm3Start.c **** 
 393:.\Generated_Source\PSoC5/Cm3Start.c **** 
 394:.\Generated_Source\PSoC5/Cm3Start.c **** #elif defined (__ICCARM__)
 395:.\Generated_Source\PSoC5/Cm3Start.c **** 
 396:.\Generated_Source\PSoC5/Cm3Start.c **** /*******************************************************************************
 397:.\Generated_Source\PSoC5/Cm3Start.c **** * Function Name: __low_level_init
 398:.\Generated_Source\PSoC5/Cm3Start.c **** ********************************************************************************
 399:.\Generated_Source\PSoC5/Cm3Start.c **** *
 400:.\Generated_Source\PSoC5/Cm3Start.c **** * Summary:
 401:.\Generated_Source\PSoC5/Cm3Start.c **** *  This function performs early initializations for the IAR Embedded
ARM GAS  C:\Users\PANXIA~1\AppData\Local\Temp\cc7aohEk.s 			page 13


 402:.\Generated_Source\PSoC5/Cm3Start.c **** *  Workbench IDE. It is executed in the context of a reset interrupt handler
 403:.\Generated_Source\PSoC5/Cm3Start.c **** *  before the data sections are initialized.
 404:.\Generated_Source\PSoC5/Cm3Start.c **** *
 405:.\Generated_Source\PSoC5/Cm3Start.c **** * Parameters:
 406:.\Generated_Source\PSoC5/Cm3Start.c **** *  None
 407:.\Generated_Source\PSoC5/Cm3Start.c **** *
 408:.\Generated_Source\PSoC5/Cm3Start.c **** * Return:
 409:.\Generated_Source\PSoC5/Cm3Start.c **** *  The value that determines whether or not data sections should be initialized
 410:.\Generated_Source\PSoC5/Cm3Start.c **** *  by the system startup code:
 411:.\Generated_Source\PSoC5/Cm3Start.c **** *    0 - skip data sections initialization;
 412:.\Generated_Source\PSoC5/Cm3Start.c **** *    1 - initialize data sections;
 413:.\Generated_Source\PSoC5/Cm3Start.c **** *
 414:.\Generated_Source\PSoC5/Cm3Start.c **** *******************************************************************************/
 415:.\Generated_Source\PSoC5/Cm3Start.c **** int __low_level_init(void)
 416:.\Generated_Source\PSoC5/Cm3Start.c **** {
 417:.\Generated_Source\PSoC5/Cm3Start.c ****     #if (CYDEV_PROJ_TYPE != CYDEV_PROJ_TYPE_LOADABLE && CYDEV_PROJ_TYPE != CYDEV_PROJ_TYPE_LOADABLE
 418:.\Generated_Source\PSoC5/Cm3Start.c **** 
 419:.\Generated_Source\PSoC5/Cm3Start.c ****         /* For PSoC 5LP, debugging is enabled by default */
 420:.\Generated_Source\PSoC5/Cm3Start.c ****         #if(CYDEV_DEBUGGING_ENABLE == 0)
 421:.\Generated_Source\PSoC5/Cm3Start.c ****             *(reg32 *)(CYDEV_DEBUG_ENABLE_REGISTER) |= CYDEV_DEBUG_ENABLE_MASK;
 422:.\Generated_Source\PSoC5/Cm3Start.c ****         #endif /* (CYDEV_DEBUGGING_ENABLE) */
 423:.\Generated_Source\PSoC5/Cm3Start.c **** 
 424:.\Generated_Source\PSoC5/Cm3Start.c ****         /* Reset Status Register has Read-to-clear SW access mode.
 425:.\Generated_Source\PSoC5/Cm3Start.c ****         * Preserve current RESET_SR0 state to make it available for next reading.
 426:.\Generated_Source\PSoC5/Cm3Start.c ****         */
 427:.\Generated_Source\PSoC5/Cm3Start.c ****         *(reg32 *)(CYREG_PHUB_CFGMEM23_CFG1) = *(reg32 *)(CYREG_RESET_SR0);
 428:.\Generated_Source\PSoC5/Cm3Start.c **** 
 429:.\Generated_Source\PSoC5/Cm3Start.c ****     #endif  /* (CYDEV_PROJ_TYPE != CYDEV_PROJ_TYPE_LOADABLE && CYDEV_PROJ_TYPE != CYDEV_PROJ_TYPE_L
 430:.\Generated_Source\PSoC5/Cm3Start.c **** 
 431:.\Generated_Source\PSoC5/Cm3Start.c ****     #if ((CYDEV_BOOTLOADER_ENABLE) && (CYDEV_PROJ_TYPE != CYDEV_PROJ_TYPE_LOADABLEANDBOOTLOADER))
 432:.\Generated_Source\PSoC5/Cm3Start.c ****         CyBtldr_CheckLaunch();
 433:.\Generated_Source\PSoC5/Cm3Start.c ****     #endif /* ((CYDEV_BOOTLOADER_ENABLE) && (CYDEV_PROJ_TYPE != CYDEV_PROJ_TYPE_LOADABLEANDBOOTLOAD
 434:.\Generated_Source\PSoC5/Cm3Start.c **** 
 435:.\Generated_Source\PSoC5/Cm3Start.c ****     /* Initialize data sections */
 436:.\Generated_Source\PSoC5/Cm3Start.c ****     __iar_data_init3();
 437:.\Generated_Source\PSoC5/Cm3Start.c **** 
 438:.\Generated_Source\PSoC5/Cm3Start.c ****     initialize_psoc();
 439:.\Generated_Source\PSoC5/Cm3Start.c **** 
 440:.\Generated_Source\PSoC5/Cm3Start.c ****     return 0;
 441:.\Generated_Source\PSoC5/Cm3Start.c **** }
 442:.\Generated_Source\PSoC5/Cm3Start.c **** 
 443:.\Generated_Source\PSoC5/Cm3Start.c **** #endif /* __GNUC__ */
 444:.\Generated_Source\PSoC5/Cm3Start.c **** 
 445:.\Generated_Source\PSoC5/Cm3Start.c **** 
 446:.\Generated_Source\PSoC5/Cm3Start.c **** /*******************************************************************************
 447:.\Generated_Source\PSoC5/Cm3Start.c **** *
 448:.\Generated_Source\PSoC5/Cm3Start.c **** * Default Rom Interrupt Vector table.
 449:.\Generated_Source\PSoC5/Cm3Start.c **** *
 450:.\Generated_Source\PSoC5/Cm3Start.c **** *******************************************************************************/
 451:.\Generated_Source\PSoC5/Cm3Start.c **** #if defined(__ARMCC_VERSION)
 452:.\Generated_Source\PSoC5/Cm3Start.c ****     /* Suppress diagnostic message 1296-D: extended constant initialiser used */
 453:.\Generated_Source\PSoC5/Cm3Start.c ****     #pragma diag_suppress 1296
 454:.\Generated_Source\PSoC5/Cm3Start.c **** #endif  /* defined(__ARMCC_VERSION) */
 455:.\Generated_Source\PSoC5/Cm3Start.c **** 
 456:.\Generated_Source\PSoC5/Cm3Start.c **** #if defined (__ICCARM__)
 457:.\Generated_Source\PSoC5/Cm3Start.c ****     #pragma location=".romvectors"
 458:.\Generated_Source\PSoC5/Cm3Start.c ****     const intvec_elem __vector_table[CY_NUM_ROM_VECTORS] =
ARM GAS  C:\Users\PANXIA~1\AppData\Local\Temp\cc7aohEk.s 			page 14


 459:.\Generated_Source\PSoC5/Cm3Start.c **** #else
 460:.\Generated_Source\PSoC5/Cm3Start.c ****     CY_SECTION(".romvectors")
 461:.\Generated_Source\PSoC5/Cm3Start.c ****     const cyisraddress RomVectors[CY_NUM_ROM_VECTORS] =
 462:.\Generated_Source\PSoC5/Cm3Start.c **** #endif  /* defined (__ICCARM__) */
 463:.\Generated_Source\PSoC5/Cm3Start.c **** {
 464:.\Generated_Source\PSoC5/Cm3Start.c ****     INITIAL_STACK_POINTER,   /* Initial stack pointer  0 */
 465:.\Generated_Source\PSoC5/Cm3Start.c ****     #if defined (__ICCARM__) /* Reset handler          1 */
 466:.\Generated_Source\PSoC5/Cm3Start.c ****         __iar_program_start,
 467:.\Generated_Source\PSoC5/Cm3Start.c ****     #else
 468:.\Generated_Source\PSoC5/Cm3Start.c ****         (cyisraddress)&Reset,
 469:.\Generated_Source\PSoC5/Cm3Start.c ****     #endif  /* defined (__ICCARM__) */
 470:.\Generated_Source\PSoC5/Cm3Start.c ****     &IntDefaultHandler,      /* NMI handler            2 */
 471:.\Generated_Source\PSoC5/Cm3Start.c ****     &IntDefaultHandler,      /* Hard fault handler     3 */
 472:.\Generated_Source\PSoC5/Cm3Start.c **** };
 473:.\Generated_Source\PSoC5/Cm3Start.c **** 
 474:.\Generated_Source\PSoC5/Cm3Start.c **** #if defined(__ARMCC_VERSION)
 475:.\Generated_Source\PSoC5/Cm3Start.c ****     #pragma diag_default 1296
 476:.\Generated_Source\PSoC5/Cm3Start.c **** #endif  /* defined(__ARMCC_VERSION) */
 477:.\Generated_Source\PSoC5/Cm3Start.c **** 
 478:.\Generated_Source\PSoC5/Cm3Start.c **** 
 479:.\Generated_Source\PSoC5/Cm3Start.c **** /*******************************************************************************
 480:.\Generated_Source\PSoC5/Cm3Start.c **** * Function Name: initialize_psoc
 481:.\Generated_Source\PSoC5/Cm3Start.c **** ********************************************************************************
 482:.\Generated_Source\PSoC5/Cm3Start.c **** *
 483:.\Generated_Source\PSoC5/Cm3Start.c **** * Summary:
 484:.\Generated_Source\PSoC5/Cm3Start.c **** *  This function used to initialize the PSoC chip before calling main.
 485:.\Generated_Source\PSoC5/Cm3Start.c **** *
 486:.\Generated_Source\PSoC5/Cm3Start.c **** * Parameters:
 487:.\Generated_Source\PSoC5/Cm3Start.c **** *  None
 488:.\Generated_Source\PSoC5/Cm3Start.c **** *
 489:.\Generated_Source\PSoC5/Cm3Start.c **** * Return:
 490:.\Generated_Source\PSoC5/Cm3Start.c **** *  None
 491:.\Generated_Source\PSoC5/Cm3Start.c **** *
 492:.\Generated_Source\PSoC5/Cm3Start.c **** *******************************************************************************/
 493:.\Generated_Source\PSoC5/Cm3Start.c **** #if (defined(__GNUC__) && !defined(__ARMCC_VERSION))
 494:.\Generated_Source\PSoC5/Cm3Start.c **** __attribute__ ((constructor(101)))
 495:.\Generated_Source\PSoC5/Cm3Start.c **** #endif
 496:.\Generated_Source\PSoC5/Cm3Start.c **** void initialize_psoc(void)
 497:.\Generated_Source\PSoC5/Cm3Start.c **** {
 272              		.loc 1 497 0
 273              		.cfi_startproc
 274              		@ args = 0, pretend = 0, frame = 0
 275              		@ frame_needed = 0, uses_anonymous_args = 0
 276 0000 08B5     		push	{r3, lr}
 277              		.cfi_def_cfa_offset 8
 278              		.cfi_offset 3, -8
 279              		.cfi_offset 14, -4
 498:.\Generated_Source\PSoC5/Cm3Start.c ****     uint32 i;
 499:.\Generated_Source\PSoC5/Cm3Start.c **** 
 500:.\Generated_Source\PSoC5/Cm3Start.c ****     /* Set Priority group 5. */
 501:.\Generated_Source\PSoC5/Cm3Start.c **** 
 502:.\Generated_Source\PSoC5/Cm3Start.c ****     /* Writes to NVIC_APINT register require the VECTKEY in the upper half */
 503:.\Generated_Source\PSoC5/Cm3Start.c ****     *CY_NVIC_APINT_PTR = CY_NVIC_APINT_VECTKEY | CY_NVIC_APINT_PRIGROUP_3_5;
 280              		.loc 1 503 0
 281 0002 124A     		ldr	r2, .L33
 282 0004 124B     		ldr	r3, .L33+4
 283 0006 1A60     		str	r2, [r3]
ARM GAS  C:\Users\PANXIA~1\AppData\Local\Temp\cc7aohEk.s 			page 15


 504:.\Generated_Source\PSoC5/Cm3Start.c ****     *CY_NVIC_CFG_CTRL_PTR |= CY_NVIC_CFG_STACKALIGN;
 284              		.loc 1 504 0
 285 0008 124A     		ldr	r2, .L33+8
 286 000a 1368     		ldr	r3, [r2]
 287 000c 43F40073 		orr	r3, r3, #512
 288 0010 1360     		str	r3, [r2]
 289              	.LVL29:
 505:.\Generated_Source\PSoC5/Cm3Start.c **** 
 506:.\Generated_Source\PSoC5/Cm3Start.c ****     /* Set Ram interrupt vectors to default functions. */
 507:.\Generated_Source\PSoC5/Cm3Start.c ****     for (i = 0u; i < CY_NUM_VECTORS; i++)
 290              		.loc 1 507 0
 291 0012 0023     		movs	r3, #0
 292 0014 0AE0     		b	.L28
 293              	.LVL30:
 294              	.L30:
 508:.\Generated_Source\PSoC5/Cm3Start.c ****     {
 509:.\Generated_Source\PSoC5/Cm3Start.c ****         #if defined (__ICCARM__)
 510:.\Generated_Source\PSoC5/Cm3Start.c ****             CyRamVectors[i] = (i < CY_NUM_ROM_VECTORS) ? __vector_table[i].__fun : &IntDefaultHandl
 511:.\Generated_Source\PSoC5/Cm3Start.c ****         #else
 512:.\Generated_Source\PSoC5/Cm3Start.c ****             CyRamVectors[i] = (i < CY_NUM_ROM_VECTORS) ? RomVectors[i] : &IntDefaultHandler;
 295              		.loc 1 512 0
 296 0016 032B     		cmp	r3, #3
 297 0018 03D8     		bhi	.L31
 298              		.loc 1 512 0 is_stmt 0 discriminator 1
 299 001a 0F4A     		ldr	r2, .L33+12
 300 001c 52F82310 		ldr	r1, [r2, r3, lsl #2]
 301 0020 00E0     		b	.L29
 302              	.L31:
 303              		.loc 1 512 0
 304 0022 0E49     		ldr	r1, .L33+16
 305              	.L29:
 306              		.loc 1 512 0 discriminator 4
 307 0024 0E4A     		ldr	r2, .L33+20
 308 0026 42F82310 		str	r1, [r2, r3, lsl #2]
 507:.\Generated_Source\PSoC5/Cm3Start.c ****     {
 309              		.loc 1 507 0 is_stmt 1 discriminator 4
 310 002a 0133     		adds	r3, r3, #1
 311              	.LVL31:
 312              	.L28:
 507:.\Generated_Source\PSoC5/Cm3Start.c ****     {
 313              		.loc 1 507 0 is_stmt 0 discriminator 2
 314 002c 2F2B     		cmp	r3, #47
 315 002e F2D9     		bls	.L30
 513:.\Generated_Source\PSoC5/Cm3Start.c ****         #endif  /* defined (__ICCARM__) */
 514:.\Generated_Source\PSoC5/Cm3Start.c ****     }
 515:.\Generated_Source\PSoC5/Cm3Start.c **** 
 516:.\Generated_Source\PSoC5/Cm3Start.c ****     /* Was stored in CFGMEM to avoid being cleared while SRAM gets cleared */
 517:.\Generated_Source\PSoC5/Cm3Start.c ****     CyResetStatus = CY_GET_REG8(CYREG_PHUB_CFGMEM23_CFG1);
 316              		.loc 1 517 0 is_stmt 1
 317 0030 0C4B     		ldr	r3, .L33+24
 318              	.LVL32:
 319 0032 1A78     		ldrb	r2, [r3]	@ zero_extendqisi2
 320 0034 0C4B     		ldr	r3, .L33+28
 321 0036 1A70     		strb	r2, [r3]
 518:.\Generated_Source\PSoC5/Cm3Start.c **** 
 519:.\Generated_Source\PSoC5/Cm3Start.c ****     /* Point NVIC at RAM vector table. */
 520:.\Generated_Source\PSoC5/Cm3Start.c ****     *CYINT_VECT_TABLE = CyRamVectors;
ARM GAS  C:\Users\PANXIA~1\AppData\Local\Temp\cc7aohEk.s 			page 16


 322              		.loc 1 520 0
 323 0038 094A     		ldr	r2, .L33+20
 324 003a 0C4B     		ldr	r3, .L33+32
 325 003c 1A60     		str	r2, [r3]
 521:.\Generated_Source\PSoC5/Cm3Start.c **** 
 522:.\Generated_Source\PSoC5/Cm3Start.c ****     /* Initialize the configuration registers. */
 523:.\Generated_Source\PSoC5/Cm3Start.c ****     cyfitter_cfg();
 326              		.loc 1 523 0
 327 003e FFF7FEFF 		bl	cyfitter_cfg
 328              	.LVL33:
 524:.\Generated_Source\PSoC5/Cm3Start.c **** 
 525:.\Generated_Source\PSoC5/Cm3Start.c ****     #if(0u != DMA_CHANNELS_USED__MASK0)
 526:.\Generated_Source\PSoC5/Cm3Start.c **** 
 527:.\Generated_Source\PSoC5/Cm3Start.c ****         /* Setup DMA - only necessary if design contains DMA component. */
 528:.\Generated_Source\PSoC5/Cm3Start.c ****         CyDmacConfigure();
 529:.\Generated_Source\PSoC5/Cm3Start.c **** 
 530:.\Generated_Source\PSoC5/Cm3Start.c ****     #endif  /* (0u != DMA_CHANNELS_USED__MASK0) */
 531:.\Generated_Source\PSoC5/Cm3Start.c **** 
 532:.\Generated_Source\PSoC5/Cm3Start.c ****     #if !defined (__ICCARM__)
 533:.\Generated_Source\PSoC5/Cm3Start.c ****         /* Actually, no need to clean this variable, just to make compiler happy. */
 534:.\Generated_Source\PSoC5/Cm3Start.c ****         cySysNoInitDataValid = 0u;
 329              		.loc 1 534 0
 330 0042 0022     		movs	r2, #0
 331 0044 0A4B     		ldr	r3, .L33+36
 332 0046 1A60     		str	r2, [r3]
 333 0048 08BD     		pop	{r3, pc}
 334              	.L34:
 335 004a 00BF     		.align	2
 336              	.L33:
 337 004c 0004FA05 		.word	100271104
 338 0050 0CED00E0 		.word	-536810228
 339 0054 14ED00E0 		.word	-536810220
 340 0058 00000000 		.word	.LANCHOR1
 341 005c 00000000 		.word	IntDefaultHandler
 342 0060 00000000 		.word	.LANCHOR2
 343 0064 BC760040 		.word	1073772220
 344 0068 00000000 		.word	CyResetStatus
 345 006c 08ED00E0 		.word	-536810232
 346 0070 00000000 		.word	.LANCHOR3
 347              		.cfi_endproc
 348              	.LFE5:
 349              		.size	initialize_psoc, .-initialize_psoc
 350              		.section	.init_array,"aw",%init_array
 351              		.align	2
 352 0000 00000000 		.word	initialize_psoc(target1)
 353              		.global	RomVectors
 354              		.global	CyRamVectors
 355              		.section	.romvectors,"a",%progbits
 356              		.align	2
 357              		.set	.LANCHOR1,. + 0
 358              		.type	RomVectors, %object
 359              		.size	RomVectors, 16
 360              	RomVectors:
 361 0000 00000000 		.word	__cy_stack
 362 0004 00000000 		.word	Reset
 363 0008 00000000 		.word	IntDefaultHandler
 364 000c 00000000 		.word	IntDefaultHandler
ARM GAS  C:\Users\PANXIA~1\AppData\Local\Temp\cc7aohEk.s 			page 17


 365              		.data
 366              		.align	2
 367              		.set	.LANCHOR0,. + 0
 368              		.type	heapPointer.4942, %object
 369              		.size	heapPointer.4942, 4
 370              	heapPointer.4942:
 371 0000 00000000 		.word	end
 372              		.section	.noinit,"aw",%progbits
 373              		.align	2
 374              		.set	.LANCHOR3,. + 0
 375              		.type	cySysNoInitDataValid, %object
 376              		.size	cySysNoInitDataValid, 4
 377              	cySysNoInitDataValid:
 378 0000 00000000 		.space	4
 379              		.section	.ramvectors,"aw",%progbits
 380              		.align	8
 381              		.set	.LANCHOR2,. + 0
 382              		.type	CyRamVectors, %object
 383              		.size	CyRamVectors, 192
 384              	CyRamVectors:
 385 0000 00000000 		.space	192
 385      00000000 
 385      00000000 
 385      00000000 
 385      00000000 
 386              		.weak	__cy_region_num
 387 00c0 00000000 		.text
 387      00000000 
 387      00000000 
 387      00000000 
 387      00000000 
 388              	.Letext0:
 389              		.file 2 ".\\Generated_Source\\PSoC5\\cytypes.h"
 390              		.file 3 "c:\\program files (x86)\\cypress\\psoc creator\\3.3\\psoc creator\\import\\gnu\\arm\\4.9.
 391              		.file 4 ".\\Generated_Source\\PSoC5\\CyLib.h"
 392              		.file 5 "c:\\program files (x86)\\cypress\\psoc creator\\3.3\\psoc creator\\import\\gnu\\arm\\4.9.
 393              		.file 6 ".\\Generated_Source\\PSoC5\\cyfitter_cfg.h"