ARM GAS  C:\Users\PANXIA~1\AppData\Local\Temp\ccVTi51O.s 			page 1


   1              		.syntax unified
   2              		.cpu cortex-m3
   3              		.fpu softvfp
   4              		.eabi_attribute 20, 1
   5              		.eabi_attribute 21, 1
   6              		.eabi_attribute 23, 3
   7              		.eabi_attribute 24, 1
   8              		.eabi_attribute 25, 1
   9              		.eabi_attribute 26, 1
  10              		.eabi_attribute 30, 1
  11              		.eabi_attribute 34, 1
  12              		.eabi_attribute 18, 4
  13              		.thumb
  14              		.file	"main.c"
  15              		.text
  16              	.Ltext0:
  17              		.cfi_sections	.debug_frame
  18              		.section	.text.canSend,"ax",%progbits
  19              		.align	2
  20              		.global	canSend
  21              		.thumb
  22              		.thumb_func
  23              		.type	canSend, %function
  24              	canSend:
  25              	.LFB63:
  26              		.file 1 ".\\main.c"
   1:.\main.c      **** /* ========================================
   2:.\main.c      ****  *
   3:.\main.c      ****  * Copyright YOUR COMPANY, THE YEAR
   4:.\main.c      ****  * All Rights Reserved
   5:.\main.c      ****  * UNPUBLISHED, LICENSED SOFTWARE.
   6:.\main.c      ****  *
   7:.\main.c      ****  * CONFIDENTIAL AND PROPRIETARY INFORMATION
   8:.\main.c      ****  * WHICH IS THE PROPERTY OF your company.
   9:.\main.c      ****  *
  10:.\main.c      ****  * ========================================
  11:.\main.c      **** */
  12:.\main.c      **** 
  13:.\main.c      **** #include "product.h"
  14:.\main.c      **** #include <ISR_Stroke_Timer.h>
  15:.\main.c      **** #include "TestSlave.h"
  16:.\main.c      **** #include "canfestival.h"
  17:.\main.c      **** #include "CanopenDictConfig.h"
  18:.\main.c      **** #include "TLC5616.h"
  19:.\main.c      **** 
  20:.\main.c      **** #define CAN_RTR_DATA     ((unsigned int )0x00000000)
  21:.\main.c      **** #define CAN_RTR_REMOTE   ((unsigned int )0x00000002)
  22:.\main.c      **** #define CAN_ID_STD       ((unsigned int) 0x00000000)
  23:.\main.c      **** extern int ISR_Stroke_Timer_states;
  24:.\main.c      **** 
  25:.\main.c      **** uint8  key_count = 0;
  26:.\main.c      **** 
  27:.\main.c      **** 
  28:.\main.c      **** unsigned char  receiveData[8]; 
  29:.\main.c      **** 
  30:.\main.c      **** CAN_1_TX_MSG CAN_message;     /* Declares Data as structure variable of type DATA_BYTES_MSG */  
  31:.\main.c      **** 
ARM GAS  C:\Users\PANXIA~1\AppData\Local\Temp\ccVTi51O.s 			page 2


  32:.\main.c      **** CAN_1_DATA_BYTES_MSG Data;
  33:.\main.c      **** 
  34:.\main.c      **** unsigned char receiveData[8]; 
  35:.\main.c      **** 
  36:.\main.c      **** 
  37:.\main.c      **** 
  38:.\main.c      **** unsigned char canSend(CAN_PORT notused, Message *m)
  39:.\main.c      **** {
  27              		.loc 1 39 0
  28              		.cfi_startproc
  29              		@ args = 0, pretend = 0, frame = 24
  30              		@ frame_needed = 0, uses_anonymous_args = 0
  31              	.LVL0:
  32 0000 30B5     		push	{r4, r5, lr}
  33              		.cfi_def_cfa_offset 12
  34              		.cfi_offset 4, -12
  35              		.cfi_offset 5, -8
  36              		.cfi_offset 14, -4
  37 0002 87B0     		sub	sp, sp, #28
  38              		.cfi_def_cfa_offset 40
  39              	.LVL1:
  40:.\main.c      ****     uint32_t i,index;
  41:.\main.c      ****     CanTxMsg TxMessage;
  42:.\main.c      ****     CanTxMsg *ptx_msg=&TxMessage;
  43:.\main.c      ****     ptx_msg->StdId = m->cob_id;
  40              		.loc 1 43 0
  41 0004 0D88     		ldrh	r5, [r1]
  44:.\main.c      **** 
  45:.\main.c      ****     ptx_msg->RTR = CAN_RTR_DATA;
  46:.\main.c      **** 
  47:.\main.c      ****     ptx_msg->IDE = CAN_ID_STD;
  48:.\main.c      **** 
  49:.\main.c      ****     ptx_msg->DLC = m->len;
  42              		.loc 1 49 0
  43 0006 CA78     		ldrb	r2, [r1, #3]	@ zero_extendqisi2
  44              	.LVL2:
  50:.\main.c      ****     for(i = 0; i < m->len; i++)
  45              		.loc 1 50 0
  46 0008 0023     		movs	r3, #0
  47 000a 06E0     		b	.L2
  48              	.LVL3:
  49              	.L3:
  51:.\main.c      ****     ptx_msg->Data[i] = m->data[i];
  50              		.loc 1 51 0 discriminator 3
  51 000c C818     		adds	r0, r1, r3
  52 000e 0479     		ldrb	r4, [r0, #4]	@ zero_extendqisi2
  53 0010 06A8     		add	r0, sp, #24
  54 0012 1844     		add	r0, r0, r3
  55 0014 00F8094C 		strb	r4, [r0, #-9]
  50:.\main.c      ****     for(i = 0; i < m->len; i++)
  56              		.loc 1 50 0 discriminator 3
  57 0018 0133     		adds	r3, r3, #1
  58              	.LVL4:
  59              	.L2:
  50:.\main.c      ****     for(i = 0; i < m->len; i++)
  60              		.loc 1 50 0 is_stmt 0 discriminator 1
  61 001a C878     		ldrb	r0, [r1, #3]	@ zero_extendqisi2
ARM GAS  C:\Users\PANXIA~1\AppData\Local\Temp\ccVTi51O.s 			page 3


  62 001c 9842     		cmp	r0, r3
  63 001e F5D8     		bhi	.L3
  52:.\main.c      **** 
  53:.\main.c      ****     CAN_message.dlc = ptx_msg->DLC;
  64              		.loc 1 53 0 is_stmt 1
  65 0020 0F49     		ldr	r1, .L9
  66              	.LVL5:
  67 0022 8A71     		strb	r2, [r1, #6]
  54:.\main.c      ****             
  55:.\main.c      ****     CAN_message.id =  ptx_msg->StdId;
  68              		.loc 1 55 0
  69 0024 0D60     		str	r5, [r1]
  56:.\main.c      ****             
  57:.\main.c      ****     CAN_message.ide= ptx_msg->IDE;
  70              		.loc 1 57 0
  71 0026 0023     		movs	r3, #0
  72              	.LVL6:
  73 0028 4B71     		strb	r3, [r1, #5]
  74              	.LVL7:
  58:.\main.c      ****             
  59:.\main.c      ****     for (index=0;index<CAN_message.dlc ;index++)
  75              		.loc 1 59 0
  76 002a 06E0     		b	.L4
  77              	.LVL8:
  78              	.L5:
  60:.\main.c      ****     {
  61:.\main.c      ****        receiveData[index] =ptx_msg->Data[index]  ; 
  79              		.loc 1 61 0 discriminator 3
  80 002c 06A9     		add	r1, sp, #24
  81 002e 1944     		add	r1, r1, r3
  82 0030 11F8090C 		ldrb	r0, [r1, #-9]	@ zero_extendqisi2
  83 0034 0B49     		ldr	r1, .L9+4
  84 0036 C854     		strb	r0, [r1, r3]
  59:.\main.c      ****     {
  85              		.loc 1 59 0 discriminator 3
  86 0038 0133     		adds	r3, r3, #1
  87              	.LVL9:
  88              	.L4:
  59:.\main.c      ****     {
  89              		.loc 1 59 0 is_stmt 0 discriminator 1
  90 003a 1146     		mov	r1, r2
  91 003c 9A42     		cmp	r2, r3
  92 003e F5D8     		bhi	.L5
  93 0040 0023     		movs	r3, #0
  94              	.LVL10:
  95 0042 04E0     		b	.L6
  96              	.LVL11:
  97              	.L7:
  62:.\main.c      ****     }
  63:.\main.c      ****             
  64:.\main.c      ****     for(index=0;index<CAN_message.dlc ;index++)
  65:.\main.c      ****     {   
  66:.\main.c      ****         Data.byte[index] = receiveData[index];
  98              		.loc 1 66 0 is_stmt 1 discriminator 3
  99 0044 074A     		ldr	r2, .L9+4
 100 0046 D05C     		ldrb	r0, [r2, r3]	@ zero_extendqisi2
 101 0048 074A     		ldr	r2, .L9+8
ARM GAS  C:\Users\PANXIA~1\AppData\Local\Temp\ccVTi51O.s 			page 4


 102 004a D054     		strb	r0, [r2, r3]
  64:.\main.c      ****     {   
 103              		.loc 1 64 0 discriminator 3
 104 004c 0133     		adds	r3, r3, #1
 105              	.LVL12:
 106              	.L6:
  64:.\main.c      ****     {   
 107              		.loc 1 64 0 is_stmt 0 discriminator 1
 108 004e 8B42     		cmp	r3, r1
 109 0050 F8D3     		bcc	.L7
  67:.\main.c      ****     }
  68:.\main.c      ****     CAN_1_SendMsg(&CAN_message);
 110              		.loc 1 68 0 is_stmt 1
 111 0052 0348     		ldr	r0, .L9
 112 0054 FFF7FEFF 		bl	CAN_1_SendMsg
 113              	.LVL13:
  69:.\main.c      ****     
  70:.\main.c      ****     return 0;           
  71:.\main.c      **** }
 114              		.loc 1 71 0
 115 0058 0020     		movs	r0, #0
 116 005a 07B0     		add	sp, sp, #28
 117              		.cfi_def_cfa_offset 12
 118              		@ sp needed
 119 005c 30BD     		pop	{r4, r5, pc}
 120              	.LVL14:
 121              	.L10:
 122 005e 00BF     		.align	2
 123              	.L9:
 124 0060 00000000 		.word	CAN_message
 125 0064 00000000 		.word	receiveData
 126 0068 00000000 		.word	Data
 127              		.cfi_endproc
 128              	.LFE63:
 129              		.size	canSend, .-canSend
 130              		.section	.text.main,"ax",%progbits
 131              		.align	2
 132              		.global	main
 133              		.thumb
 134              		.thumb_func
 135              		.type	main, %function
 136              	main:
 137              	.LFB64:
  72:.\main.c      **** 
  73:.\main.c      **** 
  74:.\main.c      **** 
  75:.\main.c      **** int main()
  76:.\main.c      **** {
 138              		.loc 1 76 0
 139              		.cfi_startproc
 140              		@ Volatile: function does not return.
 141              		@ args = 0, pretend = 0, frame = 0
 142              		@ frame_needed = 0, uses_anonymous_args = 0
 143 0000 08B5     		push	{r3, lr}
 144              		.cfi_def_cfa_offset 8
 145              		.cfi_offset 3, -8
 146              		.cfi_offset 14, -4
ARM GAS  C:\Users\PANXIA~1\AppData\Local\Temp\ccVTi51O.s 			page 5


  77:.\main.c      ****     Init_Stroke_Timer(); 
 147              		.loc 1 77 0
 148 0002 FFF7FEFF 		bl	Init_Stroke_Timer
 149              	.LVL15:
  78:.\main.c      ****     Init_TLC5616();
 150              		.loc 1 78 0
 151 0006 FFF7FEFF 		bl	Init_TLC5616
 152              	.LVL16:
  79:.\main.c      ****     /* Enable global interrupts. */
  80:.\main.c      ****     CyGlobalIntEnable; 
 153              		.loc 1 80 0
 154              	@ 80 ".\main.c" 1
 155 000a 62B6     		CPSIE   i
 156              	@ 0 "" 2
  81:.\main.c      ****     CAN_1_Start();    
 157              		.loc 1 81 0
 158              		.thumb
 159 000c FFF7FEFF 		bl	CAN_1_Start
 160              	.LVL17:
  82:.\main.c      ****     LCD_Char_1_Init();
 161              		.loc 1 82 0
 162 0010 FFF7FEFF 		bl	LCD_Char_1_Init
 163              	.LVL18:
  83:.\main.c      ****     CanopenInit();
 164              		.loc 1 83 0
 165 0014 FFF7FEFF 		bl	CanopenInit
 166              	.LVL19:
  84:.\main.c      ****     CyDelay(100); 
 167              		.loc 1 84 0
 168 0018 6420     		movs	r0, #100
 169 001a FFF7FEFF 		bl	CyDelay
 170              	.LVL20:
  85:.\main.c      ****     CutReg.SToDotFlag = 0;
 171              		.loc 1 85 0
 172 001e 354C     		ldr	r4, .L21
 173 0020 0025     		movs	r5, #0
 174 0022 A575     		strb	r5, [r4, #22]
  86:.\main.c      ****     
  87:.\main.c      ****     Control_LED_Write(5);
 175              		.loc 1 87 0
 176 0024 0520     		movs	r0, #5
 177 0026 FFF7FEFF 		bl	Control_LED_Write
 178              	.LVL21:
  88:.\main.c      ****     
  89:.\main.c      ****     ValveOut(CutReg.Action[VStop]);
 179              		.loc 1 89 0
 180 002a 607B     		ldrb	r0, [r4, #13]	@ zero_extendqisi2
 181 002c FFF7FEFF 		bl	Control_Reg_1_Write
 182              	.LVL22:
 183 0030 627B     		ldrb	r2, [r4, #13]	@ zero_extendqisi2
 184 0032 314B     		ldr	r3, .L21+4
 185 0034 1A70     		strb	r2, [r3]
  90:.\main.c      ****     TLC5616_Write(1,1023);
 186              		.loc 1 90 0
 187 0036 0120     		movs	r0, #1
 188 0038 40F2FF31 		movw	r1, #1023
 189 003c FFF7FEFF 		bl	TLC5616_Write
ARM GAS  C:\Users\PANXIA~1\AppData\Local\Temp\ccVTi51O.s 			page 6


 190              	.LVL23:
  91:.\main.c      **** 
  92:.\main.c      ****     /////////////ceshi fucha//////////////
  93:.\main.c      ****     CutReg.Action[VFast]   =   0x01;
 191              		.loc 1 93 0
 192 0040 0123     		movs	r3, #1
 193 0042 2372     		strb	r3, [r4, #8]
  94:.\main.c      ****     CutReg.Action[VSlow]   =   0x01;
 194              		.loc 1 94 0
 195 0044 6372     		strb	r3, [r4, #9]
  95:.\main.c      ****     CutReg.Action[VKeep]   =   0x01;
 196              		.loc 1 95 0
 197 0046 A372     		strb	r3, [r4, #10]
  96:.\main.c      ****     CutReg.Action[VUnload] =   0x00;
 198              		.loc 1 96 0
 199 0048 E572     		strb	r5, [r4, #11]
  97:.\main.c      ****     CutReg.Action[VBack]   =   0x02;
 200              		.loc 1 97 0
 201 004a 0223     		movs	r3, #2
 202 004c 2373     		strb	r3, [r4, #12]
  98:.\main.c      ****     CutReg.Action[VStop]   =   0x00;
 203              		.loc 1 98 0
 204 004e 6573     		strb	r5, [r4, #13]
  99:.\main.c      ****     CutReg.KeepTime        =   500;
 205              		.loc 1 99 0
 206 0050 4FF4FA73 		mov	r3, #500
 207 0054 2380     		strh	r3, [r4]	@ movhi
 100:.\main.c      ****     CutReg.UnloadTime      =   500;
 208              		.loc 1 100 0
 209 0056 6380     		strh	r3, [r4, #2]	@ movhi
 210              	.L18:
 101:.\main.c      ****     /////////////////////////////////////////
 102:.\main.c      **** //    LCD_Char_1_Position(0,0) ;
 103:.\main.c      **** //    LCD_Char_1_PrintString("Welcome1");
 104:.\main.c      **** //    LCD_Char_1_Position(1,0) ;
 105:.\main.c      **** //    LCD_Char_1_PrintString("Tetraelc");
 106:.\main.c      ****     for(;;)
 107:.\main.c      ****     {    
 108:.\main.c      ****         //增加了 配置回复模式 如果开始没有在上止点就进入此模式
 109:.\main.c      ****          if(config_para.isConfig_para_state == EnterConfig &&!PumpSignal())
 211              		.loc 1 109 0
 212 0058 284B     		ldr	r3, .L21+8
 213 005a 9B7A     		ldrb	r3, [r3, #10]	@ zero_extendqisi2
 214 005c AA2B     		cmp	r3, #170
 215 005e 09D1     		bne	.L12
 216              		.loc 1 109 0 is_stmt 0 discriminator 1
 217 0060 FFF7FEFF 		bl	Status_Reg_1_Read
 218              	.LVL24:
 219 0064 10F0400F 		tst	r0, #64
 220 0068 04D0     		beq	.L12
 221              	.LBB2:
 110:.\main.c      ****          { 
 111:.\main.c      ****        //    LED_WRITE(0X01);                          //进入阀组配置状态后默认显示“
 112:.\main.c      ****        //     ValveOut(CutReg.Action[VFast]);     
 113:.\main.c      ****             Write_config();
 222              		.loc 1 113 0 is_stmt 1
 223 006a FFF7FEFF 		bl	Write_config
ARM GAS  C:\Users\PANXIA~1\AppData\Local\Temp\ccVTi51O.s 			page 7


 224              	.LVL25:
 114:.\main.c      ****             config_para.isConfig_para_state =  FinsihConfig;
 225              		.loc 1 114 0
 226 006e A022     		movs	r2, #160
 227 0070 224B     		ldr	r3, .L21+8
 228 0072 9A72     		strb	r2, [r3, #10]
 229              	.L12:
 230              	.LBE2:
 115:.\main.c      ****          }
 116:.\main.c      ****         if(!PumpSignal())
 231              		.loc 1 116 0
 232 0074 FFF7FEFF 		bl	Status_Reg_1_Read
 233              	.LVL26:
 234 0078 10F0400F 		tst	r0, #64
 235 007c 0ED0     		beq	.L13
 117:.\main.c      **** 		{
 118:.\main.c      ****          
 119:.\main.c      **** 			ISR_Stroke_Timer_states = 0x01;
 236              		.loc 1 119 0
 237 007e 0122     		movs	r2, #1
 238 0080 1F4B     		ldr	r3, .L21+12
 239 0082 1A60     		str	r2, [r3]
 120:.\main.c      **** 			CutReg.CutStatus = StrokeStart;
 240              		.loc 1 120 0
 241 0084 1B4C     		ldr	r4, .L21
 242 0086 0025     		movs	r5, #0
 243 0088 2574     		strb	r5, [r4, #16]
 121:.\main.c      **** 			CutReg.ModeRunFlag = 0;
 244              		.loc 1 121 0
 245 008a 2575     		strb	r5, [r4, #20]
 246              	.LBB3:
 122:.\main.c      **** 
 123:.\main.c      ****             LED_WRITE(0x20);
 247              		.loc 1 123 0
 248 008c 2020     		movs	r0, #32
 249 008e 1D4B     		ldr	r3, .L21+16
 250 0090 1870     		strb	r0, [r3]
 251 0092 FFF7FEFF 		bl	LCD_DISPLAY
 252              	.LVL27:
 253              	.LBE3:
 124:.\main.c      ****           
 125:.\main.c      ****             
 126:.\main.c      ****             CutReg.Cnt = 0;
 254              		.loc 1 126 0
 255 0096 E581     		strh	r5, [r4, #14]	@ movhi
 127:.\main.c      **** 			CutReg.CutTimeStatus = VFast;   //结束  
 256              		.loc 1 127 0
 257 0098 6574     		strb	r5, [r4, #17]
 258 009a 0CE0     		b	.L14
 259              	.L13:
 128:.\main.c      **** 		}
 129:.\main.c      ****         
 130:.\main.c      **** 		else if((System_enable == Enter_Start || CutReg.OneWorkFinshState == One_Work_Runing)&& System_en
 260              		.loc 1 130 0
 261 009c 1A4B     		ldr	r3, .L21+20
 262 009e 1A78     		ldrb	r2, [r3]	@ zero_extendqisi2
 263 00a0 AA2A     		cmp	r2, #170
ARM GAS  C:\Users\PANXIA~1\AppData\Local\Temp\ccVTi51O.s 			page 8


 264 00a2 04D0     		beq	.L15
 265              		.loc 1 130 0 is_stmt 0 discriminator 2
 266 00a4 134B     		ldr	r3, .L21
 267 00a6 DB7D     		ldrb	r3, [r3, #23]	@ zero_extendqisi2
 268 00a8 DBB2     		uxtb	r3, r3
 269 00aa 112B     		cmp	r3, #17
 270 00ac 03D1     		bne	.L14
 271              	.L15:
 272              		.loc 1 130 0 discriminator 3
 273 00ae A02A     		cmp	r2, #160
 274 00b0 01D0     		beq	.L14
 131:.\main.c      **** 		{
 132:.\main.c      **** 			Stroke_Process();
 275              		.loc 1 132 0 is_stmt 1
 276 00b2 FFF7FEFF 		bl	Stroke_Process
 277              	.LVL28:
 278              	.L14:
 133:.\main.c      **** 		}
 134:.\main.c      ****         
 135:.\main.c      ****         if(System_enable == Enter_QUIT) //停止一切活动20160825*/
 279              		.loc 1 135 0
 280 00b6 144B     		ldr	r3, .L21+20
 281 00b8 1B78     		ldrb	r3, [r3]	@ zero_extendqisi2
 282 00ba A02B     		cmp	r3, #160
 283 00bc 08D1     		bne	.L16
 136:.\main.c      ****         {
 137:.\main.c      ****             ValveOut(CutReg.Action[VStop]); 
 284              		.loc 1 137 0
 285 00be 0D4C     		ldr	r4, .L21
 286 00c0 607B     		ldrb	r0, [r4, #13]	@ zero_extendqisi2
 287 00c2 FFF7FEFF 		bl	Control_Reg_1_Write
 288              	.LVL29:
 289 00c6 627B     		ldrb	r2, [r4, #13]	@ zero_extendqisi2
 290 00c8 0B4B     		ldr	r3, .L21+4
 291 00ca 1A70     		strb	r2, [r3]
 138:.\main.c      ****             CutReg.OneWorkFinshState = One_Work_Finish;
 292              		.loc 1 138 0
 293 00cc FF23     		movs	r3, #255
 294 00ce E375     		strb	r3, [r4, #23]
 295              	.L16:
 139:.\main.c      ****            
 140:.\main.c      ****         }
 141:.\main.c      ****         if(System_enable == Enter_return)/*20160825进入回复模式*/
 296              		.loc 1 141 0
 297 00d0 0D4B     		ldr	r3, .L21+20
 298 00d2 1B78     		ldrb	r3, [r3]	@ zero_extendqisi2
 299 00d4 882B     		cmp	r3, #136
 300 00d6 07D1     		bne	.L17
 142:.\main.c      ****         {
 143:.\main.c      ****            FootStart_state = 0x00;                   //不允许往下只能回到上止点
 301              		.loc 1 143 0
 302 00d8 0021     		movs	r1, #0
 303 00da 0C4A     		ldr	r2, .L21+24
 304 00dc 1170     		strb	r1, [r2]
 144:.\main.c      ****            CutReg.CutTimeStatus = VBack;
 305              		.loc 1 144 0
 306 00de 054A     		ldr	r2, .L21
ARM GAS  C:\Users\PANXIA~1\AppData\Local\Temp\ccVTi51O.s 			page 9


 307 00e0 0421     		movs	r1, #4
 308 00e2 5174     		strb	r1, [r2, #17]
 145:.\main.c      ****            CutReg.OneWorkFinshState = One_Work_Runing;
 309              		.loc 1 145 0
 310 00e4 1121     		movs	r1, #17
 311 00e6 D175     		strb	r1, [r2, #23]
 312              	.L17:
 146:.\main.c      ****         }
 147:.\main.c      ****         if(System_enable == Enter_Start)
 313              		.loc 1 147 0
 314 00e8 AA2B     		cmp	r3, #170
 315 00ea B5D1     		bne	.L18
 148:.\main.c      ****         {
 149:.\main.c      ****             FootStart_state = 0x01;
 316              		.loc 1 149 0
 317 00ec 0122     		movs	r2, #1
 318 00ee 074B     		ldr	r3, .L21+24
 319 00f0 1A70     		strb	r2, [r3]
 320 00f2 B1E7     		b	.L18
 321              	.L22:
 322              		.align	2
 323              	.L21:
 324 00f4 00000000 		.word	CutReg
 325 00f8 00000000 		.word	TPDO_OUT_Status
 326 00fc 00000000 		.word	config_para
 327 0100 00000000 		.word	ISR_Stroke_Timer_states
 328 0104 00000000 		.word	TPDO_PROCESS_Status
 329 0108 00000000 		.word	System_enable
 330 010c 00000000 		.word	FootStart_state
 331              		.cfi_endproc
 332              	.LFE64:
 333              		.size	main, .-main
 334              		.comm	Data,8,4
 335              		.comm	CAN_message,12,4
 336              		.comm	receiveData,8,4
 337              		.global	key_count
 338              		.bss
 339              		.type	key_count, %object
 340              		.size	key_count, 1
 341              	key_count:
 342 0000 00       		.space	1
 343              		.text
 344              	.Letext0:
 345              		.file 2 "c:\\program files (x86)\\cypress\\psoc creator\\3.3\\psoc creator\\import\\gnu\\arm\\4.9.
 346              		.file 3 "c:\\program files (x86)\\cypress\\psoc creator\\3.3\\psoc creator\\import\\gnu\\arm\\4.9.
 347              		.file 4 "Generated_Source\\PSoC5/cytypes.h"
 348              		.file 5 "Generated_Source\\PSoC5/CAN_1.h"
 349              		.file 6 ".\\Valve_Control.h"
 350              		.file 7 ".\\can.h"
 351              		.file 8 ".\\applicfg.h"
 352              		.file 9 ".\\TestSlave.h"
 353              		.file 10 ".\\canfestival.h"
 354              		.file 11 "Generated_Source\\PSoC5/core_cm3.h"
 355              		.file 12 ".\\TLC5616.h"
 356              		.file 13 "Generated_Source\\PSoC5/LCD_Char_1.h"
 357              		.file 14 ".\\CanopenDictConfig.h"
 358              		.file 15 "Generated_Source\\PSoC5/CyLib.h"
ARM GAS  C:\Users\PANXIA~1\AppData\Local\Temp\ccVTi51O.s 			page 10


 359              		.file 16 ".\\led.h"
 360              		.file 17 "Generated_Source\\PSoC5/Control_Reg_1.h"
 361              		.file 18 "Generated_Source\\PSoC5/Status_Reg_1.h"