ARM GAS  C:\Users\PANXIA~1\AppData\Local\Temp\cclnmT55.s 			page 1


   1              		.syntax unified
   2              		.cpu cortex-m3
   3              		.fpu softvfp
   4              		.eabi_attribute 20, 1
   5              		.eabi_attribute 21, 1
   6              		.eabi_attribute 23, 3
   7              		.eabi_attribute 24, 1
   8              		.eabi_attribute 25, 1
   9              		.eabi_attribute 26, 1
  10              		.eabi_attribute 30, 1
  11              		.eabi_attribute 34, 1
  12              		.eabi_attribute 18, 4
  13              		.thumb
  14              		.file	"RX_ISR.c"
  15              		.text
  16              	.Ltext0:
  17              		.cfi_sections	.debug_frame
  18              		.section	.text.RX_ISR_SetVector,"ax",%progbits
  19              		.align	2
  20              		.global	RX_ISR_SetVector
  21              		.thumb
  22              		.thumb_func
  23              		.type	RX_ISR_SetVector, %function
  24              	RX_ISR_SetVector:
  25              	.LFB67:
  26              		.file 1 ".\\Generated_Source\\PSoC5\\RX_ISR.c"
   1:.\Generated_Source\PSoC5/RX_ISR.c **** /*******************************************************************************
   2:.\Generated_Source\PSoC5/RX_ISR.c **** * File Name: RX_ISR.c  
   3:.\Generated_Source\PSoC5/RX_ISR.c **** * Version 1.70
   4:.\Generated_Source\PSoC5/RX_ISR.c **** *
   5:.\Generated_Source\PSoC5/RX_ISR.c **** *  Description:
   6:.\Generated_Source\PSoC5/RX_ISR.c **** *   API for controlling the state of an interrupt.
   7:.\Generated_Source\PSoC5/RX_ISR.c **** *
   8:.\Generated_Source\PSoC5/RX_ISR.c **** *
   9:.\Generated_Source\PSoC5/RX_ISR.c **** *  Note:
  10:.\Generated_Source\PSoC5/RX_ISR.c **** *
  11:.\Generated_Source\PSoC5/RX_ISR.c **** ********************************************************************************
  12:.\Generated_Source\PSoC5/RX_ISR.c **** * Copyright 2008-2015, Cypress Semiconductor Corporation.  All rights reserved.
  13:.\Generated_Source\PSoC5/RX_ISR.c **** * You may use this file only in accordance with the license, terms, conditions, 
  14:.\Generated_Source\PSoC5/RX_ISR.c **** * disclaimers, and limitations in the end user license agreement accompanying 
  15:.\Generated_Source\PSoC5/RX_ISR.c **** * the software package with which this file was provided.
  16:.\Generated_Source\PSoC5/RX_ISR.c **** *******************************************************************************/
  17:.\Generated_Source\PSoC5/RX_ISR.c **** 
  18:.\Generated_Source\PSoC5/RX_ISR.c **** 
  19:.\Generated_Source\PSoC5/RX_ISR.c **** #include <cydevice_trm.h>
  20:.\Generated_Source\PSoC5/RX_ISR.c **** #include <CyLib.h>
  21:.\Generated_Source\PSoC5/RX_ISR.c **** #include <RX_ISR.h>
  22:.\Generated_Source\PSoC5/RX_ISR.c **** #include "cyapicallbacks.h"
  23:.\Generated_Source\PSoC5/RX_ISR.c **** 
  24:.\Generated_Source\PSoC5/RX_ISR.c **** #if !defined(RX_ISR__REMOVED) /* Check for removal by optimization */
  25:.\Generated_Source\PSoC5/RX_ISR.c **** 
  26:.\Generated_Source\PSoC5/RX_ISR.c **** /*******************************************************************************
  27:.\Generated_Source\PSoC5/RX_ISR.c **** *  Place your includes, defines and code here 
  28:.\Generated_Source\PSoC5/RX_ISR.c **** ********************************************************************************/
  29:.\Generated_Source\PSoC5/RX_ISR.c **** /* `#START RX_ISR_intc` */
  30:.\Generated_Source\PSoC5/RX_ISR.c **** #include <project.h>
  31:.\Generated_Source\PSoC5/RX_ISR.c **** /* `#END` */
ARM GAS  C:\Users\PANXIA~1\AppData\Local\Temp\cclnmT55.s 			page 2


  32:.\Generated_Source\PSoC5/RX_ISR.c **** 
  33:.\Generated_Source\PSoC5/RX_ISR.c **** #ifndef CYINT_IRQ_BASE
  34:.\Generated_Source\PSoC5/RX_ISR.c **** #define CYINT_IRQ_BASE      16
  35:.\Generated_Source\PSoC5/RX_ISR.c **** #endif /* CYINT_IRQ_BASE */
  36:.\Generated_Source\PSoC5/RX_ISR.c **** #ifndef CYINT_VECT_TABLE
  37:.\Generated_Source\PSoC5/RX_ISR.c **** #define CYINT_VECT_TABLE    ((cyisraddress **) CYREG_NVIC_VECT_OFFSET)
  38:.\Generated_Source\PSoC5/RX_ISR.c **** #endif /* CYINT_VECT_TABLE */
  39:.\Generated_Source\PSoC5/RX_ISR.c **** 
  40:.\Generated_Source\PSoC5/RX_ISR.c **** /* Declared in startup, used to set unused interrupts to. */
  41:.\Generated_Source\PSoC5/RX_ISR.c **** CY_ISR_PROTO(IntDefaultHandler);
  42:.\Generated_Source\PSoC5/RX_ISR.c **** 
  43:.\Generated_Source\PSoC5/RX_ISR.c **** 
  44:.\Generated_Source\PSoC5/RX_ISR.c **** /*******************************************************************************
  45:.\Generated_Source\PSoC5/RX_ISR.c **** * Function Name: RX_ISR_Start
  46:.\Generated_Source\PSoC5/RX_ISR.c **** ********************************************************************************
  47:.\Generated_Source\PSoC5/RX_ISR.c **** *
  48:.\Generated_Source\PSoC5/RX_ISR.c **** * Summary:
  49:.\Generated_Source\PSoC5/RX_ISR.c **** *  Set up the interrupt and enable it. This function disables the interrupt, 
  50:.\Generated_Source\PSoC5/RX_ISR.c **** *  sets the default interrupt vector, sets the priority from the value in the
  51:.\Generated_Source\PSoC5/RX_ISR.c **** *  Design Wide Resources Interrupt Editor, then enables the interrupt to the 
  52:.\Generated_Source\PSoC5/RX_ISR.c **** *  interrupt controller.
  53:.\Generated_Source\PSoC5/RX_ISR.c **** *
  54:.\Generated_Source\PSoC5/RX_ISR.c **** * Parameters:  
  55:.\Generated_Source\PSoC5/RX_ISR.c **** *   None
  56:.\Generated_Source\PSoC5/RX_ISR.c **** *
  57:.\Generated_Source\PSoC5/RX_ISR.c **** * Return:
  58:.\Generated_Source\PSoC5/RX_ISR.c **** *   None
  59:.\Generated_Source\PSoC5/RX_ISR.c **** *
  60:.\Generated_Source\PSoC5/RX_ISR.c **** *******************************************************************************/
  61:.\Generated_Source\PSoC5/RX_ISR.c **** void RX_ISR_Start(void)
  62:.\Generated_Source\PSoC5/RX_ISR.c **** {
  63:.\Generated_Source\PSoC5/RX_ISR.c ****     /* For all we know the interrupt is active. */
  64:.\Generated_Source\PSoC5/RX_ISR.c ****     RX_ISR_Disable();
  65:.\Generated_Source\PSoC5/RX_ISR.c **** 
  66:.\Generated_Source\PSoC5/RX_ISR.c ****     /* Set the ISR to point to the RX_ISR Interrupt. */
  67:.\Generated_Source\PSoC5/RX_ISR.c ****     RX_ISR_SetVector(&RX_ISR_Interrupt);
  68:.\Generated_Source\PSoC5/RX_ISR.c **** 
  69:.\Generated_Source\PSoC5/RX_ISR.c ****     /* Set the priority. */
  70:.\Generated_Source\PSoC5/RX_ISR.c ****     RX_ISR_SetPriority((uint8)RX_ISR_INTC_PRIOR_NUMBER);
  71:.\Generated_Source\PSoC5/RX_ISR.c **** 
  72:.\Generated_Source\PSoC5/RX_ISR.c ****     /* Enable it. */
  73:.\Generated_Source\PSoC5/RX_ISR.c ****     RX_ISR_Enable();
  74:.\Generated_Source\PSoC5/RX_ISR.c **** }
  75:.\Generated_Source\PSoC5/RX_ISR.c **** 
  76:.\Generated_Source\PSoC5/RX_ISR.c **** 
  77:.\Generated_Source\PSoC5/RX_ISR.c **** /*******************************************************************************
  78:.\Generated_Source\PSoC5/RX_ISR.c **** * Function Name: RX_ISR_StartEx
  79:.\Generated_Source\PSoC5/RX_ISR.c **** ********************************************************************************
  80:.\Generated_Source\PSoC5/RX_ISR.c **** *
  81:.\Generated_Source\PSoC5/RX_ISR.c **** * Summary:
  82:.\Generated_Source\PSoC5/RX_ISR.c **** *  Sets up the interrupt and enables it. This function disables the interrupt,
  83:.\Generated_Source\PSoC5/RX_ISR.c **** *  sets the interrupt vector based on the address passed in, sets the priority 
  84:.\Generated_Source\PSoC5/RX_ISR.c **** *  from the value in the Design Wide Resources Interrupt Editor, then enables 
  85:.\Generated_Source\PSoC5/RX_ISR.c **** *  the interrupt to the interrupt controller.
  86:.\Generated_Source\PSoC5/RX_ISR.c **** *  
  87:.\Generated_Source\PSoC5/RX_ISR.c **** *  When defining ISR functions, the CY_ISR and CY_ISR_PROTO macros should be 
  88:.\Generated_Source\PSoC5/RX_ISR.c **** *  used to provide consistent definition across compilers:
ARM GAS  C:\Users\PANXIA~1\AppData\Local\Temp\cclnmT55.s 			page 3


  89:.\Generated_Source\PSoC5/RX_ISR.c **** *  
  90:.\Generated_Source\PSoC5/RX_ISR.c **** *  Function definition example:
  91:.\Generated_Source\PSoC5/RX_ISR.c **** *   CY_ISR(MyISR)
  92:.\Generated_Source\PSoC5/RX_ISR.c **** *   {
  93:.\Generated_Source\PSoC5/RX_ISR.c **** *   }
  94:.\Generated_Source\PSoC5/RX_ISR.c **** *   Function prototype example:
  95:.\Generated_Source\PSoC5/RX_ISR.c **** *   CY_ISR_PROTO(MyISR);
  96:.\Generated_Source\PSoC5/RX_ISR.c **** *
  97:.\Generated_Source\PSoC5/RX_ISR.c **** * Parameters:  
  98:.\Generated_Source\PSoC5/RX_ISR.c **** *   address: Address of the ISR to set in the interrupt vector table.
  99:.\Generated_Source\PSoC5/RX_ISR.c **** *
 100:.\Generated_Source\PSoC5/RX_ISR.c **** * Return:
 101:.\Generated_Source\PSoC5/RX_ISR.c **** *   None
 102:.\Generated_Source\PSoC5/RX_ISR.c **** *
 103:.\Generated_Source\PSoC5/RX_ISR.c **** *******************************************************************************/
 104:.\Generated_Source\PSoC5/RX_ISR.c **** void RX_ISR_StartEx(cyisraddress address)
 105:.\Generated_Source\PSoC5/RX_ISR.c **** {
 106:.\Generated_Source\PSoC5/RX_ISR.c ****     /* For all we know the interrupt is active. */
 107:.\Generated_Source\PSoC5/RX_ISR.c ****     RX_ISR_Disable();
 108:.\Generated_Source\PSoC5/RX_ISR.c **** 
 109:.\Generated_Source\PSoC5/RX_ISR.c ****     /* Set the ISR to point to the RX_ISR Interrupt. */
 110:.\Generated_Source\PSoC5/RX_ISR.c ****     RX_ISR_SetVector(address);
 111:.\Generated_Source\PSoC5/RX_ISR.c **** 
 112:.\Generated_Source\PSoC5/RX_ISR.c ****     /* Set the priority. */
 113:.\Generated_Source\PSoC5/RX_ISR.c ****     RX_ISR_SetPriority((uint8)RX_ISR_INTC_PRIOR_NUMBER);
 114:.\Generated_Source\PSoC5/RX_ISR.c **** 
 115:.\Generated_Source\PSoC5/RX_ISR.c ****     /* Enable it. */
 116:.\Generated_Source\PSoC5/RX_ISR.c ****     RX_ISR_Enable();
 117:.\Generated_Source\PSoC5/RX_ISR.c **** }
 118:.\Generated_Source\PSoC5/RX_ISR.c **** 
 119:.\Generated_Source\PSoC5/RX_ISR.c **** 
 120:.\Generated_Source\PSoC5/RX_ISR.c **** /*******************************************************************************
 121:.\Generated_Source\PSoC5/RX_ISR.c **** * Function Name: RX_ISR_Stop
 122:.\Generated_Source\PSoC5/RX_ISR.c **** ********************************************************************************
 123:.\Generated_Source\PSoC5/RX_ISR.c **** *
 124:.\Generated_Source\PSoC5/RX_ISR.c **** * Summary:
 125:.\Generated_Source\PSoC5/RX_ISR.c **** *   Disables and removes the interrupt.
 126:.\Generated_Source\PSoC5/RX_ISR.c **** *
 127:.\Generated_Source\PSoC5/RX_ISR.c **** * Parameters:  
 128:.\Generated_Source\PSoC5/RX_ISR.c **** *   None
 129:.\Generated_Source\PSoC5/RX_ISR.c **** *
 130:.\Generated_Source\PSoC5/RX_ISR.c **** * Return:
 131:.\Generated_Source\PSoC5/RX_ISR.c **** *   None
 132:.\Generated_Source\PSoC5/RX_ISR.c **** *
 133:.\Generated_Source\PSoC5/RX_ISR.c **** *******************************************************************************/
 134:.\Generated_Source\PSoC5/RX_ISR.c **** void RX_ISR_Stop(void)
 135:.\Generated_Source\PSoC5/RX_ISR.c **** {
 136:.\Generated_Source\PSoC5/RX_ISR.c ****     /* Disable this interrupt. */
 137:.\Generated_Source\PSoC5/RX_ISR.c ****     RX_ISR_Disable();
 138:.\Generated_Source\PSoC5/RX_ISR.c **** 
 139:.\Generated_Source\PSoC5/RX_ISR.c ****     /* Set the ISR to point to the passive one. */
 140:.\Generated_Source\PSoC5/RX_ISR.c ****     RX_ISR_SetVector(&IntDefaultHandler);
 141:.\Generated_Source\PSoC5/RX_ISR.c **** }
 142:.\Generated_Source\PSoC5/RX_ISR.c **** 
 143:.\Generated_Source\PSoC5/RX_ISR.c **** 
 144:.\Generated_Source\PSoC5/RX_ISR.c **** /*******************************************************************************
 145:.\Generated_Source\PSoC5/RX_ISR.c **** * Function Name: RX_ISR_Interrupt
ARM GAS  C:\Users\PANXIA~1\AppData\Local\Temp\cclnmT55.s 			page 4


 146:.\Generated_Source\PSoC5/RX_ISR.c **** ********************************************************************************
 147:.\Generated_Source\PSoC5/RX_ISR.c **** *
 148:.\Generated_Source\PSoC5/RX_ISR.c **** * Summary:
 149:.\Generated_Source\PSoC5/RX_ISR.c **** *   The default Interrupt Service Routine for RX_ISR.
 150:.\Generated_Source\PSoC5/RX_ISR.c **** *
 151:.\Generated_Source\PSoC5/RX_ISR.c **** *   Add custom code between the coments to keep the next version of this file
 152:.\Generated_Source\PSoC5/RX_ISR.c **** *   from over writting your code.
 153:.\Generated_Source\PSoC5/RX_ISR.c **** *
 154:.\Generated_Source\PSoC5/RX_ISR.c **** * Parameters:  
 155:.\Generated_Source\PSoC5/RX_ISR.c **** *
 156:.\Generated_Source\PSoC5/RX_ISR.c **** * Return:
 157:.\Generated_Source\PSoC5/RX_ISR.c **** *   None
 158:.\Generated_Source\PSoC5/RX_ISR.c **** *
 159:.\Generated_Source\PSoC5/RX_ISR.c **** *******************************************************************************/
 160:.\Generated_Source\PSoC5/RX_ISR.c **** CY_ISR(RX_ISR_Interrupt)
 161:.\Generated_Source\PSoC5/RX_ISR.c **** {
 162:.\Generated_Source\PSoC5/RX_ISR.c ****     #ifdef RX_ISR_INTERRUPT_INTERRUPT_CALLBACK
 163:.\Generated_Source\PSoC5/RX_ISR.c ****         RX_ISR_Interrupt_InterruptCallback();
 164:.\Generated_Source\PSoC5/RX_ISR.c ****     #endif /* RX_ISR_INTERRUPT_INTERRUPT_CALLBACK */ 
 165:.\Generated_Source\PSoC5/RX_ISR.c **** 
 166:.\Generated_Source\PSoC5/RX_ISR.c ****     /*  Place your Interrupt code here. */
 167:.\Generated_Source\PSoC5/RX_ISR.c ****     /* `#START RX_ISR_Interrupt` */
 168:.\Generated_Source\PSoC5/RX_ISR.c ****     uint8 ch[20]={0};
 169:.\Generated_Source\PSoC5/RX_ISR.c ****     uint8 i;
 170:.\Generated_Source\PSoC5/RX_ISR.c ****         if(UART_1_GetRxBufferSize()>0 && UART_1_GetRxBufferSize()<=sizeof(ch))
 171:.\Generated_Source\PSoC5/RX_ISR.c ****         {
 172:.\Generated_Source\PSoC5/RX_ISR.c ****             for(i=0;i<UART_1_GetRxBufferSize();i++)
 173:.\Generated_Source\PSoC5/RX_ISR.c ****             {
 174:.\Generated_Source\PSoC5/RX_ISR.c ****                 ch[i]=UART_1_ReadRxData();
 175:.\Generated_Source\PSoC5/RX_ISR.c ****             }
 176:.\Generated_Source\PSoC5/RX_ISR.c ****         }
 177:.\Generated_Source\PSoC5/RX_ISR.c ****     UART_1_PutArray(ch,sizeof(UART_1_GetRxBufferSize()));
 178:.\Generated_Source\PSoC5/RX_ISR.c ****     
 179:.\Generated_Source\PSoC5/RX_ISR.c ****     UART_1_ClearRxBuffer();
 180:.\Generated_Source\PSoC5/RX_ISR.c ****     
 181:.\Generated_Source\PSoC5/RX_ISR.c ****     RX_ISR_ClearPending();
 182:.\Generated_Source\PSoC5/RX_ISR.c ****     /* `#END` */
 183:.\Generated_Source\PSoC5/RX_ISR.c **** }
 184:.\Generated_Source\PSoC5/RX_ISR.c **** 
 185:.\Generated_Source\PSoC5/RX_ISR.c **** 
 186:.\Generated_Source\PSoC5/RX_ISR.c **** /*******************************************************************************
 187:.\Generated_Source\PSoC5/RX_ISR.c **** * Function Name: RX_ISR_SetVector
 188:.\Generated_Source\PSoC5/RX_ISR.c **** ********************************************************************************
 189:.\Generated_Source\PSoC5/RX_ISR.c **** *
 190:.\Generated_Source\PSoC5/RX_ISR.c **** * Summary:
 191:.\Generated_Source\PSoC5/RX_ISR.c **** *   Change the ISR vector for the Interrupt. Note calling RX_ISR_Start
 192:.\Generated_Source\PSoC5/RX_ISR.c **** *   will override any effect this method would have had. To set the vector 
 193:.\Generated_Source\PSoC5/RX_ISR.c **** *   before the component has been started use RX_ISR_StartEx instead.
 194:.\Generated_Source\PSoC5/RX_ISR.c **** * 
 195:.\Generated_Source\PSoC5/RX_ISR.c **** *   When defining ISR functions, the CY_ISR and CY_ISR_PROTO macros should be 
 196:.\Generated_Source\PSoC5/RX_ISR.c **** *   used to provide consistent definition across compilers:
 197:.\Generated_Source\PSoC5/RX_ISR.c **** *
 198:.\Generated_Source\PSoC5/RX_ISR.c **** *   Function definition example:
 199:.\Generated_Source\PSoC5/RX_ISR.c **** *   CY_ISR(MyISR)
 200:.\Generated_Source\PSoC5/RX_ISR.c **** *   {
 201:.\Generated_Source\PSoC5/RX_ISR.c **** *   }
 202:.\Generated_Source\PSoC5/RX_ISR.c **** *
ARM GAS  C:\Users\PANXIA~1\AppData\Local\Temp\cclnmT55.s 			page 5


 203:.\Generated_Source\PSoC5/RX_ISR.c **** *   Function prototype example:
 204:.\Generated_Source\PSoC5/RX_ISR.c **** *     CY_ISR_PROTO(MyISR);
 205:.\Generated_Source\PSoC5/RX_ISR.c **** *
 206:.\Generated_Source\PSoC5/RX_ISR.c **** * Parameters:
 207:.\Generated_Source\PSoC5/RX_ISR.c **** *   address: Address of the ISR to set in the interrupt vector table.
 208:.\Generated_Source\PSoC5/RX_ISR.c **** *
 209:.\Generated_Source\PSoC5/RX_ISR.c **** * Return:
 210:.\Generated_Source\PSoC5/RX_ISR.c **** *   None
 211:.\Generated_Source\PSoC5/RX_ISR.c **** *
 212:.\Generated_Source\PSoC5/RX_ISR.c **** *******************************************************************************/
 213:.\Generated_Source\PSoC5/RX_ISR.c **** void RX_ISR_SetVector(cyisraddress address)
 214:.\Generated_Source\PSoC5/RX_ISR.c **** {
  27              		.loc 1 214 0
  28              		.cfi_startproc
  29              		@ args = 0, pretend = 0, frame = 0
  30              		@ frame_needed = 0, uses_anonymous_args = 0
  31              		@ link register save eliminated.
  32              	.LVL0:
 215:.\Generated_Source\PSoC5/RX_ISR.c ****     cyisraddress * ramVectorTable;
 216:.\Generated_Source\PSoC5/RX_ISR.c **** 
 217:.\Generated_Source\PSoC5/RX_ISR.c ****     ramVectorTable = (cyisraddress *) *CYINT_VECT_TABLE;
  33              		.loc 1 217 0
  34 0000 014B     		ldr	r3, .L2
  35 0002 1B68     		ldr	r3, [r3]
  36              	.LVL1:
 218:.\Generated_Source\PSoC5/RX_ISR.c **** 
 219:.\Generated_Source\PSoC5/RX_ISR.c ****     ramVectorTable[CYINT_IRQ_BASE + (uint32)RX_ISR__INTC_NUMBER] = address;
  37              		.loc 1 219 0
  38 0004 5864     		str	r0, [r3, #68]
  39 0006 7047     		bx	lr
  40              	.L3:
  41              		.align	2
  42              	.L2:
  43 0008 08ED00E0 		.word	-536810232
  44              		.cfi_endproc
  45              	.LFE67:
  46              		.size	RX_ISR_SetVector, .-RX_ISR_SetVector
  47              		.section	.text.RX_ISR_GetVector,"ax",%progbits
  48              		.align	2
  49              		.global	RX_ISR_GetVector
  50              		.thumb
  51              		.thumb_func
  52              		.type	RX_ISR_GetVector, %function
  53              	RX_ISR_GetVector:
  54              	.LFB68:
 220:.\Generated_Source\PSoC5/RX_ISR.c **** }
 221:.\Generated_Source\PSoC5/RX_ISR.c **** 
 222:.\Generated_Source\PSoC5/RX_ISR.c **** 
 223:.\Generated_Source\PSoC5/RX_ISR.c **** /*******************************************************************************
 224:.\Generated_Source\PSoC5/RX_ISR.c **** * Function Name: RX_ISR_GetVector
 225:.\Generated_Source\PSoC5/RX_ISR.c **** ********************************************************************************
 226:.\Generated_Source\PSoC5/RX_ISR.c **** *
 227:.\Generated_Source\PSoC5/RX_ISR.c **** * Summary:
 228:.\Generated_Source\PSoC5/RX_ISR.c **** *   Gets the "address" of the current ISR vector for the Interrupt.
 229:.\Generated_Source\PSoC5/RX_ISR.c **** *
 230:.\Generated_Source\PSoC5/RX_ISR.c **** * Parameters:
 231:.\Generated_Source\PSoC5/RX_ISR.c **** *   None
ARM GAS  C:\Users\PANXIA~1\AppData\Local\Temp\cclnmT55.s 			page 6


 232:.\Generated_Source\PSoC5/RX_ISR.c **** *
 233:.\Generated_Source\PSoC5/RX_ISR.c **** * Return:
 234:.\Generated_Source\PSoC5/RX_ISR.c **** *   Address of the ISR in the interrupt vector table.
 235:.\Generated_Source\PSoC5/RX_ISR.c **** *
 236:.\Generated_Source\PSoC5/RX_ISR.c **** *******************************************************************************/
 237:.\Generated_Source\PSoC5/RX_ISR.c **** cyisraddress RX_ISR_GetVector(void)
 238:.\Generated_Source\PSoC5/RX_ISR.c **** {
  55              		.loc 1 238 0
  56              		.cfi_startproc
  57              		@ args = 0, pretend = 0, frame = 0
  58              		@ frame_needed = 0, uses_anonymous_args = 0
  59              		@ link register save eliminated.
 239:.\Generated_Source\PSoC5/RX_ISR.c ****     cyisraddress * ramVectorTable;
 240:.\Generated_Source\PSoC5/RX_ISR.c **** 
 241:.\Generated_Source\PSoC5/RX_ISR.c ****     ramVectorTable = (cyisraddress *) *CYINT_VECT_TABLE;
  60              		.loc 1 241 0
  61 0000 014B     		ldr	r3, .L5
  62 0002 1B68     		ldr	r3, [r3]
  63              	.LVL2:
 242:.\Generated_Source\PSoC5/RX_ISR.c **** 
 243:.\Generated_Source\PSoC5/RX_ISR.c ****     return ramVectorTable[CYINT_IRQ_BASE + (uint32)RX_ISR__INTC_NUMBER];
 244:.\Generated_Source\PSoC5/RX_ISR.c **** }
  64              		.loc 1 244 0
  65 0004 586C     		ldr	r0, [r3, #68]
  66 0006 7047     		bx	lr
  67              	.L6:
  68              		.align	2
  69              	.L5:
  70 0008 08ED00E0 		.word	-536810232
  71              		.cfi_endproc
  72              	.LFE68:
  73              		.size	RX_ISR_GetVector, .-RX_ISR_GetVector
  74              		.section	.text.RX_ISR_SetPriority,"ax",%progbits
  75              		.align	2
  76              		.global	RX_ISR_SetPriority
  77              		.thumb
  78              		.thumb_func
  79              		.type	RX_ISR_SetPriority, %function
  80              	RX_ISR_SetPriority:
  81              	.LFB69:
 245:.\Generated_Source\PSoC5/RX_ISR.c **** 
 246:.\Generated_Source\PSoC5/RX_ISR.c **** 
 247:.\Generated_Source\PSoC5/RX_ISR.c **** /*******************************************************************************
 248:.\Generated_Source\PSoC5/RX_ISR.c **** * Function Name: RX_ISR_SetPriority
 249:.\Generated_Source\PSoC5/RX_ISR.c **** ********************************************************************************
 250:.\Generated_Source\PSoC5/RX_ISR.c **** *
 251:.\Generated_Source\PSoC5/RX_ISR.c **** * Summary:
 252:.\Generated_Source\PSoC5/RX_ISR.c **** *   Sets the Priority of the Interrupt. 
 253:.\Generated_Source\PSoC5/RX_ISR.c **** *
 254:.\Generated_Source\PSoC5/RX_ISR.c **** *   Note calling RX_ISR_Start or RX_ISR_StartEx will 
 255:.\Generated_Source\PSoC5/RX_ISR.c **** *   override any effect this API would have had. This API should only be called
 256:.\Generated_Source\PSoC5/RX_ISR.c **** *   after RX_ISR_Start or RX_ISR_StartEx has been called. 
 257:.\Generated_Source\PSoC5/RX_ISR.c **** *   To set the initial priority for the component, use the Design-Wide Resources
 258:.\Generated_Source\PSoC5/RX_ISR.c **** *   Interrupt Editor.
 259:.\Generated_Source\PSoC5/RX_ISR.c **** *
 260:.\Generated_Source\PSoC5/RX_ISR.c **** *   Note This API has no effect on Non-maskable interrupt NMI).
 261:.\Generated_Source\PSoC5/RX_ISR.c **** *
ARM GAS  C:\Users\PANXIA~1\AppData\Local\Temp\cclnmT55.s 			page 7


 262:.\Generated_Source\PSoC5/RX_ISR.c **** * Parameters:
 263:.\Generated_Source\PSoC5/RX_ISR.c **** *   priority: Priority of the interrupt, 0 being the highest priority
 264:.\Generated_Source\PSoC5/RX_ISR.c **** *             PSoC 3 and PSoC 5LP: Priority is from 0 to 7.
 265:.\Generated_Source\PSoC5/RX_ISR.c **** *             PSoC 4: Priority is from 0 to 3.
 266:.\Generated_Source\PSoC5/RX_ISR.c **** *
 267:.\Generated_Source\PSoC5/RX_ISR.c **** * Return:
 268:.\Generated_Source\PSoC5/RX_ISR.c **** *   None
 269:.\Generated_Source\PSoC5/RX_ISR.c **** *
 270:.\Generated_Source\PSoC5/RX_ISR.c **** *******************************************************************************/
 271:.\Generated_Source\PSoC5/RX_ISR.c **** void RX_ISR_SetPriority(uint8 priority)
 272:.\Generated_Source\PSoC5/RX_ISR.c **** {
  82              		.loc 1 272 0
  83              		.cfi_startproc
  84              		@ args = 0, pretend = 0, frame = 0
  85              		@ frame_needed = 0, uses_anonymous_args = 0
  86              		@ link register save eliminated.
  87              	.LVL3:
 273:.\Generated_Source\PSoC5/RX_ISR.c ****     *RX_ISR_INTC_PRIOR = priority << 5;
  88              		.loc 1 273 0
  89 0000 4001     		lsls	r0, r0, #5
  90              	.LVL4:
  91 0002 C0B2     		uxtb	r0, r0
  92 0004 014B     		ldr	r3, .L8
  93 0006 1870     		strb	r0, [r3]
  94 0008 7047     		bx	lr
  95              	.L9:
  96 000a 00BF     		.align	2
  97              	.L8:
  98 000c 01E400E0 		.word	-536812543
  99              		.cfi_endproc
 100              	.LFE69:
 101              		.size	RX_ISR_SetPriority, .-RX_ISR_SetPriority
 102              		.section	.text.RX_ISR_GetPriority,"ax",%progbits
 103              		.align	2
 104              		.global	RX_ISR_GetPriority
 105              		.thumb
 106              		.thumb_func
 107              		.type	RX_ISR_GetPriority, %function
 108              	RX_ISR_GetPriority:
 109              	.LFB70:
 274:.\Generated_Source\PSoC5/RX_ISR.c **** }
 275:.\Generated_Source\PSoC5/RX_ISR.c **** 
 276:.\Generated_Source\PSoC5/RX_ISR.c **** 
 277:.\Generated_Source\PSoC5/RX_ISR.c **** /*******************************************************************************
 278:.\Generated_Source\PSoC5/RX_ISR.c **** * Function Name: RX_ISR_GetPriority
 279:.\Generated_Source\PSoC5/RX_ISR.c **** ********************************************************************************
 280:.\Generated_Source\PSoC5/RX_ISR.c **** *
 281:.\Generated_Source\PSoC5/RX_ISR.c **** * Summary:
 282:.\Generated_Source\PSoC5/RX_ISR.c **** *   Gets the Priority of the Interrupt.
 283:.\Generated_Source\PSoC5/RX_ISR.c **** *
 284:.\Generated_Source\PSoC5/RX_ISR.c **** * Parameters:
 285:.\Generated_Source\PSoC5/RX_ISR.c **** *   None
 286:.\Generated_Source\PSoC5/RX_ISR.c **** *
 287:.\Generated_Source\PSoC5/RX_ISR.c **** * Return:
 288:.\Generated_Source\PSoC5/RX_ISR.c **** *   Priority of the interrupt, 0 being the highest priority
 289:.\Generated_Source\PSoC5/RX_ISR.c **** *    PSoC 3 and PSoC 5LP: Priority is from 0 to 7.
 290:.\Generated_Source\PSoC5/RX_ISR.c **** *    PSoC 4: Priority is from 0 to 3.
ARM GAS  C:\Users\PANXIA~1\AppData\Local\Temp\cclnmT55.s 			page 8


 291:.\Generated_Source\PSoC5/RX_ISR.c **** *
 292:.\Generated_Source\PSoC5/RX_ISR.c **** *******************************************************************************/
 293:.\Generated_Source\PSoC5/RX_ISR.c **** uint8 RX_ISR_GetPriority(void)
 294:.\Generated_Source\PSoC5/RX_ISR.c **** {
 110              		.loc 1 294 0
 111              		.cfi_startproc
 112              		@ args = 0, pretend = 0, frame = 0
 113              		@ frame_needed = 0, uses_anonymous_args = 0
 114              		@ link register save eliminated.
 295:.\Generated_Source\PSoC5/RX_ISR.c ****     uint8 priority;
 296:.\Generated_Source\PSoC5/RX_ISR.c **** 
 297:.\Generated_Source\PSoC5/RX_ISR.c **** 
 298:.\Generated_Source\PSoC5/RX_ISR.c ****     priority = *RX_ISR_INTC_PRIOR >> 5;
 115              		.loc 1 298 0
 116 0000 014B     		ldr	r3, .L11
 117 0002 1878     		ldrb	r0, [r3]	@ zero_extendqisi2
 118              	.LVL5:
 299:.\Generated_Source\PSoC5/RX_ISR.c **** 
 300:.\Generated_Source\PSoC5/RX_ISR.c ****     return priority;
 301:.\Generated_Source\PSoC5/RX_ISR.c **** }
 119              		.loc 1 301 0
 120 0004 4009     		lsrs	r0, r0, #5
 121              	.LVL6:
 122 0006 7047     		bx	lr
 123              	.L12:
 124              		.align	2
 125              	.L11:
 126 0008 01E400E0 		.word	-536812543
 127              		.cfi_endproc
 128              	.LFE70:
 129              		.size	RX_ISR_GetPriority, .-RX_ISR_GetPriority
 130              		.section	.text.RX_ISR_Enable,"ax",%progbits
 131              		.align	2
 132              		.global	RX_ISR_Enable
 133              		.thumb
 134              		.thumb_func
 135              		.type	RX_ISR_Enable, %function
 136              	RX_ISR_Enable:
 137              	.LFB71:
 302:.\Generated_Source\PSoC5/RX_ISR.c **** 
 303:.\Generated_Source\PSoC5/RX_ISR.c **** 
 304:.\Generated_Source\PSoC5/RX_ISR.c **** /*******************************************************************************
 305:.\Generated_Source\PSoC5/RX_ISR.c **** * Function Name: RX_ISR_Enable
 306:.\Generated_Source\PSoC5/RX_ISR.c **** ********************************************************************************
 307:.\Generated_Source\PSoC5/RX_ISR.c **** *
 308:.\Generated_Source\PSoC5/RX_ISR.c **** * Summary:
 309:.\Generated_Source\PSoC5/RX_ISR.c **** *   Enables the interrupt to the interrupt controller. Do not call this function
 310:.\Generated_Source\PSoC5/RX_ISR.c **** *   unless ISR_Start() has been called or the functionality of the ISR_Start() 
 311:.\Generated_Source\PSoC5/RX_ISR.c **** *   function, which sets the vector and the priority, has been called.
 312:.\Generated_Source\PSoC5/RX_ISR.c **** *
 313:.\Generated_Source\PSoC5/RX_ISR.c **** * Parameters:
 314:.\Generated_Source\PSoC5/RX_ISR.c **** *   None
 315:.\Generated_Source\PSoC5/RX_ISR.c **** *
 316:.\Generated_Source\PSoC5/RX_ISR.c **** * Return:
 317:.\Generated_Source\PSoC5/RX_ISR.c **** *   None
 318:.\Generated_Source\PSoC5/RX_ISR.c **** *
 319:.\Generated_Source\PSoC5/RX_ISR.c **** *******************************************************************************/
ARM GAS  C:\Users\PANXIA~1\AppData\Local\Temp\cclnmT55.s 			page 9


 320:.\Generated_Source\PSoC5/RX_ISR.c **** void RX_ISR_Enable(void)
 321:.\Generated_Source\PSoC5/RX_ISR.c **** {
 138              		.loc 1 321 0
 139              		.cfi_startproc
 140              		@ args = 0, pretend = 0, frame = 0
 141              		@ frame_needed = 0, uses_anonymous_args = 0
 142              		@ link register save eliminated.
 322:.\Generated_Source\PSoC5/RX_ISR.c ****     /* Enable the general interrupt. */
 323:.\Generated_Source\PSoC5/RX_ISR.c ****     *RX_ISR_INTC_SET_EN = RX_ISR__INTC_MASK;
 143              		.loc 1 323 0
 144 0000 0222     		movs	r2, #2
 145 0002 014B     		ldr	r3, .L14
 146 0004 1A60     		str	r2, [r3]
 147 0006 7047     		bx	lr
 148              	.L15:
 149              		.align	2
 150              	.L14:
 151 0008 00E100E0 		.word	-536813312
 152              		.cfi_endproc
 153              	.LFE71:
 154              		.size	RX_ISR_Enable, .-RX_ISR_Enable
 155              		.section	.text.RX_ISR_GetState,"ax",%progbits
 156              		.align	2
 157              		.global	RX_ISR_GetState
 158              		.thumb
 159              		.thumb_func
 160              		.type	RX_ISR_GetState, %function
 161              	RX_ISR_GetState:
 162              	.LFB72:
 324:.\Generated_Source\PSoC5/RX_ISR.c **** }
 325:.\Generated_Source\PSoC5/RX_ISR.c **** 
 326:.\Generated_Source\PSoC5/RX_ISR.c **** 
 327:.\Generated_Source\PSoC5/RX_ISR.c **** /*******************************************************************************
 328:.\Generated_Source\PSoC5/RX_ISR.c **** * Function Name: RX_ISR_GetState
 329:.\Generated_Source\PSoC5/RX_ISR.c **** ********************************************************************************
 330:.\Generated_Source\PSoC5/RX_ISR.c **** *
 331:.\Generated_Source\PSoC5/RX_ISR.c **** * Summary:
 332:.\Generated_Source\PSoC5/RX_ISR.c **** *   Gets the state (enabled, disabled) of the Interrupt.
 333:.\Generated_Source\PSoC5/RX_ISR.c **** *
 334:.\Generated_Source\PSoC5/RX_ISR.c **** * Parameters:
 335:.\Generated_Source\PSoC5/RX_ISR.c **** *   None
 336:.\Generated_Source\PSoC5/RX_ISR.c **** *
 337:.\Generated_Source\PSoC5/RX_ISR.c **** * Return:
 338:.\Generated_Source\PSoC5/RX_ISR.c **** *   1 if enabled, 0 if disabled.
 339:.\Generated_Source\PSoC5/RX_ISR.c **** *
 340:.\Generated_Source\PSoC5/RX_ISR.c **** *******************************************************************************/
 341:.\Generated_Source\PSoC5/RX_ISR.c **** uint8 RX_ISR_GetState(void)
 342:.\Generated_Source\PSoC5/RX_ISR.c **** {
 163              		.loc 1 342 0
 164              		.cfi_startproc
 165              		@ args = 0, pretend = 0, frame = 0
 166              		@ frame_needed = 0, uses_anonymous_args = 0
 167              		@ link register save eliminated.
 343:.\Generated_Source\PSoC5/RX_ISR.c ****     /* Get the state of the general interrupt. */
 344:.\Generated_Source\PSoC5/RX_ISR.c ****     return ((*RX_ISR_INTC_SET_EN & (uint32)RX_ISR__INTC_MASK) != 0u) ? 1u:0u;
 168              		.loc 1 344 0
 169 0000 044B     		ldr	r3, .L19
ARM GAS  C:\Users\PANXIA~1\AppData\Local\Temp\cclnmT55.s 			page 10


 170 0002 1B68     		ldr	r3, [r3]
 171 0004 13F0020F 		tst	r3, #2
 172 0008 01D0     		beq	.L18
 173 000a 0120     		movs	r0, #1
 174 000c 7047     		bx	lr
 175              	.L18:
 176 000e 0020     		movs	r0, #0
 345:.\Generated_Source\PSoC5/RX_ISR.c **** }
 177              		.loc 1 345 0
 178 0010 7047     		bx	lr
 179              	.L20:
 180 0012 00BF     		.align	2
 181              	.L19:
 182 0014 00E100E0 		.word	-536813312
 183              		.cfi_endproc
 184              	.LFE72:
 185              		.size	RX_ISR_GetState, .-RX_ISR_GetState
 186              		.section	.text.RX_ISR_Disable,"ax",%progbits
 187              		.align	2
 188              		.global	RX_ISR_Disable
 189              		.thumb
 190              		.thumb_func
 191              		.type	RX_ISR_Disable, %function
 192              	RX_ISR_Disable:
 193              	.LFB73:
 346:.\Generated_Source\PSoC5/RX_ISR.c **** 
 347:.\Generated_Source\PSoC5/RX_ISR.c **** 
 348:.\Generated_Source\PSoC5/RX_ISR.c **** /*******************************************************************************
 349:.\Generated_Source\PSoC5/RX_ISR.c **** * Function Name: RX_ISR_Disable
 350:.\Generated_Source\PSoC5/RX_ISR.c **** ********************************************************************************
 351:.\Generated_Source\PSoC5/RX_ISR.c **** *
 352:.\Generated_Source\PSoC5/RX_ISR.c **** * Summary:
 353:.\Generated_Source\PSoC5/RX_ISR.c **** *   Disables the Interrupt in the interrupt controller.
 354:.\Generated_Source\PSoC5/RX_ISR.c **** *
 355:.\Generated_Source\PSoC5/RX_ISR.c **** * Parameters:
 356:.\Generated_Source\PSoC5/RX_ISR.c **** *   None
 357:.\Generated_Source\PSoC5/RX_ISR.c **** *
 358:.\Generated_Source\PSoC5/RX_ISR.c **** * Return:
 359:.\Generated_Source\PSoC5/RX_ISR.c **** *   None
 360:.\Generated_Source\PSoC5/RX_ISR.c **** *
 361:.\Generated_Source\PSoC5/RX_ISR.c **** *******************************************************************************/
 362:.\Generated_Source\PSoC5/RX_ISR.c **** void RX_ISR_Disable(void)
 363:.\Generated_Source\PSoC5/RX_ISR.c **** {
 194              		.loc 1 363 0
 195              		.cfi_startproc
 196              		@ args = 0, pretend = 0, frame = 0
 197              		@ frame_needed = 0, uses_anonymous_args = 0
 198              		@ link register save eliminated.
 364:.\Generated_Source\PSoC5/RX_ISR.c ****     /* Disable the general interrupt. */
 365:.\Generated_Source\PSoC5/RX_ISR.c ****     *RX_ISR_INTC_CLR_EN = RX_ISR__INTC_MASK;
 199              		.loc 1 365 0
 200 0000 0222     		movs	r2, #2
 201 0002 014B     		ldr	r3, .L22
 202 0004 1A60     		str	r2, [r3]
 203 0006 7047     		bx	lr
 204              	.L23:
 205              		.align	2
ARM GAS  C:\Users\PANXIA~1\AppData\Local\Temp\cclnmT55.s 			page 11


 206              	.L22:
 207 0008 80E100E0 		.word	-536813184
 208              		.cfi_endproc
 209              	.LFE73:
 210              		.size	RX_ISR_Disable, .-RX_ISR_Disable
 211              		.section	.text.RX_ISR_Start,"ax",%progbits
 212              		.align	2
 213              		.global	RX_ISR_Start
 214              		.thumb
 215              		.thumb_func
 216              		.type	RX_ISR_Start, %function
 217              	RX_ISR_Start:
 218              	.LFB63:
  62:.\Generated_Source\PSoC5/RX_ISR.c ****     /* For all we know the interrupt is active. */
 219              		.loc 1 62 0
 220              		.cfi_startproc
 221              		@ args = 0, pretend = 0, frame = 0
 222              		@ frame_needed = 0, uses_anonymous_args = 0
 223 0000 08B5     		push	{r3, lr}
 224              		.cfi_def_cfa_offset 8
 225              		.cfi_offset 3, -8
 226              		.cfi_offset 14, -4
  64:.\Generated_Source\PSoC5/RX_ISR.c **** 
 227              		.loc 1 64 0
 228 0002 FFF7FEFF 		bl	RX_ISR_Disable
 229              	.LVL7:
  67:.\Generated_Source\PSoC5/RX_ISR.c **** 
 230              		.loc 1 67 0
 231 0006 0448     		ldr	r0, .L26
 232 0008 FFF7FEFF 		bl	RX_ISR_SetVector
 233              	.LVL8:
  70:.\Generated_Source\PSoC5/RX_ISR.c **** 
 234              		.loc 1 70 0
 235 000c 0720     		movs	r0, #7
 236 000e FFF7FEFF 		bl	RX_ISR_SetPriority
 237              	.LVL9:
  73:.\Generated_Source\PSoC5/RX_ISR.c **** }
 238              		.loc 1 73 0
 239 0012 FFF7FEFF 		bl	RX_ISR_Enable
 240              	.LVL10:
 241 0016 08BD     		pop	{r3, pc}
 242              	.L27:
 243              		.align	2
 244              	.L26:
 245 0018 00000000 		.word	RX_ISR_Interrupt
 246              		.cfi_endproc
 247              	.LFE63:
 248              		.size	RX_ISR_Start, .-RX_ISR_Start
 249              		.section	.text.RX_ISR_StartEx,"ax",%progbits
 250              		.align	2
 251              		.global	RX_ISR_StartEx
 252              		.thumb
 253              		.thumb_func
 254              		.type	RX_ISR_StartEx, %function
 255              	RX_ISR_StartEx:
 256              	.LFB64:
 105:.\Generated_Source\PSoC5/RX_ISR.c ****     /* For all we know the interrupt is active. */
ARM GAS  C:\Users\PANXIA~1\AppData\Local\Temp\cclnmT55.s 			page 12


 257              		.loc 1 105 0
 258              		.cfi_startproc
 259              		@ args = 0, pretend = 0, frame = 0
 260              		@ frame_needed = 0, uses_anonymous_args = 0
 261              	.LVL11:
 262 0000 10B5     		push	{r4, lr}
 263              		.cfi_def_cfa_offset 8
 264              		.cfi_offset 4, -8
 265              		.cfi_offset 14, -4
 266 0002 0446     		mov	r4, r0
 107:.\Generated_Source\PSoC5/RX_ISR.c **** 
 267              		.loc 1 107 0
 268 0004 FFF7FEFF 		bl	RX_ISR_Disable
 269              	.LVL12:
 110:.\Generated_Source\PSoC5/RX_ISR.c **** 
 270              		.loc 1 110 0
 271 0008 2046     		mov	r0, r4
 272 000a FFF7FEFF 		bl	RX_ISR_SetVector
 273              	.LVL13:
 113:.\Generated_Source\PSoC5/RX_ISR.c **** 
 274              		.loc 1 113 0
 275 000e 0720     		movs	r0, #7
 276 0010 FFF7FEFF 		bl	RX_ISR_SetPriority
 277              	.LVL14:
 116:.\Generated_Source\PSoC5/RX_ISR.c **** }
 278              		.loc 1 116 0
 279 0014 FFF7FEFF 		bl	RX_ISR_Enable
 280              	.LVL15:
 281 0018 10BD     		pop	{r4, pc}
 282              		.cfi_endproc
 283              	.LFE64:
 284              		.size	RX_ISR_StartEx, .-RX_ISR_StartEx
 285 001a 00BF     		.section	.text.RX_ISR_Stop,"ax",%progbits
 286              		.align	2
 287              		.global	RX_ISR_Stop
 288              		.thumb
 289              		.thumb_func
 290              		.type	RX_ISR_Stop, %function
 291              	RX_ISR_Stop:
 292              	.LFB65:
 135:.\Generated_Source\PSoC5/RX_ISR.c ****     /* Disable this interrupt. */
 293              		.loc 1 135 0
 294              		.cfi_startproc
 295              		@ args = 0, pretend = 0, frame = 0
 296              		@ frame_needed = 0, uses_anonymous_args = 0
 297 0000 08B5     		push	{r3, lr}
 298              		.cfi_def_cfa_offset 8
 299              		.cfi_offset 3, -8
 300              		.cfi_offset 14, -4
 137:.\Generated_Source\PSoC5/RX_ISR.c **** 
 301              		.loc 1 137 0
 302 0002 FFF7FEFF 		bl	RX_ISR_Disable
 303              	.LVL16:
 140:.\Generated_Source\PSoC5/RX_ISR.c **** }
 304              		.loc 1 140 0
 305 0006 0248     		ldr	r0, .L32
 306 0008 FFF7FEFF 		bl	RX_ISR_SetVector
ARM GAS  C:\Users\PANXIA~1\AppData\Local\Temp\cclnmT55.s 			page 13


 307              	.LVL17:
 308 000c 08BD     		pop	{r3, pc}
 309              	.L33:
 310 000e 00BF     		.align	2
 311              	.L32:
 312 0010 00000000 		.word	IntDefaultHandler
 313              		.cfi_endproc
 314              	.LFE65:
 315              		.size	RX_ISR_Stop, .-RX_ISR_Stop
 316              		.section	.text.RX_ISR_SetPending,"ax",%progbits
 317              		.align	2
 318              		.global	RX_ISR_SetPending
 319              		.thumb
 320              		.thumb_func
 321              		.type	RX_ISR_SetPending, %function
 322              	RX_ISR_SetPending:
 323              	.LFB74:
 366:.\Generated_Source\PSoC5/RX_ISR.c **** }
 367:.\Generated_Source\PSoC5/RX_ISR.c **** 
 368:.\Generated_Source\PSoC5/RX_ISR.c **** 
 369:.\Generated_Source\PSoC5/RX_ISR.c **** /*******************************************************************************
 370:.\Generated_Source\PSoC5/RX_ISR.c **** * Function Name: RX_ISR_SetPending
 371:.\Generated_Source\PSoC5/RX_ISR.c **** ********************************************************************************
 372:.\Generated_Source\PSoC5/RX_ISR.c **** *
 373:.\Generated_Source\PSoC5/RX_ISR.c **** * Summary:
 374:.\Generated_Source\PSoC5/RX_ISR.c **** *   Causes the Interrupt to enter the pending state, a software method of
 375:.\Generated_Source\PSoC5/RX_ISR.c **** *   generating the interrupt.
 376:.\Generated_Source\PSoC5/RX_ISR.c **** *
 377:.\Generated_Source\PSoC5/RX_ISR.c **** * Parameters:
 378:.\Generated_Source\PSoC5/RX_ISR.c **** *   None
 379:.\Generated_Source\PSoC5/RX_ISR.c **** *
 380:.\Generated_Source\PSoC5/RX_ISR.c **** * Return:
 381:.\Generated_Source\PSoC5/RX_ISR.c **** *   None
 382:.\Generated_Source\PSoC5/RX_ISR.c **** *
 383:.\Generated_Source\PSoC5/RX_ISR.c **** * Side Effects:
 384:.\Generated_Source\PSoC5/RX_ISR.c **** *   If interrupts are enabled and the interrupt is set up properly, the ISR is
 385:.\Generated_Source\PSoC5/RX_ISR.c **** *   entered (depending on the priority of this interrupt and other pending 
 386:.\Generated_Source\PSoC5/RX_ISR.c **** *   interrupts).
 387:.\Generated_Source\PSoC5/RX_ISR.c **** *
 388:.\Generated_Source\PSoC5/RX_ISR.c **** *******************************************************************************/
 389:.\Generated_Source\PSoC5/RX_ISR.c **** void RX_ISR_SetPending(void)
 390:.\Generated_Source\PSoC5/RX_ISR.c **** {
 324              		.loc 1 390 0
 325              		.cfi_startproc
 326              		@ args = 0, pretend = 0, frame = 0
 327              		@ frame_needed = 0, uses_anonymous_args = 0
 328              		@ link register save eliminated.
 391:.\Generated_Source\PSoC5/RX_ISR.c ****     *RX_ISR_INTC_SET_PD = RX_ISR__INTC_MASK;
 329              		.loc 1 391 0
 330 0000 0222     		movs	r2, #2
 331 0002 014B     		ldr	r3, .L35
 332 0004 1A60     		str	r2, [r3]
 333 0006 7047     		bx	lr
 334              	.L36:
 335              		.align	2
 336              	.L35:
 337 0008 00E200E0 		.word	-536813056
ARM GAS  C:\Users\PANXIA~1\AppData\Local\Temp\cclnmT55.s 			page 14


 338              		.cfi_endproc
 339              	.LFE74:
 340              		.size	RX_ISR_SetPending, .-RX_ISR_SetPending
 341              		.section	.text.RX_ISR_ClearPending,"ax",%progbits
 342              		.align	2
 343              		.global	RX_ISR_ClearPending
 344              		.thumb
 345              		.thumb_func
 346              		.type	RX_ISR_ClearPending, %function
 347              	RX_ISR_ClearPending:
 348              	.LFB75:
 392:.\Generated_Source\PSoC5/RX_ISR.c **** }
 393:.\Generated_Source\PSoC5/RX_ISR.c **** 
 394:.\Generated_Source\PSoC5/RX_ISR.c **** 
 395:.\Generated_Source\PSoC5/RX_ISR.c **** /*******************************************************************************
 396:.\Generated_Source\PSoC5/RX_ISR.c **** * Function Name: RX_ISR_ClearPending
 397:.\Generated_Source\PSoC5/RX_ISR.c **** ********************************************************************************
 398:.\Generated_Source\PSoC5/RX_ISR.c **** *
 399:.\Generated_Source\PSoC5/RX_ISR.c **** * Summary:
 400:.\Generated_Source\PSoC5/RX_ISR.c **** *   Clears a pending interrupt in the interrupt controller.
 401:.\Generated_Source\PSoC5/RX_ISR.c **** *
 402:.\Generated_Source\PSoC5/RX_ISR.c **** *   Note Some interrupt sources are clear-on-read and require the block 
 403:.\Generated_Source\PSoC5/RX_ISR.c **** *   interrupt/status register to be read/cleared with the appropriate block API 
 404:.\Generated_Source\PSoC5/RX_ISR.c **** *   (GPIO, UART, and so on). Otherwise the ISR will continue to remain in 
 405:.\Generated_Source\PSoC5/RX_ISR.c **** *   pending state even though the interrupt itself is cleared using this API.
 406:.\Generated_Source\PSoC5/RX_ISR.c **** *
 407:.\Generated_Source\PSoC5/RX_ISR.c **** * Parameters:
 408:.\Generated_Source\PSoC5/RX_ISR.c **** *   None
 409:.\Generated_Source\PSoC5/RX_ISR.c **** *
 410:.\Generated_Source\PSoC5/RX_ISR.c **** * Return:
 411:.\Generated_Source\PSoC5/RX_ISR.c **** *   None
 412:.\Generated_Source\PSoC5/RX_ISR.c **** *
 413:.\Generated_Source\PSoC5/RX_ISR.c **** *******************************************************************************/
 414:.\Generated_Source\PSoC5/RX_ISR.c **** void RX_ISR_ClearPending(void)
 415:.\Generated_Source\PSoC5/RX_ISR.c **** {
 349              		.loc 1 415 0
 350              		.cfi_startproc
 351              		@ args = 0, pretend = 0, frame = 0
 352              		@ frame_needed = 0, uses_anonymous_args = 0
 353              		@ link register save eliminated.
 416:.\Generated_Source\PSoC5/RX_ISR.c ****     *RX_ISR_INTC_CLR_PD = RX_ISR__INTC_MASK;
 354              		.loc 1 416 0
 355 0000 0222     		movs	r2, #2
 356 0002 014B     		ldr	r3, .L38
 357 0004 1A60     		str	r2, [r3]
 358 0006 7047     		bx	lr
 359              	.L39:
 360              		.align	2
 361              	.L38:
 362 0008 80E200E0 		.word	-536812928
 363              		.cfi_endproc
 364              	.LFE75:
 365              		.size	RX_ISR_ClearPending, .-RX_ISR_ClearPending
 366              		.section	.text.RX_ISR_Interrupt,"ax",%progbits
 367              		.align	2
 368              		.global	RX_ISR_Interrupt
 369              		.thumb
ARM GAS  C:\Users\PANXIA~1\AppData\Local\Temp\cclnmT55.s 			page 15


 370              		.thumb_func
 371              		.type	RX_ISR_Interrupt, %function
 372              	RX_ISR_Interrupt:
 373              	.LFB66:
 161:.\Generated_Source\PSoC5/RX_ISR.c ****     #ifdef RX_ISR_INTERRUPT_INTERRUPT_CALLBACK
 374              		.loc 1 161 0
 375              		.cfi_startproc
 376              		@ args = 0, pretend = 0, frame = 24
 377              		@ frame_needed = 0, uses_anonymous_args = 0
 378 0000 10B5     		push	{r4, lr}
 379              		.cfi_def_cfa_offset 8
 380              		.cfi_offset 4, -8
 381              		.cfi_offset 14, -4
 382 0002 86B0     		sub	sp, sp, #24
 383              		.cfi_def_cfa_offset 32
 168:.\Generated_Source\PSoC5/RX_ISR.c ****     uint8 i;
 384              		.loc 1 168 0
 385 0004 0023     		movs	r3, #0
 386 0006 0193     		str	r3, [sp, #4]
 387 0008 0293     		str	r3, [sp, #8]
 388 000a 0393     		str	r3, [sp, #12]
 389 000c 0493     		str	r3, [sp, #16]
 390 000e 0593     		str	r3, [sp, #20]
 170:.\Generated_Source\PSoC5/RX_ISR.c ****         {
 391              		.loc 1 170 0
 392 0010 FFF7FEFF 		bl	UART_1_GetRxBufferSize
 393              	.LVL18:
 394 0014 90B1     		cbz	r0, .L41
 170:.\Generated_Source\PSoC5/RX_ISR.c ****         {
 395              		.loc 1 170 0 is_stmt 0 discriminator 1
 396 0016 FFF7FEFF 		bl	UART_1_GetRxBufferSize
 397              	.LVL19:
 398 001a 1428     		cmp	r0, #20
 399 001c 09D9     		bls	.L44
 400 001e 0DE0     		b	.L41
 401              	.LVL20:
 402              	.L43:
 174:.\Generated_Source\PSoC5/RX_ISR.c ****             }
 403              		.loc 1 174 0 is_stmt 1 discriminator 3
 404 0020 FFF7FEFF 		bl	UART_1_ReadRxData
 405              	.LVL21:
 406 0024 06AB     		add	r3, sp, #24
 407 0026 2344     		add	r3, r3, r4
 408 0028 03F8140C 		strb	r0, [r3, #-20]
 172:.\Generated_Source\PSoC5/RX_ISR.c ****             {
 409              		.loc 1 172 0 discriminator 3
 410 002c 0134     		adds	r4, r4, #1
 411              	.LVL22:
 412 002e E4B2     		uxtb	r4, r4
 413              	.LVL23:
 414 0030 00E0     		b	.L42
 415              	.LVL24:
 416              	.L44:
 417 0032 0024     		movs	r4, #0
 418              	.L42:
 419              	.LVL25:
 172:.\Generated_Source\PSoC5/RX_ISR.c ****             {
ARM GAS  C:\Users\PANXIA~1\AppData\Local\Temp\cclnmT55.s 			page 16


 420              		.loc 1 172 0 is_stmt 0 discriminator 1
 421 0034 FFF7FEFF 		bl	UART_1_GetRxBufferSize
 422              	.LVL26:
 423 0038 A042     		cmp	r0, r4
 424 003a F1D8     		bhi	.L43
 425              	.LVL27:
 426              	.L41:
 177:.\Generated_Source\PSoC5/RX_ISR.c ****     
 427              		.loc 1 177 0 is_stmt 1
 428 003c 01A8     		add	r0, sp, #4
 429 003e 0121     		movs	r1, #1
 430 0040 FFF7FEFF 		bl	UART_1_PutArray
 431              	.LVL28:
 179:.\Generated_Source\PSoC5/RX_ISR.c ****     
 432              		.loc 1 179 0
 433 0044 FFF7FEFF 		bl	UART_1_ClearRxBuffer
 434              	.LVL29:
 181:.\Generated_Source\PSoC5/RX_ISR.c ****     /* `#END` */
 435              		.loc 1 181 0
 436 0048 FFF7FEFF 		bl	RX_ISR_ClearPending
 437              	.LVL30:
 183:.\Generated_Source\PSoC5/RX_ISR.c **** 
 438              		.loc 1 183 0
 439 004c 06B0     		add	sp, sp, #24
 440              		.cfi_def_cfa_offset 8
 441              		@ sp needed
 442 004e 10BD     		pop	{r4, pc}
 443              		.cfi_endproc
 444              	.LFE66:
 445              		.size	RX_ISR_Interrupt, .-RX_ISR_Interrupt
 446              		.text
 447              	.Letext0:
 448              		.file 2 "c:\\program files (x86)\\cypress\\psoc creator\\3.3\\psoc creator\\import\\gnu\\arm\\4.9.
 449              		.file 3 "c:\\program files (x86)\\cypress\\psoc creator\\3.3\\psoc creator\\import\\gnu\\arm\\4.9.
 450              		.file 4 "Generated_Source\\PSoC5/cytypes.h"
 451              		.file 5 "Generated_Source\\PSoC5/UART_1.h"
 452              		.file 6 "Generated_Source\\PSoC5/core_cm3.h"