ARM GAS  C:\Users\PANXIA~1\AppData\Local\Temp\cc7M9Brx.s 			page 1


   1              		.syntax unified
   2              		.cpu cortex-m3
   3              		.fpu softvfp
   4              		.eabi_attribute 20, 1
   5              		.eabi_attribute 21, 1
   6              		.eabi_attribute 23, 3
   7              		.eabi_attribute 24, 1
   8              		.eabi_attribute 25, 1
   9              		.eabi_attribute 26, 1
  10              		.eabi_attribute 30, 1
  11              		.eabi_attribute 34, 1
  12              		.eabi_attribute 18, 4
  13              		.thumb
  14              		.file	"sync.c"
  15              		.text
  16              	.Ltext0:
  17              		.cfi_sections	.debug_frame
  18              		.section	.text.stopSYNC,"ax",%progbits
  19              		.align	2
  20              		.global	stopSYNC
  21              		.thumb
  22              		.thumb_func
  23              		.type	stopSYNC, %function
  24              	stopSYNC:
  25              	.LFB3:
  26              		.file 1 ".\\sync.c"
   1:.\sync.c      **** /* ========================================
   2:.\sync.c      ****  *
   3:.\sync.c      ****  * Copyright YOUR COMPANY, THE YEAR
   4:.\sync.c      ****  * All Rights Reserved
   5:.\sync.c      ****  * UNPUBLISHED, LICENSED SOFTWARE.
   6:.\sync.c      ****  *
   7:.\sync.c      ****  * CONFIDENTIAL AND PROPRIETARY INFORMATION
   8:.\sync.c      ****  * WHICH IS THE PROPERTY OF your company.
   9:.\sync.c      ****  *
  10:.\sync.c      ****  * ========================================
  11:.\sync.c      **** */
  12:.\sync.c      **** 
  13:.\sync.c      **** /* [] END OF FILE */
  14:.\sync.c      **** 
  15:.\sync.c      **** ///*
  16:.\sync.c      **** //This file is part of CanFestival, a library implementing CanOpen Stack.
  17:.\sync.c      **** 
  18:.\sync.c      **** 
  19:.\sync.c      **** //Copyright (C): Edouard TISSERANT and Francis DUPIN
  20:.\sync.c      **** 
  21:.\sync.c      **** 
  22:.\sync.c      **** //See COPYING file for copyrights details.
  23:.\sync.c      **** 
  24:.\sync.c      **** 
  25:.\sync.c      **** //This library is free software; you can redistribute it and/or
  26:.\sync.c      **** //modify it under the terms of the GNU Lesser General Public
  27:.\sync.c      **** //License as published by the Free Software Foundation; either
  28:.\sync.c      **** //version 2.1 of the License, or (at your option) any later version.
  29:.\sync.c      **** 
  30:.\sync.c      **** 
  31:.\sync.c      **** //This library is distributed in the hope that it will be useful,
ARM GAS  C:\Users\PANXIA~1\AppData\Local\Temp\cc7M9Brx.s 			page 2


  32:.\sync.c      **** //but WITHOUT ANY WARRANTY; without even the implied warranty of
  33:.\sync.c      **** //MERCHANTABILITY or FITNESS FOR A PARTICULAR PURPOSE.  See the GNU
  34:.\sync.c      **** //Lesser General Public License for more details.
  35:.\sync.c      **** 
  36:.\sync.c      **** 
  37:.\sync.c      **** //You should have received a copy of the GNU Lesser General Public
  38:.\sync.c      **** //License along with this library; if not, write to the Free Software
  39:.\sync.c      **** //Foundation, Inc., 59 Temple Place, Suite 330, Boston, MA  02111-1307  USA
  40:.\sync.c      **** //*/
  41:.\sync.c      **** 
  42:.\sync.c      **** 
  43:.\sync.c      **** ///*!
  44:.\sync.c      **** //** @file   sync.c
  45:.\sync.c      **** //** @author Edouard TISSERANT and Francis DUPIN
  46:.\sync.c      **** //** @date   Tue Jun  5 09:32:32 2007
  47:.\sync.c      **** //**
  48:.\sync.c      **** //** @brief
  49:.\sync.c      **** //**
  50:.\sync.c      **** //**
  51:.\sync.c      **** //*/
  52:.\sync.c      **** 
  53:.\sync.c      **** //#include "data.h"
  54:.\sync.c      **** //#include "sync.h"
  55:.\sync.c      **** //#include "canfestival.h"
  56:.\sync.c      **** //#include "sysdep.h"
  57:.\sync.c      **** 
  58:.\sync.c      **** ///* Prototypes for internals functions */
  59:.\sync.c      **** 
  60:.\sync.c      **** ///*!
  61:.\sync.c      **** //**
  62:.\sync.c      **** //**
  63:.\sync.c      **** //** @param d
  64:.\sync.c      **** //** @param id
  65:.\sync.c      **** //**/
  66:.\sync.c      **** //void SyncAlarm(CO_Data* d, UNS32 id);
  67:.\sync.c      **** //UNS32 OnCOB_ID_SyncUpdate(CO_Data* d, const indextable * unsused_indextable,
  68:.\sync.c      **** //	UNS8 unsused_bSubindex);
  69:.\sync.c      **** 
  70:.\sync.c      **** ///*!
  71:.\sync.c      **** //**
  72:.\sync.c      **** //**
  73:.\sync.c      **** //** @param d
  74:.\sync.c      **** //** @param id
  75:.\sync.c      **** //**/
  76:.\sync.c      **** //void SyncAlarm(CO_Data* d, UNS32 id)
  77:.\sync.c      **** //{
  78:.\sync.c      **** //	sendSYNC(d) ;
  79:.\sync.c      **** //}
  80:.\sync.c      **** 
  81:.\sync.c      **** ///*!
  82:.\sync.c      **** //** This is called when Index 0x1005 is updated.
  83:.\sync.c      **** //**
  84:.\sync.c      **** //** @param d
  85:.\sync.c      **** //** @param unsused_indextable
  86:.\sync.c      **** //** @param unsused_bSubindex
  87:.\sync.c      **** //**
  88:.\sync.c      **** //** @return
ARM GAS  C:\Users\PANXIA~1\AppData\Local\Temp\cc7M9Brx.s 			page 3


  89:.\sync.c      **** //**/
  90:.\sync.c      **** //UNS32 OnCOB_ID_SyncUpdate(CO_Data* d, const indextable * unsused_indextable, UNS8 unsused_bSubind
  91:.\sync.c      **** //{
  92:.\sync.c      **** //	startSYNC(d);
  93:.\sync.c      **** //	return 0;
  94:.\sync.c      **** //}
  95:.\sync.c      **** 
  96:.\sync.c      **** ///*!
  97:.\sync.c      **** //**
  98:.\sync.c      **** //**
  99:.\sync.c      **** //** @param d
 100:.\sync.c      **** //**/
 101:.\sync.c      **** //void startSYNC(CO_Data* d)
 102:.\sync.c      **** //{
 103:.\sync.c      **** //	if(d->syncTimer != TIMER_NONE){
 104:.\sync.c      **** //		stopSYNC(d);
 105:.\sync.c      **** //	}
 106:.\sync.c      **** 
 107:.\sync.c      **** //	RegisterSetODentryCallBack(d, 0x1005, 0, &OnCOB_ID_SyncUpdate);
 108:.\sync.c      **** //	RegisterSetODentryCallBack(d, 0x1006, 0, &OnCOB_ID_SyncUpdate);
 109:.\sync.c      **** 
 110:.\sync.c      **** //	if(*d->COB_ID_Sync & 0x40000000ul && *d->Sync_Cycle_Period)
 111:.\sync.c      **** //	{
 112:.\sync.c      **** //		d->syncTimer = SetAlarm(
 113:.\sync.c      **** //				d,
 114:.\sync.c      **** //				0 /*No id needed*/,
 115:.\sync.c      **** //				&SyncAlarm,
 116:.\sync.c      **** //				US_TO_TIMEVAL(*d->Sync_Cycle_Period),
 117:.\sync.c      **** //				US_TO_TIMEVAL(*d->Sync_Cycle_Period));
 118:.\sync.c      **** //	}
 119:.\sync.c      **** //}
 120:.\sync.c      **** 
 121:.\sync.c      **** ///*!
 122:.\sync.c      **** //**
 123:.\sync.c      **** //**
 124:.\sync.c      **** //** @param d
 125:.\sync.c      **** //**/
 126:.\sync.c      **** //void stopSYNC(CO_Data* d)
 127:.\sync.c      **** //{
 128:.\sync.c      **** //    RegisterSetODentryCallBack(d, 0x1005, 0, NULL);
 129:.\sync.c      **** //    RegisterSetODentryCallBack(d, 0x1006, 0, NULL);
 130:.\sync.c      **** //	d->syncTimer = DelAlarm(d->syncTimer);
 131:.\sync.c      **** //}
 132:.\sync.c      **** 
 133:.\sync.c      **** 
 134:.\sync.c      **** ///*!
 135:.\sync.c      **** //**
 136:.\sync.c      **** //**
 137:.\sync.c      **** //** @param d
 138:.\sync.c      **** //** @param cob_id
 139:.\sync.c      **** //**
 140:.\sync.c      **** //** @return
 141:.\sync.c      **** //**/
 142:.\sync.c      **** //UNS8 sendSYNCMessage(CO_Data* d)
 143:.\sync.c      **** //{
 144:.\sync.c      **** //  Message m;
 145:.\sync.c      **** //
ARM GAS  C:\Users\PANXIA~1\AppData\Local\Temp\cc7M9Brx.s 			page 4


 146:.\sync.c      **** //  MSG_WAR(0x3001, "sendSYNC ", 0);
 147:.\sync.c      **** //
 148:.\sync.c      **** //  m.cob_id = (UNS16)UNS16_LE(*d->COB_ID_Sync);
 149:.\sync.c      **** //  m.rtr = NOT_A_REQUEST;
 150:.\sync.c      **** //  m.len = 0;
 151:.\sync.c      **** //
 152:.\sync.c      **** //  return canSend(d->canHandle,&m);
 153:.\sync.c      **** //}
 154:.\sync.c      **** 
 155:.\sync.c      **** 
 156:.\sync.c      **** ///*!
 157:.\sync.c      **** //**
 158:.\sync.c      **** //**
 159:.\sync.c      **** //** @param d
 160:.\sync.c      **** //** @param cob_id
 161:.\sync.c      **** //**
 162:.\sync.c      **** //** @return
 163:.\sync.c      **** //**/
 164:.\sync.c      **** //UNS8 sendSYNC(CO_Data* d)
 165:.\sync.c      **** //{
 166:.\sync.c      **** //  UNS8 res;
 167:.\sync.c      **** //  res = sendSYNCMessage(d);
 168:.\sync.c      **** //  proceedSYNC(d) ;
 169:.\sync.c      **** //  return res ;
 170:.\sync.c      **** //}
 171:.\sync.c      **** 
 172:.\sync.c      **** ///*!
 173:.\sync.c      **** //**
 174:.\sync.c      **** //**
 175:.\sync.c      **** //** @param d
 176:.\sync.c      **** //** @param m
 177:.\sync.c      **** //**
 178:.\sync.c      **** //** @return
 179:.\sync.c      **** //**/
 180:.\sync.c      **** //UNS8 proceedSYNC(CO_Data* d)
 181:.\sync.c      **** //{
 182:.\sync.c      **** 
 183:.\sync.c      **** //  UNS8 res;
 184:.\sync.c      **** //
 185:.\sync.c      **** //  MSG_WAR(0x3002, "SYNC received. Proceed. ", 0);
 186:.\sync.c      **** //
 187:.\sync.c      **** //  (*d->post_sync)(d);
 188:.\sync.c      **** 
 189:.\sync.c      **** //  /* only operational state allows PDO transmission */
 190:.\sync.c      **** //  if(! d->CurrentCommunicationState.csPDO)
 191:.\sync.c      **** //    return 0;
 192:.\sync.c      **** 
 193:.\sync.c      **** //  res = _sendPDOevent(d, 1 /*isSyncEvent*/ );
 194:.\sync.c      **** //
 195:.\sync.c      **** //  /*Call user app callback*/
 196:.\sync.c      **** //  (*d->post_TPDO)(d);
 197:.\sync.c      **** //
 198:.\sync.c      **** //  return res;
 199:.\sync.c      **** //
 200:.\sync.c      **** //}
 201:.\sync.c      **** 
 202:.\sync.c      **** 
ARM GAS  C:\Users\PANXIA~1\AppData\Local\Temp\cc7M9Brx.s 			page 5


 203:.\sync.c      **** //void _post_sync(CO_Data* d){}
 204:.\sync.c      **** //void _post_TPDO(CO_Data* d){}
 205:.\sync.c      **** 
 206:.\sync.c      **** /*
 207:.\sync.c      **** This file is part of CanFestival, a library implementing CanOpen Stack.
 208:.\sync.c      **** 
 209:.\sync.c      **** 
 210:.\sync.c      **** Copyright (C): Edouard TISSERANT and Francis DUPIN
 211:.\sync.c      **** 
 212:.\sync.c      **** 
 213:.\sync.c      **** See COPYING file for copyrights details.
 214:.\sync.c      **** 
 215:.\sync.c      **** 
 216:.\sync.c      **** This library is free software; you can redistribute it and/or
 217:.\sync.c      **** modify it under the terms of the GNU Lesser General Public
 218:.\sync.c      **** License as published by the Free Software Foundation; either
 219:.\sync.c      **** version 2.1 of the License, or (at your option) any later version.
 220:.\sync.c      **** 
 221:.\sync.c      **** 
 222:.\sync.c      **** This library is distributed in the hope that it will be useful,
 223:.\sync.c      **** but WITHOUT ANY WARRANTY; without even the implied warranty of
 224:.\sync.c      **** MERCHANTABILITY or FITNESS FOR A PARTICULAR PURPOSE.  See the GNU
 225:.\sync.c      **** Lesser General Public License for more details.
 226:.\sync.c      **** 
 227:.\sync.c      **** 
 228:.\sync.c      **** You should have received a copy of the GNU Lesser General Public
 229:.\sync.c      **** License along with this library; if not, write to the Free Software
 230:.\sync.c      **** Foundation, Inc., 59 Temple Place, Suite 330, Boston, MA  02111-1307  USA
 231:.\sync.c      **** */
 232:.\sync.c      **** 
 233:.\sync.c      **** 
 234:.\sync.c      **** /*!
 235:.\sync.c      **** ** @file   sync.c
 236:.\sync.c      **** ** @author Edouard TISSERANT and Francis DUPIN
 237:.\sync.c      **** ** @date   Tue Jun  5 09:32:32 2007
 238:.\sync.c      **** **
 239:.\sync.c      **** ** @brief
 240:.\sync.c      **** **
 241:.\sync.c      **** **
 242:.\sync.c      **** */
 243:.\sync.c      **** 
 244:.\sync.c      **** #include "data.h"
 245:.\sync.c      **** #include "sync.h"
 246:.\sync.c      **** #include "canfestival.h"
 247:.\sync.c      **** #include "sysdep.h"
 248:.\sync.c      **** 
 249:.\sync.c      **** /* Prototypes for internals functions */
 250:.\sync.c      **** 
 251:.\sync.c      **** /*!
 252:.\sync.c      **** **
 253:.\sync.c      **** **
 254:.\sync.c      **** ** @param d
 255:.\sync.c      **** ** @param id
 256:.\sync.c      **** **/
 257:.\sync.c      **** void SyncAlarm(CO_Data* d, UNS32 id);
 258:.\sync.c      **** UNS32 OnCOB_ID_SyncUpdate(CO_Data* d, const indextable * unsused_indextable,
 259:.\sync.c      ****     UNS8 unsused_bSubindex);
ARM GAS  C:\Users\PANXIA~1\AppData\Local\Temp\cc7M9Brx.s 			page 6


 260:.\sync.c      **** 
 261:.\sync.c      **** /*!
 262:.\sync.c      **** **
 263:.\sync.c      **** **
 264:.\sync.c      **** ** @param d
 265:.\sync.c      **** ** @param id
 266:.\sync.c      **** **/
 267:.\sync.c      **** void SyncAlarm(CO_Data* d, UNS32 id)
 268:.\sync.c      **** {
 269:.\sync.c      ****     sendSYNC(d) ;
 270:.\sync.c      **** }
 271:.\sync.c      **** 
 272:.\sync.c      **** /*!
 273:.\sync.c      **** ** This is called when Index 0x1005 is updated.
 274:.\sync.c      **** **
 275:.\sync.c      **** ** @param d
 276:.\sync.c      **** ** @param unsused_indextable
 277:.\sync.c      **** ** @param unsused_bSubindex
 278:.\sync.c      **** **
 279:.\sync.c      **** ** @return
 280:.\sync.c      **** **/
 281:.\sync.c      **** UNS32 OnCOB_ID_SyncUpdate(CO_Data* d, const indextable * unsused_indextable, UNS8 unsused_bSubindex
 282:.\sync.c      **** {
 283:.\sync.c      ****     startSYNC(d);
 284:.\sync.c      ****     return 0;
 285:.\sync.c      **** }
 286:.\sync.c      **** 
 287:.\sync.c      **** /*!
 288:.\sync.c      **** **
 289:.\sync.c      **** **
 290:.\sync.c      **** ** @param d
 291:.\sync.c      **** **/
 292:.\sync.c      **** void startSYNC(CO_Data* d)
 293:.\sync.c      **** {
 294:.\sync.c      ****     if(d->syncTimer != TIMER_NONE){
 295:.\sync.c      ****         stopSYNC(d);
 296:.\sync.c      ****     }
 297:.\sync.c      **** 
 298:.\sync.c      ****     RegisterSetODentryCallBack(d, 0x1005, 0, &OnCOB_ID_SyncUpdate);
 299:.\sync.c      ****     RegisterSetODentryCallBack(d, 0x1006, 0, &OnCOB_ID_SyncUpdate);
 300:.\sync.c      **** 
 301:.\sync.c      ****     if(*d->COB_ID_Sync & 0x40000000ul && *d->Sync_Cycle_Period)
 302:.\sync.c      ****     {
 303:.\sync.c      ****         d->syncTimer = SetAlarm(
 304:.\sync.c      ****                 d,
 305:.\sync.c      ****                 0 /*No id needed*/,
 306:.\sync.c      ****                 &SyncAlarm,
 307:.\sync.c      ****                 US_TO_TIMEVAL(*d->Sync_Cycle_Period),
 308:.\sync.c      ****                 US_TO_TIMEVAL(*d->Sync_Cycle_Period));
 309:.\sync.c      ****     }
 310:.\sync.c      **** }
 311:.\sync.c      **** 
 312:.\sync.c      **** /*!
 313:.\sync.c      **** **
 314:.\sync.c      **** **
 315:.\sync.c      **** ** @param d
 316:.\sync.c      **** **/
ARM GAS  C:\Users\PANXIA~1\AppData\Local\Temp\cc7M9Brx.s 			page 7


 317:.\sync.c      **** void stopSYNC(CO_Data* d)
 318:.\sync.c      **** {
  27              		.loc 1 318 0
  28              		.cfi_startproc
  29              		@ args = 0, pretend = 0, frame = 0
  30              		@ frame_needed = 0, uses_anonymous_args = 0
  31              	.LVL0:
  32 0000 10B5     		push	{r4, lr}
  33              		.cfi_def_cfa_offset 8
  34              		.cfi_offset 4, -8
  35              		.cfi_offset 14, -4
  36 0002 0446     		mov	r4, r0
 319:.\sync.c      ****     RegisterSetODentryCallBack(d, 0x1005, 0, NULL);
  37              		.loc 1 319 0
  38 0004 41F20501 		movw	r1, #4101
  39 0008 0022     		movs	r2, #0
  40 000a 1346     		mov	r3, r2
  41 000c FFF7FEFF 		bl	RegisterSetODentryCallBack
  42              	.LVL1:
 320:.\sync.c      ****     RegisterSetODentryCallBack(d, 0x1006, 0, NULL);
  43              		.loc 1 320 0
  44 0010 2046     		mov	r0, r4
  45 0012 41F20601 		movw	r1, #4102
  46 0016 0022     		movs	r2, #0
  47 0018 1346     		mov	r3, r2
  48 001a FFF7FEFF 		bl	RegisterSetODentryCallBack
  49              	.LVL2:
 321:.\sync.c      ****     d->syncTimer = DelAlarm(d->syncTimer);
  50              		.loc 1 321 0
  51 001e B4F93001 		ldrsh	r0, [r4, #304]
  52 0022 FFF7FEFF 		bl	DelAlarm
  53              	.LVL3:
  54 0026 A4F83001 		strh	r0, [r4, #304]	@ movhi
  55 002a 10BD     		pop	{r4, pc}
  56              		.cfi_endproc
  57              	.LFE3:
  58              		.size	stopSYNC, .-stopSYNC
  59              		.section	.text.startSYNC,"ax",%progbits
  60              		.align	2
  61              		.global	startSYNC
  62              		.thumb
  63              		.thumb_func
  64              		.type	startSYNC, %function
  65              	startSYNC:
  66              	.LFB2:
 293:.\sync.c      ****     if(d->syncTimer != TIMER_NONE){
  67              		.loc 1 293 0
  68              		.cfi_startproc
  69              		@ args = 0, pretend = 0, frame = 0
  70              		@ frame_needed = 0, uses_anonymous_args = 0
  71              	.LVL4:
  72 0000 30B5     		push	{r4, r5, lr}
  73              		.cfi_def_cfa_offset 12
  74              		.cfi_offset 4, -12
  75              		.cfi_offset 5, -8
  76              		.cfi_offset 14, -4
  77 0002 83B0     		sub	sp, sp, #12
ARM GAS  C:\Users\PANXIA~1\AppData\Local\Temp\cc7M9Brx.s 			page 8


  78              		.cfi_def_cfa_offset 24
  79 0004 0446     		mov	r4, r0
 294:.\sync.c      ****         stopSYNC(d);
  80              		.loc 1 294 0
  81 0006 B0F93031 		ldrsh	r3, [r0, #304]
  82 000a B3F1FF3F 		cmp	r3, #-1
  83 000e 01D0     		beq	.L4
 295:.\sync.c      ****     }
  84              		.loc 1 295 0
  85 0010 FFF7FEFF 		bl	stopSYNC
  86              	.LVL5:
  87              	.L4:
 298:.\sync.c      ****     RegisterSetODentryCallBack(d, 0x1006, 0, &OnCOB_ID_SyncUpdate);
  88              		.loc 1 298 0
  89 0014 114D     		ldr	r5, .L7
  90 0016 2046     		mov	r0, r4
  91 0018 41F20501 		movw	r1, #4101
  92 001c 0022     		movs	r2, #0
  93 001e 2B46     		mov	r3, r5
  94 0020 FFF7FEFF 		bl	RegisterSetODentryCallBack
  95              	.LVL6:
 299:.\sync.c      **** 
  96              		.loc 1 299 0
  97 0024 2046     		mov	r0, r4
  98 0026 41F20601 		movw	r1, #4102
  99 002a 0022     		movs	r2, #0
 100 002c 2B46     		mov	r3, r5
 101 002e FFF7FEFF 		bl	RegisterSetODentryCallBack
 102              	.LVL7:
 301:.\sync.c      ****     {
 103              		.loc 1 301 0
 104 0032 D4F83431 		ldr	r3, [r4, #308]
 105 0036 1B68     		ldr	r3, [r3]
 106 0038 13F0804F 		tst	r3, #1073741824
 107 003c 0BD0     		beq	.L3
 301:.\sync.c      ****     {
 108              		.loc 1 301 0 is_stmt 0 discriminator 1
 109 003e D4F83831 		ldr	r3, [r4, #312]
 110 0042 1B68     		ldr	r3, [r3]
 111 0044 3BB1     		cbz	r3, .L3
 303:.\sync.c      ****                 d,
 112              		.loc 1 303 0 is_stmt 1
 113 0046 0093     		str	r3, [sp]
 114 0048 2046     		mov	r0, r4
 115 004a 0021     		movs	r1, #0
 116 004c 044A     		ldr	r2, .L7+4
 117 004e FFF7FEFF 		bl	SetAlarm
 118              	.LVL8:
 119 0052 A4F83001 		strh	r0, [r4, #304]	@ movhi
 120              	.L3:
 310:.\sync.c      **** 
 121              		.loc 1 310 0
 122 0056 03B0     		add	sp, sp, #12
 123              		.cfi_def_cfa_offset 12
 124              		@ sp needed
 125 0058 30BD     		pop	{r4, r5, pc}
 126              	.LVL9:
ARM GAS  C:\Users\PANXIA~1\AppData\Local\Temp\cc7M9Brx.s 			page 9


 127              	.L8:
 128 005a 00BF     		.align	2
 129              	.L7:
 130 005c 00000000 		.word	OnCOB_ID_SyncUpdate
 131 0060 00000000 		.word	SyncAlarm
 132              		.cfi_endproc
 133              	.LFE2:
 134              		.size	startSYNC, .-startSYNC
 135              		.section	.text.OnCOB_ID_SyncUpdate,"ax",%progbits
 136              		.align	2
 137              		.global	OnCOB_ID_SyncUpdate
 138              		.thumb
 139              		.thumb_func
 140              		.type	OnCOB_ID_SyncUpdate, %function
 141              	OnCOB_ID_SyncUpdate:
 142              	.LFB1:
 282:.\sync.c      ****     startSYNC(d);
 143              		.loc 1 282 0
 144              		.cfi_startproc
 145              		@ args = 0, pretend = 0, frame = 0
 146              		@ frame_needed = 0, uses_anonymous_args = 0
 147              	.LVL10:
 148 0000 08B5     		push	{r3, lr}
 149              		.cfi_def_cfa_offset 8
 150              		.cfi_offset 3, -8
 151              		.cfi_offset 14, -4
 283:.\sync.c      ****     return 0;
 152              		.loc 1 283 0
 153 0002 FFF7FEFF 		bl	startSYNC
 154              	.LVL11:
 285:.\sync.c      **** 
 155              		.loc 1 285 0
 156 0006 0020     		movs	r0, #0
 157 0008 08BD     		pop	{r3, pc}
 158              		.cfi_endproc
 159              	.LFE1:
 160              		.size	OnCOB_ID_SyncUpdate, .-OnCOB_ID_SyncUpdate
 161 000a 00BF     		.section	.text.sendSYNCMessage,"ax",%progbits
 162              		.align	2
 163              		.global	sendSYNCMessage
 164              		.thumb
 165              		.thumb_func
 166              		.type	sendSYNCMessage, %function
 167              	sendSYNCMessage:
 168              	.LFB4:
 322:.\sync.c      **** }
 323:.\sync.c      **** 
 324:.\sync.c      **** 
 325:.\sync.c      **** /*!
 326:.\sync.c      **** **
 327:.\sync.c      **** **
 328:.\sync.c      **** ** @param d
 329:.\sync.c      **** ** @param cob_id
 330:.\sync.c      **** **
 331:.\sync.c      **** ** @return
 332:.\sync.c      **** **/
 333:.\sync.c      **** UNS8 sendSYNCMessage(CO_Data* d)
ARM GAS  C:\Users\PANXIA~1\AppData\Local\Temp\cc7M9Brx.s 			page 10


 334:.\sync.c      **** {
 169              		.loc 1 334 0
 170              		.cfi_startproc
 171              		@ args = 0, pretend = 0, frame = 16
 172              		@ frame_needed = 0, uses_anonymous_args = 0
 173              	.LVL12:
 174 0000 00B5     		push	{lr}
 175              		.cfi_def_cfa_offset 4
 176              		.cfi_offset 14, -4
 177 0002 85B0     		sub	sp, sp, #20
 178              		.cfi_def_cfa_offset 24
 335:.\sync.c      ****   Message m;
 336:.\sync.c      **** 
 337:.\sync.c      ****   MSG_WAR(0x3001, "sendSYNC ", 0);
 338:.\sync.c      **** 
 339:.\sync.c      ****   m.cob_id = (UNS16)UNS16_LE(*d->COB_ID_Sync);
 179              		.loc 1 339 0
 180 0004 D0F83431 		ldr	r3, [r0, #308]
 181 0008 1B88     		ldrh	r3, [r3]
 182 000a ADF80430 		strh	r3, [sp, #4]	@ movhi
 340:.\sync.c      ****   m.rtr = NOT_A_REQUEST;
 183              		.loc 1 340 0
 184 000e 0023     		movs	r3, #0
 185 0010 8DF80630 		strb	r3, [sp, #6]
 341:.\sync.c      ****   m.len = 0;
 186              		.loc 1 341 0
 187 0014 8DF80730 		strb	r3, [sp, #7]
 342:.\sync.c      **** 
 343:.\sync.c      ****   return canSend(d->canHandle,&m);
 188              		.loc 1 343 0
 189 0018 D0F85001 		ldr	r0, [r0, #336]
 190              	.LVL13:
 191 001c 01A9     		add	r1, sp, #4
 192 001e FFF7FEFF 		bl	canSend
 193              	.LVL14:
 344:.\sync.c      **** }
 194              		.loc 1 344 0
 195 0022 05B0     		add	sp, sp, #20
 196              		.cfi_def_cfa_offset 4
 197              		@ sp needed
 198 0024 5DF804FB 		ldr	pc, [sp], #4
 199              		.cfi_endproc
 200              	.LFE4:
 201              		.size	sendSYNCMessage, .-sendSYNCMessage
 202              		.section	.text.proceedSYNC,"ax",%progbits
 203              		.align	2
 204              		.global	proceedSYNC
 205              		.thumb
 206              		.thumb_func
 207              		.type	proceedSYNC, %function
 208              	proceedSYNC:
 209              	.LFB6:
 345:.\sync.c      **** 
 346:.\sync.c      **** 
 347:.\sync.c      **** /*!
 348:.\sync.c      **** **
 349:.\sync.c      **** **
ARM GAS  C:\Users\PANXIA~1\AppData\Local\Temp\cc7M9Brx.s 			page 11


 350:.\sync.c      **** ** @param d
 351:.\sync.c      **** ** @param cob_id
 352:.\sync.c      **** **
 353:.\sync.c      **** ** @return
 354:.\sync.c      **** **/
 355:.\sync.c      **** UNS8 sendSYNC(CO_Data* d)
 356:.\sync.c      **** {
 357:.\sync.c      ****   UNS8 res;
 358:.\sync.c      ****   res = sendSYNCMessage(d);
 359:.\sync.c      ****   proceedSYNC(d) ;
 360:.\sync.c      ****   return res ;
 361:.\sync.c      **** }
 362:.\sync.c      **** 
 363:.\sync.c      **** /*!
 364:.\sync.c      **** **
 365:.\sync.c      **** **
 366:.\sync.c      **** ** @param d
 367:.\sync.c      **** ** @param m
 368:.\sync.c      **** **
 369:.\sync.c      **** ** @return
 370:.\sync.c      **** **/
 371:.\sync.c      **** UNS8 proceedSYNC(CO_Data* d)
 372:.\sync.c      **** {
 210              		.loc 1 372 0
 211              		.cfi_startproc
 212              		@ args = 0, pretend = 0, frame = 0
 213              		@ frame_needed = 0, uses_anonymous_args = 0
 214              	.LVL15:
 215 0000 38B5     		push	{r3, r4, r5, lr}
 216              		.cfi_def_cfa_offset 16
 217              		.cfi_offset 3, -16
 218              		.cfi_offset 4, -12
 219              		.cfi_offset 5, -8
 220              		.cfi_offset 14, -4
 221 0002 0446     		mov	r4, r0
 373:.\sync.c      **** 
 374:.\sync.c      ****   UNS8 res;
 375:.\sync.c      **** 
 376:.\sync.c      ****   MSG_WAR(0x3002, "SYNC received. Proceed. ", 0);
 377:.\sync.c      **** 
 378:.\sync.c      ****   (*d->post_sync)(d);
 222              		.loc 1 378 0
 223 0004 D0F83C31 		ldr	r3, [r0, #316]
 224 0008 9847     		blx	r3
 225              	.LVL16:
 379:.\sync.c      **** 
 380:.\sync.c      ****   /* only operational state allows PDO transmission */
 381:.\sync.c      ****   if(! d->CurrentCommunicationState.csPDO)
 226              		.loc 1 381 0
 227 000a 94F87E30 		ldrb	r3, [r4, #126]	@ zero_extendqisi2
 228 000e 53B1     		cbz	r3, .L15
 382:.\sync.c      ****     return 0;
 383:.\sync.c      **** 
 384:.\sync.c      ****   res = _sendPDOevent(d, 1 /*isSyncEvent*/ );
 229              		.loc 1 384 0
 230 0010 2046     		mov	r0, r4
 231 0012 0121     		movs	r1, #1
ARM GAS  C:\Users\PANXIA~1\AppData\Local\Temp\cc7M9Brx.s 			page 12


 232 0014 FFF7FEFF 		bl	_sendPDOevent
 233              	.LVL17:
 234 0018 0546     		mov	r5, r0
 235              	.LVL18:
 385:.\sync.c      **** 
 386:.\sync.c      ****   /*Call user app callback*/
 387:.\sync.c      ****   (*d->post_TPDO)(d);
 236              		.loc 1 387 0
 237 001a D4F84031 		ldr	r3, [r4, #320]
 238 001e 2046     		mov	r0, r4
 239 0020 9847     		blx	r3
 240              	.LVL19:
 388:.\sync.c      **** 
 389:.\sync.c      ****   return res;
 241              		.loc 1 389 0
 242 0022 2846     		mov	r0, r5
 243 0024 38BD     		pop	{r3, r4, r5, pc}
 244              	.LVL20:
 245              	.L15:
 382:.\sync.c      **** 
 246              		.loc 1 382 0
 247 0026 0020     		movs	r0, #0
 390:.\sync.c      **** 
 391:.\sync.c      **** }
 248              		.loc 1 391 0
 249 0028 38BD     		pop	{r3, r4, r5, pc}
 250              		.cfi_endproc
 251              	.LFE6:
 252              		.size	proceedSYNC, .-proceedSYNC
 253 002a 00BF     		.section	.text.sendSYNC,"ax",%progbits
 254              		.align	2
 255              		.global	sendSYNC
 256              		.thumb
 257              		.thumb_func
 258              		.type	sendSYNC, %function
 259              	sendSYNC:
 260              	.LFB5:
 356:.\sync.c      ****   UNS8 res;
 261              		.loc 1 356 0
 262              		.cfi_startproc
 263              		@ args = 0, pretend = 0, frame = 0
 264              		@ frame_needed = 0, uses_anonymous_args = 0
 265              	.LVL21:
 266 0000 38B5     		push	{r3, r4, r5, lr}
 267              		.cfi_def_cfa_offset 16
 268              		.cfi_offset 3, -16
 269              		.cfi_offset 4, -12
 270              		.cfi_offset 5, -8
 271              		.cfi_offset 14, -4
 272 0002 0546     		mov	r5, r0
 358:.\sync.c      ****   proceedSYNC(d) ;
 273              		.loc 1 358 0
 274 0004 FFF7FEFF 		bl	sendSYNCMessage
 275              	.LVL22:
 276 0008 0446     		mov	r4, r0
 277              	.LVL23:
 359:.\sync.c      ****   return res ;
ARM GAS  C:\Users\PANXIA~1\AppData\Local\Temp\cc7M9Brx.s 			page 13


 278              		.loc 1 359 0
 279 000a 2846     		mov	r0, r5
 280 000c FFF7FEFF 		bl	proceedSYNC
 281              	.LVL24:
 361:.\sync.c      **** 
 282              		.loc 1 361 0
 283 0010 2046     		mov	r0, r4
 284 0012 38BD     		pop	{r3, r4, r5, pc}
 285              		.cfi_endproc
 286              	.LFE5:
 287              		.size	sendSYNC, .-sendSYNC
 288              		.section	.text.SyncAlarm,"ax",%progbits
 289              		.align	2
 290              		.global	SyncAlarm
 291              		.thumb
 292              		.thumb_func
 293              		.type	SyncAlarm, %function
 294              	SyncAlarm:
 295              	.LFB0:
 268:.\sync.c      ****     sendSYNC(d) ;
 296              		.loc 1 268 0
 297              		.cfi_startproc
 298              		@ args = 0, pretend = 0, frame = 0
 299              		@ frame_needed = 0, uses_anonymous_args = 0
 300              	.LVL25:
 301 0000 08B5     		push	{r3, lr}
 302              		.cfi_def_cfa_offset 8
 303              		.cfi_offset 3, -8
 304              		.cfi_offset 14, -4
 269:.\sync.c      **** }
 305              		.loc 1 269 0
 306 0002 FFF7FEFF 		bl	sendSYNC
 307              	.LVL26:
 308 0006 08BD     		pop	{r3, pc}
 309              		.cfi_endproc
 310              	.LFE0:
 311              		.size	SyncAlarm, .-SyncAlarm
 312              		.section	.text._post_sync,"ax",%progbits
 313              		.align	2
 314              		.global	_post_sync
 315              		.thumb
 316              		.thumb_func
 317              		.type	_post_sync, %function
 318              	_post_sync:
 319              	.LFB7:
 392:.\sync.c      **** 
 393:.\sync.c      **** 
 394:.\sync.c      **** void _post_sync(CO_Data* d){}
 320              		.loc 1 394 0
 321              		.cfi_startproc
 322              		@ args = 0, pretend = 0, frame = 0
 323              		@ frame_needed = 0, uses_anonymous_args = 0
 324              		@ link register save eliminated.
 325              	.LVL27:
 326 0000 7047     		bx	lr
 327              		.cfi_endproc
 328              	.LFE7:
ARM GAS  C:\Users\PANXIA~1\AppData\Local\Temp\cc7M9Brx.s 			page 14


 329              		.size	_post_sync, .-_post_sync
 330 0002 00BF     		.section	.text._post_TPDO,"ax",%progbits
 331              		.align	2
 332              		.global	_post_TPDO
 333              		.thumb
 334              		.thumb_func
 335              		.type	_post_TPDO, %function
 336              	_post_TPDO:
 337              	.LFB8:
 395:.\sync.c      **** void _post_TPDO(CO_Data* d){}
 338              		.loc 1 395 0
 339              		.cfi_startproc
 340              		@ args = 0, pretend = 0, frame = 0
 341              		@ frame_needed = 0, uses_anonymous_args = 0
 342              		@ link register save eliminated.
 343              	.LVL28:
 344 0000 7047     		bx	lr
 345              		.cfi_endproc
 346              	.LFE8:
 347              		.size	_post_TPDO, .-_post_TPDO
 348 0002 00BF     		.text
 349              	.Letext0:
 350              		.file 2 ".\\data.h"
 351              		.file 3 ".\\can.h"
 352              		.file 4 ".\\applicfg.h"
 353              		.file 5 ".\\objdictdef.h"
 354              		.file 6 ".\\objacces.h"
 355              		.file 7 ".\\timer.h"
 356              		.file 8 ".\\sdo.h"
 357              		.file 9 ".\\pdo.h"
 358              		.file 10 ".\\states.h"
 359              		.file 11 ".\\lifegrd.h"
 360              		.file 12 ".\\sync.h"
 361              		.file 13 ".\\emcy.h"
 362              		.file 14 ".\\canfestival.h"