ARM GAS  C:\Users\PANXIA~1\AppData\Local\Temp\ccSHwGSg.s 			page 1


   1              		.syntax unified
   2              		.cpu cortex-m3
   3              		.fpu softvfp
   4              		.eabi_attribute 20, 1
   5              		.eabi_attribute 21, 1
   6              		.eabi_attribute 23, 3
   7              		.eabi_attribute 24, 1
   8              		.eabi_attribute 25, 1
   9              		.eabi_attribute 26, 1
  10              		.eabi_attribute 30, 1
  11              		.eabi_attribute 34, 1
  12              		.eabi_attribute 18, 4
  13              		.thumb
  14              		.file	"Valve_Control.c"
  15              		.text
  16              	.Ltext0:
  17              		.cfi_sections	.debug_frame
  18              		.section	.text.EEPROM_Array_Read,"ax",%progbits
  19              		.align	2
  20              		.global	EEPROM_Array_Read
  21              		.thumb
  22              		.thumb_func
  23              		.type	EEPROM_Array_Read, %function
  24              	EEPROM_Array_Read:
  25              	.LFB65:
  26              		.file 1 ".\\Valve_Control.c"
   1:.\Valve_Control.c **** /* ========================================
   2:.\Valve_Control.c ****  *
   3:.\Valve_Control.c ****  * Copyright YOUR COMPANY, THE YEAR
   4:.\Valve_Control.c ****  * All Rights Reserved
   5:.\Valve_Control.c ****  * UNPUBLISHED, LICENSED SOFTWARE.
   6:.\Valve_Control.c ****  *
   7:.\Valve_Control.c ****  * CONFIDENTIAL AND PROPRIETARY INFORMATION
   8:.\Valve_Control.c ****  * WHICH IS THE PROPERTY OF your company.
   9:.\Valve_Control.c ****  *
  10:.\Valve_Control.c ****  * ========================================
  11:.\Valve_Control.c **** */
  12:.\Valve_Control.c **** /* ========================================
  13:.\Valve_Control.c ****  *
  14:.\Valve_Control.c ****  * Copyright YOUR COMPANY, THE YEAR
  15:.\Valve_Control.c ****  * All Rights Reserved
  16:.\Valve_Control.c ****  * UNPUBLISHED, LICENSED SOFTWARE.
  17:.\Valve_Control.c ****  *
  18:.\Valve_Control.c ****  * CONFIDENTIAL AND PROPRIETARY INFORMATION
  19:.\Valve_Control.c ****  * WHICH IS THE PROPERTY OF your company.
  20:.\Valve_Control.c ****  *
  21:.\Valve_Control.c ****  * ========================================
  22:.\Valve_Control.c **** */
  23:.\Valve_Control.c **** #include "product.h"
  24:.\Valve_Control.c **** #include "TestSlave.h"
  25:.\Valve_Control.c **** 
  26:.\Valve_Control.c **** #define BIT1 0X01       //KA1
  27:.\Valve_Control.c **** #define BIT2 0X02       //KA2
  28:.\Valve_Control.c **** #define BIT3 0X04       //KA3
  29:.\Valve_Control.c **** #define BIT4 0X08       //KA4
  30:.\Valve_Control.c **** #define BIT5 0X10       //KA5
  31:.\Valve_Control.c **** #define BIT6 0X20       //KA6
ARM GAS  C:\Users\PANXIA~1\AppData\Local\Temp\ccSHwGSg.s 			page 2


  32:.\Valve_Control.c **** #define BIT7 0X40
  33:.\Valve_Control.c **** #define BIT8 0X80
  34:.\Valve_Control.c **** 
  35:.\Valve_Control.c **** #define KA1_bit     0
  36:.\Valve_Control.c **** #define KA2_bit     1
  37:.\Valve_Control.c **** #define KA3_bit     2
  38:.\Valve_Control.c **** #define KA4_bit     3
  39:.\Valve_Control.c **** #define KA5_bit     4
  40:.\Valve_Control.c **** #define KA6_bit     5
  41:.\Valve_Control.c **** 
  42:.\Valve_Control.c **** #define INITIAL        0x01
  43:.\Valve_Control.c **** static const uint8 CYCODE Test_Array[1]={0XFF};
  44:.\Valve_Control.c **** static const uint8 CYCODE eepromArray[]={0x00, 0x00, 0x00, 0x00, 0x00, 0x00,0x00,0x00};  //ÈòÄÁªÑÈÖ
  45:.\Valve_Control.c **** //static const uint8 CYCODE eepromUnlodeTime = 0;  //ÈòÄÁªÑÈÖçÁΩÆÂàùÂßãÂåñÂÄº
  46:.\Valve_Control.c **** //static const uint8 CYCODE eepromKeepTime   = 0;  //ÈòÄÁªÑÈÖçÁΩÆÂàùÂßãÂåñÂÄº
  47:.\Valve_Control.c **** 
  48:.\Valve_Control.c **** struct CUTPARA	CutReg;
  49:.\Valve_Control.c **** 
  50:.\Valve_Control.c **** uint8 LED_Status[]={0x01,0x02,0x04,0x08,0x10,0x20};
  51:.\Valve_Control.c **** uint8 FootStart_state = 0x01;
  52:.\Valve_Control.c **** uint8 FootUP_State    = 0x01;
  53:.\Valve_Control.c **** CY_ISR_PROTO(Stroke_ISRHandle);
  54:.\Valve_Control.c **** uint16 Get_ADvalue(uint8 timetype);
  55:.\Valve_Control.c **** 
  56:.\Valve_Control.c **** extern int ISR_Stroke_Timer_states;
  57:.\Valve_Control.c **** /**********************************************************
  58:.\Valve_Control.c **** ÂáΩÊï∞ÂêçÔºö
  59:.\Valve_Control.c **** Âäü  ËÉΩÔºö
  60:.\Valve_Control.c **** ÂèÇ  Êï∞ÔºöÊó†
  61:.\Valve_Control.c **** ËøîÂõûÂÄºÔºöÊó†
  62:.\Valve_Control.c **** ËØ¥Êòé  ÔºöËß¶Âèë‰∏≠Êñ≠Êó∂Èó¥10ms
  63:.\Valve_Control.c **** ************************************************************/
  64:.\Valve_Control.c **** void timer_10ms(void)
  65:.\Valve_Control.c **** {
  66:.\Valve_Control.c **** 	//Stroke_Timer_STATUS;
  67:.\Valve_Control.c **** //	ISR_Stroke_Timer_ClearPending();
  68:.\Valve_Control.c **** //	if(CutReg.ModeRunFlag == 0x01)
  69:.\Valve_Control.c **** //	{
  70:.\Valve_Control.c ****    ISR_Stroke_Timer_states = 0x00; 
  71:.\Valve_Control.c ****  
  72:.\Valve_Control.c ****    if(((Enter_Start == System_enable)  || ( One_Work_Runing == CutReg.OneWorkFinshState )) && Enter
  73:.\Valve_Control.c ****     {
  74:.\Valve_Control.c ****         
  75:.\Valve_Control.c **** 		if(CutMode() == CUTSMODE && CutReg.CutTimeStatus < VUnload && (!FootStart()))
  76:.\Valve_Control.c **** 		{
  77:.\Valve_Control.c **** 			CyDelay(5);
  78:.\Valve_Control.c **** 			if(!FootStart())
  79:.\Valve_Control.c **** 			{
  80:.\Valve_Control.c **** 				ValveOut(CutReg.Action[VBack]);
  81:.\Valve_Control.c ****                 LED_WRITE(LED_Status[VBack]);
  82:.\Valve_Control.c **** 				CutReg.CutTimeStatus = VBack;
  83:.\Valve_Control.c ****               //CutReg.OneWorkFinshState = One_Work_Runing;   /* Â¢ûÂä†Âä®‰ΩúÂÆåÊàêÊ†áÂøó20160820*/
  84:.\Valve_Control.c **** 			}
  85:.\Valve_Control.c **** 		} 
  86:.\Valve_Control.c ****        // 
  87:.\Valve_Control.c **** 		switch(CutReg.CutTimeStatus)
  88:.\Valve_Control.c **** 		{
ARM GAS  C:\Users\PANXIA~1\AppData\Local\Temp\ccSHwGSg.s 			page 3


  89:.\Valve_Control.c **** 		case VFast:
  90:.\Valve_Control.c ****            CutReg.OneWorkFinshState = One_Work_Runing;   /* Â¢ûÂä†Âä®‰ΩúÂÆåÊàêÊ†áÂøó20160820*/
  91:.\Valve_Control.c **** 			if(DownPoint())
  92:.\Valve_Control.c **** 			{
  93:.\Valve_Control.c **** 				ValveOut(CutReg.Action[VSlow]);
  94:.\Valve_Control.c ****                 LED_WRITE(LED_Status[VSlow]);
  95:.\Valve_Control.c **** 				CutReg.CutTimeStatus = VSlow;
  96:.\Valve_Control.c **** 			}
  97:.\Valve_Control.c **** 			else
  98:.\Valve_Control.c **** 			{
  99:.\Valve_Control.c **** 				ValveOut(CutReg.Action[VFast]);
 100:.\Valve_Control.c ****                 LED_WRITE(LED_Status[VFast]);
 101:.\Valve_Control.c **** 				CutReg.CutTimeStatus = VFast;
 102:.\Valve_Control.c **** 			}
 103:.\Valve_Control.c **** 			break;
 104:.\Valve_Control.c **** 		case VSlow:
 105:.\Valve_Control.c ****             //  CutReg.OneWorkFinshState = One_Work_Runing;   /* Â¢ûÂä†Âä®‰ΩúÂÆåÊàêÊ†áÂøó20160820*/
 106:.\Valve_Control.c **** 			if(DownPoint())
 107:.\Valve_Control.c **** 			{
 108:.\Valve_Control.c **** 				ValveOut(CutReg.Action[VKeep]);
 109:.\Valve_Control.c ****                 LED_WRITE(LED_Status[VKeep]);
 110:.\Valve_Control.c **** 				CutReg.CutTimeStatus = VKeep;
 111:.\Valve_Control.c **** 				CutReg.Cnt = 0;
 112:.\Valve_Control.c **** 			}
 113:.\Valve_Control.c **** 			else
 114:.\Valve_Control.c **** 			{
 115:.\Valve_Control.c **** 				ValveOut(CutReg.Action[VFast]);
 116:.\Valve_Control.c ****                 LED_WRITE(LED_Status[VFast]);
 117:.\Valve_Control.c **** 				CutReg.CutTimeStatus = VFast;
 118:.\Valve_Control.c **** 			}
 119:.\Valve_Control.c **** 			break;
 120:.\Valve_Control.c **** 		case VKeep:
 121:.\Valve_Control.c ****            //  CutReg.OneWorkFinshState = One_Work_Runing;   /* Â¢ûÂä†Âä®‰ΩúÂÆåÊàêÊ†áÂøó20160820*/
 122:.\Valve_Control.c **** 			CutReg.Cnt++;
 123:.\Valve_Control.c **** 			if(CutReg.Cnt >= CutReg.KeepTime)
 124:.\Valve_Control.c **** 			{
 125:.\Valve_Control.c **** 				CutReg.Cnt = 0;
 126:.\Valve_Control.c **** 				ValveOut(CutReg.Action[VUnload]);
 127:.\Valve_Control.c ****                 LED_WRITE(LED_Status[VUnload]);
 128:.\Valve_Control.c **** 				CutReg.CutTimeStatus = VUnload;
 129:.\Valve_Control.c **** 			}
 130:.\Valve_Control.c **** 			else
 131:.\Valve_Control.c **** 			{
 132:.\Valve_Control.c **** 				ValveOut(CutReg.Action[VKeep]);
 133:.\Valve_Control.c ****                 LED_WRITE(LED_Status[VKeep]);
 134:.\Valve_Control.c **** 				CutReg.CutTimeStatus = VKeep;
 135:.\Valve_Control.c **** 			}
 136:.\Valve_Control.c **** 			break;
 137:.\Valve_Control.c **** 		case VUnload:
 138:.\Valve_Control.c ****           //    CutReg.OneWorkFinshState = One_Work_Runing;   /* Â¢ûÂä†Âä®‰ΩúÂÆåÊàêÊ†áÂøó20160820*/
 139:.\Valve_Control.c **** 			CutReg.Cnt++;
 140:.\Valve_Control.c **** 			if(CutReg.Cnt >= CutReg.UnloadTime)
 141:.\Valve_Control.c **** 			{
 142:.\Valve_Control.c **** 				CutReg.Cnt = 0;
 143:.\Valve_Control.c **** 				ValveOut(CutReg.Action[VBack]);
 144:.\Valve_Control.c ****                 LED_WRITE(LED_Status[VBack]);
 145:.\Valve_Control.c **** 				CutReg.CutTimeStatus = VBack;
ARM GAS  C:\Users\PANXIA~1\AppData\Local\Temp\ccSHwGSg.s 			page 4


 146:.\Valve_Control.c **** 			}
 147:.\Valve_Control.c **** 			else
 148:.\Valve_Control.c **** 			{
 149:.\Valve_Control.c **** 				ValveOut(CutReg.Action[VUnload]);
 150:.\Valve_Control.c ****                 LED_WRITE(LED_Status[VUnload]);
 151:.\Valve_Control.c **** 				CutReg.CutTimeStatus = VUnload;
 152:.\Valve_Control.c **** 			}
 153:.\Valve_Control.c **** 			break;
 154:.\Valve_Control.c **** 		case VBack:
 155:.\Valve_Control.c ****          //   CutReg.OneWorkFinshState = One_Work_Runing;   /* Â¢ûÂä†Âä®‰ΩúÂÆåÊàêÊ†áÂøó20160820*/
 156:.\Valve_Control.c **** 			if(UpperPoint())
 157:.\Valve_Control.c **** 			{
 158:.\Valve_Control.c **** 				if(UpperPoint())
 159:.\Valve_Control.c **** 				{
 160:.\Valve_Control.c **** 					ValveOut(CutReg.Action[VStop]);
 161:.\Valve_Control.c ****                     LED_WRITE(LED_Status[VStop]);
 162:.\Valve_Control.c **** 					CutReg.CutTimeStatus = VStop;
 163:.\Valve_Control.c **** 					CutReg.Cnt = 0;
 164:.\Valve_Control.c ****                     CutReg.OneWorkFinshState = One_Work_Finish;//ÂÆåÊàê‰∏ÄÊ¨°Âä®‰ΩúÊ†áÂøó 20160829Á
 165:.\Valve_Control.c **** 				}
 166:.\Valve_Control.c **** 			}
 167:.\Valve_Control.c **** 			else
 168:.\Valve_Control.c **** 			{
 169:.\Valve_Control.c **** 				ValveOut(CutReg.Action[VBack]);
 170:.\Valve_Control.c ****                 LED_WRITE(LED_Status[VBack]);
 171:.\Valve_Control.c **** 				CutReg.CutTimeStatus = VBack;
 172:.\Valve_Control.c **** 			}
 173:.\Valve_Control.c **** 			break;
 174:.\Valve_Control.c **** 		case VStop:
 175:.\Valve_Control.c **** 			CutReg.Cnt++;
 176:.\Valve_Control.c **** 			if(CutReg.Cnt >= 100  )//
 177:.\Valve_Control.c **** 			{
 178:.\Valve_Control.c **** 				CutReg.Cnt = 0;
 179:.\Valve_Control.c **** 				ISR_Stroke_Timer_states =0x01;
 180:.\Valve_Control.c ****           
 181:.\Valve_Control.c **** 				CutReg.CutTimeStatus = VFast;  //ÁªìÊùü
 182:.\Valve_Control.c ****             
 183:.\Valve_Control.c ****                 CutReg.CutTimeStatus = VStop;
 184:.\Valve_Control.c **** 				CutReg.CutStatus = JudgMode;
 185:.\Valve_Control.c ****              
 186:.\Valve_Control.c **** 			}
 187:.\Valve_Control.c **** 			else
 188:.\Valve_Control.c **** 			{
 189:.\Valve_Control.c **** 				ValveOut(CutReg.Action[VStop]);
 190:.\Valve_Control.c ****                 LED_WRITE(LED_Status[VStop]);
 191:.\Valve_Control.c **** 				CutReg.CutTimeStatus = VStop;
 192:.\Valve_Control.c ****                 
 193:.\Valve_Control.c **** 			}
 194:.\Valve_Control.c ****            
 195:.\Valve_Control.c **** 			break;
 196:.\Valve_Control.c **** 		default : break;
 197:.\Valve_Control.c **** 		}
 198:.\Valve_Control.c ****     }
 199:.\Valve_Control.c **** //	}
 200:.\Valve_Control.c **** //	else if(CutReg.ModeRunFlag == 0x02)//ÁÇπÂä®
 201:.\Valve_Control.c **** //	{
 202:.\Valve_Control.c **** //		CutReg.Cnt++;
ARM GAS  C:\Users\PANXIA~1\AppData\Local\Temp\ccSHwGSg.s 			page 5


 203:.\Valve_Control.c **** //	}
 204:.\Valve_Control.c **** //	else
 205:.\Valve_Control.c **** //	{
 206:.\Valve_Control.c **** //		CutReg.Cnt++;
 207:.\Valve_Control.c **** //	}
 208:.\Valve_Control.c **** 
 209:.\Valve_Control.c **** }
 210:.\Valve_Control.c **** 
 211:.\Valve_Control.c **** 
 212:.\Valve_Control.c **** /*****************************************************
 213:.\Valve_Control.c **** ÂáΩÊï∞ÂêçÔºöuint8 Stroke_Process(void)
 214:.\Valve_Control.c **** Âäü  ËÉΩÔºöÂâ™ÂàáË°åÁ®ãÊéßÂà∂ÊµÅÁ®ã
 215:.\Valve_Control.c **** ÂèÇ  Êï∞ÔºöÊó†
 216:.\Valve_Control.c **** ËøîÂõûÂÄºÔºöÊó†
 217:.\Valve_Control.c **** *****************************************************/
 218:.\Valve_Control.c **** uint8 Stroke_Process(void)
 219:.\Valve_Control.c **** {
 220:.\Valve_Control.c **** 	uint8 ModeFlag = 0;
 221:.\Valve_Control.c **** 	static int16 UnloadTime = 0;
 222:.\Valve_Control.c **** 	ModeFlag = 0;
 223:.\Valve_Control.c **** 	
 224:.\Valve_Control.c **** 	switch(CutReg.CutStatus)
 225:.\Valve_Control.c **** 	{
 226:.\Valve_Control.c **** 	case StrokeStart:
 227:.\Valve_Control.c **** 		if(CutMode() == CUTCMODE || CutMode() == CUTSMODE)//ËøûÁª≠ ÂçïÊ¨°
 228:.\Valve_Control.c **** 		{
 229:.\Valve_Control.c ****             CutReg.CutStatus = WaitNoFoot;
 230:.\Valve_Control.c **** 		}
 231:.\Valve_Control.c **** 		else if(CutMode() == CUTJMODE)//ÁÇπÂä®
 232:.\Valve_Control.c **** 		{
 233:.\Valve_Control.c **** 			CutReg.CutStatus = JOGMODE;
 234:.\Valve_Control.c **** 		}
 235:.\Valve_Control.c ****         
 236:.\Valve_Control.c **** 		break;
 237:.\Valve_Control.c **** 	case JOGMODE:
 238:.\Valve_Control.c ****         
 239:.\Valve_Control.c **** 		if(CutMode() != CUTJMODE)
 240:.\Valve_Control.c **** 		{
 241:.\Valve_Control.c **** 			ValveOut(CutReg.Action[VStop]);
 242:.\Valve_Control.c ****             LED_WRITE(LED_Status[VStop]);
 243:.\Valve_Control.c **** 			CutReg.CutStatus = StrokeStart;
 244:.\Valve_Control.c **** 		}
 245:.\Valve_Control.c **** 		else if(FootStart() && FootStart_state)//‰∏ã
 246:.\Valve_Control.c **** 		{
 247:.\Valve_Control.c ****             /* Â¢ûÂä†Âä®‰ΩúÂÆåÊàêÊ†áÂøó20160820*/
 248:.\Valve_Control.c ****             CutReg.OneWorkFinshState = One_Work_Runing;
 249:.\Valve_Control.c **** 			while(FootStart())
 250:.\Valve_Control.c **** 			{
 251:.\Valve_Control.c **** //				MoveLED(1);
 252:.\Valve_Control.c **** 				if(DownPoint())
 253:.\Valve_Control.c **** 				{
 254:.\Valve_Control.c **** 					ValveOut(CutReg.Action[VSlow]);
 255:.\Valve_Control.c ****                     LED_WRITE(LED_Status[VSlow]);
 256:.\Valve_Control.c **** 					UnloadTime = CutReg.UnloadTime;
 257:.\Valve_Control.c **** 				}
 258:.\Valve_Control.c **** 				else
 259:.\Valve_Control.c **** 				{
ARM GAS  C:\Users\PANXIA~1\AppData\Local\Temp\ccSHwGSg.s 			page 6


 260:.\Valve_Control.c **** 					ValveOut(CutReg.Action[VFast]);
 261:.\Valve_Control.c ****                     LED_WRITE(LED_Status[VFast]);
 262:.\Valve_Control.c **** 				}
 263:.\Valve_Control.c **** 				if(CutMode() != CUTJMODE)
 264:.\Valve_Control.c **** 				{
 265:.\Valve_Control.c **** 					ValveOut(CutReg.Action[VStop]);
 266:.\Valve_Control.c ****                     LED_WRITE(LED_Status[VStop]);
 267:.\Valve_Control.c **** 					CutReg.CutStatus = StrokeStart;
 268:.\Valve_Control.c **** 					break;
 269:.\Valve_Control.c **** 				}
 270:.\Valve_Control.c **** 			}
 271:.\Valve_Control.c **** 			ValveOut(CutReg.Action[VStop]);
 272:.\Valve_Control.c ****             LED_WRITE(LED_Status[VStop]);
 273:.\Valve_Control.c **** //			MoveLED(0);
 274:.\Valve_Control.c **** 		}
 275:.\Valve_Control.c **** 		else if(FootUp() && FootUP_State)//‰∏ä
 276:.\Valve_Control.c **** 		{
 277:.\Valve_Control.c **** 			UnloadTime = 0;
 278:.\Valve_Control.c **** 			while(FootUp())
 279:.\Valve_Control.c **** 			{
 280:.\Valve_Control.c **** //				MoveLED(1);
 281:.\Valve_Control.c **** 				if(UpperPoint())
 282:.\Valve_Control.c **** 				{
 283:.\Valve_Control.c **** 					ValveOut(CutReg.Action[VStop]);
 284:.\Valve_Control.c ****                     LED_WRITE(LED_Status[VStop]);
 285:.\Valve_Control.c **** 				}
 286:.\Valve_Control.c **** 				else
 287:.\Valve_Control.c **** 				{
 288:.\Valve_Control.c **** 					ValveOut(CutReg.Action[VBack]);
 289:.\Valve_Control.c ****                     LED_WRITE(LED_Status[VBack]);
 290:.\Valve_Control.c **** 				}
 291:.\Valve_Control.c **** 				if(CutMode() != CUTJMODE)
 292:.\Valve_Control.c **** 				{
 293:.\Valve_Control.c **** 					ValveOut(CutReg.Action[VStop]);
 294:.\Valve_Control.c ****                     LED_WRITE(LED_Status[VStop]);
 295:.\Valve_Control.c **** 					CutReg.CutStatus = StrokeStart;
 296:.\Valve_Control.c **** 					break;
 297:.\Valve_Control.c **** 				}
 298:.\Valve_Control.c **** 			}
 299:.\Valve_Control.c **** 			ValveOut(CutReg.Action[VStop]);
 300:.\Valve_Control.c ****             LED_WRITE(LED_Status[VStop]);
 301:.\Valve_Control.c **** //			MoveLED(0);
 302:.\Valve_Control.c **** 		}
 303:.\Valve_Control.c **** 			
 304:.\Valve_Control.c **** 		if(CutMode() == CUTJMODE && !FootStart() && CutReg.Action[VUnload] != 0 && UnloadTime > 0)
 305:.\Valve_Control.c **** 		{
 306:.\Valve_Control.c **** 			ValveOut(CutReg.Action[VUnload]);//Âç∏Ëç∑			
 307:.\Valve_Control.c **** 			UnloadTime -= 1;
 308:.\Valve_Control.c **** 			CyDelay(10);
 309:.\Valve_Control.c **** 		}
 310:.\Valve_Control.c **** 		else
 311:.\Valve_Control.c ****         {
 312:.\Valve_Control.c **** 			 ValveOut(CutReg.Action[VStop]);//ÂÅúÊ≠¢
 313:.\Valve_Control.c ****             /* Â¢ûÂä†Âä®‰ΩúÂÆåÊàêÊ†áÂøó20160820*/
 314:.\Valve_Control.c ****              CutReg.OneWorkFinshState = One_Work_Finish;
 315:.\Valve_Control.c ****         }
 316:.\Valve_Control.c **** 		
ARM GAS  C:\Users\PANXIA~1\AppData\Local\Temp\ccSHwGSg.s 			page 7


 317:.\Valve_Control.c **** 		break;
 318:.\Valve_Control.c **** 	case WaitNoFoot://ËØªÂâ™ÂàáÊï∞ÊçÆ
 319:.\Valve_Control.c **** 		if(!FootStart())
 320:.\Valve_Control.c ****         {
 321:.\Valve_Control.c **** 			CyDelay(5);
 322:.\Valve_Control.c **** 			if(!FootStart())
 323:.\Valve_Control.c **** 			{
 324:.\Valve_Control.c ****             	CutReg.CutStatus = WaitFoot;
 325:.\Valve_Control.c **** 			}
 326:.\Valve_Control.c ****         }
 327:.\Valve_Control.c ****         else
 328:.\Valve_Control.c ****         {
 329:.\Valve_Control.c ****             CutReg.CutStatus = WaitNoFoot;	
 330:.\Valve_Control.c ****         }
 331:.\Valve_Control.c **** 		break;
 332:.\Valve_Control.c **** 	case WaitFoot: //Á≠âÂæÖËÑöË∏èÂºÄÂÖ≥ÊúâÊïà‰ø°Âè∑
 333:.\Valve_Control.c **** 		if(FootStart())
 334:.\Valve_Control.c **** 		{
 335:.\Valve_Control.c **** 			CyDelay(5);
 336:.\Valve_Control.c **** 			if(FootStart())
 337:.\Valve_Control.c **** 			{                
 338:.\Valve_Control.c **** 				CutReg.CutStatus  = CutStart;
 339:.\Valve_Control.c ****                 CutReg.SToDotFlag = 0;
 340:.\Valve_Control.c **** 			}
 341:.\Valve_Control.c **** 		}
 342:.\Valve_Control.c **** 		else
 343:.\Valve_Control.c **** 		{
 344:.\Valve_Control.c **** 			CutReg.CutStatus = WaitFoot;   
 345:.\Valve_Control.c ****             if( CutReg.SToDotFlag && CutMode() == CUTJMODE)
 346:.\Valve_Control.c ****             {
 347:.\Valve_Control.c ****                 CutReg.CutStatus = JOGMODE;
 348:.\Valve_Control.c ****             }
 349:.\Valve_Control.c **** 		}
 350:.\Valve_Control.c **** 		break;
 351:.\Valve_Control.c **** 	case CutStart:
 352:.\Valve_Control.c **** //		CutReg.KeepTime = (Get_ADvalue(0) - 900)/2;
 353:.\Valve_Control.c **** //       CutReg.KeepTime = Get_ADvalue(0) - 900;
 354:.\Valve_Control.c **** //		CutReg.UnloadTime = Get_ADvalue(1) - 900;
 355:.\Valve_Control.c **** 		CutReg.CutStatus = Cutting;
 356:.\Valve_Control.c **** 		CutReg.Cnt = 0;
 357:.\Valve_Control.c **** 		CutReg.CutTimeStatus = VFast;
 358:.\Valve_Control.c **** 		ISR_Stroke_Timer_states =0x00;
 359:.\Valve_Control.c **** //		MoveLED(1);
 360:.\Valve_Control.c **** 		break;
 361:.\Valve_Control.c **** 	case Cutting: break;
 362:.\Valve_Control.c **** 	case JudgMode://Âà§Êñ≠ ÂçïÊ¨°/ËøûÁª≠
 363:.\Valve_Control.c **** //		MoveLED(0);
 364:.\Valve_Control.c **** 		if(CutMode() == CUTCMODE)//ËøûÁª≠
 365:.\Valve_Control.c **** 		{
 366:.\Valve_Control.c **** 			CutReg.CutStatus = CutStart;//Âõû
 367:.\Valve_Control.c **** 		}
 368:.\Valve_Control.c **** 		else if(CutMode() == CUTSMODE)//ÂçïÊ¨°
 369:.\Valve_Control.c **** 		{
 370:.\Valve_Control.c **** 			CutReg.CutStatus = WaitNoFoot;
 371:.\Valve_Control.c ****             CutReg.SToDotFlag = 1;
 372:.\Valve_Control.c ****            
 373:.\Valve_Control.c **** 		}
ARM GAS  C:\Users\PANXIA~1\AppData\Local\Temp\ccSHwGSg.s 			page 8


 374:.\Valve_Control.c **** 		else if(CutMode() == CUTJMODE)//ÁÇπÂä®
 375:.\Valve_Control.c **** 		{
 376:.\Valve_Control.c **** 			CutReg.CutStatus = JOGMODE;
 377:.\Valve_Control.c ****             ModeFlag = 1;
 378:.\Valve_Control.c **** 		}
 379:.\Valve_Control.c **** 		break;
 380:.\Valve_Control.c **** 	default : break;
 381:.\Valve_Control.c **** 	}
 382:.\Valve_Control.c **** 	return ModeFlag;
 383:.\Valve_Control.c **** }
 384:.\Valve_Control.c **** 
 385:.\Valve_Control.c **** /**********************************************************
 386:.\Valve_Control.c **** ÂáΩÊï∞ÂêçÔºö
 387:.\Valve_Control.c **** Âäü  ËÉΩÔºö
 388:.\Valve_Control.c **** ÂèÇ  Êï∞ÔºöÊó†
 389:.\Valve_Control.c **** ËøîÂõûÂÄºÔºöÊó†
 390:.\Valve_Control.c **** ************************************************************/
 391:.\Valve_Control.c **** void EEPROM_Array_Read(uint8 *eepromPtr,uint8 *buf,uint16 len)
 392:.\Valve_Control.c **** {
  27              		.loc 1 392 0
  28              		.cfi_startproc
  29              		@ args = 0, pretend = 0, frame = 0
  30              		@ frame_needed = 0, uses_anonymous_args = 0
  31              	.LVL0:
  32 0000 70B5     		push	{r4, r5, r6, lr}
  33              		.cfi_def_cfa_offset 16
  34              		.cfi_offset 4, -16
  35              		.cfi_offset 5, -12
  36              		.cfi_offset 6, -8
  37              		.cfi_offset 14, -4
  38 0002 0E46     		mov	r6, r1
  39 0004 1546     		mov	r5, r2
  40              	.LVL1:
 393:.\Valve_Control.c **** 	reg8 * RegPointer;
 394:.\Valve_Control.c **** 	uint16 i;
 395:.\Valve_Control.c **** 	
 396:.\Valve_Control.c **** //	RegPointer = (reg8 *)CYDEV_EE_BASE;
 397:.\Valve_Control.c ****     
 398:.\Valve_Control.c **** // RegPointer = eepromPtr;
 399:.\Valve_Control.c **** 	for(i = 0; i < len; i++)
  41              		.loc 1 399 0
  42 0006 0024     		movs	r4, #0
  43 0008 05E0     		b	.L2
  44              	.LVL2:
  45              	.L3:
 400:.\Valve_Control.c **** 	{
 401:.\Valve_Control.c **** 		buf[i] = EEPROM_1_ReadByte(i);
  46              		.loc 1 401 0 discriminator 3
  47 000a 2046     		mov	r0, r4
  48 000c FFF7FEFF 		bl	EEPROM_1_ReadByte
  49              	.LVL3:
  50 0010 3055     		strb	r0, [r6, r4]
 399:.\Valve_Control.c **** 	{
  51              		.loc 1 399 0 discriminator 3
  52 0012 0134     		adds	r4, r4, #1
  53              	.LVL4:
  54 0014 A4B2     		uxth	r4, r4
ARM GAS  C:\Users\PANXIA~1\AppData\Local\Temp\ccSHwGSg.s 			page 9


  55              	.LVL5:
  56              	.L2:
 399:.\Valve_Control.c **** 	{
  57              		.loc 1 399 0 is_stmt 0 discriminator 1
  58 0016 AC42     		cmp	r4, r5
  59 0018 F7D3     		bcc	.L3
 402:.\Valve_Control.c **** 	}
 403:.\Valve_Control.c **** }
  60              		.loc 1 403 0 is_stmt 1
  61 001a 70BD     		pop	{r4, r5, r6, pc}
  62              		.cfi_endproc
  63              	.LFE65:
  64              		.size	EEPROM_Array_Read, .-EEPROM_Array_Read
  65              		.section	.text.EEPROM_Array_Write,"ax",%progbits
  66              		.align	2
  67              		.global	EEPROM_Array_Write
  68              		.thumb
  69              		.thumb_func
  70              		.type	EEPROM_Array_Write, %function
  71              	EEPROM_Array_Write:
  72              	.LFB66:
 404:.\Valve_Control.c **** void EEPROM_Array_Write(uint8 *eepromPtr,uint8 *buf,uint16 len) //Ê≤°ÊúâÂÅöË∂äÁïåÂ§ÑÁêÜÔºåË∂ÖËøá16‰
 405:.\Valve_Control.c **** {
  73              		.loc 1 405 0
  74              		.cfi_startproc
  75              		@ args = 0, pretend = 0, frame = 0
  76              		@ frame_needed = 0, uses_anonymous_args = 0
  77              	.LVL6:
 406:.\Valve_Control.c ****     if(--len)
  78              		.loc 1 406 0
  79 0000 012A     		cmp	r2, #1
  80 0002 06D0     		beq	.L8
 405:.\Valve_Control.c ****     if(--len)
  81              		.loc 1 405 0
  82 0004 08B5     		push	{r3, lr}
  83              		.cfi_def_cfa_offset 8
  84              		.cfi_offset 3, -8
  85              		.cfi_offset 14, -4
  86 0006 0346     		mov	r3, r0
 407:.\Valve_Control.c ****     EEPROM_1_Write(buf,eepromPtr[0]);
  87              		.loc 1 407 0
  88 0008 0846     		mov	r0, r1
  89              	.LVL7:
  90 000a 1978     		ldrb	r1, [r3]	@ zero_extendqisi2
  91              	.LVL8:
  92 000c FFF7FEFF 		bl	EEPROM_1_Write
  93              	.LVL9:
  94 0010 08BD     		pop	{r3, pc}
  95              	.LVL10:
  96              	.L8:
  97              		.cfi_def_cfa_offset 0
  98              		.cfi_restore 3
  99              		.cfi_restore 14
 100 0012 7047     		bx	lr
 101              		.cfi_endproc
 102              	.LFE66:
 103              		.size	EEPROM_Array_Write, .-EEPROM_Array_Write
ARM GAS  C:\Users\PANXIA~1\AppData\Local\Temp\ccSHwGSg.s 			page 10


 104              		.section	.text.Read_config,"ax",%progbits
 105              		.align	2
 106              		.global	Read_config
 107              		.thumb
 108              		.thumb_func
 109              		.type	Read_config, %function
 110              	Read_config:
 111              	.LFB69:
 408:.\Valve_Control.c ****     
 409:.\Valve_Control.c **** }
 410:.\Valve_Control.c **** ///**********************************************************
 411:.\Valve_Control.c **** //ÂáΩÊï∞ÂêçÔºö
 412:.\Valve_Control.c **** //Âäü  ËÉΩÔºö
 413:.\Valve_Control.c **** //ÂèÇ  Êï∞ÔºöÊó†
 414:.\Valve_Control.c **** //ËøîÂõûÂÄºÔºöÊó†
 415:.\Valve_Control.c **** //************************************************************/
 416:.\Valve_Control.c **** //void EEPROM_Byte_Write(uint16 StartAddr,uint8 byte)
 417:.\Valve_Control.c **** //{
 418:.\Valve_Control.c **** //	EEPROM_1_ByteWrite(byte, StartAddr/16,StartAddr%16);
 419:.\Valve_Control.c **** //}
 420:.\Valve_Control.c **** /**********************************************************
 421:.\Valve_Control.c **** ÂáΩÊï∞ÂêçÔºö
 422:.\Valve_Control.c **** Âäü  ËÉΩÔºö
 423:.\Valve_Control.c **** ÂèÇ  Êï∞ÔºöÊó†
 424:.\Valve_Control.c **** ËøîÂõûÂÄºÔºöÊó†
 425:.\Valve_Control.c **** ************************************************************/
 426:.\Valve_Control.c **** /**********************************************************
 427:.\Valve_Control.c **** ÂáΩÊï∞ÂêçÔºö
 428:.\Valve_Control.c **** Âäü  ËÉΩÔºö
 429:.\Valve_Control.c **** ÂèÇ  Êï∞ÔºöÊó†
 430:.\Valve_Control.c **** ËøîÂõûÂÄºÔºöÊó†
 431:.\Valve_Control.c **** ************************************************************/
 432:.\Valve_Control.c **** //void MoveLED(uint8 step)
 433:.\Valve_Control.c **** //{
 434:.\Valve_Control.c **** //	switch(step)
 435:.\Valve_Control.c **** //	{
 436:.\Valve_Control.c **** //	case 0: //Âø´‰∏ã
 437:.\Valve_Control.c **** //        LED_WRITE(0x01);
 438:.\Valve_Control.c **** //		break;
 439:.\Valve_Control.c **** //	case 1:
 440:.\Valve_Control.c **** //		StopLED_OFF(); 
 441:.\Valve_Control.c **** //		RunLED_FLASH(); 
 442:.\Valve_Control.c **** //		break;
 443:.\Valve_Control.c **** //	default : break;
 444:.\Valve_Control.c **** //	}
 445:.\Valve_Control.c **** //}
 446:.\Valve_Control.c **** /*****************************************************
 447:.\Valve_Control.c **** ÂáΩÊï∞ÂêçÔºövoid Init_Stroke_Timer(void)
 448:.\Valve_Control.c **** Âäü  ËÉΩÔºöÂàùÂßãÂåñÂâ™Á®ãË°åÁ®ãÊéßÂà∂Êó∂ÈíüÂÆöÊó∂Âô®
 449:.\Valve_Control.c **** ÂèÇ  Êï∞ÔºöÊó†
 450:.\Valve_Control.c **** ËøîÂõûÂÄºÔºöÊó†
 451:.\Valve_Control.c **** *****************************************************/
 452:.\Valve_Control.c **** void Init_Stroke_Timer(void)
 453:.\Valve_Control.c **** {	
 454:.\Valve_Control.c **** 	Clock_1_Start();   
 455:.\Valve_Control.c ****     
 456:.\Valve_Control.c ****     Timer_1_Start();
ARM GAS  C:\Users\PANXIA~1\AppData\Local\Temp\ccSHwGSg.s 			page 11


 457:.\Valve_Control.c ****     
 458:.\Valve_Control.c **** 	EEPROM_1_Start();
 459:.\Valve_Control.c ****     
 460:.\Valve_Control.c **** 	ISR_Stroke_Timer_Start();
 461:.\Valve_Control.c ****     
 462:.\Valve_Control.c ****     Read_config();
 463:.\Valve_Control.c **** 
 464:.\Valve_Control.c **** 	CutReg.CutStatus = StrokeStart;
 465:.\Valve_Control.c **** 	CutReg.ModeRunFlag = 0;
 466:.\Valve_Control.c ****     
 467:.\Valve_Control.c ****     CutReg.ValveNum = 6;
 468:.\Valve_Control.c **** 	CutReg.Version = 2000;//V1.001
 469:.\Valve_Control.c **** 
 470:.\Valve_Control.c **** }
 471:.\Valve_Control.c **** 
 472:.\Valve_Control.c **** 
 473:.\Valve_Control.c **** void Valve_config(uint8 valve_config_flag)             //ÈòÄÁªÑÈÖçÁΩÆ
 474:.\Valve_Control.c **** {
 475:.\Valve_Control.c ****     uint8   key_com = 0x03; 
 476:.\Valve_Control.c ****     uint16  key_time = 0;
 477:.\Valve_Control.c ****     enum VALVE_ACTION_ENUM   step_flag  = VFast;            //ÈªòËÆ§ÈÄâÊã©‚ÄúÂø´‰∏ã‚ÄùÂäüËÉΩ
 478:.\Valve_Control.c ****     uint8   valve_flag = 0;                                 //ÈªòËÆ§Êú™ÈÄâÊã©ÈòÄÁªÑ
 479:.\Valve_Control.c ****     uint16  delay_num = 0;                                  //ÈòÄÁªÑÊåáÁ§∫ÁÅØÈó™ÁÉÅÂª∂Êó∂ÂèòÈáè
 480:.\Valve_Control.c ****     uint16  delay_num_count = 500;                          //
 481:.\Valve_Control.c ****     uint8     KA_valve = 0;                                   //ÈòÄÁªÑ‰ΩçÁä∂ÊÄÅÂèòÈáè
 482:.\Valve_Control.c ****     uint8     KA_valve_temp = 0;                              //ÈòÄÁªÑ‰ΩçÁä∂ÊÄÅ‰∏¥Êó∂ÂèòÈáè
 483:.\Valve_Control.c ****     uint8   KA_state_temp = 0;                              //ÈòÄÁªÑÁä∂ÊÄÅ‰∏¥Êó∂ÂèòÈáè
 484:.\Valve_Control.c ****     uint8   KA_num = 0;                                     //ÈòÄÁªÑ ‰Ωç ‰ΩçÁΩÆ
 485:.\Valve_Control.c ****     uint8   valvech_flag = 0;                               //ÈòÄÁªÑ ‰Ωç Áä∂ÊÄÅ‰øÆÊîπÊ†áÂøó
 486:.\Valve_Control.c ****     
 487:.\Valve_Control.c ****     while(valve_config_flag)
 488:.\Valve_Control.c ****     {
 489:.\Valve_Control.c ****       //  key_com = Read_KeyValue();   //ËØªÂèñÊåâÈîÆÂÄº
 490:.\Valve_Control.c ****        if(1)                            // if((key_com != Key_Null) && (valvech_flag == 0))
 491:.\Valve_Control.c ****         {
 492:.\Valve_Control.c ****            // switch(key_com)
 493:.\Valve_Control.c ****             {
 494:.\Valve_Control.c ****                // case Key_step:
 495:.\Valve_Control.c ****                 {
 496:.\Valve_Control.c ****                     key_time = 0;
 497:.\Valve_Control.c ****                   //  while((Read_KeyValue() == Key_step) && (key_time < 40) )
 498:.\Valve_Control.c ****                     {
 499:.\Valve_Control.c ****                         key_time ++;
 500:.\Valve_Control.c ****                         CyDelay(1);
 501:.\Valve_Control.c ****                     }
 502:.\Valve_Control.c ****                     if(key_time >= 39)                          //ÈïøÊåâ
 503:.\Valve_Control.c ****                     {
 504:.\Valve_Control.c ****                        
 505:.\Valve_Control.c ****                         EEPROM_Array_Write(eepromArray,CutReg.Action,6);  //‰øùÂ≠òÈÖçÁΩÆ
 506:.\Valve_Control.c ****                         LED_WRITE(0X00);
 507:.\Valve_Control.c ****                         CyDelay(500);                                     //ÈÄÄÂá∫ÊåáÁ§∫
 508:.\Valve_Control.c ****                         ValveOut(0X3F);
 509:.\Valve_Control.c ****                         CyDelay(500);
 510:.\Valve_Control.c ****                         ValveOut(0X00);
 511:.\Valve_Control.c ****                         CyDelay(500);
 512:.\Valve_Control.c ****                         ValveOut(0X3F);
 513:.\Valve_Control.c ****                         CyDelay(500);
ARM GAS  C:\Users\PANXIA~1\AppData\Local\Temp\ccSHwGSg.s 			page 12


 514:.\Valve_Control.c ****                         ValveOut(0X00);
 515:.\Valve_Control.c ****                         valve_config_flag = 0;                  //ÈÖçÁΩÆÊ†áÂøóÊ∏ÖÈõ∂(‰øùÂ≠òÈÄÄÂá∫)
 516:.\Valve_Control.c **** //                        CySoftwareReset();                      //Á≥ªÁªüËΩØÂ§ç‰Ωç            
 517:.\Valve_Control.c ****                     }
 518:.\Valve_Control.c ****                     else                                        //Áü≠Êåâ
 519:.\Valve_Control.c ****                     {
 520:.\Valve_Control.c ****                         if(valve_flag == 0)                     //Êú™ÈÖçÁΩÆÊâçËøõË°åÂäüËÉΩÊ≠•È™§Âàá
 521:.\Valve_Control.c ****                         {
 522:.\Valve_Control.c ****                             if(++step_flag == (VStop+1))
 523:.\Valve_Control.c ****                                 step_flag = VFast;
 524:.\Valve_Control.c ****                         }
 525:.\Valve_Control.c ****                         else
 526:.\Valve_Control.c ****                         {
 527:.\Valve_Control.c ****                             valve_flag = 0;                     //Ê∏ÖÈô§ÊòæÁ§∫Áä∂ÊÄÅÊ†áÂøó
 528:.\Valve_Control.c ****                         }
 529:.\Valve_Control.c ****                         ValveOut(CutReg.Action[step_flag]);     //ÊòæÁ§∫ÂΩìÂâçÈòÄÁªÑÈÖçÁΩÆÁä∂ÊÄÅ   
 530:.\Valve_Control.c ****                         switch(step_flag)
 531:.\Valve_Control.c ****                         {
 532:.\Valve_Control.c ****                             case    VFast:                      //Âø´‰∏ã
 533:.\Valve_Control.c ****                             {
 534:.\Valve_Control.c ****                                 LED_WRITE(LED_Status[VFast]);
 535:.\Valve_Control.c ****                             }
 536:.\Valve_Control.c ****                             break;
 537:.\Valve_Control.c ****                             case    VSlow:                      //Â∑•Ëøõ
 538:.\Valve_Control.c ****                             {
 539:.\Valve_Control.c ****                                 LED_WRITE(LED_Status[VSlow]);
 540:.\Valve_Control.c ****                             }
 541:.\Valve_Control.c ****                             break;
 542:.\Valve_Control.c ****                             case    VKeep:                      //‰øùÂéã
 543:.\Valve_Control.c ****                             {
 544:.\Valve_Control.c ****                                 LED_WRITE(LED_Status[VKeep]);
 545:.\Valve_Control.c ****                             }
 546:.\Valve_Control.c ****                             break;
 547:.\Valve_Control.c ****                             case    VUnload:                    //Âç∏Ëç∑
 548:.\Valve_Control.c ****                             {
 549:.\Valve_Control.c ****                                 LED_WRITE(LED_Status[VUnload]);
 550:.\Valve_Control.c ****                             }
 551:.\Valve_Control.c ****                             break;
 552:.\Valve_Control.c ****                             case    VBack:                      //ÂõûÁ®ã
 553:.\Valve_Control.c ****                             {
 554:.\Valve_Control.c ****                                 LED_WRITE(LED_Status[VBack]);
 555:.\Valve_Control.c ****                             }
 556:.\Valve_Control.c ****                             break;
 557:.\Valve_Control.c ****                             case    VStop:                      //ÂÅúÊ≠¢
 558:.\Valve_Control.c ****                             {
 559:.\Valve_Control.c ****                                 LED_WRITE(LED_Status[VStop]);
 560:.\Valve_Control.c ****                             }
 561:.\Valve_Control.c ****                             break;
 562:.\Valve_Control.c ****                             default:
 563:.\Valve_Control.c ****                             break;
 564:.\Valve_Control.c ****                         }
 565:.\Valve_Control.c ****                     }
 566:.\Valve_Control.c ****                 }
 567:.\Valve_Control.c ****                 break;
 568:.\Valve_Control.c ****              //   case Key_valve:
 569:.\Valve_Control.c ****                 {
 570:.\Valve_Control.c ****                     key_time = 0;
ARM GAS  C:\Users\PANXIA~1\AppData\Local\Temp\ccSHwGSg.s 			page 13


 571:.\Valve_Control.c ****                //     while((Read_KeyValue() == Key_valve) && (key_time < 40) )
 572:.\Valve_Control.c ****                     {
 573:.\Valve_Control.c ****                         key_time ++; 
 574:.\Valve_Control.c ****                         CyDelay(1);
 575:.\Valve_Control.c ****                     }              
 576:.\Valve_Control.c ****                     if((key_time >= 39) && (valvech_flag == 0))                             //ÈïøÊå
 577:.\Valve_Control.c ****                     {
 578:.\Valve_Control.c ****                         if( (valve_flag >= 1) && (valve_flag <= 6) )
 579:.\Valve_Control.c ****                         {
 580:.\Valve_Control.c ****                             KA_valve = (~ KA_valve) & 0x01;
 581:.\Valve_Control.c ****                             CutReg.Action[step_flag] = ((CutReg.Action[step_flag] & (~(1 << KA_num)
 582:.\Valve_Control.c ****                             ValveOut(CutReg.Action[step_flag]);
 583:.\Valve_Control.c ****                             valvech_flag = 1;
 584:.\Valve_Control.c ****                         } 
 585:.\Valve_Control.c ****                         if(valve_flag == 0)                                                 //Êú™ÈÄ
 586:.\Valve_Control.c ****                         {
 587:.\Valve_Control.c ****                             valvech_flag = 1;
 588:.\Valve_Control.c ****                         }
 589:.\Valve_Control.c ****                     }
 590:.\Valve_Control.c ****                     
 591:.\Valve_Control.c ****                     if((key_time < 49) || (valvech_flag == 1))                              //Áü≠Êå
 592:.\Valve_Control.c ****                     {
 593:.\Valve_Control.c ****                         if((++valve_flag) == 7)
 594:.\Valve_Control.c ****                             valve_flag = 1;
 595:.\Valve_Control.c ****                         
 596:.\Valve_Control.c ****                         switch(valve_flag)
 597:.\Valve_Control.c ****                         {
 598:.\Valve_Control.c ****                             case    1:                  //KA1
 599:.\Valve_Control.c ****                             {
 600:.\Valve_Control.c ****                                 KA_num = KA1_bit;
 601:.\Valve_Control.c ****                                 KA_valve = ((CutReg.Action[step_flag] >> KA_num) & 0X01);    //ÂæóÂ
 602:.\Valve_Control.c ****                                 KA_valve_temp = KA_valve;
 603:.\Valve_Control.c ****                                 
 604:.\Valve_Control.c ****                                 ValveOut(CutReg.Action[step_flag] | BIT1);                   //ÁÇπ‰
 605:.\Valve_Control.c ****                             }
 606:.\Valve_Control.c ****                             break;
 607:.\Valve_Control.c ****                             case    2:                  //KA2
 608:.\Valve_Control.c ****                             {
 609:.\Valve_Control.c ****                                 KA_num = KA2_bit;
 610:.\Valve_Control.c ****                                 KA_valve = ((CutReg.Action[step_flag] >> KA_num) & 0X01);    //ÂæóÂ
 611:.\Valve_Control.c ****                                 KA_valve_temp = KA_valve;
 612:.\Valve_Control.c ****                                 
 613:.\Valve_Control.c ****                                 ValveOut(CutReg.Action[step_flag] | BIT2);
 614:.\Valve_Control.c ****                             }
 615:.\Valve_Control.c ****                             break;
 616:.\Valve_Control.c ****                             case    3:                  //KA3
 617:.\Valve_Control.c ****                             {
 618:.\Valve_Control.c ****                                 KA_num = KA3_bit;
 619:.\Valve_Control.c ****                                 KA_valve = ((CutReg.Action[step_flag] >> KA_num) & 0X01);    //ÂæóÂ
 620:.\Valve_Control.c ****                                 KA_valve_temp = KA_valve;
 621:.\Valve_Control.c ****                                 
 622:.\Valve_Control.c ****                                 ValveOut(CutReg.Action[step_flag] | BIT3);
 623:.\Valve_Control.c ****                             }
 624:.\Valve_Control.c ****                             break;
 625:.\Valve_Control.c ****                             case    4:                  //KA4
 626:.\Valve_Control.c ****                             {
 627:.\Valve_Control.c ****                                 KA_num = KA4_bit;
ARM GAS  C:\Users\PANXIA~1\AppData\Local\Temp\ccSHwGSg.s 			page 14


 628:.\Valve_Control.c ****                                 KA_valve = ((CutReg.Action[step_flag] >> KA_num) & 0X01);    //ÂæóÂ
 629:.\Valve_Control.c ****                                 KA_valve_temp = KA_valve;
 630:.\Valve_Control.c ****                                 
 631:.\Valve_Control.c ****                                 ValveOut(CutReg.Action[step_flag] | BIT4);
 632:.\Valve_Control.c ****                             }
 633:.\Valve_Control.c ****                             break;
 634:.\Valve_Control.c ****                             case    5:                  //KA5
 635:.\Valve_Control.c ****                             {
 636:.\Valve_Control.c ****                                 KA_num = KA5_bit;
 637:.\Valve_Control.c ****                                 KA_valve = ((CutReg.Action[step_flag] >> KA_num) & 0X01);    //ÂæóÂ
 638:.\Valve_Control.c ****                                 KA_valve_temp = KA_valve;
 639:.\Valve_Control.c ****                                 
 640:.\Valve_Control.c ****                                 ValveOut(CutReg.Action[step_flag] | BIT5);
 641:.\Valve_Control.c ****                             }
 642:.\Valve_Control.c ****                             break;
 643:.\Valve_Control.c ****                             case    6:                  //KA6
 644:.\Valve_Control.c ****                             {
 645:.\Valve_Control.c ****                                 KA_num = KA6_bit;
 646:.\Valve_Control.c ****                                 KA_valve = ((CutReg.Action[step_flag] >> KA_num) & 0X01);    //ÂæóÂ
 647:.\Valve_Control.c ****                                 KA_valve_temp = KA_valve;
 648:.\Valve_Control.c ****                                 
 649:.\Valve_Control.c ****                                 ValveOut(CutReg.Action[step_flag] | BIT6);
 650:.\Valve_Control.c ****                             }
 651:.\Valve_Control.c ****                             break;
 652:.\Valve_Control.c ****                         }
 653:.\Valve_Control.c ****                     }    
 654:.\Valve_Control.c ****                 }
 655:.\Valve_Control.c ****                 break;
 656:.\Valve_Control.c ****             }
 657:.\Valve_Control.c ****         }
 658:.\Valve_Control.c ****         else
 659:.\Valve_Control.c ****         {
 660:.\Valve_Control.c ****             if(1)//if(key_com == Key_Null)             //Êó†ÊåâÈîÆÊåâ‰∏ãÊó∂Â∞ÜÈòÄÁªÑ‰øÆÊîπÊ†áÂøóÊ∏Ö
 661:.\Valve_Control.c ****             {
 662:.\Valve_Control.c ****                 valvech_flag = 0;
 663:.\Valve_Control.c ****                 delay_num_count = 400;
 664:.\Valve_Control.c ****             }    
 665:.\Valve_Control.c ****             else
 666:.\Valve_Control.c ****                 delay_num_count = 8;
 667:.\Valve_Control.c **** 
 668:.\Valve_Control.c ****             if( (valve_flag >= 1) && (valve_flag <= 6) )//ÈÄâ‰∏≠ÈòÄÁªÑÊó∂Áõ∏Â∫î‰ΩçÊåáÁ§∫ÁÅØÈó™ÁÉÅÊé
 669:.\Valve_Control.c ****             {
 670:.\Valve_Control.c ****                 delay_num  ++;
 671:.\Valve_Control.c ****                 if(delay_num >= delay_num_count)
 672:.\Valve_Control.c ****                 {                            
 673:.\Valve_Control.c ****                     delay_num = 0;
 674:.\Valve_Control.c ****                     KA_valve_temp = (~ KA_valve_temp)&0x01;                                        
 675:.\Valve_Control.c ****                     KA_state_temp = ((CutReg.Action[step_flag] & (~(1 << KA_num))) | (((uint8)KA_va
 676:.\Valve_Control.c ****                     ValveOut(KA_state_temp);
 677:.\Valve_Control.c ****                 }  
 678:.\Valve_Control.c ****                 CyDelay(1);
 679:.\Valve_Control.c ****             }
 680:.\Valve_Control.c ****             else
 681:.\Valve_Control.c ****             {
 682:.\Valve_Control.c ****                 delay_num = 0;
 683:.\Valve_Control.c ****             }
 684:.\Valve_Control.c ****             
ARM GAS  C:\Users\PANXIA~1\AppData\Local\Temp\ccSHwGSg.s 			page 15


 685:.\Valve_Control.c ****         }      
 686:.\Valve_Control.c ****     }
 687:.\Valve_Control.c **** }
 688:.\Valve_Control.c **** void Read_config(void)
 689:.\Valve_Control.c **** {
 112              		.loc 1 689 0
 113              		.cfi_startproc
 114              		@ args = 0, pretend = 0, frame = 16
 115              		@ frame_needed = 0, uses_anonymous_args = 0
 116 0000 00B5     		push	{lr}
 117              		.cfi_def_cfa_offset 4
 118              		.cfi_offset 14, -4
 119 0002 85B0     		sub	sp, sp, #20
 120              		.cfi_def_cfa_offset 24
 690:.\Valve_Control.c ****         uint8 tempBuf[sizeof(config_para)-1] ;
 691:.\Valve_Control.c ****         EEPROM_Array_Read(eepromArray,tempBuf,sizeof(tempBuf));//ËØªÈòÄÁªÑÈÖçÁΩÆ
 121              		.loc 1 691 0
 122 0004 1048     		ldr	r0, .L11
 123 0006 01A9     		add	r1, sp, #4
 124 0008 0B22     		movs	r2, #11
 125 000a FFF7FEFF 		bl	EEPROM_Array_Read
 126              	.LVL11:
 692:.\Valve_Control.c ****         memcpy(&config_para,tempBuf,sizeof(tempBuf));//----Ê≥®ÊÑèÂ§ßÂ∞è
 127              		.loc 1 692 0
 128 000e 0F4B     		ldr	r3, .L11+4
 129 0010 01AA     		add	r2, sp, #4
 130 0012 03CA     		ldmia	r2!, {r0, r1}
 131 0014 1860     		str	r0, [r3]	@ unaligned
 132 0016 5960     		str	r1, [r3, #4]	@ unaligned
 133 0018 1188     		ldrh	r1, [r2]	@ unaligned
 134 001a 9278     		ldrb	r2, [r2, #2]	@ zero_extendqisi2
 135 001c 1981     		strh	r1, [r3, #8]	@ unaligned
 136 001e 9A72     		strb	r2, [r3, #10]
 693:.\Valve_Control.c ****         CutReg.Action[VFast]   =   config_para.Config_VFast;
 137              		.loc 1 693 0
 138 0020 1978     		ldrb	r1, [r3]	@ zero_extendqisi2
 139 0022 0B4A     		ldr	r2, .L11+8
 140 0024 1172     		strb	r1, [r2, #8]
 694:.\Valve_Control.c ****         CutReg.Action[VSlow]   =   config_para.Config_VSlow;
 141              		.loc 1 694 0
 142 0026 5978     		ldrb	r1, [r3, #1]	@ zero_extendqisi2
 143 0028 5172     		strb	r1, [r2, #9]
 695:.\Valve_Control.c ****         CutReg.Action[VKeep]   =   config_para.Config_VKeep;
 144              		.loc 1 695 0
 145 002a 9978     		ldrb	r1, [r3, #2]	@ zero_extendqisi2
 146 002c 9172     		strb	r1, [r2, #10]
 696:.\Valve_Control.c ****         CutReg.Action[VUnload] =   config_para.Config_VUnload;
 147              		.loc 1 696 0
 148 002e D978     		ldrb	r1, [r3, #3]	@ zero_extendqisi2
 149 0030 D172     		strb	r1, [r2, #11]
 697:.\Valve_Control.c ****         CutReg.Action[VBack]   =   config_para.Config_VBack;
 150              		.loc 1 697 0
 151 0032 1979     		ldrb	r1, [r3, #4]	@ zero_extendqisi2
 152 0034 1173     		strb	r1, [r2, #12]
 698:.\Valve_Control.c ****         CutReg.Action[VStop]   =   config_para.Config_VStop;
 153              		.loc 1 698 0
 154 0036 5979     		ldrb	r1, [r3, #5]	@ zero_extendqisi2
ARM GAS  C:\Users\PANXIA~1\AppData\Local\Temp\ccSHwGSg.s 			page 16


 155 0038 5173     		strb	r1, [r2, #13]
 699:.\Valve_Control.c ****         CutReg.KeepTime        =   config_para.Config_KeepTime;
 156              		.loc 1 699 0
 157 003a D988     		ldrh	r1, [r3, #6]
 158 003c 1180     		strh	r1, [r2]	@ movhi
 700:.\Valve_Control.c ****         CutReg.UnloadTime      =   config_para.Config_UnloadTime;
 159              		.loc 1 700 0
 160 003e 1B89     		ldrh	r3, [r3, #8]
 161 0040 5380     		strh	r3, [r2, #2]	@ movhi
 701:.\Valve_Control.c **** 
 702:.\Valve_Control.c **** 
 703:.\Valve_Control.c **** }
 162              		.loc 1 703 0
 163 0042 05B0     		add	sp, sp, #20
 164              		.cfi_def_cfa_offset 4
 165              		@ sp needed
 166 0044 5DF804FB 		ldr	pc, [sp], #4
 167              	.L12:
 168              		.align	2
 169              	.L11:
 170 0048 00000000 		.word	.LANCHOR0
 171 004c 00000000 		.word	config_para
 172 0050 00000000 		.word	CutReg
 173              		.cfi_endproc
 174              	.LFE69:
 175              		.size	Read_config, .-Read_config
 176              		.section	.text.Init_Stroke_Timer,"ax",%progbits
 177              		.align	2
 178              		.global	Init_Stroke_Timer
 179              		.thumb
 180              		.thumb_func
 181              		.type	Init_Stroke_Timer, %function
 182              	Init_Stroke_Timer:
 183              	.LFB67:
 453:.\Valve_Control.c **** 	Clock_1_Start();   
 184              		.loc 1 453 0
 185              		.cfi_startproc
 186              		@ args = 0, pretend = 0, frame = 0
 187              		@ frame_needed = 0, uses_anonymous_args = 0
 188 0000 08B5     		push	{r3, lr}
 189              		.cfi_def_cfa_offset 8
 190              		.cfi_offset 3, -8
 191              		.cfi_offset 14, -4
 454:.\Valve_Control.c ****     
 192              		.loc 1 454 0
 193 0002 FFF7FEFF 		bl	Clock_1_Start
 194              	.LVL12:
 456:.\Valve_Control.c ****     
 195              		.loc 1 456 0
 196 0006 FFF7FEFF 		bl	Timer_1_Start
 197              	.LVL13:
 458:.\Valve_Control.c ****     
 198              		.loc 1 458 0
 199 000a FFF7FEFF 		bl	EEPROM_1_Start
 200              	.LVL14:
 460:.\Valve_Control.c ****     
 201              		.loc 1 460 0
ARM GAS  C:\Users\PANXIA~1\AppData\Local\Temp\ccSHwGSg.s 			page 17


 202 000e FFF7FEFF 		bl	ISR_Stroke_Timer_Start
 203              	.LVL15:
 462:.\Valve_Control.c **** 
 204              		.loc 1 462 0
 205 0012 FFF7FEFF 		bl	Read_config
 206              	.LVL16:
 464:.\Valve_Control.c **** 	CutReg.ModeRunFlag = 0;
 207              		.loc 1 464 0
 208 0016 054B     		ldr	r3, .L15
 209 0018 0022     		movs	r2, #0
 210 001a 1A74     		strb	r2, [r3, #16]
 465:.\Valve_Control.c ****     
 211              		.loc 1 465 0
 212 001c 1A75     		strb	r2, [r3, #20]
 467:.\Valve_Control.c **** 	CutReg.Version = 2000;//V1.001
 213              		.loc 1 467 0
 214 001e 0622     		movs	r2, #6
 215 0020 5A75     		strb	r2, [r3, #21]
 468:.\Valve_Control.c **** 
 216              		.loc 1 468 0
 217 0022 4FF4FA62 		mov	r2, #2000
 218 0026 5A82     		strh	r2, [r3, #18]	@ movhi
 219 0028 08BD     		pop	{r3, pc}
 220              	.L16:
 221 002a 00BF     		.align	2
 222              	.L15:
 223 002c 00000000 		.word	CutReg
 224              		.cfi_endproc
 225              	.LFE67:
 226              		.size	Init_Stroke_Timer, .-Init_Stroke_Timer
 227              		.section	.text.Write_config,"ax",%progbits
 228              		.align	2
 229              		.global	Write_config
 230              		.thumb
 231              		.thumb_func
 232              		.type	Write_config, %function
 233              	Write_config:
 234              	.LFB70:
 704:.\Valve_Control.c **** void Write_config(void)
 705:.\Valve_Control.c **** {
 235              		.loc 1 705 0
 236              		.cfi_startproc
 237              		@ args = 0, pretend = 0, frame = 16
 238              		@ frame_needed = 0, uses_anonymous_args = 0
 239 0000 10B5     		push	{r4, lr}
 240              		.cfi_def_cfa_offset 8
 241              		.cfi_offset 4, -8
 242              		.cfi_offset 14, -4
 243 0002 84B0     		sub	sp, sp, #16
 244              		.cfi_def_cfa_offset 24
 706:.\Valve_Control.c ****            uint8 tempBuf[sizeof(config_para)-1];
 707:.\Valve_Control.c ****            memcpy(tempBuf,(&config_para),sizeof(config_para)-1);        
 245              		.loc 1 707 0
 246 0004 104C     		ldr	r4, .L19
 247 0006 01AB     		add	r3, sp, #4
 248 0008 2068     		ldr	r0, [r4]	@ unaligned
 249 000a 6168     		ldr	r1, [r4, #4]	@ unaligned
ARM GAS  C:\Users\PANXIA~1\AppData\Local\Temp\ccSHwGSg.s 			page 18


 250 000c 03C3     		stmia	r3!, {r0, r1}
 251 000e 2189     		ldrh	r1, [r4, #8]	@ unaligned
 252 0010 A27A     		ldrb	r2, [r4, #10]	@ zero_extendqisi2
 253 0012 1980     		strh	r1, [r3]	@ unaligned
 254 0014 9A70     		strb	r2, [r3, #2]
 708:.\Valve_Control.c ****            EEPROM_Array_Write(eepromArray,tempBuf,sizeof(tempBuf));
 255              		.loc 1 708 0
 256 0016 0D48     		ldr	r0, .L19+4
 257 0018 01A9     		add	r1, sp, #4
 258 001a 0B22     		movs	r2, #11
 259 001c FFF7FEFF 		bl	EEPROM_Array_Write
 260              	.LVL17:
 709:.\Valve_Control.c ****         CutReg.Action[VFast]   =   config_para.Config_VFast;
 261              		.loc 1 709 0
 262 0020 2278     		ldrb	r2, [r4]	@ zero_extendqisi2
 263 0022 0B4B     		ldr	r3, .L19+8
 264 0024 1A72     		strb	r2, [r3, #8]
 710:.\Valve_Control.c ****         CutReg.Action[VSlow]   =   config_para.Config_VSlow;
 265              		.loc 1 710 0
 266 0026 6278     		ldrb	r2, [r4, #1]	@ zero_extendqisi2
 267 0028 5A72     		strb	r2, [r3, #9]
 711:.\Valve_Control.c ****         CutReg.Action[VKeep]   =   config_para.Config_VKeep;
 268              		.loc 1 711 0
 269 002a A278     		ldrb	r2, [r4, #2]	@ zero_extendqisi2
 270 002c 9A72     		strb	r2, [r3, #10]
 712:.\Valve_Control.c ****         CutReg.Action[VUnload] =   config_para.Config_VUnload;
 271              		.loc 1 712 0
 272 002e E278     		ldrb	r2, [r4, #3]	@ zero_extendqisi2
 273 0030 DA72     		strb	r2, [r3, #11]
 713:.\Valve_Control.c ****         CutReg.Action[VBack]   =   config_para.Config_VBack;
 274              		.loc 1 713 0
 275 0032 2279     		ldrb	r2, [r4, #4]	@ zero_extendqisi2
 276 0034 1A73     		strb	r2, [r3, #12]
 714:.\Valve_Control.c ****         CutReg.Action[VStop]   =   config_para.Config_VStop;
 277              		.loc 1 714 0
 278 0036 6279     		ldrb	r2, [r4, #5]	@ zero_extendqisi2
 279 0038 5A73     		strb	r2, [r3, #13]
 715:.\Valve_Control.c ****         CutReg.KeepTime        =   config_para.Config_KeepTime;
 280              		.loc 1 715 0
 281 003a E288     		ldrh	r2, [r4, #6]
 282 003c 1A80     		strh	r2, [r3]	@ movhi
 716:.\Valve_Control.c ****         CutReg.UnloadTime      =   config_para.Config_UnloadTime;
 283              		.loc 1 716 0
 284 003e 2289     		ldrh	r2, [r4, #8]
 285 0040 5A80     		strh	r2, [r3, #2]	@ movhi
 717:.\Valve_Control.c ****            
 718:.\Valve_Control.c **** }
 286              		.loc 1 718 0
 287 0042 04B0     		add	sp, sp, #16
 288              		.cfi_def_cfa_offset 8
 289              		@ sp needed
 290 0044 10BD     		pop	{r4, pc}
 291              	.L20:
 292 0046 00BF     		.align	2
 293              	.L19:
 294 0048 00000000 		.word	config_para
 295 004c 00000000 		.word	.LANCHOR0
ARM GAS  C:\Users\PANXIA~1\AppData\Local\Temp\ccSHwGSg.s 			page 19


 296 0050 00000000 		.word	CutReg
 297              		.cfi_endproc
 298              	.LFE70:
 299              		.size	Write_config, .-Write_config
 300              		.section	.text.LCD_DISPLAY,"ax",%progbits
 301              		.align	2
 302              		.global	LCD_DISPLAY
 303              		.thumb
 304              		.thumb_func
 305              		.type	LCD_DISPLAY, %function
 306              	LCD_DISPLAY:
 307              	.LFB71:
 719:.\Valve_Control.c **** static lastValue = 0;
 720:.\Valve_Control.c **** void LCD_DISPLAY(uint8 value)
 721:.\Valve_Control.c **** {
 308              		.loc 1 721 0
 309              		.cfi_startproc
 310              		@ args = 0, pretend = 0, frame = 0
 311              		@ frame_needed = 0, uses_anonymous_args = 0
 312              	.LVL18:
 313 0000 10B5     		push	{r4, lr}
 314              		.cfi_def_cfa_offset 8
 315              		.cfi_offset 4, -8
 316              		.cfi_offset 14, -4
 317 0002 0446     		mov	r4, r0
 722:.\Valve_Control.c ****     if(lastValue != value)
 318              		.loc 1 722 0
 319 0004 2C4B     		ldr	r3, .L31
 320 0006 1B68     		ldr	r3, [r3]
 321 0008 9842     		cmp	r0, r3
 322 000a 04D0     		beq	.L22
 723:.\Valve_Control.c ****     {
 724:.\Valve_Control.c ****         LCD_Char_1_WriteControl(0x01);
 323              		.loc 1 724 0
 324 000c 0120     		movs	r0, #1
 325              	.LVL19:
 326 000e FFF7FEFF 		bl	LCD_Char_1_WriteControl
 327              	.LVL20:
 725:.\Valve_Control.c ****         lastValue = value;
 328              		.loc 1 725 0
 329 0012 294B     		ldr	r3, .L31
 330 0014 1C60     		str	r4, [r3]
 331              	.L22:
 726:.\Valve_Control.c ****     }
 727:.\Valve_Control.c ****     if(value == LED_Status[VFast] )
 332              		.loc 1 727 0
 333 0016 294B     		ldr	r3, .L31+4
 334 0018 1B78     		ldrb	r3, [r3]	@ zero_extendqisi2
 335 001a A342     		cmp	r3, r4
 336 001c 07D1     		bne	.L23
 728:.\Valve_Control.c ****     {
 729:.\Valve_Control.c ****        LCD_Char_1_Position(0,2) ;
 337              		.loc 1 729 0
 338 001e 0020     		movs	r0, #0
 339 0020 0221     		movs	r1, #2
 340 0022 FFF7FEFF 		bl	LCD_Char_1_Position
 341              	.LVL21:
ARM GAS  C:\Users\PANXIA~1\AppData\Local\Temp\ccSHwGSg.s 			page 20


 730:.\Valve_Control.c ****        LCD_Char_1_PrintString("Fast");
 342              		.loc 1 730 0
 343 0026 2648     		ldr	r0, .L31+8
 344 0028 FFF7FEFF 		bl	LCD_Char_1_PrintString
 345              	.LVL22:
 346 002c 10BD     		pop	{r4, pc}
 347              	.L23:
 731:.\Valve_Control.c ****     }
 732:.\Valve_Control.c ****     else if(value == LED_Status[VSlow] )
 348              		.loc 1 732 0
 349 002e 234B     		ldr	r3, .L31+4
 350 0030 5B78     		ldrb	r3, [r3, #1]	@ zero_extendqisi2
 351 0032 A342     		cmp	r3, r4
 352 0034 07D1     		bne	.L25
 733:.\Valve_Control.c ****     {
 734:.\Valve_Control.c ****           LCD_Char_1_Position(0,2) ;
 353              		.loc 1 734 0
 354 0036 0020     		movs	r0, #0
 355 0038 0221     		movs	r1, #2
 356 003a FFF7FEFF 		bl	LCD_Char_1_Position
 357              	.LVL23:
 735:.\Valve_Control.c ****        LCD_Char_1_PrintString("Slow");
 358              		.loc 1 735 0
 359 003e 2148     		ldr	r0, .L31+12
 360 0040 FFF7FEFF 		bl	LCD_Char_1_PrintString
 361              	.LVL24:
 362 0044 10BD     		pop	{r4, pc}
 363              	.L25:
 736:.\Valve_Control.c ****     }
 737:.\Valve_Control.c ****        else if(value == LED_Status[VKeep] )
 364              		.loc 1 737 0
 365 0046 1D4B     		ldr	r3, .L31+4
 366 0048 9B78     		ldrb	r3, [r3, #2]	@ zero_extendqisi2
 367 004a A342     		cmp	r3, r4
 368 004c 07D1     		bne	.L26
 738:.\Valve_Control.c ****     {
 739:.\Valve_Control.c ****         LCD_Char_1_Position(0,2) ;
 369              		.loc 1 739 0
 370 004e 0020     		movs	r0, #0
 371 0050 0221     		movs	r1, #2
 372 0052 FFF7FEFF 		bl	LCD_Char_1_Position
 373              	.LVL25:
 740:.\Valve_Control.c ****        LCD_Char_1_PrintString("Keep");
 374              		.loc 1 740 0
 375 0056 1C48     		ldr	r0, .L31+16
 376 0058 FFF7FEFF 		bl	LCD_Char_1_PrintString
 377              	.LVL26:
 378 005c 10BD     		pop	{r4, pc}
 379              	.L26:
 741:.\Valve_Control.c ****     }
 742:.\Valve_Control.c ****        else if(value == LED_Status[VUnload] )
 380              		.loc 1 742 0
 381 005e 174B     		ldr	r3, .L31+4
 382 0060 DB78     		ldrb	r3, [r3, #3]	@ zero_extendqisi2
 383 0062 A342     		cmp	r3, r4
 384 0064 07D1     		bne	.L27
 743:.\Valve_Control.c ****     {
ARM GAS  C:\Users\PANXIA~1\AppData\Local\Temp\ccSHwGSg.s 			page 21


 744:.\Valve_Control.c ****           LCD_Char_1_Position(0,1) ;
 385              		.loc 1 744 0
 386 0066 0020     		movs	r0, #0
 387 0068 0121     		movs	r1, #1
 388 006a FFF7FEFF 		bl	LCD_Char_1_Position
 389              	.LVL27:
 745:.\Valve_Control.c ****        LCD_Char_1_PrintString("Unload");
 390              		.loc 1 745 0
 391 006e 1748     		ldr	r0, .L31+20
 392 0070 FFF7FEFF 		bl	LCD_Char_1_PrintString
 393              	.LVL28:
 394 0074 10BD     		pop	{r4, pc}
 395              	.L27:
 746:.\Valve_Control.c ****     }
 747:.\Valve_Control.c ****        else if(value == LED_Status[VStop] )
 396              		.loc 1 747 0
 397 0076 114B     		ldr	r3, .L31+4
 398 0078 5B79     		ldrb	r3, [r3, #5]	@ zero_extendqisi2
 399 007a A342     		cmp	r3, r4
 400 007c 07D1     		bne	.L28
 748:.\Valve_Control.c ****     {
 749:.\Valve_Control.c ****           LCD_Char_1_Position(0,2) ;
 401              		.loc 1 749 0
 402 007e 0020     		movs	r0, #0
 403 0080 0221     		movs	r1, #2
 404 0082 FFF7FEFF 		bl	LCD_Char_1_Position
 405              	.LVL29:
 750:.\Valve_Control.c ****           LCD_Char_1_PrintString("Stop");
 406              		.loc 1 750 0
 407 0086 1248     		ldr	r0, .L31+24
 408 0088 FFF7FEFF 		bl	LCD_Char_1_PrintString
 409              	.LVL30:
 410 008c 10BD     		pop	{r4, pc}
 411              	.L28:
 751:.\Valve_Control.c ****     }
 752:.\Valve_Control.c ****          else if(value == LED_Status[VBack] )
 412              		.loc 1 752 0
 413 008e 0B4B     		ldr	r3, .L31+4
 414 0090 1B79     		ldrb	r3, [r3, #4]	@ zero_extendqisi2
 415 0092 A342     		cmp	r3, r4
 416 0094 07D1     		bne	.L29
 753:.\Valve_Control.c ****     {
 754:.\Valve_Control.c ****           LCD_Char_1_Position(0,2) ;
 417              		.loc 1 754 0
 418 0096 0020     		movs	r0, #0
 419 0098 0221     		movs	r1, #2
 420 009a FFF7FEFF 		bl	LCD_Char_1_Position
 421              	.LVL31:
 755:.\Valve_Control.c ****           LCD_Char_1_PrintString("Back");
 422              		.loc 1 755 0
 423 009e 0D48     		ldr	r0, .L31+28
 424 00a0 FFF7FEFF 		bl	LCD_Char_1_PrintString
 425              	.LVL32:
 426 00a4 10BD     		pop	{r4, pc}
 427              	.L29:
 756:.\Valve_Control.c ****     }
 757:.\Valve_Control.c ****     else
ARM GAS  C:\Users\PANXIA~1\AppData\Local\Temp\ccSHwGSg.s 			page 22


 758:.\Valve_Control.c ****     {
 759:.\Valve_Control.c ****         LCD_Char_1_Position(0,2) ;
 428              		.loc 1 759 0
 429 00a6 0020     		movs	r0, #0
 430 00a8 0221     		movs	r1, #2
 431 00aa FFF7FEFF 		bl	LCD_Char_1_Position
 432              	.LVL33:
 760:.\Valve_Control.c ****           LCD_Char_1_PrintString("Error");
 433              		.loc 1 760 0
 434 00ae 0A48     		ldr	r0, .L31+32
 435 00b0 FFF7FEFF 		bl	LCD_Char_1_PrintString
 436              	.LVL34:
 437 00b4 10BD     		pop	{r4, pc}
 438              	.L32:
 439 00b6 00BF     		.align	2
 440              	.L31:
 441 00b8 00000000 		.word	.LANCHOR1
 442 00bc 00000000 		.word	.LANCHOR2
 443 00c0 00000000 		.word	.LC0
 444 00c4 08000000 		.word	.LC1
 445 00c8 10000000 		.word	.LC2
 446 00cc 18000000 		.word	.LC3
 447 00d0 20000000 		.word	.LC4
 448 00d4 28000000 		.word	.LC5
 449 00d8 30000000 		.word	.LC6
 450              		.cfi_endproc
 451              	.LFE71:
 452              		.size	LCD_DISPLAY, .-LCD_DISPLAY
 453              		.section	.text.timer_10ms,"ax",%progbits
 454              		.align	2
 455              		.global	timer_10ms
 456              		.thumb
 457              		.thumb_func
 458              		.type	timer_10ms, %function
 459              	timer_10ms:
 460              	.LFB63:
  65:.\Valve_Control.c **** 	//Stroke_Timer_STATUS;
 461              		.loc 1 65 0
 462              		.cfi_startproc
 463              		@ args = 0, pretend = 0, frame = 0
 464              		@ frame_needed = 0, uses_anonymous_args = 0
  70:.\Valve_Control.c ****  
 465              		.loc 1 70 0
 466 0000 0022     		movs	r2, #0
 467 0002 A14B     		ldr	r3, .L52
 468 0004 1A60     		str	r2, [r3]
  72:.\Valve_Control.c ****     {
 469              		.loc 1 72 0
 470 0006 A14B     		ldr	r3, .L52+4
 471 0008 1A78     		ldrb	r2, [r3]	@ zero_extendqisi2
 472 000a AA2A     		cmp	r2, #170
 473 000c 05D0     		beq	.L34
  72:.\Valve_Control.c ****     {
 474              		.loc 1 72 0 is_stmt 0 discriminator 2
 475 000e A04B     		ldr	r3, .L52+8
 476 0010 DB7D     		ldrb	r3, [r3, #23]	@ zero_extendqisi2
 477 0012 DBB2     		uxtb	r3, r3
ARM GAS  C:\Users\PANXIA~1\AppData\Local\Temp\ccSHwGSg.s 			page 23


 478 0014 112B     		cmp	r3, #17
 479 0016 40F03581 		bne	.L51
 480              	.L34:
  72:.\Valve_Control.c ****     {
 481              		.loc 1 72 0 discriminator 3
 482 001a A02A     		cmp	r2, #160
 483 001c 00F03281 		beq	.L51
  65:.\Valve_Control.c **** 	//Stroke_Timer_STATUS;
 484              		.loc 1 65 0 is_stmt 1
 485 0020 10B5     		push	{r4, lr}
 486              		.cfi_def_cfa_offset 8
 487              		.cfi_offset 4, -8
 488              		.cfi_offset 14, -4
  75:.\Valve_Control.c **** 		{
 489              		.loc 1 75 0
 490 0022 FFF7FEFF 		bl	Status_Reg_1_Read
 491              	.LVL35:
 492 0026 00F00C00 		and	r0, r0, #12
 493 002a 0828     		cmp	r0, #8
 494 002c 20D1     		bne	.L36
  75:.\Valve_Control.c **** 		{
 495              		.loc 1 75 0 is_stmt 0 discriminator 1
 496 002e 984B     		ldr	r3, .L52+8
 497 0030 5B7C     		ldrb	r3, [r3, #17]	@ zero_extendqisi2
 498 0032 DBB2     		uxtb	r3, r3
 499 0034 022B     		cmp	r3, #2
 500 0036 1BD8     		bhi	.L36
  75:.\Valve_Control.c **** 		{
 501              		.loc 1 75 0 discriminator 2
 502 0038 FFF7FEFF 		bl	Status_Reg_1_Read
 503              	.LVL36:
 504 003c 10F0010F 		tst	r0, #1
 505 0040 16D0     		beq	.L36
  77:.\Valve_Control.c **** 			if(!FootStart())
 506              		.loc 1 77 0 is_stmt 1
 507 0042 0520     		movs	r0, #5
 508 0044 FFF7FEFF 		bl	CyDelay
 509              	.LVL37:
  78:.\Valve_Control.c **** 			{
 510              		.loc 1 78 0
 511 0048 FFF7FEFF 		bl	Status_Reg_1_Read
 512              	.LVL38:
 513 004c 10F0010F 		tst	r0, #1
 514 0050 0ED0     		beq	.L36
  80:.\Valve_Control.c ****                 LED_WRITE(LED_Status[VBack]);
 515              		.loc 1 80 0
 516 0052 8F4C     		ldr	r4, .L52+8
 517 0054 207B     		ldrb	r0, [r4, #12]	@ zero_extendqisi2
 518 0056 FFF7FEFF 		bl	Control_Reg_1_Write
 519              	.LVL39:
 520 005a 227B     		ldrb	r2, [r4, #12]	@ zero_extendqisi2
 521 005c 8D4B     		ldr	r3, .L52+12
 522 005e 1A70     		strb	r2, [r3]
 523              	.LBB2:
  81:.\Valve_Control.c **** 				CutReg.CutTimeStatus = VBack;
 524              		.loc 1 81 0
 525 0060 8D4B     		ldr	r3, .L52+16
ARM GAS  C:\Users\PANXIA~1\AppData\Local\Temp\ccSHwGSg.s 			page 24


 526 0062 1879     		ldrb	r0, [r3, #4]	@ zero_extendqisi2
 527 0064 8D4B     		ldr	r3, .L52+20
 528 0066 1870     		strb	r0, [r3]
 529 0068 FFF7FEFF 		bl	LCD_DISPLAY
 530              	.LVL40:
 531              	.LBE2:
  82:.\Valve_Control.c ****               //CutReg.OneWorkFinshState = One_Work_Runing;   /* Â¢ûÂä†Âä®‰ΩúÂÆåÊàêÊ†áÂøó20160820*/
 532              		.loc 1 82 0
 533 006c 0423     		movs	r3, #4
 534 006e 6374     		strb	r3, [r4, #17]
 535              	.L36:
  87:.\Valve_Control.c **** 		{
 536              		.loc 1 87 0
 537 0070 874B     		ldr	r3, .L52+8
 538 0072 5B7C     		ldrb	r3, [r3, #17]	@ zero_extendqisi2
 539 0074 DBB2     		uxtb	r3, r3
 540 0076 052B     		cmp	r3, #5
 541 0078 00F20381 		bhi	.L33
 542 007c DFE813F0 		tbh	[pc, r3, lsl #1]
 543              	.L38:
 544 0080 0600     		.2byte	(.L37-.L38)/2
 545 0082 2E00     		.2byte	(.L39-.L38)/2
 546 0084 5500     		.2byte	(.L40-.L38)/2
 547 0086 8200     		.2byte	(.L41-.L38)/2
 548 0088 AF00     		.2byte	(.L42-.L38)/2
 549 008a DD00     		.2byte	(.L43-.L38)/2
 550              		.p2align 1
 551              	.L37:
  90:.\Valve_Control.c **** 			if(DownPoint())
 552              		.loc 1 90 0
 553 008c 1122     		movs	r2, #17
 554 008e 804B     		ldr	r3, .L52+8
 555 0090 DA75     		strb	r2, [r3, #23]
  91:.\Valve_Control.c **** 			{
 556              		.loc 1 91 0
 557 0092 FFF7FEFF 		bl	Status_Reg_1_Read
 558              	.LVL41:
 559 0096 10F0200F 		tst	r0, #32
 560 009a 0FD1     		bne	.L44
  93:.\Valve_Control.c ****                 LED_WRITE(LED_Status[VSlow]);
 561              		.loc 1 93 0
 562 009c 7C4C     		ldr	r4, .L52+8
 563 009e 607A     		ldrb	r0, [r4, #9]	@ zero_extendqisi2
 564 00a0 FFF7FEFF 		bl	Control_Reg_1_Write
 565              	.LVL42:
 566 00a4 627A     		ldrb	r2, [r4, #9]	@ zero_extendqisi2
 567 00a6 7B4B     		ldr	r3, .L52+12
 568 00a8 1A70     		strb	r2, [r3]
 569              	.LBB3:
  94:.\Valve_Control.c **** 				CutReg.CutTimeStatus = VSlow;
 570              		.loc 1 94 0
 571 00aa 7B4B     		ldr	r3, .L52+16
 572 00ac 5878     		ldrb	r0, [r3, #1]	@ zero_extendqisi2
 573 00ae 7B4B     		ldr	r3, .L52+20
 574 00b0 1870     		strb	r0, [r3]
 575 00b2 FFF7FEFF 		bl	LCD_DISPLAY
 576              	.LVL43:
ARM GAS  C:\Users\PANXIA~1\AppData\Local\Temp\ccSHwGSg.s 			page 25


 577              	.LBE3:
  95:.\Valve_Control.c **** 			}
 578              		.loc 1 95 0
 579 00b6 0123     		movs	r3, #1
 580 00b8 6374     		strb	r3, [r4, #17]
 581 00ba 10BD     		pop	{r4, pc}
 582              	.L44:
  99:.\Valve_Control.c ****                 LED_WRITE(LED_Status[VFast]);
 583              		.loc 1 99 0
 584 00bc 744C     		ldr	r4, .L52+8
 585 00be 207A     		ldrb	r0, [r4, #8]	@ zero_extendqisi2
 586 00c0 FFF7FEFF 		bl	Control_Reg_1_Write
 587              	.LVL44:
 588 00c4 227A     		ldrb	r2, [r4, #8]	@ zero_extendqisi2
 589 00c6 734B     		ldr	r3, .L52+12
 590 00c8 1A70     		strb	r2, [r3]
 591              	.LBB4:
 100:.\Valve_Control.c **** 				CutReg.CutTimeStatus = VFast;
 592              		.loc 1 100 0
 593 00ca 734B     		ldr	r3, .L52+16
 594 00cc 1878     		ldrb	r0, [r3]	@ zero_extendqisi2
 595 00ce 734B     		ldr	r3, .L52+20
 596 00d0 1870     		strb	r0, [r3]
 597 00d2 FFF7FEFF 		bl	LCD_DISPLAY
 598              	.LVL45:
 599              	.LBE4:
 101:.\Valve_Control.c **** 			}
 600              		.loc 1 101 0
 601 00d6 0023     		movs	r3, #0
 602 00d8 6374     		strb	r3, [r4, #17]
 603 00da 10BD     		pop	{r4, pc}
 604              	.L39:
 106:.\Valve_Control.c **** 			{
 605              		.loc 1 106 0
 606 00dc FFF7FEFF 		bl	Status_Reg_1_Read
 607              	.LVL46:
 608 00e0 10F0200F 		tst	r0, #32
 609 00e4 11D1     		bne	.L45
 108:.\Valve_Control.c ****                 LED_WRITE(LED_Status[VKeep]);
 610              		.loc 1 108 0
 611 00e6 6A4C     		ldr	r4, .L52+8
 612 00e8 A07A     		ldrb	r0, [r4, #10]	@ zero_extendqisi2
 613 00ea FFF7FEFF 		bl	Control_Reg_1_Write
 614              	.LVL47:
 615 00ee A27A     		ldrb	r2, [r4, #10]	@ zero_extendqisi2
 616 00f0 684B     		ldr	r3, .L52+12
 617 00f2 1A70     		strb	r2, [r3]
 618              	.LBB5:
 109:.\Valve_Control.c **** 				CutReg.CutTimeStatus = VKeep;
 619              		.loc 1 109 0
 620 00f4 684B     		ldr	r3, .L52+16
 621 00f6 9878     		ldrb	r0, [r3, #2]	@ zero_extendqisi2
 622 00f8 684B     		ldr	r3, .L52+20
 623 00fa 1870     		strb	r0, [r3]
 624 00fc FFF7FEFF 		bl	LCD_DISPLAY
 625              	.LVL48:
 626              	.LBE5:
ARM GAS  C:\Users\PANXIA~1\AppData\Local\Temp\ccSHwGSg.s 			page 26


 110:.\Valve_Control.c **** 				CutReg.Cnt = 0;
 627              		.loc 1 110 0
 628 0100 0223     		movs	r3, #2
 629 0102 6374     		strb	r3, [r4, #17]
 111:.\Valve_Control.c **** 			}
 630              		.loc 1 111 0
 631 0104 0023     		movs	r3, #0
 632 0106 E381     		strh	r3, [r4, #14]	@ movhi
 633 0108 10BD     		pop	{r4, pc}
 634              	.L45:
 115:.\Valve_Control.c ****                 LED_WRITE(LED_Status[VFast]);
 635              		.loc 1 115 0
 636 010a 614C     		ldr	r4, .L52+8
 637 010c 207A     		ldrb	r0, [r4, #8]	@ zero_extendqisi2
 638 010e FFF7FEFF 		bl	Control_Reg_1_Write
 639              	.LVL49:
 640 0112 227A     		ldrb	r2, [r4, #8]	@ zero_extendqisi2
 641 0114 5F4B     		ldr	r3, .L52+12
 642 0116 1A70     		strb	r2, [r3]
 643              	.LBB6:
 116:.\Valve_Control.c **** 				CutReg.CutTimeStatus = VFast;
 644              		.loc 1 116 0
 645 0118 5F4B     		ldr	r3, .L52+16
 646 011a 1878     		ldrb	r0, [r3]	@ zero_extendqisi2
 647 011c 5F4B     		ldr	r3, .L52+20
 648 011e 1870     		strb	r0, [r3]
 649 0120 FFF7FEFF 		bl	LCD_DISPLAY
 650              	.LVL50:
 651              	.LBE6:
 117:.\Valve_Control.c **** 			}
 652              		.loc 1 117 0
 653 0124 0023     		movs	r3, #0
 654 0126 6374     		strb	r3, [r4, #17]
 655 0128 10BD     		pop	{r4, pc}
 656              	.L40:
 122:.\Valve_Control.c **** 			if(CutReg.Cnt >= CutReg.KeepTime)
 657              		.loc 1 122 0
 658 012a 594A     		ldr	r2, .L52+8
 659 012c D389     		ldrh	r3, [r2, #14]
 660 012e 0133     		adds	r3, r3, #1
 661 0130 9BB2     		uxth	r3, r3
 662 0132 D381     		strh	r3, [r2, #14]	@ movhi
 123:.\Valve_Control.c **** 			{
 663              		.loc 1 123 0
 664 0134 D189     		ldrh	r1, [r2, #14]
 665 0136 89B2     		uxth	r1, r1
 666 0138 1388     		ldrh	r3, [r2]
 667 013a 9BB2     		uxth	r3, r3
 668 013c 9942     		cmp	r1, r3
 669 013e 11D3     		bcc	.L46
 125:.\Valve_Control.c **** 				ValveOut(CutReg.Action[VUnload]);
 670              		.loc 1 125 0
 671 0140 1446     		mov	r4, r2
 672 0142 0023     		movs	r3, #0
 673 0144 D381     		strh	r3, [r2, #14]	@ movhi
 126:.\Valve_Control.c ****                 LED_WRITE(LED_Status[VUnload]);
 674              		.loc 1 126 0
ARM GAS  C:\Users\PANXIA~1\AppData\Local\Temp\ccSHwGSg.s 			page 27


 675 0146 D07A     		ldrb	r0, [r2, #11]	@ zero_extendqisi2
 676 0148 FFF7FEFF 		bl	Control_Reg_1_Write
 677              	.LVL51:
 678 014c E27A     		ldrb	r2, [r4, #11]	@ zero_extendqisi2
 679 014e 514B     		ldr	r3, .L52+12
 680 0150 1A70     		strb	r2, [r3]
 681              	.LBB7:
 127:.\Valve_Control.c **** 				CutReg.CutTimeStatus = VUnload;
 682              		.loc 1 127 0
 683 0152 514B     		ldr	r3, .L52+16
 684 0154 D878     		ldrb	r0, [r3, #3]	@ zero_extendqisi2
 685 0156 514B     		ldr	r3, .L52+20
 686 0158 1870     		strb	r0, [r3]
 687 015a FFF7FEFF 		bl	LCD_DISPLAY
 688              	.LVL52:
 689              	.LBE7:
 128:.\Valve_Control.c **** 			}
 690              		.loc 1 128 0
 691 015e 0323     		movs	r3, #3
 692 0160 6374     		strb	r3, [r4, #17]
 693 0162 10BD     		pop	{r4, pc}
 694              	.L46:
 132:.\Valve_Control.c ****                 LED_WRITE(LED_Status[VKeep]);
 695              		.loc 1 132 0
 696 0164 4A4C     		ldr	r4, .L52+8
 697 0166 A07A     		ldrb	r0, [r4, #10]	@ zero_extendqisi2
 698 0168 FFF7FEFF 		bl	Control_Reg_1_Write
 699              	.LVL53:
 700 016c A27A     		ldrb	r2, [r4, #10]	@ zero_extendqisi2
 701 016e 494B     		ldr	r3, .L52+12
 702 0170 1A70     		strb	r2, [r3]
 703              	.LBB8:
 133:.\Valve_Control.c **** 				CutReg.CutTimeStatus = VKeep;
 704              		.loc 1 133 0
 705 0172 494B     		ldr	r3, .L52+16
 706 0174 9878     		ldrb	r0, [r3, #2]	@ zero_extendqisi2
 707 0176 494B     		ldr	r3, .L52+20
 708 0178 1870     		strb	r0, [r3]
 709 017a FFF7FEFF 		bl	LCD_DISPLAY
 710              	.LVL54:
 711              	.LBE8:
 134:.\Valve_Control.c **** 			}
 712              		.loc 1 134 0
 713 017e 0223     		movs	r3, #2
 714 0180 6374     		strb	r3, [r4, #17]
 715 0182 10BD     		pop	{r4, pc}
 716              	.L41:
 139:.\Valve_Control.c **** 			if(CutReg.Cnt >= CutReg.UnloadTime)
 717              		.loc 1 139 0
 718 0184 424A     		ldr	r2, .L52+8
 719 0186 D389     		ldrh	r3, [r2, #14]
 720 0188 0133     		adds	r3, r3, #1
 721 018a 9BB2     		uxth	r3, r3
 722 018c D381     		strh	r3, [r2, #14]	@ movhi
 140:.\Valve_Control.c **** 			{
 723              		.loc 1 140 0
 724 018e D189     		ldrh	r1, [r2, #14]
ARM GAS  C:\Users\PANXIA~1\AppData\Local\Temp\ccSHwGSg.s 			page 28


 725 0190 89B2     		uxth	r1, r1
 726 0192 5388     		ldrh	r3, [r2, #2]
 727 0194 9BB2     		uxth	r3, r3
 728 0196 9942     		cmp	r1, r3
 729 0198 11D3     		bcc	.L47
 142:.\Valve_Control.c **** 				ValveOut(CutReg.Action[VBack]);
 730              		.loc 1 142 0
 731 019a 1446     		mov	r4, r2
 732 019c 0023     		movs	r3, #0
 733 019e D381     		strh	r3, [r2, #14]	@ movhi
 143:.\Valve_Control.c ****                 LED_WRITE(LED_Status[VBack]);
 734              		.loc 1 143 0
 735 01a0 107B     		ldrb	r0, [r2, #12]	@ zero_extendqisi2
 736 01a2 FFF7FEFF 		bl	Control_Reg_1_Write
 737              	.LVL55:
 738 01a6 227B     		ldrb	r2, [r4, #12]	@ zero_extendqisi2
 739 01a8 3A4B     		ldr	r3, .L52+12
 740 01aa 1A70     		strb	r2, [r3]
 741              	.LBB9:
 144:.\Valve_Control.c **** 				CutReg.CutTimeStatus = VBack;
 742              		.loc 1 144 0
 743 01ac 3A4B     		ldr	r3, .L52+16
 744 01ae 1879     		ldrb	r0, [r3, #4]	@ zero_extendqisi2
 745 01b0 3A4B     		ldr	r3, .L52+20
 746 01b2 1870     		strb	r0, [r3]
 747 01b4 FFF7FEFF 		bl	LCD_DISPLAY
 748              	.LVL56:
 749              	.LBE9:
 145:.\Valve_Control.c **** 			}
 750              		.loc 1 145 0
 751 01b8 0423     		movs	r3, #4
 752 01ba 6374     		strb	r3, [r4, #17]
 753 01bc 10BD     		pop	{r4, pc}
 754              	.L47:
 149:.\Valve_Control.c ****                 LED_WRITE(LED_Status[VUnload]);
 755              		.loc 1 149 0
 756 01be 344C     		ldr	r4, .L52+8
 757 01c0 E07A     		ldrb	r0, [r4, #11]	@ zero_extendqisi2
 758 01c2 FFF7FEFF 		bl	Control_Reg_1_Write
 759              	.LVL57:
 760 01c6 E27A     		ldrb	r2, [r4, #11]	@ zero_extendqisi2
 761 01c8 324B     		ldr	r3, .L52+12
 762 01ca 1A70     		strb	r2, [r3]
 763              	.LBB10:
 150:.\Valve_Control.c **** 				CutReg.CutTimeStatus = VUnload;
 764              		.loc 1 150 0
 765 01cc 324B     		ldr	r3, .L52+16
 766 01ce D878     		ldrb	r0, [r3, #3]	@ zero_extendqisi2
 767 01d0 324B     		ldr	r3, .L52+20
 768 01d2 1870     		strb	r0, [r3]
 769 01d4 FFF7FEFF 		bl	LCD_DISPLAY
 770              	.LVL58:
 771              	.LBE10:
 151:.\Valve_Control.c **** 			}
 772              		.loc 1 151 0
 773 01d8 0323     		movs	r3, #3
 774 01da 6374     		strb	r3, [r4, #17]
ARM GAS  C:\Users\PANXIA~1\AppData\Local\Temp\ccSHwGSg.s 			page 29


 775 01dc 10BD     		pop	{r4, pc}
 776              	.L42:
 156:.\Valve_Control.c **** 			{
 777              		.loc 1 156 0
 778 01de FFF7FEFF 		bl	Status_Reg_1_Read
 779              	.LVL59:
 780 01e2 10F0100F 		tst	r0, #16
 781 01e6 18D1     		bne	.L48
 158:.\Valve_Control.c **** 				{
 782              		.loc 1 158 0
 783 01e8 FFF7FEFF 		bl	Status_Reg_1_Read
 784              	.LVL60:
 785 01ec 10F0100F 		tst	r0, #16
 786 01f0 47D1     		bne	.L33
 160:.\Valve_Control.c ****                     LED_WRITE(LED_Status[VStop]);
 787              		.loc 1 160 0
 788 01f2 274C     		ldr	r4, .L52+8
 789 01f4 607B     		ldrb	r0, [r4, #13]	@ zero_extendqisi2
 790 01f6 FFF7FEFF 		bl	Control_Reg_1_Write
 791              	.LVL61:
 792 01fa 627B     		ldrb	r2, [r4, #13]	@ zero_extendqisi2
 793 01fc 254B     		ldr	r3, .L52+12
 794 01fe 1A70     		strb	r2, [r3]
 795              	.LBB11:
 161:.\Valve_Control.c **** 					CutReg.CutTimeStatus = VStop;
 796              		.loc 1 161 0
 797 0200 254B     		ldr	r3, .L52+16
 798 0202 5879     		ldrb	r0, [r3, #5]	@ zero_extendqisi2
 799 0204 254B     		ldr	r3, .L52+20
 800 0206 1870     		strb	r0, [r3]
 801 0208 FFF7FEFF 		bl	LCD_DISPLAY
 802              	.LVL62:
 803              	.LBE11:
 162:.\Valve_Control.c **** 					CutReg.Cnt = 0;
 804              		.loc 1 162 0
 805 020c 0523     		movs	r3, #5
 806 020e 6374     		strb	r3, [r4, #17]
 163:.\Valve_Control.c ****                     CutReg.OneWorkFinshState = One_Work_Finish;//ÂÆåÊàê‰∏ÄÊ¨°Âä®‰ΩúÊ†áÂøó 20160829Á
 807              		.loc 1 163 0
 808 0210 0023     		movs	r3, #0
 809 0212 E381     		strh	r3, [r4, #14]	@ movhi
 164:.\Valve_Control.c **** 				}
 810              		.loc 1 164 0
 811 0214 FF23     		movs	r3, #255
 812 0216 E375     		strb	r3, [r4, #23]
 813 0218 10BD     		pop	{r4, pc}
 814              	.L48:
 169:.\Valve_Control.c ****                 LED_WRITE(LED_Status[VBack]);
 815              		.loc 1 169 0
 816 021a 1D4C     		ldr	r4, .L52+8
 817 021c 207B     		ldrb	r0, [r4, #12]	@ zero_extendqisi2
 818 021e FFF7FEFF 		bl	Control_Reg_1_Write
 819              	.LVL63:
 820 0222 227B     		ldrb	r2, [r4, #12]	@ zero_extendqisi2
 821 0224 1B4B     		ldr	r3, .L52+12
 822 0226 1A70     		strb	r2, [r3]
 823              	.LBB12:
ARM GAS  C:\Users\PANXIA~1\AppData\Local\Temp\ccSHwGSg.s 			page 30


 170:.\Valve_Control.c **** 				CutReg.CutTimeStatus = VBack;
 824              		.loc 1 170 0
 825 0228 1B4B     		ldr	r3, .L52+16
 826 022a 1879     		ldrb	r0, [r3, #4]	@ zero_extendqisi2
 827 022c 1B4B     		ldr	r3, .L52+20
 828 022e 1870     		strb	r0, [r3]
 829 0230 FFF7FEFF 		bl	LCD_DISPLAY
 830              	.LVL64:
 831              	.LBE12:
 171:.\Valve_Control.c **** 			}
 832              		.loc 1 171 0
 833 0234 0423     		movs	r3, #4
 834 0236 6374     		strb	r3, [r4, #17]
 835 0238 10BD     		pop	{r4, pc}
 836              	.L43:
 175:.\Valve_Control.c **** 			if(CutReg.Cnt >= 100  )//
 837              		.loc 1 175 0
 838 023a 154A     		ldr	r2, .L52+8
 839 023c D389     		ldrh	r3, [r2, #14]
 840 023e 0133     		adds	r3, r3, #1
 841 0240 9BB2     		uxth	r3, r3
 842 0242 D381     		strh	r3, [r2, #14]	@ movhi
 176:.\Valve_Control.c **** 			{
 843              		.loc 1 176 0
 844 0244 D389     		ldrh	r3, [r2, #14]
 845 0246 9BB2     		uxth	r3, r3
 846 0248 632B     		cmp	r3, #99
 847 024a 0BD9     		bls	.L49
 178:.\Valve_Control.c **** 				ISR_Stroke_Timer_states =0x01;
 848              		.loc 1 178 0
 849 024c 1346     		mov	r3, r2
 850 024e 0022     		movs	r2, #0
 851 0250 DA81     		strh	r2, [r3, #14]	@ movhi
 179:.\Valve_Control.c ****           
 852              		.loc 1 179 0
 853 0252 0120     		movs	r0, #1
 854 0254 0C49     		ldr	r1, .L52
 855 0256 0860     		str	r0, [r1]
 181:.\Valve_Control.c ****             
 856              		.loc 1 181 0
 857 0258 5A74     		strb	r2, [r3, #17]
 183:.\Valve_Control.c **** 				CutReg.CutStatus = JudgMode;
 858              		.loc 1 183 0
 859 025a 0522     		movs	r2, #5
 860 025c 5A74     		strb	r2, [r3, #17]
 184:.\Valve_Control.c ****              
 861              		.loc 1 184 0
 862 025e 0622     		movs	r2, #6
 863 0260 1A74     		strb	r2, [r3, #16]
 864 0262 10BD     		pop	{r4, pc}
 865              	.L49:
 189:.\Valve_Control.c ****                 LED_WRITE(LED_Status[VStop]);
 866              		.loc 1 189 0
 867 0264 0A4C     		ldr	r4, .L52+8
 868 0266 607B     		ldrb	r0, [r4, #13]	@ zero_extendqisi2
 869 0268 FFF7FEFF 		bl	Control_Reg_1_Write
 870              	.LVL65:
ARM GAS  C:\Users\PANXIA~1\AppData\Local\Temp\ccSHwGSg.s 			page 31


 871 026c 627B     		ldrb	r2, [r4, #13]	@ zero_extendqisi2
 872 026e 094B     		ldr	r3, .L52+12
 873 0270 1A70     		strb	r2, [r3]
 874              	.LBB13:
 190:.\Valve_Control.c **** 				CutReg.CutTimeStatus = VStop;
 875              		.loc 1 190 0
 876 0272 094B     		ldr	r3, .L52+16
 877 0274 5879     		ldrb	r0, [r3, #5]	@ zero_extendqisi2
 878 0276 094B     		ldr	r3, .L52+20
 879 0278 1870     		strb	r0, [r3]
 880 027a FFF7FEFF 		bl	LCD_DISPLAY
 881              	.LVL66:
 882              	.LBE13:
 191:.\Valve_Control.c ****                 
 883              		.loc 1 191 0
 884 027e 0523     		movs	r3, #5
 885 0280 6374     		strb	r3, [r4, #17]
 886              	.L33:
 887 0282 10BD     		pop	{r4, pc}
 888              	.L51:
 889              		.cfi_def_cfa_offset 0
 890              		.cfi_restore 4
 891              		.cfi_restore 14
 892 0284 7047     		bx	lr
 893              	.L53:
 894 0286 00BF     		.align	2
 895              	.L52:
 896 0288 00000000 		.word	ISR_Stroke_Timer_states
 897 028c 00000000 		.word	System_enable
 898 0290 00000000 		.word	CutReg
 899 0294 00000000 		.word	TPDO_OUT_Status
 900 0298 00000000 		.word	.LANCHOR2
 901 029c 00000000 		.word	TPDO_PROCESS_Status
 902              		.cfi_endproc
 903              	.LFE63:
 904              		.size	timer_10ms, .-timer_10ms
 905              		.section	.text.Stroke_Process,"ax",%progbits
 906              		.align	2
 907              		.global	Stroke_Process
 908              		.thumb
 909              		.thumb_func
 910              		.type	Stroke_Process, %function
 911              	Stroke_Process:
 912              	.LFB64:
 219:.\Valve_Control.c **** 	uint8 ModeFlag = 0;
 913              		.loc 1 219 0
 914              		.cfi_startproc
 915              		@ args = 0, pretend = 0, frame = 0
 916              		@ frame_needed = 0, uses_anonymous_args = 0
 917 0000 10B5     		push	{r4, lr}
 918              		.cfi_def_cfa_offset 8
 919              		.cfi_offset 4, -8
 920              		.cfi_offset 14, -4
 921              	.LVL67:
 224:.\Valve_Control.c **** 	{
 922              		.loc 1 224 0
 923 0002 AE4B     		ldr	r3, .L91
ARM GAS  C:\Users\PANXIA~1\AppData\Local\Temp\ccSHwGSg.s 			page 32


 924 0004 1B7C     		ldrb	r3, [r3, #16]	@ zero_extendqisi2
 925 0006 DBB2     		uxtb	r3, r3
 926 0008 062B     		cmp	r3, #6
 927 000a 00F28C81 		bhi	.L83
 928 000e DFE813F0 		tbh	[pc, r3, lsl #1]
 929              	.L57:
 930 0012 0700     		.2byte	(.L56-.L57)/2
 931 0014 2400     		.2byte	(.L58-.L57)/2
 932 0016 1801     		.2byte	(.L59-.L57)/2
 933 0018 2F01     		.2byte	(.L60-.L57)/2
 934 001a 5F01     		.2byte	(.L61-.L57)/2
 935 001c 8A01     		.2byte	(.L83-.L57)/2
 936 001e 6801     		.2byte	(.L62-.L57)/2
 937              		.p2align 1
 938              	.L56:
 227:.\Valve_Control.c **** 		{
 939              		.loc 1 227 0
 940 0020 FFF7FEFF 		bl	Status_Reg_1_Read
 941              	.LVL68:
 942 0024 00F00C00 		and	r0, r0, #12
 943 0028 0428     		cmp	r0, #4
 944 002a 05D0     		beq	.L63
 227:.\Valve_Control.c **** 		{
 945              		.loc 1 227 0 is_stmt 0 discriminator 1
 946 002c FFF7FEFF 		bl	Status_Reg_1_Read
 947              	.LVL69:
 948 0030 00F00C00 		and	r0, r0, #12
 949 0034 0828     		cmp	r0, #8
 950 0036 04D1     		bne	.L64
 951              	.L63:
 229:.\Valve_Control.c **** 		}
 952              		.loc 1 229 0 is_stmt 1
 953 0038 0222     		movs	r2, #2
 954 003a A04B     		ldr	r3, .L91
 955 003c 1A74     		strb	r2, [r3, #16]
 222:.\Valve_Control.c **** 	
 956              		.loc 1 222 0
 957 003e 0020     		movs	r0, #0
 229:.\Valve_Control.c **** 		}
 958              		.loc 1 229 0
 959 0040 10BD     		pop	{r4, pc}
 960              	.L64:
 231:.\Valve_Control.c **** 		{
 961              		.loc 1 231 0
 962 0042 FFF7FEFF 		bl	Status_Reg_1_Read
 963              	.LVL70:
 964 0046 00F00C00 		and	r0, r0, #12
 965 004a 0C28     		cmp	r0, #12
 966 004c 40F06D81 		bne	.L84
 233:.\Valve_Control.c **** 		}
 967              		.loc 1 233 0
 968 0050 0122     		movs	r2, #1
 969 0052 9A4B     		ldr	r3, .L91
 970 0054 1A74     		strb	r2, [r3, #16]
 222:.\Valve_Control.c **** 	
 971              		.loc 1 222 0
 972 0056 0020     		movs	r0, #0
ARM GAS  C:\Users\PANXIA~1\AppData\Local\Temp\ccSHwGSg.s 			page 33


 973 0058 10BD     		pop	{r4, pc}
 974              	.L58:
 239:.\Valve_Control.c **** 		{
 975              		.loc 1 239 0
 976 005a FFF7FEFF 		bl	Status_Reg_1_Read
 977              	.LVL71:
 978 005e 00F00C00 		and	r0, r0, #12
 979 0062 0C28     		cmp	r0, #12
 980 0064 0FD0     		beq	.L65
 241:.\Valve_Control.c ****             LED_WRITE(LED_Status[VStop]);
 981              		.loc 1 241 0
 982 0066 954C     		ldr	r4, .L91
 983 0068 607B     		ldrb	r0, [r4, #13]	@ zero_extendqisi2
 984 006a FFF7FEFF 		bl	Control_Reg_1_Write
 985              	.LVL72:
 986 006e 627B     		ldrb	r2, [r4, #13]	@ zero_extendqisi2
 987 0070 934B     		ldr	r3, .L91+4
 988 0072 1A70     		strb	r2, [r3]
 989              	.LBB14:
 242:.\Valve_Control.c **** 			CutReg.CutStatus = StrokeStart;
 990              		.loc 1 242 0
 991 0074 934B     		ldr	r3, .L91+8
 992 0076 5879     		ldrb	r0, [r3, #5]	@ zero_extendqisi2
 993 0078 934B     		ldr	r3, .L91+12
 994 007a 1870     		strb	r0, [r3]
 995 007c FFF7FEFF 		bl	LCD_DISPLAY
 996              	.LVL73:
 997              	.LBE14:
 243:.\Valve_Control.c **** 		}
 998              		.loc 1 243 0
 999 0080 0023     		movs	r3, #0
 1000 0082 2374     		strb	r3, [r4, #16]
 1001 0084 ADE0     		b	.L66
 1002              	.L65:
 245:.\Valve_Control.c **** 		{
 1003              		.loc 1 245 0
 1004 0086 FFF7FEFF 		bl	Status_Reg_1_Read
 1005              	.LVL74:
 1006 008a 10F0010F 		tst	r0, #1
 1007 008e 53D1     		bne	.L67
 245:.\Valve_Control.c **** 		{
 1008              		.loc 1 245 0 is_stmt 0 discriminator 1
 1009 0090 8C4B     		ldr	r3, .L91+8
 1010 0092 9B79     		ldrb	r3, [r3, #6]	@ zero_extendqisi2
 1011 0094 002B     		cmp	r3, #0
 1012 0096 4FD0     		beq	.L67
 248:.\Valve_Control.c **** 			while(FootStart())
 1013              		.loc 1 248 0 is_stmt 1
 1014 0098 1122     		movs	r2, #17
 1015 009a 884B     		ldr	r3, .L91
 1016 009c DA75     		strb	r2, [r3, #23]
 249:.\Valve_Control.c **** 			{
 1017              		.loc 1 249 0
 1018 009e 38E0     		b	.L68
 1019              	.L72:
 252:.\Valve_Control.c **** 				{
 1020              		.loc 1 252 0
ARM GAS  C:\Users\PANXIA~1\AppData\Local\Temp\ccSHwGSg.s 			page 34


 1021 00a0 FFF7FEFF 		bl	Status_Reg_1_Read
 1022              	.LVL75:
 1023 00a4 10F0200F 		tst	r0, #32
 1024 00a8 10D1     		bne	.L69
 254:.\Valve_Control.c ****                     LED_WRITE(LED_Status[VSlow]);
 1025              		.loc 1 254 0
 1026 00aa 844C     		ldr	r4, .L91
 1027 00ac 607A     		ldrb	r0, [r4, #9]	@ zero_extendqisi2
 1028 00ae FFF7FEFF 		bl	Control_Reg_1_Write
 1029              	.LVL76:
 1030 00b2 627A     		ldrb	r2, [r4, #9]	@ zero_extendqisi2
 1031 00b4 824B     		ldr	r3, .L91+4
 1032 00b6 1A70     		strb	r2, [r3]
 1033              	.LBB15:
 255:.\Valve_Control.c **** 					UnloadTime = CutReg.UnloadTime;
 1034              		.loc 1 255 0
 1035 00b8 824B     		ldr	r3, .L91+8
 1036 00ba 5878     		ldrb	r0, [r3, #1]	@ zero_extendqisi2
 1037 00bc 824B     		ldr	r3, .L91+12
 1038 00be 1870     		strb	r0, [r3]
 1039 00c0 FFF7FEFF 		bl	LCD_DISPLAY
 1040              	.LVL77:
 1041              	.LBE15:
 256:.\Valve_Control.c **** 				}
 1042              		.loc 1 256 0
 1043 00c4 6288     		ldrh	r2, [r4, #2]
 1044 00c6 814B     		ldr	r3, .L91+16
 1045 00c8 9A80     		strh	r2, [r3, #4]	@ movhi
 1046 00ca 0CE0     		b	.L70
 1047              	.L69:
 260:.\Valve_Control.c ****                     LED_WRITE(LED_Status[VFast]);
 1048              		.loc 1 260 0
 1049 00cc 7B4C     		ldr	r4, .L91
 1050 00ce 207A     		ldrb	r0, [r4, #8]	@ zero_extendqisi2
 1051 00d0 FFF7FEFF 		bl	Control_Reg_1_Write
 1052              	.LVL78:
 1053 00d4 227A     		ldrb	r2, [r4, #8]	@ zero_extendqisi2
 1054 00d6 7A4B     		ldr	r3, .L91+4
 1055 00d8 1A70     		strb	r2, [r3]
 1056              	.LBB16:
 261:.\Valve_Control.c **** 				}
 1057              		.loc 1 261 0
 1058 00da 7A4B     		ldr	r3, .L91+8
 1059 00dc 1878     		ldrb	r0, [r3]	@ zero_extendqisi2
 1060 00de 7A4B     		ldr	r3, .L91+12
 1061 00e0 1870     		strb	r0, [r3]
 1062 00e2 FFF7FEFF 		bl	LCD_DISPLAY
 1063              	.LVL79:
 1064              	.L70:
 1065              	.LBE16:
 263:.\Valve_Control.c **** 				{
 1066              		.loc 1 263 0
 1067 00e6 FFF7FEFF 		bl	Status_Reg_1_Read
 1068              	.LVL80:
 1069 00ea 00F00C00 		and	r0, r0, #12
 1070 00ee 0C28     		cmp	r0, #12
 1071 00f0 0FD0     		beq	.L68
ARM GAS  C:\Users\PANXIA~1\AppData\Local\Temp\ccSHwGSg.s 			page 35


 265:.\Valve_Control.c ****                     LED_WRITE(LED_Status[VStop]);
 1072              		.loc 1 265 0
 1073 00f2 724C     		ldr	r4, .L91
 1074 00f4 607B     		ldrb	r0, [r4, #13]	@ zero_extendqisi2
 1075 00f6 FFF7FEFF 		bl	Control_Reg_1_Write
 1076              	.LVL81:
 1077 00fa 627B     		ldrb	r2, [r4, #13]	@ zero_extendqisi2
 1078 00fc 704B     		ldr	r3, .L91+4
 1079 00fe 1A70     		strb	r2, [r3]
 1080              	.LBB17:
 266:.\Valve_Control.c **** 					CutReg.CutStatus = StrokeStart;
 1081              		.loc 1 266 0
 1082 0100 704B     		ldr	r3, .L91+8
 1083 0102 5879     		ldrb	r0, [r3, #5]	@ zero_extendqisi2
 1084 0104 704B     		ldr	r3, .L91+12
 1085 0106 1870     		strb	r0, [r3]
 1086 0108 FFF7FEFF 		bl	LCD_DISPLAY
 1087              	.LVL82:
 1088              	.LBE17:
 267:.\Valve_Control.c **** 					break;
 1089              		.loc 1 267 0
 1090 010c 0023     		movs	r3, #0
 1091 010e 2374     		strb	r3, [r4, #16]
 268:.\Valve_Control.c **** 				}
 1092              		.loc 1 268 0
 1093 0110 04E0     		b	.L71
 1094              	.L68:
 249:.\Valve_Control.c **** 			{
 1095              		.loc 1 249 0
 1096 0112 FFF7FEFF 		bl	Status_Reg_1_Read
 1097              	.LVL83:
 1098 0116 10F0010F 		tst	r0, #1
 1099 011a C1D0     		beq	.L72
 1100              	.L71:
 271:.\Valve_Control.c ****             LED_WRITE(LED_Status[VStop]);
 1101              		.loc 1 271 0
 1102 011c 674C     		ldr	r4, .L91
 1103 011e 607B     		ldrb	r0, [r4, #13]	@ zero_extendqisi2
 1104 0120 FFF7FEFF 		bl	Control_Reg_1_Write
 1105              	.LVL84:
 1106 0124 627B     		ldrb	r2, [r4, #13]	@ zero_extendqisi2
 1107 0126 664B     		ldr	r3, .L91+4
 1108 0128 1A70     		strb	r2, [r3]
 1109              	.LBB18:
 272:.\Valve_Control.c **** //			MoveLED(0);
 1110              		.loc 1 272 0
 1111 012a 664B     		ldr	r3, .L91+8
 1112 012c 5879     		ldrb	r0, [r3, #5]	@ zero_extendqisi2
 1113 012e 664B     		ldr	r3, .L91+12
 1114 0130 1870     		strb	r0, [r3]
 1115 0132 FFF7FEFF 		bl	LCD_DISPLAY
 1116              	.LVL85:
 1117              	.LBE18:
 1118 0136 54E0     		b	.L66
 1119              	.L67:
 275:.\Valve_Control.c **** 		{
 1120              		.loc 1 275 0
ARM GAS  C:\Users\PANXIA~1\AppData\Local\Temp\ccSHwGSg.s 			page 36


 1121 0138 FFF7FEFF 		bl	Status_Reg_1_Read
 1122              	.LVL86:
 1123 013c 10F0020F 		tst	r0, #2
 1124 0140 4FD1     		bne	.L66
 275:.\Valve_Control.c **** 		{
 1125              		.loc 1 275 0 is_stmt 0 discriminator 1
 1126 0142 604B     		ldr	r3, .L91+8
 1127 0144 DB79     		ldrb	r3, [r3, #7]	@ zero_extendqisi2
 1128 0146 002B     		cmp	r3, #0
 1129 0148 4BD0     		beq	.L66
 277:.\Valve_Control.c **** 			while(FootUp())
 1130              		.loc 1 277 0 is_stmt 1
 1131 014a 0022     		movs	r2, #0
 1132 014c 5F4B     		ldr	r3, .L91+16
 1133 014e 9A80     		strh	r2, [r3, #4]	@ movhi
 278:.\Valve_Control.c **** 			{
 1134              		.loc 1 278 0
 1135 0150 35E0     		b	.L73
 1136              	.L77:
 281:.\Valve_Control.c **** 				{
 1137              		.loc 1 281 0
 1138 0152 FFF7FEFF 		bl	Status_Reg_1_Read
 1139              	.LVL87:
 1140 0156 10F0100F 		tst	r0, #16
 1141 015a 0DD1     		bne	.L74
 283:.\Valve_Control.c ****                     LED_WRITE(LED_Status[VStop]);
 1142              		.loc 1 283 0
 1143 015c 574C     		ldr	r4, .L91
 1144 015e 607B     		ldrb	r0, [r4, #13]	@ zero_extendqisi2
 1145 0160 FFF7FEFF 		bl	Control_Reg_1_Write
 1146              	.LVL88:
 1147 0164 627B     		ldrb	r2, [r4, #13]	@ zero_extendqisi2
 1148 0166 564B     		ldr	r3, .L91+4
 1149 0168 1A70     		strb	r2, [r3]
 1150              	.LBB19:
 284:.\Valve_Control.c **** 				}
 1151              		.loc 1 284 0
 1152 016a 564B     		ldr	r3, .L91+8
 1153 016c 5879     		ldrb	r0, [r3, #5]	@ zero_extendqisi2
 1154 016e 564B     		ldr	r3, .L91+12
 1155 0170 1870     		strb	r0, [r3]
 1156 0172 FFF7FEFF 		bl	LCD_DISPLAY
 1157              	.LVL89:
 1158              	.LBE19:
 1159 0176 0CE0     		b	.L75
 1160              	.L74:
 288:.\Valve_Control.c ****                     LED_WRITE(LED_Status[VBack]);
 1161              		.loc 1 288 0
 1162 0178 504C     		ldr	r4, .L91
 1163 017a 207B     		ldrb	r0, [r4, #12]	@ zero_extendqisi2
 1164 017c FFF7FEFF 		bl	Control_Reg_1_Write
 1165              	.LVL90:
 1166 0180 227B     		ldrb	r2, [r4, #12]	@ zero_extendqisi2
 1167 0182 4F4B     		ldr	r3, .L91+4
 1168 0184 1A70     		strb	r2, [r3]
 1169              	.LBB20:
 289:.\Valve_Control.c **** 				}
ARM GAS  C:\Users\PANXIA~1\AppData\Local\Temp\ccSHwGSg.s 			page 37


 1170              		.loc 1 289 0
 1171 0186 4F4B     		ldr	r3, .L91+8
 1172 0188 1879     		ldrb	r0, [r3, #4]	@ zero_extendqisi2
 1173 018a 4F4B     		ldr	r3, .L91+12
 1174 018c 1870     		strb	r0, [r3]
 1175 018e FFF7FEFF 		bl	LCD_DISPLAY
 1176              	.LVL91:
 1177              	.L75:
 1178              	.LBE20:
 291:.\Valve_Control.c **** 				{
 1179              		.loc 1 291 0
 1180 0192 FFF7FEFF 		bl	Status_Reg_1_Read
 1181              	.LVL92:
 1182 0196 00F00C00 		and	r0, r0, #12
 1183 019a 0C28     		cmp	r0, #12
 1184 019c 0FD0     		beq	.L73
 293:.\Valve_Control.c ****                     LED_WRITE(LED_Status[VStop]);
 1185              		.loc 1 293 0
 1186 019e 474C     		ldr	r4, .L91
 1187 01a0 607B     		ldrb	r0, [r4, #13]	@ zero_extendqisi2
 1188 01a2 FFF7FEFF 		bl	Control_Reg_1_Write
 1189              	.LVL93:
 1190 01a6 627B     		ldrb	r2, [r4, #13]	@ zero_extendqisi2
 1191 01a8 454B     		ldr	r3, .L91+4
 1192 01aa 1A70     		strb	r2, [r3]
 1193              	.LBB21:
 294:.\Valve_Control.c **** 					CutReg.CutStatus = StrokeStart;
 1194              		.loc 1 294 0
 1195 01ac 454B     		ldr	r3, .L91+8
 1196 01ae 5879     		ldrb	r0, [r3, #5]	@ zero_extendqisi2
 1197 01b0 454B     		ldr	r3, .L91+12
 1198 01b2 1870     		strb	r0, [r3]
 1199 01b4 FFF7FEFF 		bl	LCD_DISPLAY
 1200              	.LVL94:
 1201              	.LBE21:
 295:.\Valve_Control.c **** 					break;
 1202              		.loc 1 295 0
 1203 01b8 0023     		movs	r3, #0
 1204 01ba 2374     		strb	r3, [r4, #16]
 296:.\Valve_Control.c **** 				}
 1205              		.loc 1 296 0
 1206 01bc 04E0     		b	.L76
 1207              	.L73:
 278:.\Valve_Control.c **** 			{
 1208              		.loc 1 278 0
 1209 01be FFF7FEFF 		bl	Status_Reg_1_Read
 1210              	.LVL95:
 1211 01c2 10F0020F 		tst	r0, #2
 1212 01c6 C4D0     		beq	.L77
 1213              	.L76:
 299:.\Valve_Control.c ****             LED_WRITE(LED_Status[VStop]);
 1214              		.loc 1 299 0
 1215 01c8 3C4C     		ldr	r4, .L91
 1216 01ca 607B     		ldrb	r0, [r4, #13]	@ zero_extendqisi2
 1217 01cc FFF7FEFF 		bl	Control_Reg_1_Write
 1218              	.LVL96:
 1219 01d0 627B     		ldrb	r2, [r4, #13]	@ zero_extendqisi2
ARM GAS  C:\Users\PANXIA~1\AppData\Local\Temp\ccSHwGSg.s 			page 38


 1220 01d2 3B4B     		ldr	r3, .L91+4
 1221 01d4 1A70     		strb	r2, [r3]
 1222              	.LBB22:
 300:.\Valve_Control.c **** //			MoveLED(0);
 1223              		.loc 1 300 0
 1224 01d6 3B4B     		ldr	r3, .L91+8
 1225 01d8 5879     		ldrb	r0, [r3, #5]	@ zero_extendqisi2
 1226 01da 3B4B     		ldr	r3, .L91+12
 1227 01dc 1870     		strb	r0, [r3]
 1228 01de FFF7FEFF 		bl	LCD_DISPLAY
 1229              	.LVL97:
 1230              	.L66:
 1231              	.LBE22:
 304:.\Valve_Control.c **** 		{
 1232              		.loc 1 304 0
 1233 01e2 FFF7FEFF 		bl	Status_Reg_1_Read
 1234              	.LVL98:
 1235 01e6 00F00C00 		and	r0, r0, #12
 1236 01ea 0C28     		cmp	r0, #12
 1237 01ec 1ED1     		bne	.L78
 304:.\Valve_Control.c **** 		{
 1238              		.loc 1 304 0 is_stmt 0 discriminator 1
 1239 01ee FFF7FEFF 		bl	Status_Reg_1_Read
 1240              	.LVL99:
 1241 01f2 10F0010F 		tst	r0, #1
 1242 01f6 19D0     		beq	.L78
 304:.\Valve_Control.c **** 		{
 1243              		.loc 1 304 0 discriminator 2
 1244 01f8 304B     		ldr	r3, .L91
 1245 01fa DB7A     		ldrb	r3, [r3, #11]	@ zero_extendqisi2
 1246 01fc 13F0FF0F 		tst	r3, #255
 1247 0200 14D0     		beq	.L78
 304:.\Valve_Control.c **** 		{
 1248              		.loc 1 304 0 discriminator 3
 1249 0202 324B     		ldr	r3, .L91+16
 1250 0204 B3F90430 		ldrsh	r3, [r3, #4]
 1251 0208 002B     		cmp	r3, #0
 1252 020a 0FDD     		ble	.L78
 306:.\Valve_Control.c **** 			UnloadTime -= 1;
 1253              		.loc 1 306 0 is_stmt 1
 1254 020c 2B4C     		ldr	r4, .L91
 1255 020e E07A     		ldrb	r0, [r4, #11]	@ zero_extendqisi2
 1256 0210 FFF7FEFF 		bl	Control_Reg_1_Write
 1257              	.LVL100:
 1258 0214 E27A     		ldrb	r2, [r4, #11]	@ zero_extendqisi2
 1259 0216 2A4B     		ldr	r3, .L91+4
 1260 0218 1A70     		strb	r2, [r3]
 307:.\Valve_Control.c **** 			CyDelay(10);
 1261              		.loc 1 307 0
 1262 021a 2C4A     		ldr	r2, .L91+16
 1263 021c 9388     		ldrh	r3, [r2, #4]
 1264 021e 013B     		subs	r3, r3, #1
 1265 0220 9380     		strh	r3, [r2, #4]	@ movhi
 308:.\Valve_Control.c **** 		}
 1266              		.loc 1 308 0
 1267 0222 0A20     		movs	r0, #10
 1268 0224 FFF7FEFF 		bl	CyDelay
ARM GAS  C:\Users\PANXIA~1\AppData\Local\Temp\ccSHwGSg.s 			page 39


 1269              	.LVL101:
 222:.\Valve_Control.c **** 	
 1270              		.loc 1 222 0
 1271 0228 0020     		movs	r0, #0
 308:.\Valve_Control.c **** 		}
 1272              		.loc 1 308 0
 1273 022a 10BD     		pop	{r4, pc}
 1274              	.L78:
 312:.\Valve_Control.c ****             /* Â¢ûÂä†Âä®‰ΩúÂÆåÊàêÊ†áÂøó20160820*/
 1275              		.loc 1 312 0
 1276 022c 234C     		ldr	r4, .L91
 1277 022e 607B     		ldrb	r0, [r4, #13]	@ zero_extendqisi2
 1278 0230 FFF7FEFF 		bl	Control_Reg_1_Write
 1279              	.LVL102:
 1280 0234 627B     		ldrb	r2, [r4, #13]	@ zero_extendqisi2
 1281 0236 224B     		ldr	r3, .L91+4
 1282 0238 1A70     		strb	r2, [r3]
 314:.\Valve_Control.c ****         }
 1283              		.loc 1 314 0
 1284 023a FF23     		movs	r3, #255
 1285 023c E375     		strb	r3, [r4, #23]
 222:.\Valve_Control.c **** 	
 1286              		.loc 1 222 0
 1287 023e 0020     		movs	r0, #0
 1288 0240 10BD     		pop	{r4, pc}
 1289              	.L59:
 319:.\Valve_Control.c ****         {
 1290              		.loc 1 319 0
 1291 0242 FFF7FEFF 		bl	Status_Reg_1_Read
 1292              	.LVL103:
 1293 0246 10F0010F 		tst	r0, #1
 1294 024a 0CD0     		beq	.L79
 321:.\Valve_Control.c **** 			if(!FootStart())
 1295              		.loc 1 321 0
 1296 024c 0520     		movs	r0, #5
 1297 024e FFF7FEFF 		bl	CyDelay
 1298              	.LVL104:
 322:.\Valve_Control.c **** 			{
 1299              		.loc 1 322 0
 1300 0252 FFF7FEFF 		bl	Status_Reg_1_Read
 1301              	.LVL105:
 1302 0256 10F0010F 		tst	r0, #1
 1303 025a 68D0     		beq	.L85
 324:.\Valve_Control.c **** 			}
 1304              		.loc 1 324 0
 1305 025c 0322     		movs	r2, #3
 1306 025e 174B     		ldr	r3, .L91
 1307 0260 1A74     		strb	r2, [r3, #16]
 222:.\Valve_Control.c **** 	
 1308              		.loc 1 222 0
 1309 0262 0020     		movs	r0, #0
 1310 0264 10BD     		pop	{r4, pc}
 1311              	.L79:
 329:.\Valve_Control.c ****         }
 1312              		.loc 1 329 0
 1313 0266 0222     		movs	r2, #2
 1314 0268 144B     		ldr	r3, .L91
ARM GAS  C:\Users\PANXIA~1\AppData\Local\Temp\ccSHwGSg.s 			page 40


 1315 026a 1A74     		strb	r2, [r3, #16]
 222:.\Valve_Control.c **** 	
 1316              		.loc 1 222 0
 1317 026c 0020     		movs	r0, #0
 1318 026e 10BD     		pop	{r4, pc}
 1319              	.L60:
 333:.\Valve_Control.c **** 		{
 1320              		.loc 1 333 0
 1321 0270 FFF7FEFF 		bl	Status_Reg_1_Read
 1322              	.LVL106:
 1323 0274 10F0010F 		tst	r0, #1
 1324 0278 0DD1     		bne	.L80
 335:.\Valve_Control.c **** 			if(FootStart())
 1325              		.loc 1 335 0
 1326 027a 0520     		movs	r0, #5
 1327 027c FFF7FEFF 		bl	CyDelay
 1328              	.LVL107:
 336:.\Valve_Control.c **** 			{                
 1329              		.loc 1 336 0
 1330 0280 FFF7FEFF 		bl	Status_Reg_1_Read
 1331              	.LVL108:
 1332 0284 10F0010F 		tst	r0, #1
 1333 0288 53D1     		bne	.L86
 338:.\Valve_Control.c ****                 CutReg.SToDotFlag = 0;
 1334              		.loc 1 338 0
 1335 028a 0C4B     		ldr	r3, .L91
 1336 028c 0422     		movs	r2, #4
 1337 028e 1A74     		strb	r2, [r3, #16]
 339:.\Valve_Control.c **** 			}
 1338              		.loc 1 339 0
 1339 0290 0020     		movs	r0, #0
 1340 0292 9875     		strb	r0, [r3, #22]
 1341 0294 10BD     		pop	{r4, pc}
 1342              	.L80:
 344:.\Valve_Control.c ****             if( CutReg.SToDotFlag && CutMode() == CUTJMODE)
 1343              		.loc 1 344 0
 1344 0296 094B     		ldr	r3, .L91
 1345 0298 0322     		movs	r2, #3
 1346 029a 1A74     		strb	r2, [r3, #16]
 345:.\Valve_Control.c ****             {
 1347              		.loc 1 345 0
 1348 029c 9B7D     		ldrb	r3, [r3, #22]	@ zero_extendqisi2
 1349 029e 13F0FF0F 		tst	r3, #255
 1350 02a2 48D0     		beq	.L87
 345:.\Valve_Control.c ****             {
 1351              		.loc 1 345 0 is_stmt 0 discriminator 1
 1352 02a4 FFF7FEFF 		bl	Status_Reg_1_Read
 1353              	.LVL109:
 1354 02a8 00F00C00 		and	r0, r0, #12
 1355 02ac 0C28     		cmp	r0, #12
 1356 02ae 44D1     		bne	.L88
 347:.\Valve_Control.c ****             }
 1357              		.loc 1 347 0 is_stmt 1
 1358 02b0 0122     		movs	r2, #1
 1359 02b2 024B     		ldr	r3, .L91
 1360 02b4 1A74     		strb	r2, [r3, #16]
 222:.\Valve_Control.c **** 	
ARM GAS  C:\Users\PANXIA~1\AppData\Local\Temp\ccSHwGSg.s 			page 41


 1361              		.loc 1 222 0
 1362 02b6 0020     		movs	r0, #0
 1363 02b8 10BD     		pop	{r4, pc}
 1364              	.L92:
 1365 02ba 00BF     		.align	2
 1366              	.L91:
 1367 02bc 00000000 		.word	CutReg
 1368 02c0 00000000 		.word	TPDO_OUT_Status
 1369 02c4 00000000 		.word	.LANCHOR2
 1370 02c8 00000000 		.word	TPDO_PROCESS_Status
 1371 02cc 00000000 		.word	.LANCHOR1
 1372              	.L61:
 355:.\Valve_Control.c **** 		CutReg.Cnt = 0;
 1373              		.loc 1 355 0
 1374 02d0 1C4B     		ldr	r3, .L93
 1375 02d2 0522     		movs	r2, #5
 1376 02d4 1A74     		strb	r2, [r3, #16]
 356:.\Valve_Control.c **** 		CutReg.CutTimeStatus = VFast;
 1377              		.loc 1 356 0
 1378 02d6 0020     		movs	r0, #0
 1379 02d8 D881     		strh	r0, [r3, #14]	@ movhi
 357:.\Valve_Control.c **** 		ISR_Stroke_Timer_states =0x00;
 1380              		.loc 1 357 0
 1381 02da 5874     		strb	r0, [r3, #17]
 358:.\Valve_Control.c **** //		MoveLED(1);
 1382              		.loc 1 358 0
 1383 02dc 1A4B     		ldr	r3, .L93+4
 1384 02de 1860     		str	r0, [r3]
 360:.\Valve_Control.c **** 	case Cutting: break;
 1385              		.loc 1 360 0
 1386 02e0 10BD     		pop	{r4, pc}
 1387              	.L62:
 364:.\Valve_Control.c **** 		{
 1388              		.loc 1 364 0
 1389 02e2 FFF7FEFF 		bl	Status_Reg_1_Read
 1390              	.LVL110:
 1391 02e6 00F00C00 		and	r0, r0, #12
 1392 02ea 0428     		cmp	r0, #4
 1393 02ec 04D1     		bne	.L81
 366:.\Valve_Control.c **** 		}
 1394              		.loc 1 366 0
 1395 02ee 0422     		movs	r2, #4
 1396 02f0 144B     		ldr	r3, .L93
 1397 02f2 1A74     		strb	r2, [r3, #16]
 222:.\Valve_Control.c **** 	
 1398              		.loc 1 222 0
 1399 02f4 0020     		movs	r0, #0
 1400 02f6 10BD     		pop	{r4, pc}
 1401              	.L81:
 368:.\Valve_Control.c **** 		{
 1402              		.loc 1 368 0
 1403 02f8 FFF7FEFF 		bl	Status_Reg_1_Read
 1404              	.LVL111:
 1405 02fc 00F00C00 		and	r0, r0, #12
 1406 0300 0828     		cmp	r0, #8
 1407 0302 06D1     		bne	.L82
 370:.\Valve_Control.c ****             CutReg.SToDotFlag = 1;
ARM GAS  C:\Users\PANXIA~1\AppData\Local\Temp\ccSHwGSg.s 			page 42


 1408              		.loc 1 370 0
 1409 0304 0F4B     		ldr	r3, .L93
 1410 0306 0222     		movs	r2, #2
 1411 0308 1A74     		strb	r2, [r3, #16]
 371:.\Valve_Control.c ****            
 1412              		.loc 1 371 0
 1413 030a 0122     		movs	r2, #1
 1414 030c 9A75     		strb	r2, [r3, #22]
 222:.\Valve_Control.c **** 	
 1415              		.loc 1 222 0
 1416 030e 0020     		movs	r0, #0
 1417 0310 10BD     		pop	{r4, pc}
 1418              	.L82:
 374:.\Valve_Control.c **** 		{
 1419              		.loc 1 374 0
 1420 0312 FFF7FEFF 		bl	Status_Reg_1_Read
 1421              	.LVL112:
 1422 0316 00F00C00 		and	r0, r0, #12
 1423 031a 0C28     		cmp	r0, #12
 1424 031c 0FD1     		bne	.L89
 376:.\Valve_Control.c ****             ModeFlag = 1;
 1425              		.loc 1 376 0
 1426 031e 0120     		movs	r0, #1
 1427 0320 084B     		ldr	r3, .L93
 1428 0322 1874     		strb	r0, [r3, #16]
 1429              	.LVL113:
 1430 0324 10BD     		pop	{r4, pc}
 1431              	.LVL114:
 1432              	.L83:
 222:.\Valve_Control.c **** 	
 1433              		.loc 1 222 0
 1434 0326 0020     		movs	r0, #0
 1435 0328 10BD     		pop	{r4, pc}
 1436              	.L84:
 1437 032a 0020     		movs	r0, #0
 1438 032c 10BD     		pop	{r4, pc}
 1439              	.L85:
 1440 032e 0020     		movs	r0, #0
 1441 0330 10BD     		pop	{r4, pc}
 1442              	.L86:
 1443 0332 0020     		movs	r0, #0
 1444 0334 10BD     		pop	{r4, pc}
 1445              	.L87:
 1446 0336 0020     		movs	r0, #0
 1447 0338 10BD     		pop	{r4, pc}
 1448              	.L88:
 1449 033a 0020     		movs	r0, #0
 1450 033c 10BD     		pop	{r4, pc}
 1451              	.L89:
 1452 033e 0020     		movs	r0, #0
 1453              	.LVL115:
 383:.\Valve_Control.c **** 
 1454              		.loc 1 383 0
 1455 0340 10BD     		pop	{r4, pc}
 1456              	.L94:
 1457 0342 00BF     		.align	2
 1458              	.L93:
ARM GAS  C:\Users\PANXIA~1\AppData\Local\Temp\ccSHwGSg.s 			page 43


 1459 0344 00000000 		.word	CutReg
 1460 0348 00000000 		.word	ISR_Stroke_Timer_states
 1461              		.cfi_endproc
 1462              	.LFE64:
 1463              		.size	Stroke_Process, .-Stroke_Process
 1464              		.section	.text.Valve_config,"ax",%progbits
 1465              		.align	2
 1466              		.global	Valve_config
 1467              		.thumb
 1468              		.thumb_func
 1469              		.type	Valve_config, %function
 1470              	Valve_config:
 1471              	.LFB68:
 474:.\Valve_Control.c ****     uint8   key_com = 0x03; 
 1472              		.loc 1 474 0
 1473              		.cfi_startproc
 1474              		@ args = 0, pretend = 0, frame = 0
 1475              		@ frame_needed = 0, uses_anonymous_args = 0
 1476              	.LVL116:
 487:.\Valve_Control.c ****     {
 1477              		.loc 1 487 0
 1478 0000 88B1     		cbz	r0, .L98
 474:.\Valve_Control.c ****     uint8   key_com = 0x03; 
 1479              		.loc 1 474 0
 1480 0002 10B5     		push	{r4, lr}
 1481              		.cfi_def_cfa_offset 8
 1482              		.cfi_offset 4, -8
 1483              		.cfi_offset 14, -4
 1484              	.LVL117:
 500:.\Valve_Control.c ****                     }
 1485              		.loc 1 500 0
 1486 0004 0120     		movs	r0, #1
 1487              	.LVL118:
 1488 0006 FFF7FEFF 		bl	CyDelay
 1489              	.LVL119:
 529:.\Valve_Control.c ****                         switch(step_flag)
 1490              		.loc 1 529 0
 1491 000a 074C     		ldr	r4, .L99
 1492 000c 607A     		ldrb	r0, [r4, #9]	@ zero_extendqisi2
 1493 000e FFF7FEFF 		bl	Control_Reg_1_Write
 1494              	.LVL120:
 1495 0012 627A     		ldrb	r2, [r4, #9]	@ zero_extendqisi2
 1496 0014 054B     		ldr	r3, .L99+4
 1497 0016 1A70     		strb	r2, [r3]
 1498              	.LBB23:
 539:.\Valve_Control.c ****                             }
 1499              		.loc 1 539 0
 1500 0018 054B     		ldr	r3, .L99+8
 1501 001a 5878     		ldrb	r0, [r3, #1]	@ zero_extendqisi2
 1502 001c 054B     		ldr	r3, .L99+12
 1503 001e 1870     		strb	r0, [r3]
 1504 0020 FFF7FEFF 		bl	LCD_DISPLAY
 1505              	.LVL121:
 1506 0024 10BD     		pop	{r4, pc}
 1507              	.LVL122:
 1508              	.L98:
 1509              		.cfi_def_cfa_offset 0
ARM GAS  C:\Users\PANXIA~1\AppData\Local\Temp\ccSHwGSg.s 			page 44


 1510              		.cfi_restore 4
 1511              		.cfi_restore 14
 1512 0026 7047     		bx	lr
 1513              	.L100:
 1514              		.align	2
 1515              	.L99:
 1516 0028 00000000 		.word	CutReg
 1517 002c 00000000 		.word	TPDO_OUT_Status
 1518 0030 00000000 		.word	.LANCHOR2
 1519 0034 00000000 		.word	TPDO_PROCESS_Status
 1520              	.LBE23:
 1521              		.cfi_endproc
 1522              	.LFE68:
 1523              		.size	Valve_config, .-Valve_config
 1524              		.global	FootUP_State
 1525              		.global	FootStart_state
 1526              		.global	LED_Status
 1527              		.comm	CutReg,24,4
 1528              		.section	.rodata
 1529              		.align	2
 1530              		.set	.LANCHOR0,. + 0
 1531              		.type	eepromArray, %object
 1532              		.size	eepromArray, 8
 1533              	eepromArray:
 1534 0000 00000000 		.space	8
 1534      00000000 
 1535              		.data
 1536              		.align	2
 1537              		.set	.LANCHOR2,. + 0
 1538              		.type	LED_Status, %object
 1539              		.size	LED_Status, 6
 1540              	LED_Status:
 1541 0000 01       		.byte	1
 1542 0001 02       		.byte	2
 1543 0002 04       		.byte	4
 1544 0003 08       		.byte	8
 1545 0004 10       		.byte	16
 1546 0005 20       		.byte	32
 1547              		.type	FootStart_state, %object
 1548              		.size	FootStart_state, 1
 1549              	FootStart_state:
 1550 0006 01       		.byte	1
 1551              		.type	FootUP_State, %object
 1552              		.size	FootUP_State, 1
 1553              	FootUP_State:
 1554 0007 01       		.byte	1
 1555              		.section	.rodata.str1.4,"aMS",%progbits,1
 1556              		.align	2
 1557              	.LC0:
 1558 0000 46617374 		.ascii	"Fast\000"
 1558      00
 1559 0005 000000   		.space	3
 1560              	.LC1:
 1561 0008 536C6F77 		.ascii	"Slow\000"
 1561      00
 1562 000d 000000   		.space	3
 1563              	.LC2:
ARM GAS  C:\Users\PANXIA~1\AppData\Local\Temp\ccSHwGSg.s 			page 45


 1564 0010 4B656570 		.ascii	"Keep\000"
 1564      00
 1565 0015 000000   		.space	3
 1566              	.LC3:
 1567 0018 556E6C6F 		.ascii	"Unload\000"
 1567      616400
 1568 001f 00       		.space	1
 1569              	.LC4:
 1570 0020 53746F70 		.ascii	"Stop\000"
 1570      00
 1571 0025 000000   		.space	3
 1572              	.LC5:
 1573 0028 4261636B 		.ascii	"Back\000"
 1573      00
 1574 002d 000000   		.space	3
 1575              	.LC6:
 1576 0030 4572726F 		.ascii	"Error\000"
 1576      7200
 1577 0036 0000     		.bss
 1578              		.align	2
 1579              		.set	.LANCHOR1,. + 0
 1580              		.type	lastValue, %object
 1581              		.size	lastValue, 4
 1582              	lastValue:
 1583 0000 00000000 		.space	4
 1584              		.type	UnloadTime.7503, %object
 1585              		.size	UnloadTime.7503, 2
 1586              	UnloadTime.7503:
 1587 0004 0000     		.space	2
 1588 0006 0000     		.text
 1589              	.Letext0:
 1590              		.file 2 "c:\\program files (x86)\\cypress\\psoc creator\\3.3\\psoc creator\\import\\gnu\\arm\\4.9.
 1591              		.file 3 "c:\\program files (x86)\\cypress\\psoc creator\\3.3\\psoc creator\\import\\gnu\\arm\\4.9.
 1592              		.file 4 "Generated_Source\\PSoC5/cytypes.h"
 1593              		.file 5 ".\\Valve_Control.h"
 1594              		.file 6 ".\\TestSlave.h"
 1595              		.file 7 "Generated_Source\\PSoC5/core_cm3.h"
 1596              		.file 8 "Generated_Source\\PSoC5/EEPROM_1.h"
 1597              		.file 9 "Generated_Source\\PSoC5/Clock_1.h"
 1598              		.file 10 "Generated_Source\\PSoC5/Timer_1.h"
 1599              		.file 11 "Generated_Source\\PSoC5/ISR_Stroke_Timer.h"
 1600              		.file 12 "Generated_Source\\PSoC5/LCD_Char_1.h"
 1601              		.file 13 "Generated_Source\\PSoC5/CyLib.h"
 1602              		.file 14 "Generated_Source\\PSoC5/Status_Reg_1.h"
 1603              		.file 15 "Generated_Source\\PSoC5/Control_Reg_1.h"